(iannotated_data
discourseFile
p1
(dp2
S'annToRawMapping'
p3
(dp4
I0
(I0
tp5
sI1
(I1
tp6
sI2
(I2
tp7
sI3
(I3
tp8
sI4
(I4
tp9
sI5
(I5
tp10
sI6
(I6
tp11
sI7
(I7
tp12
sI8
(I8
tp13
sI9
(I9
tp14
sI10
(I10
tp15
sI11
(I11
tp16
sI12
(I12
tp17
sI13
(I13
tp18
sI14
(I14
tp19
sI15
(I15
tp20
sI16
(I16
tp21
sI17
(I17
tp22
sI18
(I18
tp23
sI19
(I19
tp24
sI20
(I20
tp25
sI21
(I21
tp26
sI22
(I22
tp27
sI23
(I23
tp28
sI24
(I24
tp29
sI25
(I25
tp30
sI26
(I26
tp31
sI27
(I27
tp32
sI28
(I28
tp33
sI29
(I29
tp34
sI30
(I30
tp35
sI31
(I31
tp36
sI32
(I32
tp37
sI33
(I33
tp38
sI34
(I34
tp39
sI35
(I35
tp40
sI36
(I36
tp41
sI37
(I37
tp42
sI38
(I38
tp43
sI39
(I39
tp44
sI40
(I40
tp45
sI41
(I41
tp46
sI42
(I42
tp47
sI43
(I43
tp48
sI44
(I44
tp49
sI45
(I45
tp50
sI46
(I46
tp51
sI47
(I47
tp52
sI48
(I48
tp53
sI49
(I49
tp54
sI50
(I50
tp55
sI51
(I51
tp56
sI52
(I52
tp57
sI53
(I53
tp58
sI54
(I54
tp59
sI55
(I55
tp60
sI56
(I56
tp61
sI57
(I57
tp62
sI58
(I58
tp63
sI59
(I59
tp64
sI60
(I60
tp65
sI61
(I61
tp66
sI62
(I62
tp67
sI63
(I63
tp68
sI64
(I64
tp69
sI65
(I65
tp70
sI66
(I66
tp71
sI67
(I67
tp72
sI68
(I68
tp73
sI69
(I69
tp74
sI70
(I70
tp75
sI71
(I71
tp76
sI72
(I72
tp77
sI73
(I73
tp78
sI74
(I74
tp79
sI75
(I75
tp80
sI76
(I76
tp81
sI77
(I77
tp82
sI78
(I78
tp83
sI79
(I79
tp84
sI80
(I80
tp85
sI81
(I81
tp86
sI82
(I82
tp87
sI83
(I83
tp88
sI84
(I84
tp89
sI85
(I85
tp90
sI86
(I86
tp91
sI87
(I87
tp92
sI88
(I88
tp93
sI89
(I89
tp94
sI90
(I90
tp95
sI91
(I91
tp96
sI92
(I92
tp97
sI93
(I93
tp98
sI94
(I94
tp99
sI95
(I95
tp100
sI96
(I96
tp101
sI97
(I97
tp102
sI98
(I98
tp103
sI99
(I99
tp104
sI100
(I100
tp105
sI101
(I101
tp106
sI102
(I102
tp107
sI103
(I103
tp108
sI104
(I104
tp109
sI105
(I105
tp110
sI106
(I106
tp111
sI107
(I107
tp112
sI108
(I108
tp113
sI109
(I109
tp114
sI110
(I110
tp115
sI111
(I111
tp116
sI112
(I112
tp117
sI113
(I113
tp118
sI114
(I114
tp119
sI115
(I115
tp120
sI116
(I116
tp121
sI117
(I117
tp122
sI118
(I118
tp123
sI119
(I119
tp124
sI120
(I120
tp125
sI121
(I121
tp126
sI122
(I122
tp127
sI123
(I123
tp128
sI124
(I124
tp129
sI125
(I125
tp130
sI126
(I126
tp131
sI127
(I127
tp132
sI128
(I128
tp133
sI129
(I129
tp134
sI130
(I130
tp135
sI131
(I131
tp136
sI132
(I132
tp137
sI133
(I133
tp138
sI134
(I134
tp139
sI135
(I135
tp140
sI136
(I136
tp141
sI137
(I137
tp142
sI138
(I138
tp143
sI139
(I139
tp144
sI140
(I140
tp145
sI141
(I141
tp146
sI142
(I142
tp147
sI143
(I143
tp148
sI144
(I144
tp149
sI145
(I145
tp150
sI146
(I146
tp151
sI147
(I147
tp152
sI148
(I148
tp153
sI149
(I149
tp154
sI150
(I150
tp155
sI151
(I151
tp156
sI152
(I152
tp157
sI153
(I153
tp158
sI154
(I154
tp159
sI155
(I155
tp160
sI156
(I156
tp161
sI157
(I157
tp162
sI158
(I158
tp163
sI159
(I159
tp164
sI160
(I160
tp165
sI161
(I161
tp166
sI162
(I162
tp167
sI163
(I163
tp168
sI164
(I164
tp169
sI165
(I165
tp170
sI166
(I166
tp171
sI167
(I167
tp172
sI168
(I168
tp173
sI169
(I169
tp174
sI170
(I170
tp175
sI171
(I171
tp176
sI172
(I172
tp177
sI173
(I173
tp178
ssS'sentenceList'
p179
(lp180
(issf_api
Sentence
p181
(dp182
S'rootNode'
p183
(lp184
sS'sentenceNum'
p185
I0
sS'wordNumList'
p186
(lp187
I0
aI1
aI2
aI3
aI4
aI5
aI6
aI7
aI8
aI9
aI10
aI11
aI12
aI13
aI14
aI15
aI16
aI17
aI18
aI19
aI20
aI21
aI22
aI23
aI24
aI25
aI26
aI27
asS'nodeDict'
p188
(dp189
S'NP11'
p190
(issf_api
Node
p191
(dp192
S'nodeRelation'
p193
S'k2'
p194
sS'nodeName'
p195
g190
sS'nodeParent'
p196
S'VGF'
p197
sS'nodeLevel'
p198
I-1
sS'chunkNum'
p199
I12
sS'childList'
p200
(lp201
sbsS'VGNN'
p202
(issf_api
Node
p203
(dp204
g193
S'r6-k2'
p205
sg195
g202
sg196
S'NP6'
p206
sg198
I-1
sg199
I5
sg200
(lp207
sbsS'VGF'
p208
(issf_api
Node
p209
(dp210
g193
S'None'
p211
sg195
g208
sg196
g211
sg198
I-1
sg199
I13
sg200
(lp212
sbsS'VGNN2'
p213
(issf_api
Node
p214
(dp215
g193
S'nmod'
p216
sg195
g213
sg196
S'NP7'
p217
sg198
I-1
sg199
I7
sg200
(lp218
sbsS'NP5'
p219
(issf_api
Node
p220
(dp221
g193
S'k2'
p222
sg195
g219
sg196
S'VGNN'
p223
sg198
I-1
sg199
I4
sg200
(lp224
sbsS'NP9'
p225
(issf_api
Node
p226
(dp227
g193
S'k4'
p228
sg195
g225
sg196
S'VGF'
p229
sg198
I-1
sg199
I10
sg200
(lp230
sbsS'NP8'
p231
(issf_api
Node
p232
(dp233
g193
S'k7'
p234
sg195
g231
sg196
S'VGF'
p235
sg198
I-1
sg199
I9
sg200
(lp236
sbsS'BLK'
p237
(issf_api
Node
p238
(dp239
g193
S'rsym'
p240
sg195
g237
sg196
S'VGF'
p241
sg198
I-1
sg199
I14
sg200
(lp242
sbsS'NP10'
p243
(issf_api
Node
p244
(dp245
g193
S'k7t'
p246
sg195
g243
sg196
S'VGF'
p247
sg198
I-1
sg199
I11
sg200
(lp248
sbsS'NP'
p249
(issf_api
Node
p250
(dp251
g193
S'r6'
p252
sg195
g249
sg196
S'NP2'
p253
sg198
I-1
sg199
I0
sg200
(lp254
sbsS'NP4'
p255
(issf_api
Node
p256
(dp257
g193
S'r6'
p258
sg195
g255
sg196
S'NP5'
p259
sg198
I-1
sg199
I3
sg200
(lp260
sbsS'NP7'
p261
(issf_api
Node
p262
(dp263
g193
S'r6'
p264
sg195
g261
sg196
S'NP8'
p265
sg198
I-1
sg199
I8
sg200
(lp266
sbsS'NP6'
p267
(issf_api
Node
p268
(dp269
g193
S'pof'
p270
sg195
g267
sg196
S'VGNN2'
p271
sg198
I-1
sg199
I6
sg200
(lp272
sbsS'NP3'
p273
(issf_api
Node
p274
(dp275
g193
S'nmod'
p276
sg195
g273
sg196
S'NP4'
p277
sg198
I-1
sg199
I2
sg200
(lp278
sbsS'NP2'
p279
(issf_api
Node
p280
(dp281
g193
S'k1'
p282
sg195
g279
sg196
S'VGF'
p283
sg198
I-1
sg199
I1
sg200
(lp284
sbssS'chunkList'
p285
(lp286
(issf_api
Chunk
p287
(dp288
g195
g249
sg199
I0
sS'chunkTag'
p289
S'NP'
p290
sg185
I0
sg186
(lp291
I0
aI1
asS'featureSet'
p292
(issf_api
FeatureSet
p293
(dp294
S'featureDict'
p295
(dp296
S'drel'
p297
S'r6:NP2'
p298
sS'name'
p299
g249
ssbsba(issf_api
Chunk
p300
(dp301
g195
g279
sg199
I1
sg289
S'NP'
p302
sg185
I0
sg186
(lp303
I2
aI3
aI4
asg292
(issf_api
FeatureSet
p304
(dp305
g295
(dp306
S'drel'
p307
S'k1:VGF'
p308
sS'name'
p309
g279
ssbsba(issf_api
Chunk
p310
(dp311
g195
g273
sg199
I2
sg289
S'NP'
p312
sg185
I0
sg186
(lp313
I5
aI6
asg292
(issf_api
FeatureSet
p314
(dp315
g295
(dp316
S'drel'
p317
S'nmod:NP4'
p318
sS'name'
p319
g273
ssbsba(issf_api
Chunk
p320
(dp321
g195
g255
sg199
I3
sg289
S'NP'
p322
sg185
I0
sg186
(lp323
I7
aI8
aI9
asg292
(issf_api
FeatureSet
p324
(dp325
g295
(dp326
S'drel'
p327
S'r6:NP5'
p328
sS'name'
p329
g255
ssbsba(issf_api
Chunk
p330
(dp331
g195
g219
sg199
I4
sg289
S'NP'
p332
sg185
I0
sg186
(lp333
I10
aI11
asg292
(issf_api
FeatureSet
p334
(dp335
g295
(dp336
S'drel'
p337
S'k2:VGNN'
p338
sS'name'
p339
g219
ssbsba(issf_api
Chunk
p340
(dp341
g195
g202
sg199
I5
sg289
S'VGNN'
p342
sg185
I0
sg186
(lp343
I12
aI13
asg292
(issf_api
FeatureSet
p344
(dp345
g295
(dp346
S'drel'
p347
S'r6-k2:NP6'
p348
sS'name'
p349
g202
ssbsba(issf_api
Chunk
p350
(dp351
g195
g267
sg199
I6
sg289
S'NP'
p352
sg185
I0
sg186
(lp353
I14
asg292
(issf_api
FeatureSet
p354
(dp355
g295
(dp356
S'drel'
p357
S'pof:VGNN2'
p358
sS'name'
p359
g267
ssbsba(issf_api
Chunk
p360
(dp361
g195
g213
sg199
I7
sg289
S'VGNN'
p362
sg185
I0
sg186
(lp363
I15
aI16
asg292
(issf_api
FeatureSet
p364
(dp365
g295
(dp366
S'drel'
p367
S'nmod:NP7'
p368
sS'name'
p369
g213
ssbsba(issf_api
Chunk
p370
(dp371
g195
g261
sg199
I8
sg289
S'NP'
p372
sg185
I0
sg186
(lp373
I17
aI18
asg292
(issf_api
FeatureSet
p374
(dp375
g295
(dp376
S'drel'
p377
S'r6:NP8'
p378
sS'name'
p379
g261
ssbsba(issf_api
Chunk
p380
(dp381
g195
g231
sg199
I9
sg289
S'NP'
p382
sg185
I0
sg186
(lp383
I19
aI20
asg292
(issf_api
FeatureSet
p384
(dp385
g295
(dp386
S'drel'
p387
S'k7:VGF'
p388
sS'name'
p389
g231
ssbsba(issf_api
Chunk
p390
(dp391
g195
g225
sg199
I10
sg289
S'NP'
p392
sg185
I0
sg186
(lp393
I21
asg292
(issf_api
FeatureSet
p394
(dp395
g295
(dp396
S'drel'
p397
S'k4:VGF'
p398
sS'name'
p399
g225
ssbsba(issf_api
Chunk
p400
(dp401
g195
g243
sg199
I11
sg289
S'NP'
p402
sg185
I0
sg186
(lp403
I22
aI23
asg292
(issf_api
FeatureSet
p404
(dp405
g295
(dp406
S'drel'
p407
S'k7t:VGF'
p408
sS'name'
p409
g243
ssbsba(issf_api
Chunk
p410
(dp411
g195
g190
sg199
I12
sg289
S'NP'
p412
sg185
I0
sg186
(lp413
I24
asg292
(issf_api
FeatureSet
p414
(dp415
g295
(dp416
S'drel'
p417
S'k2:VGF'
p418
sS'name'
p419
g190
ssbsba(issf_api
Chunk
p420
(dp421
g195
g208
sg199
I13
sg289
S'VGF'
p422
sg185
I0
sg186
(lp423
I25
aI26
asg292
(issf_api
FeatureSet
p424
(dp425
g295
(dp426
S'name'
p427
g208
sS'stype'
p428
S'declarative'
p429
sS'voicetype'
p430
S'active'
p431
ssbsba(issf_api
Chunk
p432
(dp433
g195
g237
sg199
I14
sg289
S'BLK'
p434
sg185
I0
sg186
(lp435
I27
asg292
(issf_api
FeatureSet
p436
(dp437
g295
(dp438
S'drel'
p439
S'rsym:VGF'
p440
sS'name'
p441
g237
ssbsbasba(issf_api
Sentence
p442
(dp443
g183
(lp444
sg185
I1
sg186
(lp445
I28
aI29
aI30
aI31
aI32
aI33
aI34
aI35
aI36
aI37
aI38
aI39
aI40
aI41
aI42
aI43
asg188
(dp446
S'VGNN'
p447
(issf_api
Node
p448
(dp449
g193
S'rt'
p450
sg195
g447
sg196
S'VGF'
p451
sg198
I-1
sg199
I6
sg200
(lp452
sbsS'VGF'
p453
(issf_api
Node
p454
(dp455
g193
g211
sg195
g453
sg196
g211
sg198
I-1
sg199
I7
sg200
(lp456
sbsS'JJP'
p457
(issf_api
Node
p458
(dp459
g193
S'pof'
p460
sg195
g457
sg196
S'VGNN'
p461
sg198
I-1
sg199
I5
sg200
(lp462
sbsS'NP5'
p463
(issf_api
Node
p464
(dp465
g193
S'k2'
p466
sg195
g463
sg196
S'VGNN'
p467
sg198
I-1
sg199
I4
sg200
(lp468
sbsS'BLK'
p469
(issf_api
Node
p470
(dp471
g193
S'rsym'
p472
sg195
g469
sg196
S'VGF'
p473
sg198
I-1
sg199
I8
sg200
(lp474
sbsS'NP'
p475
(issf_api
Node
p476
(dp477
g193
S'sent-adv'
p478
sg195
g475
sg196
S'VGF'
p479
sg198
I-1
sg199
I0
sg200
(lp480
sbsS'NP4'
p481
(issf_api
Node
p482
(dp483
g193
S'r6'
p484
sg195
g481
sg196
S'NP5'
p485
sg198
I-1
sg199
I3
sg200
(lp486
sbsS'NP3'
p487
(issf_api
Node
p488
(dp489
g193
S'k7t'
p490
sg195
g487
sg196
S'VGF'
p491
sg198
I-1
sg199
I2
sg200
(lp492
sbsS'NP2'
p493
(issf_api
Node
p494
(dp495
g193
S'k2'
p496
sg195
g493
sg196
S'VGF'
p497
sg198
I-1
sg199
I1
sg200
(lp498
sbssg285
(lp499
(issf_api
Chunk
p500
(dp501
g195
g475
sg199
I0
sg289
S'NP'
p502
sg185
I1
sg186
(lp503
I28
aI29
asg292
(issf_api
FeatureSet
p504
(dp505
g295
(dp506
S'drel'
p507
S'sent-adv:VGF'
p508
sS'name'
p509
g475
ssbsba(issf_api
Chunk
p510
(dp511
g195
g493
sg199
I1
sg289
S'NP'
p512
sg185
I1
sg186
(lp513
I30
asg292
(issf_api
FeatureSet
p514
(dp515
g295
(dp516
S'drel'
p517
S'k2:VGF'
p518
sS'name'
p519
g493
ssbsba(issf_api
Chunk
p520
(dp521
g195
g487
sg199
I2
sg289
S'NP'
p522
sg185
I1
sg186
(lp523
I31
aI32
aI33
aI34
asg292
(issf_api
FeatureSet
p524
(dp525
g295
(dp526
S'drel'
p527
S'k7t:VGF'
p528
sS'name'
p529
g487
ssbsba(issf_api
Chunk
p530
(dp531
g195
g481
sg199
I3
sg289
S'NP'
p532
sg185
I1
sg186
(lp533
I35
asg292
(issf_api
FeatureSet
p534
(dp535
g295
(dp536
S'drel'
p537
S'r6:NP5'
p538
sS'name'
p539
g481
ssbsba(issf_api
Chunk
p540
(dp541
g195
g463
sg199
I4
sg289
S'NP'
p542
sg185
I1
sg186
(lp543
I36
asg292
(issf_api
FeatureSet
p544
(dp545
g295
(dp546
S'drel'
p547
S'k2:VGNN'
p548
sS'name'
p549
g463
ssbsba(issf_api
Chunk
p550
(dp551
g195
g457
sg199
I5
sg289
S'JJP'
p552
sg185
I1
sg186
(lp553
I37
asg292
(issf_api
FeatureSet
p554
(dp555
g295
(dp556
S'drel'
p557
S'pof:VGNN'
p558
sS'name'
p559
g457
ssbsba(issf_api
Chunk
p560
(dp561
g195
g447
sg199
I6
sg289
S'VGNN'
p562
sg185
I1
sg186
(lp563
I38
aI39
aI40
asg292
(issf_api
FeatureSet
p564
(dp565
g295
(dp566
S'drel'
p567
S'rt:VGF'
p568
sS'name'
p569
g447
ssbsba(issf_api
Chunk
p570
(dp571
g195
g453
sg199
I7
sg289
S'VGF'
p572
sg185
I1
sg186
(lp573
I41
aI42
asg292
(issf_api
FeatureSet
p574
(dp575
g295
(dp576
S'name'
p577
g453
sS'stype'
p578
S'declarative'
p579
sS'voicetype'
p580
S'active'
p581
ssbsba(issf_api
Chunk
p582
(dp583
g195
g469
sg199
I8
sg289
S'BLK'
p584
sg185
I1
sg186
(lp585
I43
asg292
(issf_api
FeatureSet
p586
(dp587
g295
(dp588
S'drel'
p589
S'rsym:VGF'
p590
sS'name'
p591
g469
ssbsbasba(issf_api
Sentence
p592
(dp593
g183
(lp594
sg185
I2
sg186
(lp595
I44
aI45
aI46
aI47
aI48
aI49
aI50
aI51
aI52
aI53
aI54
aI55
aI56
aI57
aI58
aI59
aI60
aI61
aI62
aI63
aI64
aI65
asg188
(dp596
S'VGF'
p597
(issf_api
Node
p598
(dp599
g193
g211
sg195
g597
sg196
g211
sg198
I-1
sg199
I9
sg200
(lp600
sbsS'NP5'
p601
(issf_api
Node
p602
(dp603
g193
S'k4'
p604
sg195
g601
sg196
S'VGF'
p605
sg198
I-1
sg199
I4
sg200
(lp606
sbsS'NP9'
p607
(issf_api
Node
p608
(dp609
g193
S'k7'
p610
sg195
g607
sg196
S'VGF'
p611
sg198
I-1
sg199
I8
sg200
(lp612
sbsS'NP8'
p613
(issf_api
Node
p614
(dp615
g193
S'r6'
p616
sg195
g613
sg196
S'NP9'
p617
sg198
I-1
sg199
I7
sg200
(lp618
sbsS'BLK'
p619
(issf_api
Node
p620
(dp621
g193
S'rsym'
p622
sg195
g619
sg196
S'VGF'
p623
sg198
I-1
sg199
I10
sg200
(lp624
sbsS'NP'
p625
(issf_api
Node
p626
(dp627
g193
S'r6'
p628
sg195
g625
sg196
S'NP2'
p629
sg198
I-1
sg199
I0
sg200
(lp630
sbsS'NP4'
p631
(issf_api
Node
p632
(dp633
g193
S'k1'
p634
sg195
g631
sg196
S'VGF'
p635
sg198
I-1
sg199
I3
sg200
(lp636
sbsS'NP7'
p637
(issf_api
Node
p638
(dp639
g193
S'r6'
p640
sg195
g637
sg196
S'NP8'
p641
sg198
I-1
sg199
I6
sg200
(lp642
sbsS'NP6'
p643
(issf_api
Node
p644
(dp645
g193
S'k2'
p646
sg195
g643
sg196
S'VGF'
p647
sg198
I-1
sg199
I5
sg200
(lp648
sbsS'NP3'
p649
(issf_api
Node
p650
(dp651
g193
S'nmod'
p652
sg195
g649
sg196
S'NP4'
p653
sg198
I-1
sg199
I2
sg200
(lp654
sbsS'NP2'
p655
(issf_api
Node
p656
(dp657
g193
S'r6'
p658
sg195
g655
sg196
S'NP3'
p659
sg198
I-1
sg199
I1
sg200
(lp660
sbssg285
(lp661
(issf_api
Chunk
p662
(dp663
g195
g625
sg199
I0
sg289
S'NP'
p664
sg185
I2
sg186
(lp665
I44
aI45
asg292
(issf_api
FeatureSet
p666
(dp667
g295
(dp668
S'drel'
p669
S'r6:NP2'
p670
sS'name'
p671
g625
ssbsba(issf_api
Chunk
p672
(dp673
g195
g655
sg199
I1
sg289
S'NP'
p674
sg185
I2
sg186
(lp675
I46
aI47
aI48
asg292
(issf_api
FeatureSet
p676
(dp677
g295
(dp678
S'drel'
p679
S'r6:NP3'
p680
sS'name'
p681
g655
ssbsba(issf_api
Chunk
p682
(dp683
g195
g649
sg199
I2
sg289
S'NP'
p684
sg185
I2
sg186
(lp685
I49
asg292
(issf_api
FeatureSet
p686
(dp687
g295
(dp688
S'drel'
p689
S'nmod:NP4'
p690
sS'name'
p691
g649
ssbsba(issf_api
Chunk
p692
(dp693
g195
g631
sg199
I3
sg289
S'NP'
p694
sg185
I2
sg186
(lp695
I50
aI51
aI52
asg292
(issf_api
FeatureSet
p696
(dp697
g295
(dp698
S'drel'
p699
S'k1:VGF'
p700
sS'name'
p701
g631
ssbsba(issf_api
Chunk
p702
(dp703
g195
g601
sg199
I4
sg289
S'NP'
p704
sg185
I2
sg186
(lp705
I53
aI54
aI55
asg292
(issf_api
FeatureSet
p706
(dp707
g295
(dp708
S'drel'
p709
S'k4:VGF'
p710
sS'name'
p711
g601
ssbsba(issf_api
Chunk
p712
(dp713
g195
g643
sg199
I5
sg289
S'NP'
p714
sg185
I2
sg186
(lp715
I56
aI57
asg292
(issf_api
FeatureSet
p716
(dp717
g295
(dp718
S'drel'
p719
S'k2:VGF'
p720
sS'name'
p721
g643
ssbsba(issf_api
Chunk
p722
(dp723
g195
g637
sg199
I6
sg289
S'NP'
p724
sg185
I2
sg186
(lp725
I58
asg292
(issf_api
FeatureSet
p726
(dp727
g295
(dp728
S'drel'
p729
S'r6:NP8'
p730
sS'name'
p731
g637
ssbsba(issf_api
Chunk
p732
(dp733
g195
g613
sg199
I7
sg289
S'NP'
p734
sg185
I2
sg186
(lp735
I59
aI60
asg292
(issf_api
FeatureSet
p736
(dp737
g295
(dp738
S'drel'
p739
S'r6:NP9'
p740
sS'name'
p741
g613
ssbsba(issf_api
Chunk
p742
(dp743
g195
g607
sg199
I8
sg289
S'NP'
p744
sg185
I2
sg186
(lp745
I61
aI62
asg292
(issf_api
FeatureSet
p746
(dp747
g295
(dp748
S'drel'
p749
S'k7:VGF'
p750
sS'name'
p751
g607
ssbsba(issf_api
Chunk
p752
(dp753
g195
g597
sg199
I9
sg289
S'VGF'
p754
sg185
I2
sg186
(lp755
I63
aI64
asg292
(issf_api
FeatureSet
p756
(dp757
g295
(dp758
S'name'
p759
g597
sS'stype'
p760
S'declarative'
p761
sS'voicetype'
p762
S'active'
p763
ssbsba(issf_api
Chunk
p764
(dp765
g195
g619
sg199
I10
sg289
S'BLK'
p766
sg185
I2
sg186
(lp767
I65
asg292
(issf_api
FeatureSet
p768
(dp769
g295
(dp770
S'drel'
p771
S'rsym:VGF'
p772
sS'name'
p773
g619
ssbsbasba(issf_api
Sentence
p774
(dp775
g183
(lp776
sg185
I3
sg186
(lp777
I66
aI67
aI68
aI69
aI70
aI71
aI72
aI73
aI74
aI75
aI76
aI77
aI78
aI79
aI80
aI81
aI82
aI83
aI84
aI85
aI86
aI87
aI88
aI89
aI90
aI91
aI92
aI93
aI94
aI95
asg188
(dp778
S'VGNN3'
p779
(issf_api
Node
p780
(dp781
g193
S'rt'
p782
sg195
g779
sg196
S'VGF2'
p783
sg198
I-1
sg199
I14
sg200
(lp784
sbsS'VGNN'
p785
(issf_api
Node
p786
(dp787
g193
S'r6-k2'
p788
sg195
g785
sg196
S'NP3'
p789
sg198
I-1
sg199
I4
sg200
(lp790
sbsS'VGF'
p791
(issf_api
Node
p792
(dp793
g193
g211
sg195
g791
sg196
g211
sg198
I-1
sg199
I1
sg200
(lp794
sbsS'CCP'
p795
(issf_api
Node
p796
(dp797
g193
S'k2'
p798
sg195
g795
sg196
S'VGF'
p799
sg198
I-1
sg199
I2
sg200
(lp800
sbsS'VGF2'
p801
(issf_api
Node
p802
(dp803
g193
S'ccof'
p804
sg195
g801
sg196
S'CCP'
p805
sg198
I-1
sg199
I15
sg200
(lp806
sbsS'VGNN2'
p807
(issf_api
Node
p808
(dp809
g193
S'nmod'
p810
sg195
g807
sg196
S'NP4'
p811
sg198
I-1
sg199
I6
sg200
(lp812
sbsS'NP5'
p813
(issf_api
Node
p814
(dp815
g193
S'r6'
p816
sg195
g813
sg196
S'NP6'
p817
sg198
I-1
sg199
I8
sg200
(lp818
sbsS'NP9'
p819
(issf_api
Node
p820
(dp821
g193
S'r6'
p822
sg195
g819
sg196
S'NP10'
p823
sg198
I-1
sg199
I12
sg200
(lp824
sbsS'NP8'
p825
(issf_api
Node
p826
(dp827
g193
S'k7t'
p828
sg195
g825
sg196
S'VGF2'
p829
sg198
I-1
sg199
I11
sg200
(lp830
sbsS'BLK'
p831
(issf_api
Node
p832
(dp833
g193
S'rsym'
p834
sg195
g831
sg196
S'VGF'
p835
sg198
I-1
sg199
I16
sg200
(lp836
sbsS'NP10'
p837
(issf_api
Node
p838
(dp839
g193
S'k2'
p840
sg195
g837
sg196
S'VGNN3'
p841
sg198
I-1
sg199
I13
sg200
(lp842
sbsS'NP'
p843
(issf_api
Node
p844
(dp845
g193
S'k1'
p846
sg195
g843
sg196
S'VGF'
p847
sg198
I-1
sg199
I0
sg200
(lp848
sbsS'NP4'
p849
(issf_api
Node
p850
(dp851
g193
S'r6'
p852
sg195
g849
sg196
S'NP5'
p853
sg198
I-1
sg199
I7
sg200
(lp854
sbsS'NP7'
p855
(issf_api
Node
p856
(dp857
g193
S'k1'
p858
sg195
g855
sg196
S'VGF2'
p859
sg198
I-1
sg199
I10
sg200
(lp860
sbsS'NP6'
p861
(issf_api
Node
p862
(dp863
g193
S'k7'
p864
sg195
g861
sg196
S'VGF2'
p865
sg198
I-1
sg199
I9
sg200
(lp866
sbsS'NP3'
p867
(issf_api
Node
p868
(dp869
g193
S'pof'
p870
sg195
g867
sg196
S'VGNN2'
p871
sg198
I-1
sg199
I5
sg200
(lp872
sbsS'NP2'
p873
(issf_api
Node
p874
(dp875
g193
S'k2'
p876
sg195
g873
sg196
S'VGNN'
p877
sg198
I-1
sg199
I3
sg200
(lp878
sbssg285
(lp879
(issf_api
Chunk
p880
(dp881
g195
g843
sg199
I0
sg289
S'NP'
p882
sg185
I3
sg186
(lp883
I66
asg292
(issf_api
FeatureSet
p884
(dp885
g295
(dp886
S'drel'
p887
S'k1:VGF'
p888
sS'name'
p889
g843
ssbsba(issf_api
Chunk
p890
(dp891
g195
g791
sg199
I1
sg289
S'VGF'
p892
sg185
I3
sg186
(lp893
I67
asg292
(issf_api
FeatureSet
p894
(dp895
g295
(dp896
S'name'
p897
g791
sS'stype'
p898
S'declarative'
p899
sS'voicetype'
p900
S'active'
p901
ssbsba(issf_api
Chunk
p902
(dp903
g195
g795
sg199
I2
sg289
S'CCP'
p904
sg185
I3
sg186
(lp905
I68
asg292
(issf_api
FeatureSet
p906
(dp907
g295
(dp908
S'drel'
p909
S'k2:VGF'
p910
sS'name'
p911
g795
ssbsba(issf_api
Chunk
p912
(dp913
g195
g873
sg199
I3
sg289
S'NP'
p914
sg185
I3
sg186
(lp915
I69
aI70
asg292
(issf_api
FeatureSet
p916
(dp917
g295
(dp918
S'drel'
p919
S'k2:VGNN'
p920
sS'name'
p921
g873
ssbsba(issf_api
Chunk
p922
(dp923
g195
g785
sg199
I4
sg289
S'VGNN'
p924
sg185
I3
sg186
(lp925
I71
aI72
asg292
(issf_api
FeatureSet
p926
(dp927
g295
(dp928
S'drel'
p929
S'r6-k2:NP3'
p930
sS'name'
p931
g785
ssbsba(issf_api
Chunk
p932
(dp933
g195
g867
sg199
I5
sg289
S'NP'
p934
sg185
I3
sg186
(lp935
I73
asg292
(issf_api
FeatureSet
p936
(dp937
g295
(dp938
S'drel'
p939
S'pof:VGNN2'
p940
sS'name'
p941
g867
ssbsba(issf_api
Chunk
p942
(dp943
g195
g807
sg199
I6
sg289
S'VGNN'
p944
sg185
I3
sg186
(lp945
I74
aI75
asg292
(issf_api
FeatureSet
p946
(dp947
g295
(dp948
S'drel'
p949
S'nmod:NP4'
p950
sS'name'
p951
g807
ssbsba(issf_api
Chunk
p952
(dp953
g195
g849
sg199
I7
sg289
S'NP'
p954
sg185
I3
sg186
(lp955
I76
aI77
aI78
asg292
(issf_api
FeatureSet
p956
(dp957
g295
(dp958
S'drel'
p959
S'r6:NP5'
p960
sS'name'
p961
g849
ssbsba(issf_api
Chunk
p962
(dp963
g195
g813
sg199
I8
sg289
S'NP'
p964
sg185
I3
sg186
(lp965
I79
aI80
asg292
(issf_api
FeatureSet
p966
(dp967
g295
(dp968
S'drel'
p969
S'r6:NP6'
p970
sS'name'
p971
g813
ssbsba(issf_api
Chunk
p972
(dp973
g195
g861
sg199
I9
sg289
S'NP'
p974
sg185
I3
sg186
(lp975
I81
aI82
asg292
(issf_api
FeatureSet
p976
(dp977
g295
(dp978
S'drel'
p979
S'k7:VGF2'
p980
sS'name'
p981
g861
ssbsba(issf_api
Chunk
p982
(dp983
g195
g855
sg199
I10
sg289
S'NP'
p984
sg185
I3
sg186
(lp985
I83
asg292
(issf_api
FeatureSet
p986
(dp987
g295
(dp988
S'drel'
p989
S'k1:VGF2'
p990
sS'name'
p991
g855
ssbsba(issf_api
Chunk
p992
(dp993
g195
g825
sg199
I11
sg289
S'NP'
p994
sg185
I3
sg186
(lp995
I84
aI85
aI86
aI87
asg292
(issf_api
FeatureSet
p996
(dp997
g295
(dp998
S'drel'
p999
S'k7t:VGF2'
p1000
sS'name'
p1001
g825
ssbsba(issf_api
Chunk
p1002
(dp1003
g195
g819
sg199
I12
sg289
S'NP'
p1004
sg185
I3
sg186
(lp1005
I88
asg292
(issf_api
FeatureSet
p1006
(dp1007
g295
(dp1008
S'drel'
p1009
S'r6:NP10'
p1010
sS'name'
p1011
g819
ssbsba(issf_api
Chunk
p1012
(dp1013
g195
g837
sg199
I13
sg289
S'NP'
p1014
sg185
I3
sg186
(lp1015
I89
asg292
(issf_api
FeatureSet
p1016
(dp1017
g295
(dp1018
S'drel'
p1019
S'k2:VGNN3'
p1020
sS'name'
p1021
g837
ssbsba(issf_api
Chunk
p1022
(dp1023
g195
g779
sg199
I14
sg289
S'VGNN'
p1024
sg185
I3
sg186
(lp1025
I90
aI91
aI92
asg292
(issf_api
FeatureSet
p1026
(dp1027
g295
(dp1028
S'drel'
p1029
S'rt:VGF2'
p1030
sS'name'
p1031
g779
ssbsba(issf_api
Chunk
p1032
(dp1033
g195
g801
sg199
I15
sg289
S'VGF'
p1034
sg185
I3
sg186
(lp1035
I93
aI94
asg292
(issf_api
FeatureSet
p1036
(dp1037
g295
(dp1038
S'voicetype'
p1039
S"active'"
p1040
sS'drel'
p1041
S'ccof:CCP'
p1042
sS'stype'
p1043
S'declarative'
p1044
sS'name'
p1045
g801
ssbsba(issf_api
Chunk
p1046
(dp1047
g195
g831
sg199
I16
sg289
S'BLK'
p1048
sg185
I3
sg186
(lp1049
I95
asg292
(issf_api
FeatureSet
p1050
(dp1051
g295
(dp1052
S'drel'
p1053
S'rsym:VGF'
p1054
sS'name'
p1055
g831
ssbsbasba(issf_api
Sentence
p1056
(dp1057
g183
(lp1058
sg185
I4
sg186
(lp1059
I96
aI97
aI98
aI99
aI100
aI101
aI102
aI103
aI104
aI105
aI106
aI107
aI108
aI109
asg188
(dp1060
S'VGF'
p1061
(issf_api
Node
p1062
(dp1063
g193
g211
sg195
g1061
sg196
g211
sg198
I-1
sg199
I6
sg200
(lp1064
sbsS'JJP'
p1065
(issf_api
Node
p1066
(dp1067
g193
S'pof'
p1068
sg195
g1065
sg196
S'VGF'
p1069
sg198
I-1
sg199
I5
sg200
(lp1070
sbsS'NP5'
p1071
(issf_api
Node
p1072
(dp1073
g193
S'vmod'
p1074
sg195
g1071
sg196
S'VGF'
p1075
sg198
I-1
sg199
I4
sg200
(lp1076
sbsS'BLK'
p1077
(issf_api
Node
p1078
(dp1079
g193
S'rsym'
p1080
sg195
g1077
sg196
S'VGF'
p1081
sg198
I-1
sg199
I7
sg200
(lp1082
sbsS'NP'
p1083
(issf_api
Node
p1084
(dp1085
g193
S'k1'
p1086
sg195
g1083
sg196
S'VGF'
p1087
sg198
I-1
sg199
I0
sg200
(lp1088
sbsS'NP4'
p1089
(issf_api
Node
p1090
(dp1091
g193
S'k2'
p1092
sg195
g1089
sg196
S'VGF'
p1093
sg198
I-1
sg199
I3
sg200
(lp1094
sbsS'NP3'
p1095
(issf_api
Node
p1096
(dp1097
g193
S'r6'
p1098
sg195
g1095
sg196
S'NP4'
p1099
sg198
I-1
sg199
I2
sg200
(lp1100
sbsS'NP2'
p1101
(issf_api
Node
p1102
(dp1103
g193
S'k7t'
p1104
sg195
g1101
sg196
S'VGF'
p1105
sg198
I-1
sg199
I1
sg200
(lp1106
sbssg285
(lp1107
(issf_api
Chunk
p1108
(dp1109
g195
g1083
sg199
I0
sg289
S'NP'
p1110
sg185
I4
sg186
(lp1111
I96
aI97
asg292
(issf_api
FeatureSet
p1112
(dp1113
g295
(dp1114
S'drel'
p1115
S'k1:VGF'
p1116
sS'name'
p1117
g1083
ssbsba(issf_api
Chunk
p1118
(dp1119
g195
g1101
sg199
I1
sg289
S'NP'
p1120
sg185
I4
sg186
(lp1121
I98
aI99
asg292
(issf_api
FeatureSet
p1122
(dp1123
g295
(dp1124
S'drel'
p1125
S'k7t:VGF'
p1126
sS'name'
p1127
g1101
ssbsba(issf_api
Chunk
p1128
(dp1129
g195
g1095
sg199
I2
sg289
S'NP'
p1130
sg185
I4
sg186
(lp1131
I100
aI101
asg292
(issf_api
FeatureSet
p1132
(dp1133
g295
(dp1134
S'drel'
p1135
S'r6:NP4'
p1136
sS'name'
p1137
g1095
ssbsba(issf_api
Chunk
p1138
(dp1139
g195
g1089
sg199
I3
sg289
S'NP'
p1140
sg185
I4
sg186
(lp1141
I102
aI103
asg292
(issf_api
FeatureSet
p1142
(dp1143
g295
(dp1144
S'drel'
p1145
S'k2:VGF'
p1146
sS'name'
p1147
g1089
ssbsba(issf_api
Chunk
p1148
(dp1149
g195
g1071
sg199
I4
sg289
S'NP'
p1150
sg185
I4
sg186
(lp1151
I104
aI105
asg292
(issf_api
FeatureSet
p1152
(dp1153
g295
(dp1154
S'drel'
p1155
S'vmod:VGF'
p1156
sS'name'
p1157
g1071
ssbsba(issf_api
Chunk
p1158
(dp1159
g195
g1065
sg199
I5
sg289
S'JJP'
p1160
sg185
I4
sg186
(lp1161
I106
asg292
(issf_api
FeatureSet
p1162
(dp1163
g295
(dp1164
S'drel'
p1165
S'pof:VGF'
p1166
sS'name'
p1167
g1065
ssbsba(issf_api
Chunk
p1168
(dp1169
g195
g1061
sg199
I6
sg289
S'VGF'
p1170
sg185
I4
sg186
(lp1171
I107
aI108
asg292
(issf_api
FeatureSet
p1172
(dp1173
g295
(dp1174
S'name'
p1175
g1061
sS'stype'
p1176
S'declarative'
p1177
sS'voicetype'
p1178
S'active'
p1179
ssbsba(issf_api
Chunk
p1180
(dp1181
g195
g1077
sg199
I7
sg289
S'BLK'
p1182
sg185
I4
sg186
(lp1183
I109
asg292
(issf_api
FeatureSet
p1184
(dp1185
g295
(dp1186
S'drel'
p1187
S'rsym:VGF'
p1188
sS'name'
p1189
g1077
ssbsbasba(issf_api
Sentence
p1190
(dp1191
g183
(lp1192
sg185
I5
sg186
(lp1193
I110
aI111
aI112
aI113
aI114
aI115
aI116
aI117
aI118
aI119
aI120
aI121
aI122
aI123
aI124
aI125
aI126
aI127
aI128
aI129
aI130
aI131
aI132
aI133
aI134
aI135
aI136
aI137
aI138
aI139
aI140
asg188
(dp1194
S'VGNF'
p1195
(issf_api
Node
p1196
(dp1197
g193
S'vmod'
p1198
sg195
g1195
sg196
S'VGF2'
p1199
sg198
I-1
sg199
I8
sg200
(lp1200
sbsS'VGF'
p1201
(issf_api
Node
p1202
(dp1203
g193
g211
sg195
g1201
sg196
g211
sg198
I-1
sg199
I1
sg200
(lp1204
sbsS'VGF3'
p1205
(issf_api
Node
p1206
(dp1207
g193
S'ccof'
p1208
sg195
g1205
sg196
S'CCP3'
p1209
sg198
I-1
sg199
I15
sg200
(lp1210
sbsS'CCP'
p1211
(issf_api
Node
p1212
(dp1213
g193
S'k2'
p1214
sg195
g1211
sg196
S'VGF'
p1215
sg198
I-1
sg199
I2
sg200
(lp1216
sbsS'VGF2'
p1217
(issf_api
Node
p1218
(dp1219
g193
S'ccof'
p1220
sg195
g1217
sg196
S'CCP'
p1221
sg198
I-1
sg199
I9
sg200
(lp1222
sbsS'NP5'
p1223
(issf_api
Node
p1224
(dp1225
g193
S'ccof'
p1226
sg195
g1223
sg196
S'CCP2'
p1227
sg198
I-1
sg199
I7
sg200
(lp1228
sbsS'NP9'
p1229
(issf_api
Node
p1230
(dp1231
g193
S'pof'
p1232
sg195
g1229
sg196
S'VGF3'
p1233
sg198
I-1
sg199
I14
sg200
(lp1234
sbsS'NP8'
p1235
(issf_api
Node
p1236
(dp1237
g193
S'ras-k1'
p1238
sg195
g1235
sg196
S'VGF3'
p1239
sg198
I-1
sg199
I13
sg200
(lp1240
sbsS'BLK'
p1241
(issf_api
Node
p1242
(dp1243
g193
S'rsym'
p1244
sg195
g1241
sg196
S'VGF'
p1245
sg198
I-1
sg199
I16
sg200
(lp1246
sbsS'NP'
p1247
(issf_api
Node
p1248
(dp1249
g193
S'k1'
p1250
sg195
g1247
sg196
S'VGF'
p1251
sg198
I-1
sg199
I0
sg200
(lp1252
sbsS'NP4'
p1253
(issf_api
Node
p1254
(dp1255
g193
S'ccof'
p1256
sg195
g1253
sg196
S'CCP2'
p1257
sg198
I-1
sg199
I5
sg200
(lp1258
sbsS'NP7'
p1259
(issf_api
Node
p1260
(dp1261
g193
S'r6'
p1262
sg195
g1259
sg196
S'NP8'
p1263
sg198
I-1
sg199
I12
sg200
(lp1264
sbsS'NP6'
p1265
(issf_api
Node
p1266
(dp1267
g193
S'nmod'
p1268
sg195
g1265
sg196
S'NP7'
p1269
sg198
I-1
sg199
I11
sg200
(lp1270
sbsS'CCP2'
p1271
(issf_api
Node
p1272
(dp1273
g193
S'k2'
p1274
sg195
g1271
sg196
S'VGNF'
p1275
sg198
I-1
sg199
I6
sg200
(lp1276
sbsS'CCP3'
p1277
(issf_api
Node
p1278
(dp1279
g193
S'k2'
p1280
sg195
g1277
sg196
S'VGF2'
p1281
sg198
I-1
sg199
I10
sg200
(lp1282
sbsS'NP3'
p1283
(issf_api
Node
p1284
(dp1285
g193
S'ccof'
p1286
sg195
g1283
sg196
S'CCP2'
p1287
sg198
I-1
sg199
I4
sg200
(lp1288
sbsS'NP2'
p1289
(issf_api
Node
p1290
(dp1291
g193
S'r6'
p1292
sg195
g1289
sg196
S'NP3'
p1293
sg198
I-1
sg199
I3
sg200
(lp1294
sbssg285
(lp1295
(issf_api
Chunk
p1296
(dp1297
g195
g1247
sg199
I0
sg289
S'NP'
p1298
sg185
I5
sg186
(lp1299
I110
aI111
aI112
asg292
(issf_api
FeatureSet
p1300
(dp1301
g295
(dp1302
S'drel'
p1303
S'k1:VGF'
p1304
sS'name'
p1305
g1247
ssbsba(issf_api
Chunk
p1306
(dp1307
g195
g1201
sg199
I1
sg289
S'VGF'
p1308
sg185
I5
sg186
(lp1309
I113
asg292
(issf_api
FeatureSet
p1310
(dp1311
g295
(dp1312
S'name'
p1313
g1201
sS'stype'
p1314
S'declarative'
p1315
sS'voicetype'
p1316
S'active'
p1317
ssbsba(issf_api
Chunk
p1318
(dp1319
g195
g1211
sg199
I2
sg289
S'CCP'
p1320
sg185
I5
sg186
(lp1321
I114
asg292
(issf_api
FeatureSet
p1322
(dp1323
g295
(dp1324
S'drel'
p1325
S'k2:VGF'
p1326
sS'name'
p1327
g1211
ssbsba(issf_api
Chunk
p1328
(dp1329
g195
g1289
sg199
I3
sg289
S'NP'
p1330
sg185
I5
sg186
(lp1331
I115
aI116
asg292
(issf_api
FeatureSet
p1332
(dp1333
g295
(dp1334
S'drel'
p1335
S'r6:NP3'
p1336
sS'name'
p1337
g1289
ssbsba(issf_api
Chunk
p1338
(dp1339
g195
g1283
sg199
I4
sg289
S'NP'
p1340
sg185
I5
sg186
(lp1341
I117
aI118
asg292
(issf_api
FeatureSet
p1342
(dp1343
g295
(dp1344
S'drel'
p1345
S'ccof:CCP2'
p1346
sS'name'
p1347
g1283
ssbsba(issf_api
Chunk
p1348
(dp1349
g195
g1253
sg199
I5
sg289
S'NP'
p1350
sg185
I5
sg186
(lp1351
I119
aI120
asg292
(issf_api
FeatureSet
p1352
(dp1353
g295
(dp1354
S'drel'
p1355
S'ccof:CCP2'
p1356
sS'name'
p1357
g1253
ssbsba(issf_api
Chunk
p1358
(dp1359
g195
g1271
sg199
I6
sg289
S'CCP'
p1360
sg185
I5
sg186
(lp1361
I121
asg292
(issf_api
FeatureSet
p1362
(dp1363
g295
(dp1364
S'drel'
p1365
S'k2:VGNF'
p1366
sS'name'
p1367
g1271
ssbsba(issf_api
Chunk
p1368
(dp1369
g195
g1223
sg199
I7
sg289
S'NP'
p1370
sg185
I5
sg186
(lp1371
I122
aI123
aI124
aI125
asg292
(issf_api
FeatureSet
p1372
(dp1373
g295
(dp1374
S'drel'
p1375
S'ccof:CCP2'
p1376
sS'name'
p1377
g1223
ssbsba(issf_api
Chunk
p1378
(dp1379
g195
g1195
sg199
I8
sg289
S'VGNF'
p1380
sg185
I5
sg186
(lp1381
I126
aI127
asg292
(issf_api
FeatureSet
p1382
(dp1383
g295
(dp1384
S'drel'
p1385
S'vmod:VGF2'
p1386
sS'name'
p1387
g1195
ssbsba(issf_api
Chunk
p1388
(dp1389
g195
g1217
sg199
I9
sg289
S'VGF'
p1390
sg185
I5
sg186
(lp1391
I128
aI129
asg292
(issf_api
FeatureSet
p1392
(dp1393
g295
(dp1394
S'voicetype'
p1395
S"active'"
p1396
sS'drel'
p1397
S'ccof:CCP'
p1398
sS'stype'
p1399
S'declarative'
p1400
sS'name'
p1401
g1217
ssbsba(issf_api
Chunk
p1402
(dp1403
g195
g1277
sg199
I10
sg289
S'CCP'
p1404
sg185
I5
sg186
(lp1405
I130
asg292
(issf_api
FeatureSet
p1406
(dp1407
g295
(dp1408
S'drel'
p1409
S'k2:VGF2'
p1410
sS'name'
p1411
g1277
ssbsba(issf_api
Chunk
p1412
(dp1413
g195
g1265
sg199
I11
sg289
S'NP'
p1414
sg185
I5
sg186
(lp1415
I131
asg292
(issf_api
FeatureSet
p1416
(dp1417
g295
(dp1418
S'drel'
p1419
S'nmod:NP7'
p1420
sS'name'
p1421
g1265
ssbsba(issf_api
Chunk
p1422
(dp1423
g195
g1259
sg199
I12
sg289
S'NP'
p1424
sg185
I5
sg186
(lp1425
I132
aI133
aI134
asg292
(issf_api
FeatureSet
p1426
(dp1427
g295
(dp1428
S'drel'
p1429
S'r6:NP8'
p1430
sS'name'
p1431
g1259
ssbsba(issf_api
Chunk
p1432
(dp1433
g195
g1235
sg199
I13
sg289
S'NP'
p1434
sg185
I5
sg186
(lp1435
I135
aI136
asg292
(issf_api
FeatureSet
p1436
(dp1437
g295
(dp1438
S'drel'
p1439
S'ras-k1:VGF3'
p1440
sS'name'
p1441
g1235
ssbsba(issf_api
Chunk
p1442
(dp1443
g195
g1229
sg199
I14
sg289
S'NP'
p1444
sg185
I5
sg186
(lp1445
I137
asg292
(issf_api
FeatureSet
p1446
(dp1447
g295
(dp1448
S'drel'
p1449
S'pof:VGF3'
p1450
sS'name'
p1451
g1229
ssbsba(issf_api
Chunk
p1452
(dp1453
g195
g1205
sg199
I15
sg289
S'VGF'
p1454
sg185
I5
sg186
(lp1455
I138
aI139
asg292
(issf_api
FeatureSet
p1456
(dp1457
g295
(dp1458
S'voicetype'
p1459
S"active'"
p1460
sS'drel'
p1461
S'ccof:CCP3'
p1462
sS'stype'
p1463
S'declarative'
p1464
sS'name'
p1465
g1205
ssbsba(issf_api
Chunk
p1466
(dp1467
g195
g1241
sg199
I16
sg289
S'BLK'
p1468
sg185
I5
sg186
(lp1469
I140
asg292
(issf_api
FeatureSet
p1470
(dp1471
g295
(dp1472
S'drel'
p1473
S'rsym:VGF'
p1474
sS'name'
p1475
g1241
ssbsbasba(issf_api
Sentence
p1476
(dp1477
g183
(lp1478
sg185
I6
sg186
(lp1479
I141
aI142
aI143
aI144
aI145
aI146
aI147
aI148
aI149
aI150
aI151
aI152
asg188
(dp1480
S'VGF'
p1481
(issf_api
Node
p1482
(dp1483
g193
g211
sg195
g1481
sg196
g211
sg198
I-1
sg199
I1
sg200
(lp1484
sbsS'CCP'
p1485
(issf_api
Node
p1486
(dp1487
g193
S'k2'
p1488
sg195
g1485
sg196
S'VGF'
p1489
sg198
I-1
sg199
I2
sg200
(lp1490
sbsS'VGF2'
p1491
(issf_api
Node
p1492
(dp1493
g193
S'ccof'
p1494
sg195
g1491
sg196
S'CCP'
p1495
sg198
I-1
sg199
I7
sg200
(lp1496
sbsS'NP5'
p1497
(issf_api
Node
p1498
(dp1499
g193
S'pof'
p1500
sg195
g1497
sg196
S'VGF2'
p1501
sg198
I-1
sg199
I6
sg200
(lp1502
sbsS'BLK'
p1503
(issf_api
Node
p1504
(dp1505
g193
S'rsym'
p1506
sg195
g1503
sg196
S'VGF'
p1507
sg198
I-1
sg199
I8
sg200
(lp1508
sbsS'NP'
p1509
(issf_api
Node
p1510
(dp1511
g193
S'k1'
p1512
sg195
g1509
sg196
S'VGF'
p1513
sg198
I-1
sg199
I0
sg200
(lp1514
sbsS'NP4'
p1515
(issf_api
Node
p1516
(dp1517
g193
S'k7t'
p1518
sg195
g1515
sg196
S'VGF2'
p1519
sg198
I-1
sg199
I5
sg200
(lp1520
sbsS'NP3'
p1521
(issf_api
Node
p1522
(dp1523
g193
S'k7'
p1524
sg195
g1521
sg196
S'VGF2'
p1525
sg198
I-1
sg199
I4
sg200
(lp1526
sbsS'NP2'
p1527
(issf_api
Node
p1528
(dp1529
g193
S'k1'
p1530
sg195
g1527
sg196
S'VGF2'
p1531
sg198
I-1
sg199
I3
sg200
(lp1532
sbssg285
(lp1533
(issf_api
Chunk
p1534
(dp1535
g195
g1509
sg199
I0
sg289
S'NP'
p1536
sg185
I6
sg186
(lp1537
I141
asg292
(issf_api
FeatureSet
p1538
(dp1539
g295
(dp1540
S'drel'
p1541
S'k1:VGF'
p1542
sS'name'
p1543
g1509
ssbsba(issf_api
Chunk
p1544
(dp1545
g195
g1481
sg199
I1
sg289
S'VGF'
p1546
sg185
I6
sg186
(lp1547
I142
asg292
(issf_api
FeatureSet
p1548
(dp1549
g295
(dp1550
S'name'
p1551
g1481
sS'stype'
p1552
S'declarative'
p1553
sS'voicetype'
p1554
S'active'
p1555
ssbsba(issf_api
Chunk
p1556
(dp1557
g195
g1485
sg199
I2
sg289
S'CCP'
p1558
sg185
I6
sg186
(lp1559
I143
asg292
(issf_api
FeatureSet
p1560
(dp1561
g295
(dp1562
S'drel'
p1563
S'k2:VGF'
p1564
sS'name'
p1565
g1485
ssbsba(issf_api
Chunk
p1566
(dp1567
g195
g1527
sg199
I3
sg289
S'NP'
p1568
sg185
I6
sg186
(lp1569
I144
asg292
(issf_api
FeatureSet
p1570
(dp1571
g295
(dp1572
S'drel'
p1573
S'k1:VGF2'
p1574
sS'name'
p1575
g1527
ssbsba(issf_api
Chunk
p1576
(dp1577
g195
g1521
sg199
I4
sg289
S'NP'
p1578
sg185
I6
sg186
(lp1579
I145
aI146
aI147
asg292
(issf_api
FeatureSet
p1580
(dp1581
g295
(dp1582
S'drel'
p1583
S'k7:VGF2'
p1584
sS'name'
p1585
g1521
ssbsba(issf_api
Chunk
p1586
(dp1587
g195
g1515
sg199
I5
sg289
S'NP'
p1588
sg185
I6
sg186
(lp1589
I148
asg292
(issf_api
FeatureSet
p1590
(dp1591
g295
(dp1592
S'drel'
p1593
S'k7t:VGF2'
p1594
sS'name'
p1595
g1515
ssbsba(issf_api
Chunk
p1596
(dp1597
g195
g1497
sg199
I6
sg289
S'NP'
p1598
sg185
I6
sg186
(lp1599
I149
aI150
asg292
(issf_api
FeatureSet
p1600
(dp1601
g295
(dp1602
S'drel'
p1603
S'pof:VGF2'
p1604
sS'name'
p1605
g1497
ssbsba(issf_api
Chunk
p1606
(dp1607
g195
g1491
sg199
I7
sg289
S'VGF'
p1608
sg185
I6
sg186
(lp1609
I151
asg292
(issf_api
FeatureSet
p1610
(dp1611
g295
(dp1612
S'voicetype'
p1613
S"active'"
p1614
sS'drel'
p1615
S'ccof:CCP'
p1616
sS'stype'
p1617
S'declarative'
p1618
sS'name'
p1619
g1491
ssbsba(issf_api
Chunk
p1620
(dp1621
g195
g1503
sg199
I8
sg289
S'BLK'
p1622
sg185
I6
sg186
(lp1623
I152
asg292
(issf_api
FeatureSet
p1624
(dp1625
g295
(dp1626
S'drel'
p1627
S'rsym:VGF'
p1628
sS'name'
p1629
g1503
ssbsbasba(issf_api
Sentence
p1630
(dp1631
g183
(lp1632
sg185
I7
sg186
(lp1633
I153
aI154
aI155
aI156
aI157
aI158
aI159
aI160
aI161
aI162
asg188
(dp1634
S'VGF'
p1635
(issf_api
Node
p1636
(dp1637
g193
g211
sg195
g1635
sg196
g211
sg198
I-1
sg199
I1
sg200
(lp1638
sbsS'CCP'
p1639
(issf_api
Node
p1640
(dp1641
g193
S'k2'
p1642
sg195
g1639
sg196
S'VGF'
p1643
sg198
I-1
sg199
I2
sg200
(lp1644
sbsS'VGF2'
p1645
(issf_api
Node
p1646
(dp1647
g193
S'ccof'
p1648
sg195
g1645
sg196
S'CCP'
p1649
sg198
I-1
sg199
I7
sg200
(lp1650
sbsS'NP5'
p1651
(issf_api
Node
p1652
(dp1653
g193
S'k2'
p1654
sg195
g1651
sg196
S'VGF2'
p1655
sg198
I-1
sg199
I6
sg200
(lp1656
sbsS'BLK'
p1657
(issf_api
Node
p1658
(dp1659
g193
S'rsym'
p1660
sg195
g1657
sg196
S'VGF'
p1661
sg198
I-1
sg199
I8
sg200
(lp1662
sbsS'NP'
p1663
(issf_api
Node
p1664
(dp1665
g193
S'k1'
p1666
sg195
g1663
sg196
S'VGF'
p1667
sg198
I-1
sg199
I0
sg200
(lp1668
sbsS'NP4'
p1669
(issf_api
Node
p1670
(dp1671
g193
S'r6'
p1672
sg195
g1669
sg196
S'NP5'
p1673
sg198
I-1
sg199
I5
sg200
(lp1674
sbsS'NP3'
p1675
(issf_api
Node
p1676
(dp1677
g193
S'k4'
p1678
sg195
g1675
sg196
S'VGF2'
p1679
sg198
I-1
sg199
I4
sg200
(lp1680
sbsS'NP2'
p1681
(issf_api
Node
p1682
(dp1683
g193
S'k1'
p1684
sg195
g1681
sg196
S'VGF2'
p1685
sg198
I-1
sg199
I3
sg200
(lp1686
sbssg285
(lp1687
(issf_api
Chunk
p1688
(dp1689
g195
g1663
sg199
I0
sg289
S'NP'
p1690
sg185
I7
sg186
(lp1691
I153
asg292
(issf_api
FeatureSet
p1692
(dp1693
g295
(dp1694
S'drel'
p1695
S'k1:VGF'
p1696
sS'name'
p1697
g1663
ssbsba(issf_api
Chunk
p1698
(dp1699
g195
g1635
sg199
I1
sg289
S'VGF'
p1700
sg185
I7
sg186
(lp1701
I154
aI155
asg292
(issf_api
FeatureSet
p1702
(dp1703
g295
(dp1704
S'name'
p1705
g1635
sS'stype'
p1706
S'declarative'
p1707
sS'voicetype'
p1708
S'active'
p1709
ssbsba(issf_api
Chunk
p1710
(dp1711
g195
g1639
sg199
I2
sg289
S'CCP'
p1712
sg185
I7
sg186
(lp1713
I156
asg292
(issf_api
FeatureSet
p1714
(dp1715
g295
(dp1716
S'drel'
p1717
S'k2:VGF'
p1718
sS'name'
p1719
g1639
ssbsba(issf_api
Chunk
p1720
(dp1721
g195
g1681
sg199
I3
sg289
S'NP'
p1722
sg185
I7
sg186
(lp1723
I157
asg292
(issf_api
FeatureSet
p1724
(dp1725
g295
(dp1726
S'drel'
p1727
S'k1:VGF2'
p1728
sS'name'
p1729
g1681
ssbsba(issf_api
Chunk
p1730
(dp1731
g195
g1675
sg199
I4
sg289
S'NP'
p1732
sg185
I7
sg186
(lp1733
I158
asg292
(issf_api
FeatureSet
p1734
(dp1735
g295
(dp1736
S'drel'
p1737
S'k4:VGF2'
p1738
sS'name'
p1739
g1675
ssbsba(issf_api
Chunk
p1740
(dp1741
g195
g1669
sg199
I5
sg289
S'NP'
p1742
sg185
I7
sg186
(lp1743
I159
asg292
(issf_api
FeatureSet
p1744
(dp1745
g295
(dp1746
S'drel'
p1747
S'r6:NP5'
p1748
sS'name'
p1749
g1669
ssbsba(issf_api
Chunk
p1750
(dp1751
g195
g1651
sg199
I6
sg289
S'NP'
p1752
sg185
I7
sg186
(lp1753
I160
asg292
(issf_api
FeatureSet
p1754
(dp1755
g295
(dp1756
S'drel'
p1757
S'k2:VGF2'
p1758
sS'name'
p1759
g1651
ssbsba(issf_api
Chunk
p1760
(dp1761
g195
g1645
sg199
I7
sg289
S'VGF'
p1762
sg185
I7
sg186
(lp1763
I161
asg292
(issf_api
FeatureSet
p1764
(dp1765
g295
(dp1766
S'voicetype'
p1767
S"active'"
p1768
sS'drel'
p1769
S'ccof:CCP'
p1770
sS'stype'
p1771
S'declarative'
p1772
sS'name'
p1773
g1645
ssbsba(issf_api
Chunk
p1774
(dp1775
g195
g1657
sg199
I8
sg289
S'BLK'
p1776
sg185
I7
sg186
(lp1777
I162
asg292
(issf_api
FeatureSet
p1778
(dp1779
g295
(dp1780
S'drel'
p1781
S'rsym:VGF'
p1782
sS'name'
p1783
g1657
ssbsbasba(issf_api
Sentence
p1784
(dp1785
g183
(lp1786
sg185
I8
sg186
(lp1787
I163
aI164
aI165
aI166
aI167
aI168
aI169
aI170
aI171
aI172
aI173
asg188
(dp1788
S'VGF'
p1789
(issf_api
Node
p1790
(dp1791
g193
g211
sg195
g1789
sg196
g211
sg198
I-1
sg199
I4
sg200
(lp1792
sbsS'JJP'
p1793
(issf_api
Node
p1794
(dp1795
g193
S'pof'
p1796
sg195
g1793
sg196
S'VGF'
p1797
sg198
I-1
sg199
I3
sg200
(lp1798
sbsS'BLK'
p1799
(issf_api
Node
p1800
(dp1801
g193
S'rsym'
p1802
sg195
g1799
sg196
S'VGF'
p1803
sg198
I-1
sg199
I5
sg200
(lp1804
sbsS'NP'
p1805
(issf_api
Node
p1806
(dp1807
g193
S'k1'
p1808
sg195
g1805
sg196
S'VGF'
p1809
sg198
I-1
sg199
I0
sg200
(lp1810
sbsS'NP3'
p1811
(issf_api
Node
p1812
(dp1813
g193
S'k2'
p1814
sg195
g1811
sg196
S'VGF'
p1815
sg198
I-1
sg199
I2
sg200
(lp1816
sbsS'NP2'
p1817
(issf_api
Node
p1818
(dp1819
g193
S'k5'
p1820
sg195
g1817
sg196
S'VGF'
p1821
sg198
I-1
sg199
I1
sg200
(lp1822
sbssg285
(lp1823
(issf_api
Chunk
p1824
(dp1825
g195
g1805
sg199
I0
sg289
S'NP'
p1826
sg185
I8
sg186
(lp1827
I163
asg292
(issf_api
FeatureSet
p1828
(dp1829
g295
(dp1830
S'drel'
p1831
S'k1:VGF'
p1832
sS'name'
p1833
g1805
ssbsba(issf_api
Chunk
p1834
(dp1835
g195
g1817
sg199
I1
sg289
S'NP'
p1836
sg185
I8
sg186
(lp1837
I164
aI165
aI166
asg292
(issf_api
FeatureSet
p1838
(dp1839
g295
(dp1840
S'drel'
p1841
S'k5:VGF'
p1842
sS'name'
p1843
g1817
ssbsba(issf_api
Chunk
p1844
(dp1845
g195
g1811
sg199
I2
sg289
S'NP'
p1846
sg185
I8
sg186
(lp1847
I167
aI168
asg292
(issf_api
FeatureSet
p1848
(dp1849
g295
(dp1850
S'drel'
p1851
S'k2:VGF'
p1852
sS'name'
p1853
g1811
ssbsba(issf_api
Chunk
p1854
(dp1855
g195
g1793
sg199
I3
sg289
S'JJP'
p1856
sg185
I8
sg186
(lp1857
I169
asg292
(issf_api
FeatureSet
p1858
(dp1859
g295
(dp1860
S'drel'
p1861
S'pof:VGF'
p1862
sS'name'
p1863
g1793
ssbsba(issf_api
Chunk
p1864
(dp1865
g195
g1789
sg199
I4
sg289
S'VGF'
p1866
sg185
I8
sg186
(lp1867
I170
aI171
aI172
asg292
(issf_api
FeatureSet
p1868
(dp1869
g295
(dp1870
S'name'
p1871
g1789
sS'stype'
p1872
S'declarative'
p1873
sS'voicetype'
p1874
S'active'
p1875
ssbsba(issf_api
Chunk
p1876
(dp1877
g195
g1799
sg199
I5
sg289
S'BLK'
p1878
sg185
I8
sg186
(lp1879
I173
asg292
(issf_api
FeatureSet
p1880
(dp1881
g295
(dp1882
S'drel'
p1883
S'rsym:VGF'
p1884
sS'name'
p1885
g1799
ssbsbasbasS'relationList'
p1886
(lp1887
(iextract_relations
discourseRelation
p1888
(dp1889
S'arg1Trees'
p1890
(lp1891
sS'arg2Sentence'
p1892
(lp1893
sS'arg1Sentence'
p1894
(lp1895
sS'connList'
p1896
(lp1897
I28
aI29
asS'isPaired'
p1898
I00
sS'arg1'
p1899
NsS'arg1Span'
p1900
V131..261
p1901
sS'arg2'
p1902
NsS'arg2Trees'
p1903
(lp1904
sS'fileName'
p1905
S'../data/raw/Section_17/fullnews_id_2620697_date_24_7_2004.utf8'
p1906
sS'connTrees'
p1907
(lp1908
sS'arg2List'
p1909
(lp1910
I30
aI31
aI32
aI33
aI34
aI35
aI36
aI37
aI38
aI39
aI40
aI41
aI42
aI43
asS'arg2Span'
p1911
V269..333
p1912
sS'sense'
p1913
VExpansion.Conjunction
p1914
sS'relationType'
p1915
VExplicit
p1916
sS'connSpan'
p1917
V262..268
p1918
sS'arg1List'
p1919
(lp1920
I0
aI1
aI2
aI3
aI4
aI5
aI6
aI7
aI8
aI9
aI10
aI11
aI12
aI13
aI14
aI15
aI16
aI17
aI18
aI19
aI20
aI21
aI22
aI23
aI24
aI25
aI26
aI27
asS'conn'
p1921
V\u0938\u093e\u0925 \u0939\u0940
p1922
sba(iextract_relations
discourseRelation
p1923
(dp1924
g1890
(lp1925
sg1892
(lp1926
sg1894
(lp1927
sg1896
(lp1928
sg1898
I00
sg1899
Nsg1900
V131..261
p1929
sg1902
Nsg1903
(lp1930
sg1905
g1906
sg1907
(lp1931
sg1909
(lp1932
sg1911
V333..432
p1933
sg1913
VExpansion.Restatement.Specification
p1934
sg1915
VImplicit
p1935
sg1917
V
sg1919
(lp1936
sg1921
Vxarasal
p1937
sba(iextract_relations
discourseRelation
p1938
(dp1939
g1890
(lp1940
sg1892
(lp1941
sg1894
(lp1942
sg1896
(lp1943
sg1898
I00
sg1899
Nsg1900
V333..431
p1944
sg1902
Nsg1903
(lp1945
sg1905
g1906
sg1907
(lp1946
sg1909
(lp1947
sg1911
V433..577
p1948
sg1913
VExpansion.Conjunction
p1949
sg1915
VImplicit
p1950
sg1917
V
sg1919
(lp1951
sg1921
VsAWa hI
p1952
sba(iextract_relations
discourseRelation
p1953
(dp1954
g1890
(lp1955
sg1892
(lp1956
sg1894
(lp1957
sg1896
(lp1958
sg1898
I00
sg1899
Nsg1900
V449..577
p1959
sg1902
Nsg1903
(lp1960
sg1905
g1906
sg1907
(lp1961
sg1909
(lp1962
sg1911
V578..640
p1963
sg1913
VContingency.Cause.Reason
p1964
sg1915
VImplicit
p1965
sg1917
V
sg1919
(lp1966
sg1921
VkyoMki
p1967
sba(iextract_relations
discourseRelation
p1968
(dp1969
g1890
(lp1970
sg1892
(lp1971
sg1894
(lp1972
sg1896
(lp1973
sg1898
I00
sg1899
Nsg1900
V578..641
p1974
sg1902
Nsg1903
(lp1975
sg1905
g1906
sg1907
(lp1976
sg1909
(lp1977
sg1911
V642..791
p1978
sg1913
VContingency.Pragmatic cause
p1979
sg1915
VImplicit
p1980
sg1917
V
sg1919
(lp1981
sg1921
VkyoMki
p1982
sba(iextract_relations
discourseRelation
p1983
(dp1984
g1890
(lp1985
sg1892
(lp1986
sg1894
(lp1987
sg1896
(lp1988
sg1898
I00
sg1899
Nsg1900
V642..791
p1989
sg1902
Nsg1903
(lp1990
sg1905
g1906
sg1907
(lp1991
sg1909
(lp1992
sg1911
V793..852
p1993
sg1913
VContingency.Cause.Result
p1994
sg1915
VImplicit
p1995
sg1917
V
sg1919
(lp1996
sg1921
Visa liye
p1997
sba(iextract_relations
discourseRelation
p1998
(dp1999
g1890
(lp2000
sg1892
(lp2001
sg1894
(lp2002
sg1896
(lp2003
sg1898
I00
sg1899
Nsg1900
V809..852
p2004
sg1902
Nsg1903
(lp2005
sg1905
g1906
sg1907
(lp2006
sg1909
(lp2007
sg1911
V853..896
p2008
sg1913
VContingency.Cause.Reason
p2009
sg1915
VImplicit
p2010
sg1917
V
sg1919
(lp2011
sg1921
VkyoMki
p2012
sba(iextract_relations
discourseRelation
p2013
(dp2014
g1890
(lp2015
sg1892
(lp2016
sg1894
(lp2017
sg1896
(lp2018
sg1898
I00
sg1899
Nsg1900
V853..895
p2019
sg1902
Nsg1903
(lp2020
sg1905
g1906
sg1907
(lp2021
sg1909
(lp2022
sg1911
V897..934
p2023
sg1913
VContingency.Cause.Reason
p2024
sg1915
VImplicit
p2025
sg1917
V
sg1919
(lp2026
sg1921
VkyoMki
p2027
sbasS'rawData'
p2028
V<DOC>\u000a<DOCNO>fullnews_id_2620697_date_24_7_2004.utf8</DOCNO>\u000a<TEXT>\u000a\u000a\u000a\u0909\u0926\u093f\u0924 \u0928\u093e\u0930\u093e\u092f\u0923 \u0915\u094b \u092c\u093f\u0939\u093e\u0930 \u092e\u0939\u093f\u0932\u093e \u0906\u092f\u094b\u0917 \u0915\u093e \u0938\u092e\u0928\u000a\u000a\u000a\u000a\u092a\u094d\u0930\u0947\u000a\u000a\u092a\u091f\u0928\u093e\u0964  \u000a\u000a\u000a\u000a\u000a\u000a\u092c\u093f\u0939\u093e\u0930 \u0915\u0947 \u092e\u0939\u093f\u0932\u093e \u0906\u092f\u094b\u0917 \u0928\u0947 \u092c\u0945\u0932\u0940\u0935\u0941\u0921 \u0917\u093e\u092f\u0915 \u0909\u0926\u093f\u0924 \u0928\u093e\u0930\u093e\u092f\u0923 \u0915\u0940 \u092a\u0939\u0932\u0940 \u0928\u0940 \u0939\u094b\u0928\u0947 \u0915\u093e \u0926\u093e\u0935\u093e \u0915\u0930\u0928\u0947 \u0935\u093e\u0932\u0940 \u092e\u0939\u093f\u0932\u093e \u0915\u0940 \u0936\u093f\u0915\u093e\u092f\u0924 \u092a\u0930 \u0909\u0928\u094d\u0939\u0947\u0902 \u0938\u094b\u092e\u0935\u093e\u0930 \u0915\u094b \u0938\u092e\u0928 \u092d\u0947\u091c\u093e \u0939\u0948\u0964 \u0938\u093e\u0925 \u0939\u0940 \u0909\u0928\u0938\u0947 \u092a\u0902\u0926\u094d\u0930\u0939 \u0926\u093f\u0928\u094b\u0902 \u0915\u0947 \u0905\u0902\u0926\u0930 \u0905\u092a\u0928\u0940 \u0938\u094d\u0925\u093f\u0924\u093f \u0938\u094d\u092a\u0937\u094d\u091f \u0915\u0930\u0928\u0947 \u0915\u0947 \u0932\u093f\u090f \u0915\u0939\u093e \u0939\u0948\u0964\u0930\u093e\u091c\u094d\u092f \u0915\u0947 \u092e\u0939\u093f\u0932\u093e \u0906\u092f\u094b\u0917 \u0915\u0940 \u0905\u0927\u094d\u092f\u0915\u094d\u0937 \u092e\u0902\u091c\u0942 \u092a\u094d\u0930\u0915\u093e\u0936 \u0928\u0947 \u0909\u0926\u093f\u0924 \u0928\u093e\u0930\u093e\u092f\u0923 \u0915\u094b \u092f\u0939 \u0928\u094b\u091f\u093f\u0938 \u0909\u0928\u0915\u0947 \u092e\u0941\u0902\u092c\u0908 \u0915\u0947 \u092a\u0924\u0947 \u092a\u0930 \u092d\u0947\u091c\u093e \u0939\u0948\u0964 \u0909\u0928\u094d\u0939\u094b\u0902\u0928\u0947 \u0915\u0939\u093e \u0915\u093f \u092a\u0939\u0932\u0940 \u0928\u0940 \u0939\u094b\u0928\u0947 \u0915\u093e \u0926\u093e\u0935\u093e \u0915\u0930\u0928\u0947 \u0935\u093e\u0932\u0940 \u0930\u0902\u091c\u0928\u093e \u0928\u093e\u0930\u093e\u092f\u0923 \u0915\u0940 \u0936\u093f\u0915\u093e\u092f\u0924 \u0915\u0947 \u0906\u0927\u093e\u0930 \u092a\u0930 \u0909\u0928\u094d\u0939\u094b\u0902\u0928\u0947 \u092a\u0902\u0926\u094d\u0930\u0939 \u0926\u093f\u0928 \u0915\u0947 \u0905\u0902\u0926\u0930 \u0905\u092a\u0928\u093e \u0938\u094d\u092a\u0937\u094d\u091f\u0940\u0915\u0930\u0923 \u0926\u0947\u0928\u0947 \u0915\u0947 \u0932\u093f\u090f \u0915\u0939\u093e \u0939\u0948\u0964 \u0906\u092f\u094b\u0917 \u0928\u0947 \u0936\u0928\u093f\u0935\u093e\u0930 \u0915\u094b \u0930\u0902\u091c\u0928\u093e \u0915\u0940 \u0936\u093f\u0915\u093e\u092f\u0924 \u0915\u094b \u092a\u094d\u0930\u0925\u092e \u0926\u0943\u0937\u094d\u091f\u092f\u093e \u0938\u0939\u0940 \u092a\u093e\u092f\u093e \u0925\u093e\u0964 \u092e\u0902\u091c\u0942 \u092a\u094d\u0930\u0915\u093e\u0936 \u0928\u0947 \u0915\u0939\u093e \u0915\u093f \u092c\u0948\u0902\u0915 \u0915\u0940 \u092a\u093e\u0938\u092c\u0941\u0915, \u0930\u093e\u0936\u0928 \u0915\u093e\u0930\u094d\u0921 \u0914\u0930 \u0905\u0928\u094d\u092f \u092a\u0930\u093f\u0938\u094d\u0925\u093f\u0924\u093f\u091c\u0928\u094d\u092f \u0938\u093e\u0915\u094d\u0937\u094d\u0915\u094d\u0937\u094d\u092f\u094b\u0902 \u0915\u094b \u0926\u0947\u0916\u0924\u0947 \u0939\u0941\u090f \u0932\u0917\u0924\u093e \u0939\u0948 \u0915\u093f \u0917\u093e\u092f\u0915 \u0909\u0926\u093f\u0924 \u0928\u093e\u0930\u093e\u092f\u0923 \u0915\u0940 \u0930\u0902\u091c\u0928\u093e \u0938\u0947 \u0936\u093e\u0926\u0940 \u0939\u0941\u0908 \u0925\u0940\u0964 \u0909\u0928\u094d\u0939\u094b\u0902\u0928\u0947 \u0915\u0939\u093e \u0915\u093f \u0906\u092f\u094b\u0917 \u0907\u0938 \u092e\u093e\u092e\u0932\u0947 \u092e\u0947\u0902 \u0905\u092c \u0915\u093e\u0928\u0942\u0928\u0940 \u0915\u093e\u0930\u094d\u0930\u0935\u093e\u0908 \u0915\u0930\u0947\u0917\u093e\u0964 \u0930\u0902\u091c\u0928\u093e \u091a\u093e\u0939\u0924\u0940 \u0939\u0948\u0902 \u0915\u093f \u0909\u0926\u093f\u0924 \u0909\u0928\u094d\u0939\u0947\u0902 \u0909\u0928\u0915\u093e \u0939\u0915 \u0926\u0947\u0902\u0964 \u0935\u0947 \u0915\u093e\u092b\u0940 \u0938\u092e\u092f \u0938\u0947 \u0909\u0926\u093f\u0924 \u0938\u0947 \u0905\u0932\u0917 \u0930\u0939 \u0930\u0939\u0940 \u0939\u0948\u0902\u0964\u000a\u000a\u000a\u000a\u000a</TEXT>\u000a</DOC>
p2029
sS'rawFileName'
p2030
g1906
sS'rawToAnnMapping'
p2031
(dp2032
I0
(I0
tp2033
sI1
(I1
tp2034
sI2
(I2
tp2035
sI3
(I3
tp2036
sI4
(I4
tp2037
sI5
(I5
tp2038
sI6
(I6
tp2039
sI7
(I7
tp2040
sI8
(I8
tp2041
sI9
(I9
tp2042
sI10
(I10
tp2043
sI11
(I11
tp2044
sI12
(I12
tp2045
sI13
(I13
tp2046
sI14
(I14
tp2047
sI15
(I15
tp2048
sI16
(I16
tp2049
sI17
(I17
tp2050
sI18
(I18
tp2051
sI19
(I19
tp2052
sI20
(I20
tp2053
sI21
(I21
tp2054
sI22
(I22
tp2055
sI23
(I23
tp2056
sI24
(I24
tp2057
sI25
(I25
tp2058
sI26
(I26
tp2059
sI27
(I27
tp2060
sI28
(I28
tp2061
sI29
(I29
tp2062
sI30
(I30
tp2063
sI31
(I31
tp2064
sI32
(I32
tp2065
sI33
(I33
tp2066
sI34
(I34
tp2067
sI35
(I35
tp2068
sI36
(I36
tp2069
sI37
(I37
tp2070
sI38
(I38
tp2071
sI39
(I39
tp2072
sI40
(I40
tp2073
sI41
(I41
tp2074
sI42
(I42
tp2075
sI43
(I43
tp2076
sI44
(I44
tp2077
sI45
(I45
tp2078
sI46
(I46
tp2079
sI47
(I47
tp2080
sI48
(I48
tp2081
sI49
(I49
tp2082
sI50
(I50
tp2083
sI51
(I51
tp2084
sI52
(I52
tp2085
sI53
(I53
tp2086
sI54
(I54
tp2087
sI55
(I55
tp2088
sI56
(I56
tp2089
sI57
(I57
tp2090
sI58
(I58
tp2091
sI59
(I59
tp2092
sI60
(I60
tp2093
sI61
(I61
tp2094
sI62
(I62
tp2095
sI63
(I63
tp2096
sI64
(I64
tp2097
sI65
(I65
tp2098
sI66
(I66
tp2099
sI67
(I67
tp2100
sI68
(I68
tp2101
sI69
(I69
tp2102
sI70
(I70
tp2103
sI71
(I71
tp2104
sI72
(I72
tp2105
sI73
(I73
tp2106
sI74
(I74
tp2107
sI75
(I75
tp2108
sI76
(I76
tp2109
sI77
(I77
tp2110
sI78
(I78
tp2111
sI79
(I79
tp2112
sI80
(I80
tp2113
sI81
(I81
tp2114
sI82
(I82
tp2115
sI83
(I83
tp2116
sI84
(I84
tp2117
sI85
(I85
tp2118
sI86
(I86
tp2119
sI87
(I87
tp2120
sI88
(I88
tp2121
sI89
(I89
tp2122
sI90
(I90
tp2123
sI91
(I91
tp2124
sI92
(I92
tp2125
sI93
(I93
tp2126
sI94
(I94
tp2127
sI95
(I95
tp2128
sI96
(I96
tp2129
sI97
(I97
tp2130
sI98
(I98
tp2131
sI99
(I99
tp2132
sI100
(I100
tp2133
sI101
(I101
tp2134
sI102
(I102
tp2135
sI103
(I103
tp2136
sI104
(I104
tp2137
sI105
(I105
tp2138
sI106
(I106
tp2139
sI107
(I107
tp2140
sI108
(I108
tp2141
sI109
(I109
tp2142
sI110
(I110
tp2143
sI111
(I111
tp2144
sI112
(I112
tp2145
sI113
(I113
tp2146
sI114
(I114
tp2147
sI115
(I115
tp2148
sI116
(I116
tp2149
sI117
(I117
tp2150
sI118
(I118
tp2151
sI119
(I119
tp2152
sI120
(I120
tp2153
sI121
(I121
tp2154
sI122
(I122
tp2155
sI123
(I123
tp2156
sI124
(I124
tp2157
sI125
(I125
tp2158
sI126
(I126
tp2159
sI127
(I127
tp2160
sI128
(I128
tp2161
sI129
(I129
tp2162
sI130
(I130
tp2163
sI131
(I131
tp2164
sI132
(I132
tp2165
sI133
(I133
tp2166
sI134
(I134
tp2167
sI135
(I135
tp2168
sI136
(I136
tp2169
sI137
(I137
tp2170
sI138
(I138
tp2171
sI139
(I139
tp2172
sI140
(I140
tp2173
sI141
(I141
tp2174
sI142
(I142
tp2175
sI143
(I143
tp2176
sI144
(I144
tp2177
sI145
(I145
tp2178
sI146
(I146
tp2179
sI147
(I147
tp2180
sI148
(I148
tp2181
sI149
(I149
tp2182
sI150
(I150
tp2183
sI151
(I151
tp2184
sI152
(I152
tp2185
sI153
(I153
tp2186
sI154
(I154
tp2187
sI155
(I155
tp2188
sI156
(I156
tp2189
sI157
(I157
tp2190
sI158
(I158
tp2191
sI159
(I159
tp2192
sI160
(I160
tp2193
sI161
(I161
tp2194
sI162
(I162
tp2195
sI163
(I163
tp2196
sI164
(I164
tp2197
sI165
(I165
tp2198
sI166
(I166
tp2199
sI167
(I167
tp2200
sI168
(I168
tp2201
sI169
(I169
tp2202
sI170
(I170
tp2203
sI171
(I171
tp2204
sI172
(I172
tp2205
sI173
(I173
tp2206
ssS'globalWordList'
p2207
(lp2208
(issf_api
Word
p2209
(dp2210
S'splitConn'
p2211
I00
sS'word'
p2212
V\u092c\u093f\u0939\u093e\u0930
p2213
sS'extraFeatureSet'
p2214
(issf_api
FeatureSet
p2215
(dp2216
g295
(dp2217
S'posn'
p2218
S'10'
p2219
sS'name'
p2220
S'\xe0\xa4\xac\xe0\xa4\xbf\xe0\xa4\xb9\xe0\xa4\xbe\xe0\xa4\xb0'
p2221
sS'af'
p2222
S'\xe0\xa4\xac\xe0\xa4\xbf\xe0\xa4\xb9\xe0\xa4\xbe\xe0\xa4\xb0,n,m,sg,3,o,0_\xe0\xa4\x95\xe0\xa4\xbe,0'
p2223
sS'chunkid'
p2224
S'NP'
p2225
sS'drel'
p2226
S'r6:\xe0\xa4\x86\xe0\xa4\xaf\xe0\xa5\x8b\xe0\xa4\x97'
p2227
sS'vpos'
p2228
S'vib_2'
p2229
sS'chunktype'
p2230
S'head:NP'
p2231
ssbsg1899
I01
sg1902
I00
sg1913
Nsg1900
Nsg199
I0
sg185
I0
sS'relationNum'
p2232
I0
sg1911
NsS'wordTag'
p2233
S'NNP'
p2234
sg292
(issf_api
FeatureSet
p2235
(dp2236
g295
(dp2237
S'posn'
p2238
S'10'
p2239
sS'name'
p2240
S'\xe0\xa4\xac\xe0\xa4\xbf\xe0\xa4\xb9\xe0\xa4\xbe\xe0\xa4\xb0'
p2241
sS'af'
p2242
S'\xe0\xa4\xac\xe0\xa4\xbf\xe0\xa4\xb9\xe0\xa4\xbe\xe0\xa4\xb0,n,m,sg,3,o,0,0'
p2243
ssbsg1921
I00
sba(issf_api
Word
p2244
(dp2245
g2211
I00
sg2212
V\u0915\u0947
p2246
sg2214
(issf_api
FeatureSet
p2247
(dp2248
g295
(dp2249
S'posn'
p2250
S'20'
p2251
sS'name'
p2252
S'\xe0\xa4\x95\xe0\xa5\x87'
p2253
sS'drel'
p2254
S'lwg__psp:\xe0\xa4\xac\xe0\xa4\xbf\xe0\xa4\xb9\xe0\xa4\xbe\xe0\xa4\xb0'
p2255
sS'chunktype'
p2256
S'child:NP'
p2257
sS'af'
p2258
S'\xe0\xa4\x95\xe0\xa4\xbe,psp,m,sg,,o,,'
p2259
ssbsg1899
I01
sg1902
I00
sg1913
Nsg1900
Nsg199
I0
sg185
I0
sg2232
I0
sg1911
Nsg2233
S'PSP'
p2260
sg292
(issf_api
FeatureSet
p2261
(dp2262
g295
(dp2263
S'posn'
p2264
S'20'
p2265
sS'name'
p2266
S'\xe0\xa4\x95\xe0\xa5\x87'
p2267
sS'af'
p2268
S'\xe0\xa4\x95\xe0\xa4\xbe,psp,m,sg,,o,,'
p2269
ssbsg1921
I00
sba(issf_api
Word
p2270
(dp2271
g2211
I00
sg2212
V\u092e\u0939\u093f\u0932\u093e
p2272
sg2214
(issf_api
FeatureSet
p2273
(dp2274
g295
(dp2275
S'posn'
p2276
S'30'
p2277
sS'name'
p2278
S'\xe0\xa4\xae\xe0\xa4\xb9\xe0\xa4\xbf\xe0\xa4\xb2\xe0\xa4\xbe'
p2279
sS'drel'
p2280
S'pof__cn:\xe0\xa4\x86\xe0\xa4\xaf\xe0\xa5\x8b\xe0\xa4\x97'
p2281
sS'chunktype'
p2282
S'child:NP2'
p2283
sS'af'
p2284
S'\xe0\xa4\xae\xe0\xa4\xb9\xe0\xa4\xbf\xe0\xa4\xb2\xe0\xa4\xbe,n,f,sg,3,d,0,0'
p2285
ssbsg1899
I01
sg1902
I00
sg1913
Nsg1900
Nsg199
I1
sg185
I0
sg2232
I0
sg1911
Nsg2233
S'NNPC'
p2286
sg292
(issf_api
FeatureSet
p2287
(dp2288
g295
(dp2289
S'posn'
p2290
S'30'
p2291
sS'name'
p2292
S'\xe0\xa4\xae\xe0\xa4\xb9\xe0\xa4\xbf\xe0\xa4\xb2\xe0\xa4\xbe'
p2293
sS'af'
p2294
S'\xe0\xa4\xae\xe0\xa4\xb9\xe0\xa4\xbf\xe0\xa4\xb2\xe0\xa4\xbe,n,f,sg,3,d,0,0'
p2295
ssbsg1921
I00
sba(issf_api
Word
p2296
(dp2297
g2211
I00
sg2212
V\u0906\u092f\u094b\u0917
p2298
sg2214
(issf_api
FeatureSet
p2299
(dp2300
g295
(dp2301
S'posn'
p2302
S'40'
p2303
sS'name'
p2304
S'\xe0\xa4\x86\xe0\xa4\xaf\xe0\xa5\x8b\xe0\xa4\x97'
p2305
sS'af'
p2306
S'\xe0\xa4\x86\xe0\xa4\xaf\xe0\xa5\x8b\xe0\xa4\x97,n,m,sg,3,o,0_\xe0\xa4\xa8\xe0\xa5\x87,0'
p2307
sS'chunkid'
p2308
S'NP2'
p2309
sS'drel'
p2310
S'k1:\xe0\xa4\xad\xe0\xa5\x87\xe0\xa4\x9c\xe0\xa4\xbe'
p2311
sS'vpos'
p2312
S'vib_3'
p2313
sS'chunktype'
p2314
S'head:NP2'
p2315
ssbsg1899
I01
sg1902
I00
sg1913
Nsg1900
Nsg199
I1
sg185
I0
sg2232
I0
sg1911
Nsg2233
S'NNP'
p2316
sg292
(issf_api
FeatureSet
p2317
(dp2318
g295
(dp2319
S'posn'
p2320
S'40'
p2321
sS'name'
p2322
S'\xe0\xa4\x86\xe0\xa4\xaf\xe0\xa5\x8b\xe0\xa4\x97'
p2323
sS'af'
p2324
S'\xe0\xa4\x86\xe0\xa4\xaf\xe0\xa5\x8b\xe0\xa4\x97,n,m,sg,3,o,0,0'
p2325
ssbsg1921
I00
sba(issf_api
Word
p2326
(dp2327
g2211
I00
sg2212
V\u0928\u0947
p2328
sg2214
(issf_api
FeatureSet
p2329
(dp2330
g295
(dp2331
S'posn'
p2332
S'50'
p2333
sS'name'
p2334
S'\xe0\xa4\xa8\xe0\xa5\x87'
p2335
sS'drel'
p2336
S'lwg__psp:\xe0\xa4\x86\xe0\xa4\xaf\xe0\xa5\x8b\xe0\xa4\x97'
p2337
sS'chunktype'
p2338
S'child:NP2'
p2339
sS'af'
p2340
S'\xe0\xa4\xa8\xe0\xa5\x87,psp,,,,,,'
p2341
ssbsg1899
I01
sg1902
I00
sg1913
Nsg1900
Nsg199
I1
sg185
I0
sg2232
I0
sg1911
Nsg2233
S'PSP'
p2342
sg292
(issf_api
FeatureSet
p2343
(dp2344
g295
(dp2345
S'posn'
p2346
S'50'
p2347
sS'name'
p2348
S'\xe0\xa4\xa8\xe0\xa5\x87'
p2349
sS'af'
p2350
S'\xe0\xa4\xa8\xe0\xa5\x87,psp,,,,,,'
p2351
ssbsg1921
I00
sba(issf_api
Word
p2352
(dp2353
g2211
I00
sg2212
V\u092c\u0949\u0932\u0940\u0935\u0941\u0921
p2354
sg2214
(issf_api
FeatureSet
p2355
(dp2356
g295
(dp2357
S'posn'
p2358
S'60'
p2359
sS'name'
p2360
S'\xe0\xa4\xac\xe0\xa5\x89\xe0\xa4\xb2\xe0\xa5\x80\xe0\xa4\xb5\xe0\xa5\x81\xe0\xa4\xa1'
p2361
sS'drel'
p2362
S'nmod__adj:\xe0\xa4\x97\xe0\xa4\xbe\xe0\xa4\xaf\xe0\xa4\x95'
p2363
sS'chunktype'
p2364
S'child:NP3'
p2365
sS'af'
p2366
S'\xe0\xa4\xac\xe0\xa5\x89\xe0\xa4\xb2\xe0\xa5\x80\xe0\xa4\xb5\xe0\xa5\x81\xe0\xa4\xa1,n,m,sg,3,d,0,0'
p2367
ssbsg1899
I01
sg1902
I00
sg1913
Nsg1900
Nsg199
I2
sg185
I0
sg2232
I0
sg1911
Nsg2233
S'NNP'
p2368
sg292
(issf_api
FeatureSet
p2369
(dp2370
g295
(dp2371
S'posn'
p2372
S'60'
p2373
sS'name'
p2374
S'\xe0\xa4\xac\xe0\xa5\x89\xe0\xa4\xb2\xe0\xa5\x80\xe0\xa4\xb5\xe0\xa5\x81\xe0\xa4\xa1'
p2375
sS'af'
p2376
S'\xe0\xa4\xac\xe0\xa5\x89\xe0\xa4\xb2\xe0\xa5\x80\xe0\xa4\xb5\xe0\xa5\x81\xe0\xa4\xa1,n,m,sg,3,d,0,0'
p2377
ssbsg1921
I00
sba(issf_api
Word
p2378
(dp2379
g2211
I00
sg2212
V\u0917\u093e\u092f\u0915
p2380
sg2214
(issf_api
FeatureSet
p2381
(dp2382
g295
(dp2383
S'posn'
p2384
S'70'
p2385
sS'name'
p2386
S'\xe0\xa4\x97\xe0\xa4\xbe\xe0\xa4\xaf\xe0\xa4\x95'
p2387
sS'af'
p2388
S'\xe0\xa4\x97\xe0\xa4\xbe\xe0\xa4\xaf\xe0\xa4\x95,n,m,sg,3,o,0,0'
p2389
sS'chunkid'
p2390
S'NP3'
p2391
sS'drel'
p2392
S'nmod:\xe0\xa4\xa8\xe0\xa4\xbe\xe0\xa4\xb0\xe0\xa4\xbe\xe0\xa4\xaf\xe0\xa4\xa3'
p2393
sS'chunktype'
p2394
S'head:NP3'
p2395
ssbsg1899
I01
sg1902
I00
sg1913
Nsg1900
Nsg199
I2
sg185
I0
sg2232
I0
sg1911
Nsg2233
S'NN'
p2396
sg292
(issf_api
FeatureSet
p2397
(dp2398
g295
(dp2399
S'posn'
p2400
S'70'
p2401
sS'name'
p2402
S'\xe0\xa4\x97\xe0\xa4\xbe\xe0\xa4\xaf\xe0\xa4\x95'
p2403
sS'af'
p2404
S'\xe0\xa4\x97\xe0\xa4\xbe\xe0\xa4\xaf\xe0\xa4\x95,n,m,sg,3,o,0,0'
p2405
ssbsg1921
I00
sba(issf_api
Word
p2406
(dp2407
g2211
I00
sg2212
V\u0909\u0926\u093f\u0924
p2408
sg2214
(issf_api
FeatureSet
p2409
(dp2410
g295
(dp2411
S'posn'
p2412
S'80'
p2413
sS'name'
p2414
S'\xe0\xa4\x89\xe0\xa4\xa6\xe0\xa4\xbf\xe0\xa4\xa4'
p2415
sS'drel'
p2416
S'pof__cn:\xe0\xa4\xa8\xe0\xa4\xbe\xe0\xa4\xb0\xe0\xa4\xbe\xe0\xa4\xaf\xe0\xa4\xa3'
p2417
sS'chunktype'
p2418
S'child:NP4'
p2419
sS'af'
p2420
S'\xe0\xa4\x89\xe0\xa4\xa6\xe0\xa4\xbf\xe0\xa4\xa4,n,m,sg,3,d,0,0'
p2421
ssbsg1899
I01
sg1902
I00
sg1913
Nsg1900
Nsg199
I3
sg185
I0
sg2232
I0
sg1911
Nsg2233
S'NNPC'
p2422
sg292
(issf_api
FeatureSet
p2423
(dp2424
g295
(dp2425
S'posn'
p2426
S'80'
p2427
sS'name'
p2428
S'\xe0\xa4\x89\xe0\xa4\xa6\xe0\xa4\xbf\xe0\xa4\xa4'
p2429
sS'af'
p2430
S'\xe0\xa4\x89\xe0\xa4\xa6\xe0\xa4\xbf\xe0\xa4\xa4,n,m,sg,3,d,0,0'
p2431
ssbsg1921
I00
sba(issf_api
Word
p2432
(dp2433
g2211
I00
sg2212
V\u0928\u093e\u0930\u093e\u092f\u0923
p2434
sg2214
(issf_api
FeatureSet
p2435
(dp2436
g295
(dp2437
S'posn'
p2438
S'90'
p2439
sS'name'
p2440
S'\xe0\xa4\xa8\xe0\xa4\xbe\xe0\xa4\xb0\xe0\xa4\xbe\xe0\xa4\xaf\xe0\xa4\xa3'
p2441
sS'af'
p2442
S'\xe0\xa4\xa8\xe0\xa4\xbe\xe0\xa4\xb0\xe0\xa4\xbe\xe0\xa4\xaf\xe0\xa4\xa3,n,m,sg,3,o,0_\xe0\xa4\x95\xe0\xa4\xbe,0'
p2443
sS'chunkid'
p2444
S'NP4'
p2445
sS'drel'
p2446
S'r6:\xe0\xa4\xaa\xe0\xa4\xa4\xe0\xa5\x8d\xe0\xa4\xa8\xe0\xa5\x80'
p2447
sS'vpos'
p2448
S'vib_3'
p2449
sS'chunktype'
p2450
S'head:NP4'
p2451
ssbsg1899
I01
sg1902
I00
sg1913
Nsg1900
Nsg199
I3
sg185
I0
sg2232
I0
sg1911
Nsg2233
S'NNP'
p2452
sg292
(issf_api
FeatureSet
p2453
(dp2454
g295
(dp2455
S'posn'
p2456
S'90'
p2457
sS'name'
p2458
S'\xe0\xa4\xa8\xe0\xa4\xbe\xe0\xa4\xb0\xe0\xa4\xbe\xe0\xa4\xaf\xe0\xa4\xa3'
p2459
sS'af'
p2460
S'\xe0\xa4\xa8\xe0\xa4\xbe\xe0\xa4\xb0\xe0\xa4\xbe\xe0\xa4\xaf\xe0\xa4\xa3,n,m,sg,3,o,0,0'
p2461
ssbsg1921
I00
sba(issf_api
Word
p2462
(dp2463
g2211
I00
sg2212
V\u0915\u0940
p2464
sg2214
(issf_api
FeatureSet
p2465
(dp2466
g295
(dp2467
S'posn'
p2468
S'100'
p2469
sS'name'
p2470
S'\xe0\xa4\x95\xe0\xa5\x80'
p2471
sS'drel'
p2472
S'lwg__psp:\xe0\xa4\xa8\xe0\xa4\xbe\xe0\xa4\xb0\xe0\xa4\xbe\xe0\xa4\xaf\xe0\xa4\xa3'
p2473
sS'chunktype'
p2474
S'child:NP4'
p2475
sS'af'
p2476
S'\xe0\xa4\x95\xe0\xa4\xbe,psp,f,sg,,o,,'
p2477
ssbsg1899
I01
sg1902
I00
sg1913
Nsg1900
Nsg199
I3
sg185
I0
sg2232
I0
sg1911
Nsg2233
S'PSP'
p2478
sg292
(issf_api
FeatureSet
p2479
(dp2480
g295
(dp2481
S'posn'
p2482
S'100'
p2483
sS'name'
p2484
S'\xe0\xa4\x95\xe0\xa5\x80'
p2485
sS'af'
p2486
S'\xe0\xa4\x95\xe0\xa4\xbe,psp,f,sg,,o,,'
p2487
ssbsg1921
I00
sba(issf_api
Word
p2488
(dp2489
g2211
I00
sg2212
V\u092a\u0939\u0932\u0940
p2490
sg2214
(issf_api
FeatureSet
p2491
(dp2492
g295
(dp2493
S'posn'
p2494
S'110'
p2495
sS'name'
p2496
S'\xe0\xa4\xaa\xe0\xa4\xb9\xe0\xa4\xb2\xe0\xa5\x80'
p2497
sS'drel'
p2498
S'nmod__adj:\xe0\xa4\xaa\xe0\xa4\xa4\xe0\xa5\x8d\xe0\xa4\xa8\xe0\xa5\x80'
p2499
sS'chunktype'
p2500
S'child:NP5'
p2501
sS'af'
p2502
S'\xe0\xa4\xaa\xe0\xa4\xb9\xe0\xa4\xb2\xe0\xa4\xbe,num,f,sg,,d,,'
p2503
ssbsg1899
I01
sg1902
I00
sg1913
Nsg1900
Nsg199
I4
sg185
I0
sg2232
I0
sg1911
Nsg2233
S'QO'
p2504
sg292
(issf_api
FeatureSet
p2505
(dp2506
g295
(dp2507
S'posn'
p2508
S'110'
p2509
sS'name'
p2510
S'\xe0\xa4\xaa\xe0\xa4\xb9\xe0\xa4\xb2\xe0\xa5\x80'
p2511
sS'af'
p2512
S'\xe0\xa4\xaa\xe0\xa4\xb9\xe0\xa4\xb2\xe0\xa4\xbe,num,f,sg,,d,,'
p2513
ssbsg1921
I00
sba(issf_api
Word
p2514
(dp2515
g2211
I00
sg2212
V\u092a\u0924\u094d\u0928\u0940
p2516
sg2214
(issf_api
FeatureSet
p2517
(dp2518
g295
(dp2519
S'posn'
p2520
S'120'
p2521
sS'name'
p2522
S'\xe0\xa4\xaa\xe0\xa4\xa4\xe0\xa5\x8d\xe0\xa4\xa8\xe0\xa5\x80'
p2523
sS'af'
p2524
S'\xe0\xa4\xaa\xe0\xa4\xa4\xe0\xa5\x8d\xe0\xa4\xa8\xe0\xa5\x80,n,f,sg,3,d,0,0'
p2525
sS'chunkid'
p2526
S'NP5'
p2527
sS'drel'
p2528
S'k2:\xe0\xa4\xb9\xe0\xa5\x8b\xe0\xa4\xa8\xe0\xa5\x87'
p2529
sS'chunktype'
p2530
S'head:NP5'
p2531
ssbsg1899
I01
sg1902
I00
sg1913
Nsg1900
Nsg199
I4
sg185
I0
sg2232
I0
sg1911
Nsg2233
S'NN'
p2532
sg292
(issf_api
FeatureSet
p2533
(dp2534
g295
(dp2535
S'posn'
p2536
S'120'
p2537
sS'name'
p2538
S'\xe0\xa4\xaa\xe0\xa4\xa4\xe0\xa5\x8d\xe0\xa4\xa8\xe0\xa5\x80'
p2539
sS'af'
p2540
S'\xe0\xa4\xaa\xe0\xa4\xa4\xe0\xa5\x8d\xe0\xa4\xa8\xe0\xa5\x80,n,f,sg,3,d,0,0'
p2541
ssbsg1921
I00
sba(issf_api
Word
p2542
(dp2543
g2211
I00
sg2212
V\u0939\u094b\u0928\u0947
p2544
sg2214
(issf_api
FeatureSet
p2545
(dp2546
g295
(dp2547
S'posn'
p2548
S'130'
p2549
sS'name'
p2550
S'\xe0\xa4\xb9\xe0\xa5\x8b\xe0\xa4\xa8\xe0\xa5\x87'
p2551
sS'af'
p2552
S'\xe0\xa4\xb9\xe0\xa5\x8b,v,any,sg,any,o,\xe0\xa4\xa8\xe0\xa4\xbe_\xe0\xa4\x95\xe0\xa4\xbe,nA'
p2553
sS'chunkid'
p2554
S'VGNN'
p2555
sS'drel'
p2556
S'r6-k2:\xe0\xa4\xa6\xe0\xa4\xbe\xe0\xa4\xb5\xe0\xa4\xbe'
p2557
sS'vpos'
p2558
S'tam_2'
p2559
sS'chunktype'
p2560
S'head:VGNN'
p2561
ssbsg1899
I01
sg1902
I00
sg1913
Nsg1900
Nsg199
I5
sg185
I0
sg2232
I0
sg1911
Nsg2233
S'VM'
p2562
sg292
(issf_api
FeatureSet
p2563
(dp2564
g295
(dp2565
S'posn'
p2566
S'130'
p2567
sS'name'
p2568
S'\xe0\xa4\xb9\xe0\xa5\x8b\xe0\xa4\xa8\xe0\xa5\x87'
p2569
sS'af'
p2570
S'\xe0\xa4\xb9\xe0\xa5\x8b,v,any,any,any,o,\xe0\xa4\xa8\xe0\xa4\xbe,nA'
p2571
ssbsg1921
I00
sba(issf_api
Word
p2572
(dp2573
g2211
I00
sg2212
V\u0915\u093e
p2574
sg2214
(issf_api
FeatureSet
p2575
(dp2576
g295
(dp2577
S'posn'
p2578
S'140'
p2579
sS'name'
p2580
S'\xe0\xa4\x95\xe0\xa4\xbe'
p2581
sS'drel'
p2582
S'lwg__psp:\xe0\xa4\xb9\xe0\xa5\x8b\xe0\xa4\xa8\xe0\xa5\x87'
p2583
sS'chunktype'
p2584
S'child:VGNN'
p2585
sS'af'
p2586
S'\xe0\xa4\x95\xe0\xa4\xbe,psp,m,sg,,d,,'
p2587
ssbsg1899
I01
sg1902
I00
sg1913
Nsg1900
Nsg199
I5
sg185
I0
sg2232
I0
sg1911
Nsg2233
S'PSP'
p2588
sg292
(issf_api
FeatureSet
p2589
(dp2590
g295
(dp2591
S'posn'
p2592
S'140'
p2593
sS'name'
p2594
S'\xe0\xa4\x95\xe0\xa4\xbe'
p2595
sS'af'
p2596
S'\xe0\xa4\x95\xe0\xa4\xbe,psp,m,sg,,d,,'
p2597
ssbsg1921
I00
sba(issf_api
Word
p2598
(dp2599
g2211
I00
sg2212
V\u0926\u093e\u0935\u093e
p2600
sg2214
(issf_api
FeatureSet
p2601
(dp2602
g295
(dp2603
S'posn'
p2604
S'150'
p2605
sS'name'
p2606
S'\xe0\xa4\xa6\xe0\xa4\xbe\xe0\xa4\xb5\xe0\xa4\xbe'
p2607
sS'af'
p2608
S'\xe0\xa4\xa6\xe0\xa4\xbe\xe0\xa4\xb5\xe0\xa4\xbe,n,m,sg,3,d,0,0'
p2609
sS'chunkid'
p2610
S'NP6'
p2611
sS'drel'
p2612
S'pof:\xe0\xa4\x95\xe0\xa4\xb0\xe0\xa4\xa8\xe0\xa5\x87'
p2613
sS'chunktype'
p2614
S'head:NP6'
p2615
ssbsg1899
I01
sg1902
I00
sg1913
Nsg1900
Nsg199
I6
sg185
I0
sg2232
I0
sg1911
Nsg2233
S'NN'
p2616
sg292
(issf_api
FeatureSet
p2617
(dp2618
g295
(dp2619
S'posn'
p2620
S'150'
p2621
sS'name'
p2622
S'\xe0\xa4\xa6\xe0\xa4\xbe\xe0\xa4\xb5\xe0\xa4\xbe'
p2623
sS'af'
p2624
S'\xe0\xa4\xa6\xe0\xa4\xbe\xe0\xa4\xb5\xe0\xa4\xbe,n,m,sg,3,d,0,0'
p2625
ssbsg1921
I00
sba(issf_api
Word
p2626
(dp2627
g2211
I00
sg2212
V\u0915\u0930\u0928\u0947
p2628
sg2214
(issf_api
FeatureSet
p2629
(dp2630
g295
(dp2631
S'posn'
p2632
S'160'
p2633
sS'name'
p2634
S'\xe0\xa4\x95\xe0\xa4\xb0\xe0\xa4\xa8\xe0\xa5\x87'
p2635
sS'af'
p2636
S'\xe0\xa4\x95\xe0\xa4\xb0,v,any,sg,any,o,\xe0\xa4\xa8\xe0\xa4\xbe_\xe0\xa4\xb5\xe0\xa4\xbe\xe0\xa4\xb2\xe0\xa4\xbe,nA'
p2637
sS'chunkid'
p2638
S'VGNN2'
p2639
sS'drel'
p2640
S'nmod:\xe0\xa4\xae\xe0\xa4\xb9\xe0\xa4\xbf\xe0\xa4\xb2\xe0\xa4\xbe2'
p2641
sS'vpos'
p2642
S'tam_2'
p2643
sS'chunktype'
p2644
S'head:VGNN2'
p2645
ssbsg1899
I01
sg1902
I00
sg1913
Nsg1900
Nsg199
I7
sg185
I0
sg2232
I0
sg1911
Nsg2233
S'VM'
p2646
sg292
(issf_api
FeatureSet
p2647
(dp2648
g295
(dp2649
S'posn'
p2650
S'160'
p2651
sS'name'
p2652
S'\xe0\xa4\x95\xe0\xa4\xb0\xe0\xa4\xa8\xe0\xa5\x87'
p2653
sS'af'
p2654
S'\xe0\xa4\x95\xe0\xa4\xb0,v,any,any,any,o,\xe0\xa4\xa8\xe0\xa4\xbe,nA'
p2655
ssbsg1921
I00
sba(issf_api
Word
p2656
(dp2657
g2211
I00
sg2212
V\u0935\u093e\u0932\u0940
p2658
sg2214
(issf_api
FeatureSet
p2659
(dp2660
g295
(dp2661
S'posn'
p2662
S'170'
p2663
sS'name'
p2664
S'\xe0\xa4\xb5\xe0\xa4\xbe\xe0\xa4\xb2\xe0\xa5\x80'
p2665
sS'drel'
p2666
S'lwg__psp:\xe0\xa4\x95\xe0\xa4\xb0\xe0\xa4\xa8\xe0\xa5\x87'
p2667
sS'chunktype'
p2668
S'child:VGNN2'
p2669
sS'af'
p2670
S'\xe0\xa4\xb5\xe0\xa4\xbe\xe0\xa4\xb2\xe0\xa4\xbe,psp,f,sg,,o,,'
p2671
ssbsg1899
I01
sg1902
I00
sg1913
Nsg1900
Nsg199
I7
sg185
I0
sg2232
I0
sg1911
Nsg2233
S'PSP'
p2672
sg292
(issf_api
FeatureSet
p2673
(dp2674
g295
(dp2675
S'posn'
p2676
S'170'
p2677
sS'name'
p2678
S'\xe0\xa4\xb5\xe0\xa4\xbe\xe0\xa4\xb2\xe0\xa5\x80'
p2679
sS'af'
p2680
S'\xe0\xa4\xb5\xe0\xa4\xbe\xe0\xa4\xb2\xe0\xa4\xbe,psp,f,sg,,o,,'
p2681
ssbsg1921
I00
sba(issf_api
Word
p2682
(dp2683
g2211
I00
sg2212
V\u092e\u0939\u093f\u0932\u093e
p2684
sg2214
(issf_api
FeatureSet
p2685
(dp2686
g295
(dp2687
S'posn'
p2688
S'180'
p2689
sS'name'
p2690
S'\xe0\xa4\xae\xe0\xa4\xb9\xe0\xa4\xbf\xe0\xa4\xb2\xe0\xa4\xbe2'
p2691
sS'af'
p2692
S'\xe0\xa4\xae\xe0\xa4\xb9\xe0\xa4\xbf\xe0\xa4\xb2\xe0\xa4\xbe,n,f,sg,3,o,0_\xe0\xa4\x95\xe0\xa4\xbe,0'
p2693
sS'chunkid'
p2694
S'NP7'
p2695
sS'drel'
p2696
S'r6:\xe0\xa4\xb6\xe0\xa4\xbf\xe0\xa4\x95\xe0\xa4\xbe\xe0\xa4\xaf\xe0\xa4\xa4'
p2697
sS'vpos'
p2698
S'vib_2'
p2699
sS'chunktype'
p2700
S'head:NP7'
p2701
ssbsg1899
I01
sg1902
I00
sg1913
Nsg1900
Nsg199
I8
sg185
I0
sg2232
I0
sg1911
Nsg2233
S'NN'
p2702
sg292
(issf_api
FeatureSet
p2703
(dp2704
g295
(dp2705
S'posn'
p2706
S'180'
p2707
sS'name'
p2708
S'\xe0\xa4\xae\xe0\xa4\xb9\xe0\xa4\xbf\xe0\xa4\xb2\xe0\xa4\xbe2'
p2709
sS'af'
p2710
S'\xe0\xa4\xae\xe0\xa4\xb9\xe0\xa4\xbf\xe0\xa4\xb2\xe0\xa4\xbe,n,f,sg,3,o,0,0'
p2711
ssbsg1921
I00
sba(issf_api
Word
p2712
(dp2713
g2211
I00
sg2212
V\u0915\u0940
p2714
sg2214
(issf_api
FeatureSet
p2715
(dp2716
g295
(dp2717
S'posn'
p2718
S'190'
p2719
sS'name'
p2720
S'\xe0\xa4\x95\xe0\xa5\x802'
p2721
sS'drel'
p2722
S'lwg__psp:\xe0\xa4\xae\xe0\xa4\xb9\xe0\xa4\xbf\xe0\xa4\xb2\xe0\xa4\xbe2'
p2723
sS'chunktype'
p2724
S'child:NP7'
p2725
sS'af'
p2726
S'\xe0\xa4\x95\xe0\xa4\xbe,psp,f,sg,,o,,'
p2727
ssbsg1899
I01
sg1902
I00
sg1913
Nsg1900
Nsg199
I8
sg185
I0
sg2232
I0
sg1911
Nsg2233
S'PSP'
p2728
sg292
(issf_api
FeatureSet
p2729
(dp2730
g295
(dp2731
S'posn'
p2732
S'190'
p2733
sS'name'
p2734
S'\xe0\xa4\x95\xe0\xa5\x802'
p2735
sS'af'
p2736
S'\xe0\xa4\x95\xe0\xa4\xbe,psp,f,sg,,o,,'
p2737
ssbsg1921
I00
sba(issf_api
Word
p2738
(dp2739
g2211
I00
sg2212
V\u0936\u093f\u0915\u093e\u092f\u0924
p2740
sg2214
(issf_api
FeatureSet
p2741
(dp2742
g295
(dp2743
S'posn'
p2744
S'200'
p2745
sS'name'
p2746
S'\xe0\xa4\xb6\xe0\xa4\xbf\xe0\xa4\x95\xe0\xa4\xbe\xe0\xa4\xaf\xe0\xa4\xa4'
p2747
sS'af'
p2748
S'\xe0\xa4\xb6\xe0\xa4\xbf\xe0\xa4\x95\xe0\xa4\xbe\xe0\xa4\xaf\xe0\xa4\xa4,n,f,sg,3,o,0_\xe0\xa4\xaa\xe0\xa4\xb0,0'
p2749
sS'chunkid'
p2750
S'NP8'
p2751
sS'drel'
p2752
S'k7:\xe0\xa4\xad\xe0\xa5\x87\xe0\xa4\x9c\xe0\xa4\xbe'
p2753
sS'vpos'
p2754
S'vib_2'
p2755
sS'chunktype'
p2756
S'head:NP8'
p2757
ssbsg1899
I01
sg1902
I00
sg1913
Nsg1900
Nsg199
I9
sg185
I0
sg2232
I0
sg1911
Nsg2233
S'NN'
p2758
sg292
(issf_api
FeatureSet
p2759
(dp2760
g295
(dp2761
S'posn'
p2762
S'200'
p2763
sS'name'
p2764
S'\xe0\xa4\xb6\xe0\xa4\xbf\xe0\xa4\x95\xe0\xa4\xbe\xe0\xa4\xaf\xe0\xa4\xa4'
p2765
sS'af'
p2766
S'\xe0\xa4\xb6\xe0\xa4\xbf\xe0\xa4\x95\xe0\xa4\xbe\xe0\xa4\xaf\xe0\xa4\xa4,n,f,sg,3,o,0,0'
p2767
ssbsg1921
I00
sba(issf_api
Word
p2768
(dp2769
g2211
I00
sg2212
V\u092a\u0930
p2770
sg2214
(issf_api
FeatureSet
p2771
(dp2772
g295
(dp2773
S'posn'
p2774
S'210'
p2775
sS'name'
p2776
S'\xe0\xa4\xaa\xe0\xa4\xb0'
p2777
sS'drel'
p2778
S'lwg__psp:\xe0\xa4\xb6\xe0\xa4\xbf\xe0\xa4\x95\xe0\xa4\xbe\xe0\xa4\xaf\xe0\xa4\xa4'
p2779
sS'chunktype'
p2780
S'child:NP8'
p2781
sS'af'
p2782
S'\xe0\xa4\xaa\xe0\xa4\xb0,psp,,,,,,'
p2783
ssbsg1899
I01
sg1902
I00
sg1913
Nsg1900
Nsg199
I9
sg185
I0
sg2232
I0
sg1911
Nsg2233
S'PSP'
p2784
sg292
(issf_api
FeatureSet
p2785
(dp2786
g295
(dp2787
S'posn'
p2788
S'210'
p2789
sS'name'
p2790
S'\xe0\xa4\xaa\xe0\xa4\xb0'
p2791
sS'af'
p2792
S'\xe0\xa4\xaa\xe0\xa4\xb0,psp,,,,,,'
p2793
ssbsg1921
I00
sba(issf_api
Word
p2794
(dp2795
g2211
I00
sg2212
V\u0909\u0928\u094d\u0939\u0947\u0902
p2796
sg2214
(issf_api
FeatureSet
p2797
(dp2798
g295
(dp2799
S'posn'
p2800
S'220'
p2801
sS'name'
p2802
S'\xe0\xa4\x89\xe0\xa4\xa8\xe0\xa5\x8d\xe0\xa4\xb9\xe0\xa5\x87\xe0\xa4\x82'
p2803
sS'af'
p2804
S'\xe0\xa4\xb5\xe0\xa4\xb9,pn,any,sg,3h,o,\xe0\xa4\x95\xe0\xa5\x8b,ko'
p2805
sS'chunkid'
p2806
S'NP9'
p2807
sS'drel'
p2808
S'k4:\xe0\xa4\xad\xe0\xa5\x87\xe0\xa4\x9c\xe0\xa4\xbe'
p2809
sS'chunktype'
p2810
S'head:NP9'
p2811
ssbsg1899
I01
sg1902
I00
sg1913
Nsg1900
Nsg199
I10
sg185
I0
sg2232
I0
sg1911
Nsg2233
S'PRP'
p2812
sg292
(issf_api
FeatureSet
p2813
(dp2814
g295
(dp2815
S'posn'
p2816
S'220'
p2817
sS'name'
p2818
S'\xe0\xa4\x89\xe0\xa4\xa8\xe0\xa5\x8d\xe0\xa4\xb9\xe0\xa5\x87\xe0\xa4\x82'
p2819
sS'af'
p2820
S'\xe0\xa4\xb5\xe0\xa4\xb9,pn,any,sg,3h,o,\xe0\xa4\x95\xe0\xa5\x8b,ko'
p2821
ssbsg1921
I00
sba(issf_api
Word
p2822
(dp2823
g2211
I00
sg2212
V\u0938\u094b\u092e\u0935\u093e\u0930
p2824
sg2214
(issf_api
FeatureSet
p2825
(dp2826
g295
(dp2827
S'posn'
p2828
S'230'
p2829
sS'name'
p2830
S'\xe0\xa4\xb8\xe0\xa5\x8b\xe0\xa4\xae\xe0\xa4\xb5\xe0\xa4\xbe\xe0\xa4\xb0'
p2831
sS'af'
p2832
S'\xe0\xa4\xb8\xe0\xa5\x8b\xe0\xa4\xae\xe0\xa4\xb5\xe0\xa4\xbe\xe0\xa4\xb0,n,m,sg,3,o,0_\xe0\xa4\x95\xe0\xa5\x8b,0'
p2833
sS'chunkid'
p2834
S'NP10'
p2835
sS'drel'
p2836
S'k7t:\xe0\xa4\xad\xe0\xa5\x87\xe0\xa4\x9c\xe0\xa4\xbe'
p2837
sS'vpos'
p2838
S'vib_2'
p2839
sS'chunktype'
p2840
S'head:NP10'
p2841
ssbsg1899
I01
sg1902
I00
sg1913
Nsg1900
Nsg199
I11
sg185
I0
sg2232
I0
sg1911
Nsg2233
S'NNP'
p2842
sg292
(issf_api
FeatureSet
p2843
(dp2844
g295
(dp2845
S'posn'
p2846
S'230'
p2847
sS'name'
p2848
S'\xe0\xa4\xb8\xe0\xa5\x8b\xe0\xa4\xae\xe0\xa4\xb5\xe0\xa4\xbe\xe0\xa4\xb0'
p2849
sS'af'
p2850
S'\xe0\xa4\xb8\xe0\xa5\x8b\xe0\xa4\xae\xe0\xa4\xb5\xe0\xa4\xbe\xe0\xa4\xb0,n,m,sg,3,o,0,0'
p2851
ssbsg1921
I00
sba(issf_api
Word
p2852
(dp2853
g2211
I00
sg2212
V\u0915\u094b
p2854
sg2214
(issf_api
FeatureSet
p2855
(dp2856
g295
(dp2857
S'posn'
p2858
S'240'
p2859
sS'name'
p2860
S'\xe0\xa4\x95\xe0\xa5\x8b'
p2861
sS'drel'
p2862
S'lwg__psp:\xe0\xa4\xb8\xe0\xa5\x8b\xe0\xa4\xae\xe0\xa4\xb5\xe0\xa4\xbe\xe0\xa4\xb0'
p2863
sS'chunktype'
p2864
S'child:NP10'
p2865
sS'af'
p2866
S'\xe0\xa4\x95\xe0\xa5\x8b,psp,,,,,,'
p2867
ssbsg1899
I01
sg1902
I00
sg1913
Nsg1900
Nsg199
I11
sg185
I0
sg2232
I0
sg1911
Nsg2233
S'PSP'
p2868
sg292
(issf_api
FeatureSet
p2869
(dp2870
g295
(dp2871
S'posn'
p2872
S'240'
p2873
sS'name'
p2874
S'\xe0\xa4\x95\xe0\xa5\x8b'
p2875
sS'af'
p2876
S'\xe0\xa4\x95\xe0\xa5\x8b,psp,,,,,,'
p2877
ssbsg1921
I00
sba(issf_api
Word
p2878
(dp2879
g2211
I00
sg2212
V\u0938\u092e\u094d\u092e\u0928
p2880
sg2214
(issf_api
FeatureSet
p2881
(dp2882
g295
(dp2883
S'posn'
p2884
S'250'
p2885
sS'name'
p2886
S'\xe0\xa4\xb8\xe0\xa4\xae\xe0\xa5\x8d\xe0\xa4\xae\xe0\xa4\xa8'
p2887
sS'af'
p2888
S'\xe0\xa4\xb8\xe0\xa4\xae\xe0\xa5\x8d\xe0\xa4\xae\xe0\xa4\xa8,n,m,sg,3,d,0,0'
p2889
sS'chunkid'
p2890
S'NP11'
p2891
sS'drel'
p2892
S'k2:\xe0\xa4\xad\xe0\xa5\x87\xe0\xa4\x9c\xe0\xa4\xbe'
p2893
sS'chunktype'
p2894
S'head:NP11'
p2895
ssbsg1899
I01
sg1902
I00
sg1913
Nsg1900
Nsg199
I12
sg185
I0
sg2232
I0
sg1911
Nsg2233
S'NN'
p2896
sg292
(issf_api
FeatureSet
p2897
(dp2898
g295
(dp2899
S'posn'
p2900
S'250'
p2901
sS'name'
p2902
S'\xe0\xa4\xb8\xe0\xa4\xae\xe0\xa5\x8d\xe0\xa4\xae\xe0\xa4\xa8'
p2903
sS'af'
p2904
S'\xe0\xa4\xb8\xe0\xa4\xae\xe0\xa5\x8d\xe0\xa4\xae\xe0\xa4\xa8,n,m,sg,3,d,0,0'
p2905
ssbsg1921
I00
sba(issf_api
Word
p2906
(dp2907
g2211
I00
sg2212
V\u092d\u0947\u091c\u093e
p2908
sg2214
(issf_api
FeatureSet
p2909
(dp2910
g295
(dp2911
S'posn'
p2912
S'260'
p2913
sS'name'
p2914
S'\xe0\xa4\xad\xe0\xa5\x87\xe0\xa4\x9c\xe0\xa4\xbe'
p2915
sS'af'
p2916
S'\xe0\xa4\xad\xe0\xa5\x87\xe0\xa4\x9c,v,m,sg,3,,\xe0\xa4\xaf\xe0\xa4\xbe_\xe0\xa4\xb9\xe0\xa5\x88,yA'
p2917
sS'chunkid'
p2918
S'VGF'
p2919
sS'chunktype'
p2920
S'head:VGF'
p2921
sS'voicetype'
p2922
S'active'
p2923
sS'vpos'
p2924
S'tam_2'
p2925
sS'stype'
p2926
S'declarative'
p2927
ssbsg1899
I01
sg1902
I00
sg1913
Nsg1900
Nsg199
I13
sg185
I0
sg2232
I0
sg1911
Nsg2233
S'VM'
p2928
sg292
(issf_api
FeatureSet
p2929
(dp2930
g295
(dp2931
S'posn'
p2932
S'260'
p2933
sS'name'
p2934
S'\xe0\xa4\xad\xe0\xa5\x87\xe0\xa4\x9c\xe0\xa4\xbe'
p2935
sS'af'
p2936
S'\xe0\xa4\xad\xe0\xa5\x87\xe0\xa4\x9c,v,m,sg,any,,\xe0\xa4\xaf\xe0\xa4\xbe,yA'
p2937
ssbsg1921
I00
sba(issf_api
Word
p2938
(dp2939
g2211
I00
sg2212
V\u0939\u0948
p2940
sg2214
(issf_api
FeatureSet
p2941
(dp2942
g295
(dp2943
S'posn'
p2944
S'270'
p2945
sS'name'
p2946
S'\xe0\xa4\xb9\xe0\xa5\x88'
p2947
sS'drel'
p2948
S'lwg__vaux:\xe0\xa4\xad\xe0\xa5\x87\xe0\xa4\x9c\xe0\xa4\xbe'
p2949
sS'chunktype'
p2950
S'child:VGF'
p2951
sS'af'
p2952
S'\xe0\xa4\xb9\xe0\xa5\x88,v,any,sg,3,,\xe0\xa4\xb9\xe0\xa5\x88,hE'
p2953
ssbsg1899
I01
sg1902
I00
sg1913
Nsg1900
Nsg199
I13
sg185
I0
sg2232
I0
sg1911
Nsg2233
S'VAUX'
p2954
sg292
(issf_api
FeatureSet
p2955
(dp2956
g295
(dp2957
S'posn'
p2958
S'270'
p2959
sS'name'
p2960
S'\xe0\xa4\xb9\xe0\xa5\x88'
p2961
sS'af'
p2962
S'\xe0\xa4\xb9\xe0\xa5\x88,v,any,sg,3,,\xe0\xa4\xb9\xe0\xa5\x88,hE'
p2963
ssbsg1921
I00
sba(issf_api
Word
p2964
(dp2965
g2211
I00
sg2212
V\u0964
sg2214
(issf_api
FeatureSet
p2966
(dp2967
g295
(dp2968
S'posn'
p2969
S'280'
p2970
sS'name'
p2971
S'\xe0\xa5\xa4'
p2972
sS'af'
p2973
S'\xe0\xa5\xa4,punc,,,,,,'
p2974
sS'chunkid'
p2975
S'BLK'
p2976
sS'drel'
p2977
S'rsym:\xe0\xa4\xad\xe0\xa5\x87\xe0\xa4\x9c\xe0\xa4\xbe'
p2978
sS'chunktype'
p2979
S'head:BLK'
p2980
ssbsg1899
I01
sg1902
I00
sg1913
Nsg1900
Nsg199
I14
sg185
I0
sg2232
I0
sg1911
Nsg2233
S'SYM'
p2981
sg292
(issf_api
FeatureSet
p2982
(dp2983
g295
(dp2984
S'posn'
p2985
S'280'
p2986
sS'name'
p2987
S'\xe0\xa5\xa4'
p2988
sS'af'
p2989
S'\xe0\xa5\xa4,punc,,,,,,'
p2990
ssbsg1921
I00
sba(issf_api
Word
p2991
(dp2992
g2211
I00
sg2212
V\u0938\u093e\u0925
p2993
sg2214
(issf_api
FeatureSet
p2994
(dp2995
g295
(dp2996
S'posn'
p2997
S'10'
p2998
sS'name'
p2999
S'\xe0\xa4\xb8\xe0\xa4\xbe\xe0\xa4\xa5'
p3000
sS'af'
p3001
S'\xe0\xa4\xb8\xe0\xa4\xbe\xe0\xa4\xa5,nst,m,sg,3,d,,'
p3002
sS'chunkid'
p3003
S'NP'
p3004
sS'drel'
p3005
S'sent-adv:\xe0\xa4\x95\xe0\xa4\xb9\xe0\xa4\xbe'
p3006
sS'chunktype'
p3007
S'head:NP'
p3008
ssbsg1899
I00
sg1902
I00
sg1913
g1914
sg1900
(lp3009
I0
aI1
aI2
aI3
aI4
aI5
aI6
aI7
aI8
aI9
aI10
aI11
aI12
aI13
aI14
aI15
aI16
aI17
aI18
aI19
aI20
aI21
aI22
aI23
aI24
aI25
aI26
aI27
asg199
I0
sg185
I1
sg2232
I0
sg1911
(lp3010
I30
aI31
aI32
aI33
aI34
aI35
aI36
aI37
aI38
aI39
aI40
aI41
aI42
aI43
asg2233
S'NST'
p3011
sg292
(issf_api
FeatureSet
p3012
(dp3013
g295
(dp3014
S'posn'
p3015
S'10'
p3016
sS'name'
p3017
S'\xe0\xa4\xb8\xe0\xa4\xbe\xe0\xa4\xa5'
p3018
sS'af'
p3019
S'\xe0\xa4\xb8\xe0\xa4\xbe\xe0\xa4\xa5,nst,m,sg,3,d,,'
p3020
ssbsg1921
I01
sba(issf_api
Word
p3021
(dp3022
g2211
I00
sg2212
V\u0939\u0940
p3023
sg2214
(issf_api
FeatureSet
p3024
(dp3025
g295
(dp3026
S'posn'
p3027
S'20'
p3028
sS'name'
p3029
S'\xe0\xa4\xb9\xe0\xa5\x80'
p3030
sS'drel'
p3031
S'lwg__rp:\xe0\xa4\xb8\xe0\xa4\xbe\xe0\xa4\xa5'
p3032
sS'chunktype'
p3033
S'child:NP'
p3034
sS'af'
p3035
S'\xe0\xa4\xb9\xe0\xa5\x80,avy,,,,,,'
p3036
ssbsg1899
I00
sg1902
I00
sg1913
g1914
sg1900
g3009
sg199
I0
sg185
I1
sg2232
I0
sg1911
g3010
sg2233
S'RP'
p3037
sg292
(issf_api
FeatureSet
p3038
(dp3039
g295
(dp3040
S'posn'
p3041
S'20'
p3042
sS'name'
p3043
S'\xe0\xa4\xb9\xe0\xa5\x80'
p3044
sS'af'
p3045
S'\xe0\xa4\xb9\xe0\xa5\x80,avy,,,,,,'
p3046
ssbsg1921
I01
sba(issf_api
Word
p3047
(dp3048
g2211
I00
sg2212
V\u0909\u0928\u0938\u0947
p3049
sg2214
(issf_api
FeatureSet
p3050
(dp3051
g295
(dp3052
S'posn'
p3053
S'30'
p3054
sS'name'
p3055
S'\xe0\xa4\x89\xe0\xa4\xa8\xe0\xa4\xb8\xe0\xa5\x87'
p3056
sS'af'
p3057
S'\xe0\xa4\xb5\xe0\xa4\xb9,pn,any,sg,3h,o,\xe0\xa4\xb8\xe0\xa5\x87,se'
p3058
sS'chunkid'
p3059
S'NP2'
p3060
sS'drel'
p3061
S'k2:\xe0\xa4\x95\xe0\xa4\xb9\xe0\xa4\xbe'
p3062
sS'chunktype'
p3063
S'head:NP2'
p3064
ssbsg1899
I00
sg1902
I01
sg1913
Nsg1900
Nsg199
I1
sg185
I1
sg2232
I0
sg1911
Nsg2233
S'PRP'
p3065
sg292
(issf_api
FeatureSet
p3066
(dp3067
g295
(dp3068
S'posn'
p3069
S'30'
p3070
sS'name'
p3071
S'\xe0\xa4\x89\xe0\xa4\xa8\xe0\xa4\xb8\xe0\xa5\x87'
p3072
sS'af'
p3073
S'\xe0\xa4\xb5\xe0\xa4\xb9,pn,any,sg,3h,o,\xe0\xa4\xb8\xe0\xa5\x87,se'
p3074
ssbsg1921
I00
sba(issf_api
Word
p3075
(dp3076
g2211
I00
sg2212
V\u092a\u0902\u0926\u094d\u0930\u0939
p3077
sg2214
(issf_api
FeatureSet
p3078
(dp3079
g295
(dp3080
S'posn'
p3081
S'40'
p3082
sS'name'
p3083
S'\xe0\xa4\xaa\xe0\xa4\x82\xe0\xa4\xa6\xe0\xa5\x8d\xe0\xa4\xb0\xe0\xa4\xb9'
p3084
sS'drel'
p3085
S'nmod__adj:\xe0\xa4\xa6\xe0\xa4\xbf\xe0\xa4\xa8\xe0\xa5\x8b\xe0\xa4\x82'
p3086
sS'chunktype'
p3087
S'child:NP3'
p3088
sS'af'
p3089
S'\xe0\xa4\xaa\xe0\xa4\x82\xe0\xa4\xa6\xe0\xa5\x8d\xe0\xa4\xb0\xe0\xa4\xb9,num,any,any,,any,,'
p3090
ssbsg1899
I00
sg1902
I01
sg1913
Nsg1900
Nsg199
I2
sg185
I1
sg2232
I0
sg1911
Nsg2233
S'QC'
p3091
sg292
(issf_api
FeatureSet
p3092
(dp3093
g295
(dp3094
S'posn'
p3095
S'40'
p3096
sS'name'
p3097
S'\xe0\xa4\xaa\xe0\xa4\x82\xe0\xa4\xa6\xe0\xa5\x8d\xe0\xa4\xb0\xe0\xa4\xb9'
p3098
sS'af'
p3099
S'\xe0\xa4\xaa\xe0\xa4\x82\xe0\xa4\xa6\xe0\xa5\x8d\xe0\xa4\xb0\xe0\xa4\xb9,num,any,any,,any,,'
p3100
ssbsg1921
I00
sba(issf_api
Word
p3101
(dp3102
g2211
I00
sg2212
V\u0926\u093f\u0928\u094b\u0902
p3103
sg2214
(issf_api
FeatureSet
p3104
(dp3105
g295
(dp3106
S'posn'
p3107
S'50'
p3108
sS'name'
p3109
S'\xe0\xa4\xa6\xe0\xa4\xbf\xe0\xa4\xa8\xe0\xa5\x8b\xe0\xa4\x82'
p3110
sS'af'
p3111
S'\xe0\xa4\xa6\xe0\xa4\xbf\xe0\xa4\xa8,n,m,pl,3,o,0_\xe0\xa4\x95\xe0\xa5\x87_\xe0\xa4\x85\xe0\xa4\x82\xe0\xa4\xa6\xe0\xa4\xb0,0'
p3112
sS'chunkid'
p3113
S'NP3'
p3114
sS'drel'
p3115
S'k7t:\xe0\xa4\x95\xe0\xa4\xb9\xe0\xa4\xbe'
p3116
sS'vpos'
p3117
S'vib_3_4'
p3118
sS'chunktype'
p3119
S'head:NP3'
p3120
ssbsg1899
I00
sg1902
I01
sg1913
Nsg1900
Nsg199
I2
sg185
I1
sg2232
I0
sg1911
Nsg2233
S'NN'
p3121
sg292
(issf_api
FeatureSet
p3122
(dp3123
g295
(dp3124
S'posn'
p3125
S'50'
p3126
sS'name'
p3127
S'\xe0\xa4\xa6\xe0\xa4\xbf\xe0\xa4\xa8\xe0\xa5\x8b\xe0\xa4\x82'
p3128
sS'af'
p3129
S'\xe0\xa4\xa6\xe0\xa4\xbf\xe0\xa4\xa8,n,m,pl,3,o,0,0'
p3130
ssbsg1921
I00
sba(issf_api
Word
p3131
(dp3132
g2211
I00
sg2212
V\u0915\u0947
p3133
sg2214
(issf_api
FeatureSet
p3134
(dp3135
g295
(dp3136
S'posn'
p3137
S'60'
p3138
sS'name'
p3139
S'\xe0\xa4\x95\xe0\xa5\x87'
p3140
sS'drel'
p3141
S'lwg__psp:\xe0\xa4\xa6\xe0\xa4\xbf\xe0\xa4\xa8\xe0\xa5\x8b\xe0\xa4\x82'
p3142
sS'chunktype'
p3143
S'child:NP3'
p3144
sS'af'
p3145
S'\xe0\xa4\x95\xe0\xa5\x87,psp,,,,,,'
p3146
ssbsg1899
I00
sg1902
I01
sg1913
Nsg1900
Nsg199
I2
sg185
I1
sg2232
I0
sg1911
Nsg2233
S'PSP'
p3147
sg292
(issf_api
FeatureSet
p3148
(dp3149
g295
(dp3150
S'posn'
p3151
S'60'
p3152
sS'name'
p3153
S'\xe0\xa4\x95\xe0\xa5\x87'
p3154
sS'af'
p3155
S'\xe0\xa4\x95\xe0\xa5\x87,psp,,,,,,'
p3156
ssbsg1921
I00
sba(issf_api
Word
p3157
(dp3158
g2211
I00
sg2212
V\u0905\u0902\u0926\u0930
p3159
sg2214
(issf_api
FeatureSet
p3160
(dp3161
g295
(dp3162
S'posn'
p3163
S'70'
p3164
sS'name'
p3165
S'\xe0\xa4\x85\xe0\xa4\x82\xe0\xa4\xa6\xe0\xa4\xb0'
p3166
sS'drel'
p3167
S'lwg__psp:\xe0\xa4\xa6\xe0\xa4\xbf\xe0\xa4\xa8\xe0\xa5\x8b\xe0\xa4\x82'
p3168
sS'chunktype'
p3169
S'child:NP3'
p3170
sS'af'
p3171
S'\xe0\xa4\x85\xe0\xa4\x82\xe0\xa4\xa6\xe0\xa4\xb0,nst,m,sg,3,d,,'
p3172
ssbsg1899
I00
sg1902
I01
sg1913
Nsg1900
Nsg199
I2
sg185
I1
sg2232
I0
sg1911
Nsg2233
S'NST'
p3173
sg292
(issf_api
FeatureSet
p3174
(dp3175
g295
(dp3176
S'posn'
p3177
S'70'
p3178
sS'name'
p3179
S'\xe0\xa4\x85\xe0\xa4\x82\xe0\xa4\xa6\xe0\xa4\xb0'
p3180
sS'af'
p3181
S'\xe0\xa4\x85\xe0\xa4\x82\xe0\xa4\xa6\xe0\xa4\xb0,nst,m,sg,3,d,,'
p3182
ssbsg1921
I00
sba(issf_api
Word
p3183
(dp3184
g2211
I00
sg2212
V\u0905\u092a\u0928\u0940
p3185
sg2214
(issf_api
FeatureSet
p3186
(dp3187
g295
(dp3188
S'posn'
p3189
S'80'
p3190
sS'name'
p3191
S'\xe0\xa4\x85\xe0\xa4\xaa\xe0\xa4\xa8\xe0\xa5\x80'
p3192
sS'af'
p3193
S'\xe0\xa4\x85\xe0\xa4\xaa\xe0\xa4\xa8\xe0\xa4\xbe,pn,f,any,any,d,0,0'
p3194
sS'chunkid'
p3195
S'NP4'
p3196
sS'drel'
p3197
S'r6:\xe0\xa4\xb8\xe0\xa5\x8d\xe0\xa4\xa5\xe0\xa4\xbf\xe0\xa4\xa4\xe0\xa4\xbf'
p3198
sS'chunktype'
p3199
S'head:NP4'
p3200
ssbsg1899
I00
sg1902
I01
sg1913
Nsg1900
Nsg199
I3
sg185
I1
sg2232
I0
sg1911
Nsg2233
S'PRP'
p3201
sg292
(issf_api
FeatureSet
p3202
(dp3203
g295
(dp3204
S'posn'
p3205
S'80'
p3206
sS'name'
p3207
S'\xe0\xa4\x85\xe0\xa4\xaa\xe0\xa4\xa8\xe0\xa5\x80'
p3208
sS'af'
p3209
S'\xe0\xa4\x85\xe0\xa4\xaa\xe0\xa4\xa8\xe0\xa4\xbe,pn,f,any,any,d,0,0'
p3210
ssbsg1921
I00
sba(issf_api
Word
p3211
(dp3212
g2211
I00
sg2212
V\u0938\u094d\u0925\u093f\u0924\u093f
p3213
sg2214
(issf_api
FeatureSet
p3214
(dp3215
g295
(dp3216
S'posn'
p3217
S'90'
p3218
sS'name'
p3219
S'\xe0\xa4\xb8\xe0\xa5\x8d\xe0\xa4\xa5\xe0\xa4\xbf\xe0\xa4\xa4\xe0\xa4\xbf'
p3220
sS'af'
p3221
S'\xe0\xa4\xb8\xe0\xa5\x8d\xe0\xa4\xa5\xe0\xa4\xbf\xe0\xa4\xa4\xe0\xa4\xbf,n,f,sg,3,d,0,0'
p3222
sS'chunkid'
p3223
S'NP5'
p3224
sS'drel'
p3225
S'k2:\xe0\xa4\x95\xe0\xa4\xb0\xe0\xa4\xa8\xe0\xa5\x87'
p3226
sS'chunktype'
p3227
S'head:NP5'
p3228
ssbsg1899
I00
sg1902
I01
sg1913
Nsg1900
Nsg199
I4
sg185
I1
sg2232
I0
sg1911
Nsg2233
S'NN'
p3229
sg292
(issf_api
FeatureSet
p3230
(dp3231
g295
(dp3232
S'posn'
p3233
S'90'
p3234
sS'name'
p3235
S'\xe0\xa4\xb8\xe0\xa5\x8d\xe0\xa4\xa5\xe0\xa4\xbf\xe0\xa4\xa4\xe0\xa4\xbf'
p3236
sS'af'
p3237
S'\xe0\xa4\xb8\xe0\xa5\x8d\xe0\xa4\xa5\xe0\xa4\xbf\xe0\xa4\xa4\xe0\xa4\xbf,n,f,sg,3,d,0,0'
p3238
ssbsg1921
I00
sba(issf_api
Word
p3239
(dp3240
g2211
I00
sg2212
V\u0938\u094d\u092a\u0937\u094d\u091f
p3241
sg2214
(issf_api
FeatureSet
p3242
(dp3243
g295
(dp3244
S'posn'
p3245
S'100'
p3246
sS'name'
p3247
S'\xe0\xa4\xb8\xe0\xa5\x8d\xe0\xa4\xaa\xe0\xa4\xb7\xe0\xa5\x8d\xe0\xa4\x9f'
p3248
sS'af'
p3249
S'\xe0\xa4\xb8\xe0\xa5\x8d\xe0\xa4\xaa\xe0\xa4\xb7\xe0\xa5\x8d\xe0\xa4\x9f,adj,any,any,,,,'
p3250
sS'chunkid'
p3251
S'JJP'
p3252
sS'drel'
p3253
S'pof:\xe0\xa4\x95\xe0\xa4\xb0\xe0\xa4\xa8\xe0\xa5\x87'
p3254
sS'chunktype'
p3255
S'head:JJP'
p3256
ssbsg1899
I00
sg1902
I01
sg1913
Nsg1900
Nsg199
I5
sg185
I1
sg2232
I0
sg1911
Nsg2233
S'JJ'
p3257
sg292
(issf_api
FeatureSet
p3258
(dp3259
g295
(dp3260
S'posn'
p3261
S'100'
p3262
sS'name'
p3263
S'\xe0\xa4\xb8\xe0\xa5\x8d\xe0\xa4\xaa\xe0\xa4\xb7\xe0\xa5\x8d\xe0\xa4\x9f'
p3264
sS'af'
p3265
S'\xe0\xa4\xb8\xe0\xa5\x8d\xe0\xa4\xaa\xe0\xa4\xb7\xe0\xa5\x8d\xe0\xa4\x9f,adj,any,any,,,,'
p3266
ssbsg1921
I00
sba(issf_api
Word
p3267
(dp3268
g2211
I00
sg2212
V\u0915\u0930\u0928\u0947
p3269
sg2214
(issf_api
FeatureSet
p3270
(dp3271
g295
(dp3272
S'posn'
p3273
S'110'
p3274
sS'name'
p3275
S'\xe0\xa4\x95\xe0\xa4\xb0\xe0\xa4\xa8\xe0\xa5\x87'
p3276
sS'af'
p3277
S'\xe0\xa4\x95\xe0\xa4\xb0,v,any,any,any,o,\xe0\xa4\xa8\xe0\xa4\xbe_\xe0\xa4\x95\xe0\xa5\x87_\xe0\xa4\xb2\xe0\xa4\xbf\xe0\xa4\x8f,nA'
p3278
sS'chunkid'
p3279
S'VGNN'
p3280
sS'drel'
p3281
S'rt:\xe0\xa4\x95\xe0\xa4\xb9\xe0\xa4\xbe'
p3282
sS'vpos'
p3283
S'tam_2_3'
p3284
sS'chunktype'
p3285
S'head:VGNN'
p3286
ssbsg1899
I00
sg1902
I01
sg1913
Nsg1900
Nsg199
I6
sg185
I1
sg2232
I0
sg1911
Nsg2233
S'VM'
p3287
sg292
(issf_api
FeatureSet
p3288
(dp3289
g295
(dp3290
S'posn'
p3291
S'110'
p3292
sS'name'
p3293
S'\xe0\xa4\x95\xe0\xa4\xb0\xe0\xa4\xa8\xe0\xa5\x87'
p3294
sS'af'
p3295
S'\xe0\xa4\x95\xe0\xa4\xb0,v,any,any,any,o,\xe0\xa4\xa8\xe0\xa4\xbe,nA'
p3296
ssbsg1921
I00
sba(issf_api
Word
p3297
(dp3298
g2211
I00
sg2212
V\u0915\u0947
p3299
sg2214
(issf_api
FeatureSet
p3300
(dp3301
g295
(dp3302
S'posn'
p3303
S'120'
p3304
sS'name'
p3305
S'\xe0\xa4\x95\xe0\xa5\x872'
p3306
sS'drel'
p3307
S'lwg__psp:\xe0\xa4\x95\xe0\xa4\xb0\xe0\xa4\xa8\xe0\xa5\x87'
p3308
sS'chunktype'
p3309
S'child:VGNN'
p3310
sS'af'
p3311
S'\xe0\xa4\x95\xe0\xa5\x87,psp,,,,,,'
p3312
ssbsg1899
I00
sg1902
I01
sg1913
Nsg1900
Nsg199
I6
sg185
I1
sg2232
I0
sg1911
Nsg2233
S'PSP'
p3313
sg292
(issf_api
FeatureSet
p3314
(dp3315
g295
(dp3316
S'posn'
p3317
S'120'
p3318
sS'name'
p3319
S'\xe0\xa4\x95\xe0\xa5\x872'
p3320
sS'af'
p3321
S'\xe0\xa4\x95\xe0\xa5\x87,psp,,,,,,'
p3322
ssbsg1921
I00
sba(issf_api
Word
p3323
(dp3324
g2211
I00
sg2212
V\u0932\u093f\u090f
p3325
sg2214
(issf_api
FeatureSet
p3326
(dp3327
g295
(dp3328
S'posn'
p3329
S'130'
p3330
sS'name'
p3331
S'\xe0\xa4\xb2\xe0\xa4\xbf\xe0\xa4\x8f'
p3332
sS'drel'
p3333
S'lwg__psp:\xe0\xa4\x95\xe0\xa4\xb0\xe0\xa4\xa8\xe0\xa5\x87'
p3334
sS'chunktype'
p3335
S'child:VGNN'
p3336
sS'af'
p3337
S'\xe0\xa4\xb2\xe0\xa4\xbf\xe0\xa4\x8f,psp,,,,,,'
p3338
ssbsg1899
I00
sg1902
I01
sg1913
Nsg1900
Nsg199
I6
sg185
I1
sg2232
I0
sg1911
Nsg2233
S'PSP'
p3339
sg292
(issf_api
FeatureSet
p3340
(dp3341
g295
(dp3342
S'posn'
p3343
S'130'
p3344
sS'name'
p3345
S'\xe0\xa4\xb2\xe0\xa4\xbf\xe0\xa4\x8f'
p3346
sS'af'
p3347
S'\xe0\xa4\xb2\xe0\xa4\xbf\xe0\xa4\x8f,psp,,,,,,'
p3348
ssbsg1921
I00
sba(issf_api
Word
p3349
(dp3350
g2211
I00
sg2212
V\u0915\u0939\u093e
p3351
sg2214
(issf_api
FeatureSet
p3352
(dp3353
g295
(dp3354
S'posn'
p3355
S'140'
p3356
sS'name'
p3357
S'\xe0\xa4\x95\xe0\xa4\xb9\xe0\xa4\xbe'
p3358
sS'af'
p3359
S'\xe0\xa4\x95\xe0\xa4\xb9,v,m,sg,3,,\xe0\xa4\xaf\xe0\xa4\xbe_\xe0\xa4\xb9\xe0\xa5\x88,yA'
p3360
sS'chunkid'
p3361
S'VGF'
p3362
sS'chunktype'
p3363
S'head:VGF'
p3364
sS'voicetype'
p3365
S'active'
p3366
sS'vpos'
p3367
S'tam_2'
p3368
sS'stype'
p3369
S'declarative'
p3370
ssbsg1899
I00
sg1902
I01
sg1913
Nsg1900
Nsg199
I7
sg185
I1
sg2232
I0
sg1911
Nsg2233
S'VM'
p3371
sg292
(issf_api
FeatureSet
p3372
(dp3373
g295
(dp3374
S'posn'
p3375
S'140'
p3376
sS'name'
p3377
S'\xe0\xa4\x95\xe0\xa4\xb9\xe0\xa4\xbe'
p3378
sS'af'
p3379
S'\xe0\xa4\x95\xe0\xa4\xb9,v,m,sg,any,,\xe0\xa4\xaf\xe0\xa4\xbe,yA'
p3380
ssbsg1921
I00
sba(issf_api
Word
p3381
(dp3382
g2211
I00
sg2212
V\u0939\u0948
p3383
sg2214
(issf_api
FeatureSet
p3384
(dp3385
g295
(dp3386
S'posn'
p3387
S'150'
p3388
sS'name'
p3389
S'\xe0\xa4\xb9\xe0\xa5\x88'
p3390
sS'drel'
p3391
S'lwg__vaux:\xe0\xa4\x95\xe0\xa4\xb9\xe0\xa4\xbe'
p3392
sS'chunktype'
p3393
S'child:VGF'
p3394
sS'af'
p3395
S'\xe0\xa4\xb9\xe0\xa5\x88,v,any,sg,3,,\xe0\xa4\xb9\xe0\xa5\x88,hE'
p3396
ssbsg1899
I00
sg1902
I01
sg1913
Nsg1900
Nsg199
I7
sg185
I1
sg2232
I0
sg1911
Nsg2233
S'VAUX'
p3397
sg292
(issf_api
FeatureSet
p3398
(dp3399
g295
(dp3400
S'posn'
p3401
S'150'
p3402
sS'name'
p3403
S'\xe0\xa4\xb9\xe0\xa5\x88'
p3404
sS'af'
p3405
S'\xe0\xa4\xb9\xe0\xa5\x88,v,any,sg,3,,\xe0\xa4\xb9\xe0\xa5\x88,hE'
p3406
ssbsg1921
I00
sba(issf_api
Word
p3407
(dp3408
g2211
I00
sg2212
V\u0964
sg2214
(issf_api
FeatureSet
p3409
(dp3410
g295
(dp3411
S'posn'
p3412
S'160'
p3413
sS'name'
p3414
S'\xe0\xa5\xa4'
p3415
sS'af'
p3416
S'\xe0\xa5\xa4,punc,,,,,,'
p3417
sS'chunkid'
p3418
S'BLK'
p3419
sS'drel'
p3420
S'rsym:\xe0\xa4\x95\xe0\xa4\xb9\xe0\xa4\xbe'
p3421
sS'chunktype'
p3422
S'head:BLK'
p3423
ssbsg1899
I00
sg1902
I01
sg1913
Nsg1900
Nsg199
I8
sg185
I1
sg2232
I0
sg1911
Nsg2233
S'SYM'
p3424
sg292
(issf_api
FeatureSet
p3425
(dp3426
g295
(dp3427
S'posn'
p3428
S'160'
p3429
sS'name'
p3430
S'\xe0\xa5\xa4'
p3431
sS'af'
p3432
S'\xe0\xa5\xa4,punc,,,,,,'
p3433
ssbsg1921
I00
sba(issf_api
Word
p3434
(dp3435
g2211
I00
sg2212
V\u0930\u093e\u091c\u094d\u092f
p3436
sg2214
(issf_api
FeatureSet
p3437
(dp3438
g295
(dp3439
S'posn'
p3440
S'10'
p3441
sS'name'
p3442
S'\xe0\xa4\xb0\xe0\xa4\xbe\xe0\xa4\x9c\xe0\xa5\x8d\xe0\xa4\xaf'
p3443
sS'af'
p3444
S'\xe0\xa4\xb0\xe0\xa4\xbe\xe0\xa4\x9c\xe0\xa5\x8d\xe0\xa4\xaf,n,m,sg,3,o,0_\xe0\xa4\x95\xe0\xa4\xbe,0'
p3445
sS'chunkid'
p3446
S'NP'
p3447
sS'drel'
p3448
S'r6:\xe0\xa4\x86\xe0\xa4\xaf\xe0\xa5\x8b\xe0\xa4\x97'
p3449
sS'vpos'
p3450
S'vib_2'
p3451
sS'chunktype'
p3452
S'head:NP'
p3453
ssbsg1899
I00
sg1902
I00
sg1913
Nsg1900
Nsg199
I0
sg185
I2
sg2232
Nsg1911
Nsg2233
S'NN'
p3454
sg292
(issf_api
FeatureSet
p3455
(dp3456
g295
(dp3457
S'posn'
p3458
S'10'
p3459
sS'name'
p3460
S'\xe0\xa4\xb0\xe0\xa4\xbe\xe0\xa4\x9c\xe0\xa5\x8d\xe0\xa4\xaf'
p3461
sS'af'
p3462
S'\xe0\xa4\xb0\xe0\xa4\xbe\xe0\xa4\x9c\xe0\xa5\x8d\xe0\xa4\xaf,n,m,sg,3,o,0,0'
p3463
ssbsg1921
I00
sba(issf_api
Word
p3464
(dp3465
g2211
I00
sg2212
V\u0915\u0947
p3466
sg2214
(issf_api
FeatureSet
p3467
(dp3468
g295
(dp3469
S'posn'
p3470
S'20'
p3471
sS'name'
p3472
S'\xe0\xa4\x95\xe0\xa5\x87'
p3473
sS'drel'
p3474
S'lwg__psp:\xe0\xa4\xb0\xe0\xa4\xbe\xe0\xa4\x9c\xe0\xa5\x8d\xe0\xa4\xaf'
p3475
sS'chunktype'
p3476
S'child:NP'
p3477
sS'af'
p3478
S'\xe0\xa4\x95\xe0\xa4\xbe,psp,m,sg,,o,,'
p3479
ssbsg1899
I00
sg1902
I00
sg1913
Nsg1900
Nsg199
I0
sg185
I2
sg2232
Nsg1911
Nsg2233
S'PSP'
p3480
sg292
(issf_api
FeatureSet
p3481
(dp3482
g295
(dp3483
S'posn'
p3484
S'20'
p3485
sS'name'
p3486
S'\xe0\xa4\x95\xe0\xa5\x87'
p3487
sS'af'
p3488
S'\xe0\xa4\x95\xe0\xa4\xbe,psp,m,sg,,o,,'
p3489
ssbsg1921
I00
sba(issf_api
Word
p3490
(dp3491
g2211
I00
sg2212
V\u092e\u0939\u093f\u0932\u093e
p3492
sg2214
(issf_api
FeatureSet
p3493
(dp3494
g295
(dp3495
S'posn'
p3496
S'30'
p3497
sS'name'
p3498
S'\xe0\xa4\xae\xe0\xa4\xb9\xe0\xa4\xbf\xe0\xa4\xb2\xe0\xa4\xbe'
p3499
sS'drel'
p3500
S'pof__cn:\xe0\xa4\x86\xe0\xa4\xaf\xe0\xa5\x8b\xe0\xa4\x97'
p3501
sS'chunktype'
p3502
S'child:NP2'
p3503
sS'af'
p3504
S'\xe0\xa4\xae\xe0\xa4\xb9\xe0\xa4\xbf\xe0\xa4\xb2\xe0\xa4\xbe,n,f,sg,3,d,0,0'
p3505
ssbsg1899
I00
sg1902
I00
sg1913
Nsg1900
Nsg199
I1
sg185
I2
sg2232
Nsg1911
Nsg2233
S'NNPC'
p3506
sg292
(issf_api
FeatureSet
p3507
(dp3508
g295
(dp3509
S'posn'
p3510
S'30'
p3511
sS'name'
p3512
S'\xe0\xa4\xae\xe0\xa4\xb9\xe0\xa4\xbf\xe0\xa4\xb2\xe0\xa4\xbe'
p3513
sS'af'
p3514
S'\xe0\xa4\xae\xe0\xa4\xb9\xe0\xa4\xbf\xe0\xa4\xb2\xe0\xa4\xbe,n,f,sg,3,d,0,0'
p3515
ssbsg1921
I00
sba(issf_api
Word
p3516
(dp3517
g2211
I00
sg2212
V\u0906\u092f\u094b\u0917
p3518
sg2214
(issf_api
FeatureSet
p3519
(dp3520
g295
(dp3521
S'posn'
p3522
S'40'
p3523
sS'name'
p3524
S'\xe0\xa4\x86\xe0\xa4\xaf\xe0\xa5\x8b\xe0\xa4\x97'
p3525
sS'af'
p3526
S'\xe0\xa4\x86\xe0\xa4\xaf\xe0\xa5\x8b\xe0\xa4\x97,n,m,sg,3,o,0_\xe0\xa4\x95\xe0\xa4\xbe,0'
p3527
sS'chunkid'
p3528
S'NP2'
p3529
sS'drel'
p3530
S'r6:\xe0\xa4\x85\xe0\xa4\xa7\xe0\xa5\x8d\xe0\xa4\xaf\xe0\xa4\x95\xe0\xa5\x8d\xe0\xa4\xb7'
p3531
sS'vpos'
p3532
S'vib_3'
p3533
sS'chunktype'
p3534
S'head:NP2'
p3535
ssbsg1899
I00
sg1902
I00
sg1913
Nsg1900
Nsg199
I1
sg185
I2
sg2232
Nsg1911
Nsg2233
S'NNP'
p3536
sg292
(issf_api
FeatureSet
p3537
(dp3538
g295
(dp3539
S'posn'
p3540
S'40'
p3541
sS'name'
p3542
S'\xe0\xa4\x86\xe0\xa4\xaf\xe0\xa5\x8b\xe0\xa4\x97'
p3543
sS'af'
p3544
S'\xe0\xa4\x86\xe0\xa4\xaf\xe0\xa5\x8b\xe0\xa4\x97,n,m,sg,3,o,0,0'
p3545
ssbsg1921
I00
sba(issf_api
Word
p3546
(dp3547
g2211
I00
sg2212
V\u0915\u0940
p3548
sg2214
(issf_api
FeatureSet
p3549
(dp3550
g295
(dp3551
S'posn'
p3552
S'50'
p3553
sS'name'
p3554
S'\xe0\xa4\x95\xe0\xa5\x80'
p3555
sS'drel'
p3556
S'lwg__psp:\xe0\xa4\x86\xe0\xa4\xaf\xe0\xa5\x8b\xe0\xa4\x97'
p3557
sS'chunktype'
p3558
S'child:NP2'
p3559
sS'af'
p3560
S'\xe0\xa4\x95\xe0\xa4\xbe,psp,f,sg,,o,,'
p3561
ssbsg1899
I00
sg1902
I00
sg1913
Nsg1900
Nsg199
I1
sg185
I2
sg2232
Nsg1911
Nsg2233
S'PSP'
p3562
sg292
(issf_api
FeatureSet
p3563
(dp3564
g295
(dp3565
S'posn'
p3566
S'50'
p3567
sS'name'
p3568
S'\xe0\xa4\x95\xe0\xa5\x80'
p3569
sS'af'
p3570
S'\xe0\xa4\x95\xe0\xa4\xbe,psp,f,sg,,o,,'
p3571
ssbsg1921
I00
sba(issf_api
Word
p3572
(dp3573
g2211
I00
sg2212
V\u0905\u0927\u094d\u092f\u0915\u094d\u0937
p3574
sg2214
(issf_api
FeatureSet
p3575
(dp3576
g295
(dp3577
S'posn'
p3578
S'60'
p3579
sS'name'
p3580
S'\xe0\xa4\x85\xe0\xa4\xa7\xe0\xa5\x8d\xe0\xa4\xaf\xe0\xa4\x95\xe0\xa5\x8d\xe0\xa4\xb7'
p3581
sS'af'
p3582
S'\xe0\xa4\x85\xe0\xa4\xa7\xe0\xa5\x8d\xe0\xa4\xaf\xe0\xa4\x95\xe0\xa5\x8d\xe0\xa4\xb7,n,any,sg,3,o,0,0'
p3583
sS'chunkid'
p3584
S'NP3'
p3585
sS'drel'
p3586
S'nmod:\xe0\xa4\xaa\xe0\xa5\x8d\xe0\xa4\xb0\xe0\xa4\x95\xe0\xa4\xbe\xe0\xa4\xb6'
p3587
sS'chunktype'
p3588
S'head:NP3'
p3589
ssbsg1899
I00
sg1902
I00
sg1913
Nsg1900
Nsg199
I2
sg185
I2
sg2232
Nsg1911
Nsg2233
S'NN'
p3590
sg292
(issf_api
FeatureSet
p3591
(dp3592
g295
(dp3593
S'posn'
p3594
S'60'
p3595
sS'name'
p3596
S'\xe0\xa4\x85\xe0\xa4\xa7\xe0\xa5\x8d\xe0\xa4\xaf\xe0\xa4\x95\xe0\xa5\x8d\xe0\xa4\xb7'
p3597
sS'af'
p3598
S'\xe0\xa4\x85\xe0\xa4\xa7\xe0\xa5\x8d\xe0\xa4\xaf\xe0\xa4\x95\xe0\xa5\x8d\xe0\xa4\xb7,n,any,sg,3,o,0,0'
p3599
ssbsg1921
I00
sba(issf_api
Word
p3600
(dp3601
g2211
I00
sg2212
V\u092e\u0902\u091c\u0942
p3602
sg2214
(issf_api
FeatureSet
p3603
(dp3604
g295
(dp3605
S'posn'
p3606
S'70'
p3607
sS'name'
p3608
S'\xe0\xa4\xae\xe0\xa4\x82\xe0\xa4\x9c\xe0\xa5\x82'
p3609
sS'drel'
p3610
S'pof__cn:\xe0\xa4\xaa\xe0\xa5\x8d\xe0\xa4\xb0\xe0\xa4\x95\xe0\xa4\xbe\xe0\xa4\xb6'
p3611
sS'chunktype'
p3612
S'child:NP4'
p3613
sS'af'
p3614
S'\xe0\xa4\xae\xe0\xa4\x82\xe0\xa4\x9c\xe0\xa5\x82,n,f,sg,3,d,0,0'
p3615
ssbsg1899
I00
sg1902
I00
sg1913
Nsg1900
Nsg199
I3
sg185
I2
sg2232
Nsg1911
Nsg2233
S'NNPC'
p3616
sg292
(issf_api
FeatureSet
p3617
(dp3618
g295
(dp3619
S'posn'
p3620
S'70'
p3621
sS'name'
p3622
S'\xe0\xa4\xae\xe0\xa4\x82\xe0\xa4\x9c\xe0\xa5\x82'
p3623
sS'af'
p3624
S'\xe0\xa4\xae\xe0\xa4\x82\xe0\xa4\x9c\xe0\xa5\x82,n,f,sg,3,d,0,0'
p3625
ssbsg1921
I00
sba(issf_api
Word
p3626
(dp3627
g2211
I00
sg2212
V\u092a\u094d\u0930\u0915\u093e\u0936
p3628
sg2214
(issf_api
FeatureSet
p3629
(dp3630
g295
(dp3631
S'posn'
p3632
S'80'
p3633
sS'name'
p3634
S'\xe0\xa4\xaa\xe0\xa5\x8d\xe0\xa4\xb0\xe0\xa4\x95\xe0\xa4\xbe\xe0\xa4\xb6'
p3635
sS'af'
p3636
S'\xe0\xa4\xaa\xe0\xa5\x8d\xe0\xa4\xb0\xe0\xa4\x95\xe0\xa4\xbe\xe0\xa4\xb6,n,f,sg,3,o,0_\xe0\xa4\xa8\xe0\xa5\x87,0'
p3637
sS'chunkid'
p3638
S'NP4'
p3639
sS'drel'
p3640
S'k1:\xe0\xa4\xad\xe0\xa5\x87\xe0\xa4\x9c\xe0\xa4\xbe'
p3641
sS'vpos'
p3642
S'vib_3'
p3643
sS'chunktype'
p3644
S'head:NP4'
p3645
ssbsg1899
I00
sg1902
I00
sg1913
Nsg1900
Nsg199
I3
sg185
I2
sg2232
Nsg1911
Nsg2233
S'NNP'
p3646
sg292
(issf_api
FeatureSet
p3647
(dp3648
g295
(dp3649
S'posn'
p3650
S'80'
p3651
sS'name'
p3652
S'\xe0\xa4\xaa\xe0\xa5\x8d\xe0\xa4\xb0\xe0\xa4\x95\xe0\xa4\xbe\xe0\xa4\xb6'
p3653
sS'af'
p3654
S'\xe0\xa4\xaa\xe0\xa5\x8d\xe0\xa4\xb0\xe0\xa4\x95\xe0\xa4\xbe\xe0\xa4\xb6,n,f,sg,3,o,0,0'
p3655
ssbsg1921
I00
sba(issf_api
Word
p3656
(dp3657
g2211
I00
sg2212
V\u0928\u0947
p3658
sg2214
(issf_api
FeatureSet
p3659
(dp3660
g295
(dp3661
S'posn'
p3662
S'90'
p3663
sS'name'
p3664
S'\xe0\xa4\xa8\xe0\xa5\x87'
p3665
sS'drel'
p3666
S'lwg__psp:\xe0\xa4\xaa\xe0\xa5\x8d\xe0\xa4\xb0\xe0\xa4\x95\xe0\xa4\xbe\xe0\xa4\xb6'
p3667
sS'chunktype'
p3668
S'child:NP4'
p3669
sS'af'
p3670
S'\xe0\xa4\xa8\xe0\xa5\x87,psp,,,,,,'
p3671
ssbsg1899
I00
sg1902
I00
sg1913
Nsg1900
Nsg199
I3
sg185
I2
sg2232
Nsg1911
Nsg2233
S'PSP'
p3672
sg292
(issf_api
FeatureSet
p3673
(dp3674
g295
(dp3675
S'posn'
p3676
S'90'
p3677
sS'name'
p3678
S'\xe0\xa4\xa8\xe0\xa5\x87'
p3679
sS'af'
p3680
S'\xe0\xa4\xa8\xe0\xa5\x87,psp,,,,,,'
p3681
ssbsg1921
I00
sba(issf_api
Word
p3682
(dp3683
g2211
I00
sg2212
V\u0909\u0926\u093f\u0924
p3684
sg2214
(issf_api
FeatureSet
p3685
(dp3686
g295
(dp3687
S'posn'
p3688
S'100'
p3689
sS'name'
p3690
S'\xe0\xa4\x89\xe0\xa4\xa6\xe0\xa4\xbf\xe0\xa4\xa4'
p3691
sS'drel'
p3692
S'pof__cn:\xe0\xa4\xa8\xe0\xa4\xbe\xe0\xa4\xb0\xe0\xa4\xbe\xe0\xa4\xaf\xe0\xa4\xa3'
p3693
sS'chunktype'
p3694
S'child:NP5'
p3695
sS'af'
p3696
S'\xe0\xa4\x89\xe0\xa4\xa6\xe0\xa4\xbf\xe0\xa4\xa4,n,m,sg,3,d,0,0'
p3697
ssbsg1899
I00
sg1902
I00
sg1913
Nsg1900
Nsg199
I4
sg185
I2
sg2232
Nsg1911
Nsg2233
S'NNPC'
p3698
sg292
(issf_api
FeatureSet
p3699
(dp3700
g295
(dp3701
S'posn'
p3702
S'100'
p3703
sS'name'
p3704
S'\xe0\xa4\x89\xe0\xa4\xa6\xe0\xa4\xbf\xe0\xa4\xa4'
p3705
sS'af'
p3706
S'\xe0\xa4\x89\xe0\xa4\xa6\xe0\xa4\xbf\xe0\xa4\xa4,n,m,sg,3,d,0,0'
p3707
ssbsg1921
I00
sba(issf_api
Word
p3708
(dp3709
g2211
I00
sg2212
V\u0928\u093e\u0930\u093e\u092f\u0923
p3710
sg2214
(issf_api
FeatureSet
p3711
(dp3712
g295
(dp3713
S'posn'
p3714
S'110'
p3715
sS'name'
p3716
S'\xe0\xa4\xa8\xe0\xa4\xbe\xe0\xa4\xb0\xe0\xa4\xbe\xe0\xa4\xaf\xe0\xa4\xa3'
p3717
sS'af'
p3718
S'\xe0\xa4\xa8\xe0\xa4\xbe\xe0\xa4\xb0\xe0\xa4\xbe\xe0\xa4\xaf\xe0\xa4\xa3,n,m,sg,3,o,0_\xe0\xa4\x95\xe0\xa5\x8b,0'
p3719
sS'chunkid'
p3720
S'NP5'
p3721
sS'drel'
p3722
S'k4:\xe0\xa4\xad\xe0\xa5\x87\xe0\xa4\x9c\xe0\xa4\xbe'
p3723
sS'vpos'
p3724
S'vib_3'
p3725
sS'chunktype'
p3726
S'head:NP5'
p3727
ssbsg1899
I00
sg1902
I00
sg1913
Nsg1900
Nsg199
I4
sg185
I2
sg2232
Nsg1911
Nsg2233
S'NNP'
p3728
sg292
(issf_api
FeatureSet
p3729
(dp3730
g295
(dp3731
S'posn'
p3732
S'110'
p3733
sS'name'
p3734
S'\xe0\xa4\xa8\xe0\xa4\xbe\xe0\xa4\xb0\xe0\xa4\xbe\xe0\xa4\xaf\xe0\xa4\xa3'
p3735
sS'af'
p3736
S'\xe0\xa4\xa8\xe0\xa4\xbe\xe0\xa4\xb0\xe0\xa4\xbe\xe0\xa4\xaf\xe0\xa4\xa3,n,m,sg,3,o,0,0'
p3737
ssbsg1921
I00
sba(issf_api
Word
p3738
(dp3739
g2211
I00
sg2212
V\u0915\u094b
p3740
sg2214
(issf_api
FeatureSet
p3741
(dp3742
g295
(dp3743
S'posn'
p3744
S'120'
p3745
sS'name'
p3746
S'\xe0\xa4\x95\xe0\xa5\x8b'
p3747
sS'drel'
p3748
S'lwg__psp:\xe0\xa4\xa8\xe0\xa4\xbe\xe0\xa4\xb0\xe0\xa4\xbe\xe0\xa4\xaf\xe0\xa4\xa3'
p3749
sS'chunktype'
p3750
S'child:NP5'
p3751
sS'af'
p3752
S'\xe0\xa4\x95\xe0\xa5\x8b,psp,,,,,,'
p3753
ssbsg1899
I00
sg1902
I00
sg1913
Nsg1900
Nsg199
I4
sg185
I2
sg2232
Nsg1911
Nsg2233
S'PSP'
p3754
sg292
(issf_api
FeatureSet
p3755
(dp3756
g295
(dp3757
S'posn'
p3758
S'120'
p3759
sS'name'
p3760
S'\xe0\xa4\x95\xe0\xa5\x8b'
p3761
sS'af'
p3762
S'\xe0\xa4\x95\xe0\xa5\x8b,psp,,,,,,'
p3763
ssbsg1921
I00
sba(issf_api
Word
p3764
(dp3765
g2211
I00
sg2212
V\u092f\u0939
p3766
sg2214
(issf_api
FeatureSet
p3767
(dp3768
g295
(dp3769
S'posn'
p3770
S'130'
p3771
sS'name'
p3772
S'\xe0\xa4\xaf\xe0\xa4\xb9'
p3773
sS'drel'
p3774
S'nmod__adj:\xe0\xa4\xa8\xe0\xa5\x8b\xe0\xa4\x9f\xe0\xa4\xbf\xe0\xa4\xb8'
p3775
sS'chunktype'
p3776
S'child:NP6'
p3777
sS'af'
p3778
S'\xe0\xa4\xaf\xe0\xa4\xb9,pn,any,sg,3,d,,'
p3779
ssbsg1899
I00
sg1902
I00
sg1913
Nsg1900
Nsg199
I5
sg185
I2
sg2232
Nsg1911
Nsg2233
S'DEM'
p3780
sg292
(issf_api
FeatureSet
p3781
(dp3782
g295
(dp3783
S'posn'
p3784
S'130'
p3785
sS'name'
p3786
S'\xe0\xa4\xaf\xe0\xa4\xb9'
p3787
sS'af'
p3788
S'\xe0\xa4\xaf\xe0\xa4\xb9,pn,any,sg,3,d,,'
p3789
ssbsg1921
I00
sba(issf_api
Word
p3790
(dp3791
g2211
I00
sg2212
V\u0928\u094b\u091f\u093f\u0938
p3792
sg2214
(issf_api
FeatureSet
p3793
(dp3794
g295
(dp3795
S'posn'
p3796
S'140'
p3797
sS'name'
p3798
S'\xe0\xa4\xa8\xe0\xa5\x8b\xe0\xa4\x9f\xe0\xa4\xbf\xe0\xa4\xb8'
p3799
sS'af'
p3800
S'\xe0\xa4\xa8\xe0\xa5\x8b\xe0\xa4\x9f\xe0\xa4\xbf\xe0\xa4\xb8,n,m,sg,3,d,0,0'
p3801
sS'chunkid'
p3802
S'NP6'
p3803
sS'drel'
p3804
S'k2:\xe0\xa4\xad\xe0\xa5\x87\xe0\xa4\x9c\xe0\xa4\xbe'
p3805
sS'chunktype'
p3806
S'head:NP6'
p3807
ssbsg1899
I00
sg1902
I00
sg1913
Nsg1900
Nsg199
I5
sg185
I2
sg2232
Nsg1911
Nsg2233
S'NN'
p3808
sg292
(issf_api
FeatureSet
p3809
(dp3810
g295
(dp3811
S'posn'
p3812
S'140'
p3813
sS'name'
p3814
S'\xe0\xa4\xa8\xe0\xa5\x8b\xe0\xa4\x9f\xe0\xa4\xbf\xe0\xa4\xb8'
p3815
sS'af'
p3816
S'\xe0\xa4\xa8\xe0\xa5\x8b\xe0\xa4\x9f\xe0\xa4\xbf\xe0\xa4\xb8,n,m,sg,3,d,0,0'
p3817
ssbsg1921
I00
sba(issf_api
Word
p3818
(dp3819
g2211
I00
sg2212
V\u0909\u0928\u0915\u0947
p3820
sg2214
(issf_api
FeatureSet
p3821
(dp3822
g295
(dp3823
S'posn'
p3824
S'150'
p3825
sS'name'
p3826
S'\xe0\xa4\x89\xe0\xa4\xa8\xe0\xa4\x95\xe0\xa5\x87'
p3827
sS'af'
p3828
S'\xe0\xa4\xb5\xe0\xa4\xb9,pn,m,sg,3h,o,\xe0\xa4\x95\xe0\xa4\xbe,kA'
p3829
sS'chunkid'
p3830
S'NP7'
p3831
sS'drel'
p3832
S'r6:\xe0\xa4\xae\xe0\xa5\x81\xe0\xa4\x82\xe0\xa4\xac\xe0\xa4\x88'
p3833
sS'chunktype'
p3834
S'head:NP7'
p3835
ssbsg1899
I00
sg1902
I00
sg1913
Nsg1900
Nsg199
I6
sg185
I2
sg2232
Nsg1911
Nsg2233
S'PRP'
p3836
sg292
(issf_api
FeatureSet
p3837
(dp3838
g295
(dp3839
S'posn'
p3840
S'150'
p3841
sS'name'
p3842
S'\xe0\xa4\x89\xe0\xa4\xa8\xe0\xa4\x95\xe0\xa5\x87'
p3843
sS'af'
p3844
S'\xe0\xa4\xb5\xe0\xa4\xb9,pn,m,sg,3h,o,\xe0\xa4\x95\xe0\xa4\xbe,kA'
p3845
ssbsg1921
I00
sba(issf_api
Word
p3846
(dp3847
g2211
I00
sg2212
V\u092e\u0941\u0902\u092c\u0908
p3848
sg2214
(issf_api
FeatureSet
p3849
(dp3850
g295
(dp3851
S'posn'
p3852
S'160'
p3853
sS'name'
p3854
S'\xe0\xa4\xae\xe0\xa5\x81\xe0\xa4\x82\xe0\xa4\xac\xe0\xa4\x88'
p3855
sS'af'
p3856
S'\xe0\xa4\xae\xe0\xa5\x81\xe0\xa4\x82\xe0\xa4\xac\xe0\xa4\x88,n,f,sg,3,o,0_\xe0\xa4\x95\xe0\xa4\xbe,0'
p3857
sS'chunkid'
p3858
S'NP8'
p3859
sS'drel'
p3860
S'r6:\xe0\xa4\xaa\xe0\xa4\xa4\xe0\xa5\x87'
p3861
sS'vpos'
p3862
S'vib_2'
p3863
sS'chunktype'
p3864
S'head:NP8'
p3865
ssbsg1899
I00
sg1902
I00
sg1913
Nsg1900
Nsg199
I7
sg185
I2
sg2232
Nsg1911
Nsg2233
S'NNP'
p3866
sg292
(issf_api
FeatureSet
p3867
(dp3868
g295
(dp3869
S'posn'
p3870
S'160'
p3871
sS'name'
p3872
S'\xe0\xa4\xae\xe0\xa5\x81\xe0\xa4\x82\xe0\xa4\xac\xe0\xa4\x88'
p3873
sS'af'
p3874
S'\xe0\xa4\xae\xe0\xa5\x81\xe0\xa4\x82\xe0\xa4\xac\xe0\xa4\x88,n,f,sg,3,o,0,0'
p3875
ssbsg1921
I00
sba(issf_api
Word
p3876
(dp3877
g2211
I00
sg2212
V\u0915\u0947
p3878
sg2214
(issf_api
FeatureSet
p3879
(dp3880
g295
(dp3881
S'posn'
p3882
S'170'
p3883
sS'name'
p3884
S'\xe0\xa4\x95\xe0\xa5\x872'
p3885
sS'drel'
p3886
S'lwg__psp:\xe0\xa4\xae\xe0\xa5\x81\xe0\xa4\x82\xe0\xa4\xac\xe0\xa4\x88'
p3887
sS'chunktype'
p3888
S'child:NP8'
p3889
sS'af'
p3890
S'\xe0\xa4\x95\xe0\xa4\xbe,psp,m,sg,,o,,'
p3891
ssbsg1899
I00
sg1902
I00
sg1913
Nsg1900
Nsg199
I7
sg185
I2
sg2232
Nsg1911
Nsg2233
S'PSP'
p3892
sg292
(issf_api
FeatureSet
p3893
(dp3894
g295
(dp3895
S'posn'
p3896
S'170'
p3897
sS'name'
p3898
S'\xe0\xa4\x95\xe0\xa5\x872'
p3899
sS'af'
p3900
S'\xe0\xa4\x95\xe0\xa4\xbe,psp,m,sg,,o,,'
p3901
ssbsg1921
I00
sba(issf_api
Word
p3902
(dp3903
g2211
I00
sg2212
V\u092a\u0924\u0947
p3904
sg2214
(issf_api
FeatureSet
p3905
(dp3906
g295
(dp3907
S'posn'
p3908
S'180'
p3909
sS'name'
p3910
S'\xe0\xa4\xaa\xe0\xa4\xa4\xe0\xa5\x87'
p3911
sS'af'
p3912
S'\xe0\xa4\xaa\xe0\xa4\xa4\xe0\xa4\xbe,n,m,sg,3,o,0_\xe0\xa4\xaa\xe0\xa4\xb0,0'
p3913
sS'chunkid'
p3914
S'NP9'
p3915
sS'drel'
p3916
S'k7:\xe0\xa4\xad\xe0\xa5\x87\xe0\xa4\x9c\xe0\xa4\xbe'
p3917
sS'vpos'
p3918
S'vib_2'
p3919
sS'chunktype'
p3920
S'head:NP9'
p3921
ssbsg1899
I00
sg1902
I00
sg1913
Nsg1900
Nsg199
I8
sg185
I2
sg2232
Nsg1911
Nsg2233
S'NN'
p3922
sg292
(issf_api
FeatureSet
p3923
(dp3924
g295
(dp3925
S'posn'
p3926
S'180'
p3927
sS'name'
p3928
S'\xe0\xa4\xaa\xe0\xa4\xa4\xe0\xa5\x87'
p3929
sS'af'
p3930
S'\xe0\xa4\xaa\xe0\xa4\xa4\xe0\xa4\xbe,n,m,sg,3,o,0,0'
p3931
ssbsg1921
I00
sba(issf_api
Word
p3932
(dp3933
g2211
I00
sg2212
V\u092a\u0930
p3934
sg2214
(issf_api
FeatureSet
p3935
(dp3936
g295
(dp3937
S'posn'
p3938
S'190'
p3939
sS'name'
p3940
S'\xe0\xa4\xaa\xe0\xa4\xb0'
p3941
sS'drel'
p3942
S'lwg__psp:\xe0\xa4\xaa\xe0\xa4\xa4\xe0\xa5\x87'
p3943
sS'chunktype'
p3944
S'child:NP9'
p3945
sS'af'
p3946
S'\xe0\xa4\xaa\xe0\xa4\xb0,psp,,,,,,'
p3947
ssbsg1899
I00
sg1902
I00
sg1913
Nsg1900
Nsg199
I8
sg185
I2
sg2232
Nsg1911
Nsg2233
S'PSP'
p3948
sg292
(issf_api
FeatureSet
p3949
(dp3950
g295
(dp3951
S'posn'
p3952
S'190'
p3953
sS'name'
p3954
S'\xe0\xa4\xaa\xe0\xa4\xb0'
p3955
sS'af'
p3956
S'\xe0\xa4\xaa\xe0\xa4\xb0,psp,,,,,,'
p3957
ssbsg1921
I00
sba(issf_api
Word
p3958
(dp3959
g2211
I00
sg2212
V\u092d\u0947\u091c\u093e
p3960
sg2214
(issf_api
FeatureSet
p3961
(dp3962
g295
(dp3963
S'posn'
p3964
S'200'
p3965
sS'name'
p3966
S'\xe0\xa4\xad\xe0\xa5\x87\xe0\xa4\x9c\xe0\xa4\xbe'
p3967
sS'af'
p3968
S'\xe0\xa4\xad\xe0\xa5\x87\xe0\xa4\x9c,v,m,sg,3,,\xe0\xa4\xaf\xe0\xa4\xbe_\xe0\xa4\xb9\xe0\xa5\x88,yA'
p3969
sS'chunkid'
p3970
S'VGF'
p3971
sS'chunktype'
p3972
S'head:VGF'
p3973
sS'voicetype'
p3974
S'active'
p3975
sS'vpos'
p3976
S'tam_2'
p3977
sS'stype'
p3978
S'declarative'
p3979
ssbsg1899
I00
sg1902
I00
sg1913
Nsg1900
Nsg199
I9
sg185
I2
sg2232
Nsg1911
Nsg2233
S'VM'
p3980
sg292
(issf_api
FeatureSet
p3981
(dp3982
g295
(dp3983
S'posn'
p3984
S'200'
p3985
sS'name'
p3986
S'\xe0\xa4\xad\xe0\xa5\x87\xe0\xa4\x9c\xe0\xa4\xbe'
p3987
sS'af'
p3988
S'\xe0\xa4\xad\xe0\xa5\x87\xe0\xa4\x9c,v,m,sg,any,,\xe0\xa4\xaf\xe0\xa4\xbe,yA'
p3989
ssbsg1921
I00
sba(issf_api
Word
p3990
(dp3991
g2211
I00
sg2212
V\u0939\u0948
p3992
sg2214
(issf_api
FeatureSet
p3993
(dp3994
g295
(dp3995
S'posn'
p3996
S'210'
p3997
sS'name'
p3998
S'\xe0\xa4\xb9\xe0\xa5\x88'
p3999
sS'drel'
p4000
S'lwg__vaux:\xe0\xa4\xad\xe0\xa5\x87\xe0\xa4\x9c\xe0\xa4\xbe'
p4001
sS'chunktype'
p4002
S'child:VGF'
p4003
sS'af'
p4004
S'\xe0\xa4\xb9\xe0\xa5\x88,v,any,sg,3,,\xe0\xa4\xb9\xe0\xa5\x88,hE'
p4005
ssbsg1899
I00
sg1902
I00
sg1913
Nsg1900
Nsg199
I9
sg185
I2
sg2232
Nsg1911
Nsg2233
S'VAUX'
p4006
sg292
(issf_api
FeatureSet
p4007
(dp4008
g295
(dp4009
S'posn'
p4010
S'210'
p4011
sS'name'
p4012
S'\xe0\xa4\xb9\xe0\xa5\x88'
p4013
sS'af'
p4014
S'\xe0\xa4\xb9\xe0\xa5\x88,v,any,sg,3,,\xe0\xa4\xb9\xe0\xa5\x88,hE'
p4015
ssbsg1921
I00
sba(issf_api
Word
p4016
(dp4017
g2211
I00
sg2212
V\u0964
sg2214
(issf_api
FeatureSet
p4018
(dp4019
g295
(dp4020
S'posn'
p4021
S'220'
p4022
sS'name'
p4023
S'\xe0\xa5\xa4'
p4024
sS'af'
p4025
S'\xe0\xa5\xa4,punc,,,,,,'
p4026
sS'chunkid'
p4027
S'BLK'
p4028
sS'drel'
p4029
S'rsym:\xe0\xa4\xad\xe0\xa5\x87\xe0\xa4\x9c\xe0\xa4\xbe'
p4030
sS'chunktype'
p4031
S'head:BLK'
p4032
ssbsg1899
I00
sg1902
I00
sg1913
Nsg1900
Nsg199
I10
sg185
I2
sg2232
Nsg1911
Nsg2233
S'SYM'
p4033
sg292
(issf_api
FeatureSet
p4034
(dp4035
g295
(dp4036
S'posn'
p4037
S'220'
p4038
sS'name'
p4039
S'\xe0\xa5\xa4'
p4040
sS'af'
p4041
S'\xe0\xa5\xa4,punc,,,,,,'
p4042
ssbsg1921
I00
sba(issf_api
Word
p4043
(dp4044
g2211
I00
sg2212
V\u0909\u0928\u094d\u0939\u094b\u0902\u0928\u0947
p4045
sg2214
(issf_api
FeatureSet
p4046
(dp4047
g295
(dp4048
S'posn'
p4049
S'10'
p4050
sS'name'
p4051
S'\xe0\xa4\x89\xe0\xa4\xa8\xe0\xa5\x8d\xe0\xa4\xb9\xe0\xa5\x8b\xe0\xa4\x82\xe0\xa4\xa8\xe0\xa5\x87'
p4052
sS'af'
p4053
S'\xe0\xa4\xb5\xe0\xa4\xb9,pn,any,sg,3h,o,\xe0\xa4\xa8\xe0\xa5\x87,ne'
p4054
sS'chunkid'
p4055
S'NP'
p4056
sS'drel'
p4057
S'k1:\xe0\xa4\x95\xe0\xa4\xb9\xe0\xa4\xbe'
p4058
sS'chunktype'
p4059
S'head:NP'
p4060
ssbsg1899
I00
sg1902
I00
sg1913
Nsg1900
Nsg199
I0
sg185
I3
sg2232
Nsg1911
Nsg2233
S'PRP'
p4061
sg292
(issf_api
FeatureSet
p4062
(dp4063
g295
(dp4064
S'posn'
p4065
S'10'
p4066
sS'name'
p4067
S'\xe0\xa4\x89\xe0\xa4\xa8\xe0\xa5\x8d\xe0\xa4\xb9\xe0\xa5\x8b\xe0\xa4\x82\xe0\xa4\xa8\xe0\xa5\x87'
p4068
sS'af'
p4069
S'\xe0\xa4\xb5\xe0\xa4\xb9,pn,any,sg,3h,o,\xe0\xa4\xa8\xe0\xa5\x87,ne'
p4070
ssbsg1921
I00
sba(issf_api
Word
p4071
(dp4072
g2211
I00
sg2212
V\u0915\u0939\u093e
p4073
sg2214
(issf_api
FeatureSet
p4074
(dp4075
g295
(dp4076
S'posn'
p4077
S'20'
p4078
sS'name'
p4079
S'\xe0\xa4\x95\xe0\xa4\xb9\xe0\xa4\xbe'
p4080
sS'af'
p4081
S'\xe0\xa4\x95\xe0\xa4\xb9,v,m,sg,any,,\xe0\xa4\xaf\xe0\xa4\xbe,yA'
p4082
sS'chunkid'
p4083
S'VGF'
p4084
sS'chunktype'
p4085
S'head:VGF'
p4086
sS'voicetype'
p4087
S'active'
p4088
sS'stype'
p4089
S'declarative'
p4090
ssbsg1899
I00
sg1902
I00
sg1913
Nsg1900
Nsg199
I1
sg185
I3
sg2232
Nsg1911
Nsg2233
S'VM'
p4091
sg292
(issf_api
FeatureSet
p4092
(dp4093
g295
(dp4094
S'posn'
p4095
S'20'
p4096
sS'name'
p4097
S'\xe0\xa4\x95\xe0\xa4\xb9\xe0\xa4\xbe'
p4098
sS'af'
p4099
S'\xe0\xa4\x95\xe0\xa4\xb9,v,m,sg,any,,\xe0\xa4\xaf\xe0\xa4\xbe,yA'
p4100
ssbsg1921
I00
sba(issf_api
Word
p4101
(dp4102
g2211
I00
sg2212
V\u0915\u093f
p4103
sg2214
(issf_api
FeatureSet
p4104
(dp4105
g295
(dp4106
S'posn'
p4107
S'30'
p4108
sS'name'
p4109
S'\xe0\xa4\x95\xe0\xa4\xbf'
p4110
sS'af'
p4111
S'\xe0\xa4\x95\xe0\xa4\xbf,avy,,,,,,'
p4112
sS'chunkid'
p4113
S'CCP'
p4114
sS'drel'
p4115
S'k2:\xe0\xa4\x95\xe0\xa4\xb9\xe0\xa4\xbe'
p4116
sS'chunktype'
p4117
S'head:CCP'
p4118
ssbsg1899
I00
sg1902
I00
sg1913
Nsg1900
Nsg199
I2
sg185
I3
sg2232
Nsg1911
Nsg2233
S'CC'
p4119
sg292
(issf_api
FeatureSet
p4120
(dp4121
g295
(dp4122
S'posn'
p4123
S'30'
p4124
sS'name'
p4125
S'\xe0\xa4\x95\xe0\xa4\xbf'
p4126
sS'af'
p4127
S'\xe0\xa4\x95\xe0\xa4\xbf,avy,,,,,,'
p4128
ssbsg1921
I00
sba(issf_api
Word
p4129
(dp4130
g2211
I00
sg2212
V\u092a\u0939\u0932\u0940
p4131
sg2214
(issf_api
FeatureSet
p4132
(dp4133
g295
(dp4134
S'posn'
p4135
S'40'
p4136
sS'name'
p4137
S'\xe0\xa4\xaa\xe0\xa4\xb9\xe0\xa4\xb2\xe0\xa5\x80'
p4138
sS'drel'
p4139
S'nmod__adj:\xe0\xa4\xaa\xe0\xa4\xa4\xe0\xa5\x8d\xe0\xa4\xa8\xe0\xa5\x80'
p4140
sS'chunktype'
p4141
S'child:NP2'
p4142
sS'af'
p4143
S'\xe0\xa4\xaa\xe0\xa4\xb9\xe0\xa4\xb2\xe0\xa4\xbe,num,f,sg,,d,,'
p4144
ssbsg1899
I00
sg1902
I00
sg1913
Nsg1900
Nsg199
I3
sg185
I3
sg2232
Nsg1911
Nsg2233
S'QO'
p4145
sg292
(issf_api
FeatureSet
p4146
(dp4147
g295
(dp4148
S'posn'
p4149
S'40'
p4150
sS'name'
p4151
S'\xe0\xa4\xaa\xe0\xa4\xb9\xe0\xa4\xb2\xe0\xa5\x80'
p4152
sS'af'
p4153
S'\xe0\xa4\xaa\xe0\xa4\xb9\xe0\xa4\xb2\xe0\xa4\xbe,num,f,sg,,d,,'
p4154
ssbsg1921
I00
sba(issf_api
Word
p4155
(dp4156
g2211
I00
sg2212
V\u092a\u0924\u094d\u0928\u0940
p4157
sg2214
(issf_api
FeatureSet
p4158
(dp4159
g295
(dp4160
S'posn'
p4161
S'50'
p4162
sS'name'
p4163
S'\xe0\xa4\xaa\xe0\xa4\xa4\xe0\xa5\x8d\xe0\xa4\xa8\xe0\xa5\x80'
p4164
sS'af'
p4165
S'\xe0\xa4\xaa\xe0\xa4\xa4\xe0\xa5\x8d\xe0\xa4\xa8\xe0\xa5\x80,n,f,sg,3,d,0,0'
p4166
sS'chunkid'
p4167
S'NP2'
p4168
sS'drel'
p4169
S'k2:\xe0\xa4\xb9\xe0\xa5\x8b\xe0\xa4\xa8\xe0\xa5\x87'
p4170
sS'chunktype'
p4171
S'head:NP2'
p4172
ssbsg1899
I00
sg1902
I00
sg1913
Nsg1900
Nsg199
I3
sg185
I3
sg2232
Nsg1911
Nsg2233
S'NN'
p4173
sg292
(issf_api
FeatureSet
p4174
(dp4175
g295
(dp4176
S'posn'
p4177
S'50'
p4178
sS'name'
p4179
S'\xe0\xa4\xaa\xe0\xa4\xa4\xe0\xa5\x8d\xe0\xa4\xa8\xe0\xa5\x80'
p4180
sS'af'
p4181
S'\xe0\xa4\xaa\xe0\xa4\xa4\xe0\xa5\x8d\xe0\xa4\xa8\xe0\xa5\x80,n,f,sg,3,d,0,0'
p4182
ssbsg1921
I00
sba(issf_api
Word
p4183
(dp4184
g2211
I00
sg2212
V\u0939\u094b\u0928\u0947
p4185
sg2214
(issf_api
FeatureSet
p4186
(dp4187
g295
(dp4188
S'posn'
p4189
S'60'
p4190
sS'name'
p4191
S'\xe0\xa4\xb9\xe0\xa5\x8b\xe0\xa4\xa8\xe0\xa5\x87'
p4192
sS'af'
p4193
S'\xe0\xa4\xb9\xe0\xa5\x8b,v,any,sg,any,o,\xe0\xa4\xa8\xe0\xa4\xbe_\xe0\xa4\x95\xe0\xa4\xbe,nA'
p4194
sS'chunkid'
p4195
S'VGNN'
p4196
sS'drel'
p4197
S'r6-k2:\xe0\xa4\xa6\xe0\xa4\xbe\xe0\xa4\xb5\xe0\xa4\xbe'
p4198
sS'vpos'
p4199
S'tam_2'
p4200
sS'chunktype'
p4201
S'head:VGNN'
p4202
ssbsg1899
I00
sg1902
I00
sg1913
Nsg1900
Nsg199
I4
sg185
I3
sg2232
Nsg1911
Nsg2233
S'VM'
p4203
sg292
(issf_api
FeatureSet
p4204
(dp4205
g295
(dp4206
S'posn'
p4207
S'60'
p4208
sS'name'
p4209
S'\xe0\xa4\xb9\xe0\xa5\x8b\xe0\xa4\xa8\xe0\xa5\x87'
p4210
sS'af'
p4211
S'\xe0\xa4\xb9\xe0\xa5\x8b,v,any,any,any,o,\xe0\xa4\xa8\xe0\xa4\xbe,nA'
p4212
ssbsg1921
I00
sba(issf_api
Word
p4213
(dp4214
g2211
I00
sg2212
V\u0915\u093e
p4215
sg2214
(issf_api
FeatureSet
p4216
(dp4217
g295
(dp4218
S'posn'
p4219
S'70'
p4220
sS'name'
p4221
S'\xe0\xa4\x95\xe0\xa4\xbe'
p4222
sS'drel'
p4223
S'lwg__psp:\xe0\xa4\xb9\xe0\xa5\x8b\xe0\xa4\xa8\xe0\xa5\x87'
p4224
sS'chunktype'
p4225
S'child:VGNN'
p4226
sS'af'
p4227
S'\xe0\xa4\x95\xe0\xa4\xbe,psp,m,sg,,d,,'
p4228
ssbsg1899
I00
sg1902
I00
sg1913
Nsg1900
Nsg199
I4
sg185
I3
sg2232
Nsg1911
Nsg2233
S'PSP'
p4229
sg292
(issf_api
FeatureSet
p4230
(dp4231
g295
(dp4232
S'posn'
p4233
S'70'
p4234
sS'name'
p4235
S'\xe0\xa4\x95\xe0\xa4\xbe'
p4236
sS'af'
p4237
S'\xe0\xa4\x95\xe0\xa4\xbe,psp,m,sg,,d,,'
p4238
ssbsg1921
I00
sba(issf_api
Word
p4239
(dp4240
g2211
I00
sg2212
V\u0926\u093e\u0935\u093e
p4241
sg2214
(issf_api
FeatureSet
p4242
(dp4243
g295
(dp4244
S'posn'
p4245
S'80'
p4246
sS'name'
p4247
S'\xe0\xa4\xa6\xe0\xa4\xbe\xe0\xa4\xb5\xe0\xa4\xbe'
p4248
sS'af'
p4249
S'\xe0\xa4\xa6\xe0\xa4\xbe\xe0\xa4\xb5\xe0\xa4\xbe,n,m,sg,3,d,0,0'
p4250
sS'chunkid'
p4251
S'NP3'
p4252
sS'drel'
p4253
S'pof:\xe0\xa4\x95\xe0\xa4\xb0\xe0\xa4\xa8\xe0\xa5\x87'
p4254
sS'chunktype'
p4255
S'head:NP3'
p4256
ssbsg1899
I00
sg1902
I00
sg1913
Nsg1900
Nsg199
I5
sg185
I3
sg2232
Nsg1911
Nsg2233
S'NN'
p4257
sg292
(issf_api
FeatureSet
p4258
(dp4259
g295
(dp4260
S'posn'
p4261
S'80'
p4262
sS'name'
p4263
S'\xe0\xa4\xa6\xe0\xa4\xbe\xe0\xa4\xb5\xe0\xa4\xbe'
p4264
sS'af'
p4265
S'\xe0\xa4\xa6\xe0\xa4\xbe\xe0\xa4\xb5\xe0\xa4\xbe,n,m,sg,3,d,0,0'
p4266
ssbsg1921
I00
sba(issf_api
Word
p4267
(dp4268
g2211
I00
sg2212
V\u0915\u0930\u0928\u0947
p4269
sg2214
(issf_api
FeatureSet
p4270
(dp4271
g295
(dp4272
S'posn'
p4273
S'90'
p4274
sS'name'
p4275
S'\xe0\xa4\x95\xe0\xa4\xb0\xe0\xa4\xa8\xe0\xa5\x87'
p4276
sS'af'
p4277
S'\xe0\xa4\x95\xe0\xa4\xb0,v,any,sg,any,o,\xe0\xa4\xa8\xe0\xa4\xbe_\xe0\xa4\xb5\xe0\xa4\xbe\xe0\xa4\xb2\xe0\xa4\xbe,nA'
p4278
sS'chunkid'
p4279
S'VGNN2'
p4280
sS'drel'
p4281
S'nmod:\xe0\xa4\xa8\xe0\xa4\xbe\xe0\xa4\xb0\xe0\xa4\xbe\xe0\xa4\xaf\xe0\xa4\xa3'
p4282
sS'vpos'
p4283
S'tam_2'
p4284
sS'chunktype'
p4285
S'head:VGNN2'
p4286
ssbsg1899
I00
sg1902
I00
sg1913
Nsg1900
Nsg199
I6
sg185
I3
sg2232
Nsg1911
Nsg2233
S'VM'
p4287
sg292
(issf_api
FeatureSet
p4288
(dp4289
g295
(dp4290
S'posn'
p4291
S'90'
p4292
sS'name'
p4293
S'\xe0\xa4\x95\xe0\xa4\xb0\xe0\xa4\xa8\xe0\xa5\x87'
p4294
sS'af'
p4295
S'\xe0\xa4\x95\xe0\xa4\xb0,v,any,any,any,o,\xe0\xa4\xa8\xe0\xa4\xbe,nA'
p4296
ssbsg1921
I00
sba(issf_api
Word
p4297
(dp4298
g2211
I00
sg2212
V\u0935\u093e\u0932\u0940
p4299
sg2214
(issf_api
FeatureSet
p4300
(dp4301
g295
(dp4302
S'posn'
p4303
S'100'
p4304
sS'name'
p4305
S'\xe0\xa4\xb5\xe0\xa4\xbe\xe0\xa4\xb2\xe0\xa5\x80'
p4306
sS'drel'
p4307
S'lwg__psp:\xe0\xa4\x95\xe0\xa4\xb0\xe0\xa4\xa8\xe0\xa5\x87'
p4308
sS'chunktype'
p4309
S'child:VGNN2'
p4310
sS'af'
p4311
S'\xe0\xa4\xb5\xe0\xa4\xbe\xe0\xa4\xb2\xe0\xa4\xbe,psp,f,sg,,o,,'
p4312
ssbsg1899
I00
sg1902
I00
sg1913
Nsg1900
Nsg199
I6
sg185
I3
sg2232
Nsg1911
Nsg2233
S'PSP'
p4313
sg292
(issf_api
FeatureSet
p4314
(dp4315
g295
(dp4316
S'posn'
p4317
S'100'
p4318
sS'name'
p4319
S'\xe0\xa4\xb5\xe0\xa4\xbe\xe0\xa4\xb2\xe0\xa5\x80'
p4320
sS'af'
p4321
S'\xe0\xa4\xb5\xe0\xa4\xbe\xe0\xa4\xb2\xe0\xa4\xbe,psp,f,sg,,o,,'
p4322
ssbsg1921
I00
sba(issf_api
Word
p4323
(dp4324
g2211
I00
sg2212
V\u0930\u0902\u091c\u0928\u093e
p4325
sg2214
(issf_api
FeatureSet
p4326
(dp4327
g295
(dp4328
S'posn'
p4329
S'110'
p4330
sS'name'
p4331
S'\xe0\xa4\xb0\xe0\xa4\x82\xe0\xa4\x9c\xe0\xa4\xa8\xe0\xa4\xbe'
p4332
sS'drel'
p4333
S'pof__cn:\xe0\xa4\xa8\xe0\xa4\xbe\xe0\xa4\xb0\xe0\xa4\xbe\xe0\xa4\xaf\xe0\xa4\xa3'
p4334
sS'chunktype'
p4335
S'child:NP4'
p4336
sS'af'
p4337
S'\xe0\xa4\xb0\xe0\xa4\x82\xe0\xa4\x9c\xe0\xa4\xa8\xe0\xa4\xbe,n,f,sg,3,d,0,0'
p4338
ssbsg1899
I00
sg1902
I00
sg1913
Nsg1900
Nsg199
I7
sg185
I3
sg2232
Nsg1911
Nsg2233
S'NNPC'
p4339
sg292
(issf_api
FeatureSet
p4340
(dp4341
g295
(dp4342
S'posn'
p4343
S'110'
p4344
sS'name'
p4345
S'\xe0\xa4\xb0\xe0\xa4\x82\xe0\xa4\x9c\xe0\xa4\xa8\xe0\xa4\xbe'
p4346
sS'af'
p4347
S'\xe0\xa4\xb0\xe0\xa4\x82\xe0\xa4\x9c\xe0\xa4\xa8\xe0\xa4\xbe,n,f,sg,3,d,0,0'
p4348
ssbsg1921
I00
sba(issf_api
Word
p4349
(dp4350
g2211
I00
sg2212
V\u0928\u093e\u0930\u093e\u092f\u0923
p4351
sg2214
(issf_api
FeatureSet
p4352
(dp4353
g295
(dp4354
S'posn'
p4355
S'120'
p4356
sS'name'
p4357
S'\xe0\xa4\xa8\xe0\xa4\xbe\xe0\xa4\xb0\xe0\xa4\xbe\xe0\xa4\xaf\xe0\xa4\xa3'
p4358
sS'af'
p4359
S'\xe0\xa4\xa8\xe0\xa4\xbe\xe0\xa4\xb0\xe0\xa4\xbe\xe0\xa4\xaf\xe0\xa4\xa3,n,f,sg,3,o,0_\xe0\xa4\x95\xe0\xa4\xbe,0'
p4360
sS'chunkid'
p4361
S'NP4'
p4362
sS'drel'
p4363
S'r6:\xe0\xa4\xb6\xe0\xa4\xbf\xe0\xa4\x95\xe0\xa4\xbe\xe0\xa4\xaf\xe0\xa4\xa4'
p4364
sS'vpos'
p4365
S'vib_3'
p4366
sS'chunktype'
p4367
S'head:NP4'
p4368
ssbsg1899
I00
sg1902
I00
sg1913
Nsg1900
Nsg199
I7
sg185
I3
sg2232
Nsg1911
Nsg2233
S'NNP'
p4369
sg292
(issf_api
FeatureSet
p4370
(dp4371
g295
(dp4372
S'posn'
p4373
S'120'
p4374
sS'name'
p4375
S'\xe0\xa4\xa8\xe0\xa4\xbe\xe0\xa4\xb0\xe0\xa4\xbe\xe0\xa4\xaf\xe0\xa4\xa3'
p4376
sS'af'
p4377
S'\xe0\xa4\xa8\xe0\xa4\xbe\xe0\xa4\xb0\xe0\xa4\xbe\xe0\xa4\xaf\xe0\xa4\xa3,n,f,sg,3,o,0,0'
p4378
ssbsg1921
I00
sba(issf_api
Word
p4379
(dp4380
g2211
I00
sg2212
V\u0915\u0940
p4381
sg2214
(issf_api
FeatureSet
p4382
(dp4383
g295
(dp4384
S'posn'
p4385
S'130'
p4386
sS'name'
p4387
S'\xe0\xa4\x95\xe0\xa5\x80'
p4388
sS'drel'
p4389
S'lwg__psp:\xe0\xa4\xa8\xe0\xa4\xbe\xe0\xa4\xb0\xe0\xa4\xbe\xe0\xa4\xaf\xe0\xa4\xa3'
p4390
sS'chunktype'
p4391
S'child:NP4'
p4392
sS'af'
p4393
S'\xe0\xa4\x95\xe0\xa4\xbe,psp,f,sg,,o,,'
p4394
ssbsg1899
I00
sg1902
I00
sg1913
Nsg1900
Nsg199
I7
sg185
I3
sg2232
Nsg1911
Nsg2233
S'PSP'
p4395
sg292
(issf_api
FeatureSet
p4396
(dp4397
g295
(dp4398
S'posn'
p4399
S'130'
p4400
sS'name'
p4401
S'\xe0\xa4\x95\xe0\xa5\x80'
p4402
sS'af'
p4403
S'\xe0\xa4\x95\xe0\xa4\xbe,psp,f,sg,,o,,'
p4404
ssbsg1921
I00
sba(issf_api
Word
p4405
(dp4406
g2211
I00
sg2212
V\u0936\u093f\u0915\u093e\u092f\u0924
p4407
sg2214
(issf_api
FeatureSet
p4408
(dp4409
g295
(dp4410
S'posn'
p4411
S'140'
p4412
sS'name'
p4413
S'\xe0\xa4\xb6\xe0\xa4\xbf\xe0\xa4\x95\xe0\xa4\xbe\xe0\xa4\xaf\xe0\xa4\xa4'
p4414
sS'af'
p4415
S'\xe0\xa4\xb6\xe0\xa4\xbf\xe0\xa4\x95\xe0\xa4\xbe\xe0\xa4\xaf\xe0\xa4\xa4,n,f,sg,3,o,0_\xe0\xa4\x95\xe0\xa4\xbe,0'
p4416
sS'chunkid'
p4417
S'NP5'
p4418
sS'drel'
p4419
S'r6:\xe0\xa4\x86\xe0\xa4\xa7\xe0\xa4\xbe\xe0\xa4\xb0'
p4420
sS'vpos'
p4421
S'vib_2'
p4422
sS'chunktype'
p4423
S'head:NP5'
p4424
ssbsg1899
I00
sg1902
I00
sg1913
Nsg1900
Nsg199
I8
sg185
I3
sg2232
Nsg1911
Nsg2233
S'NN'
p4425
sg292
(issf_api
FeatureSet
p4426
(dp4427
g295
(dp4428
S'posn'
p4429
S'140'
p4430
sS'name'
p4431
S'\xe0\xa4\xb6\xe0\xa4\xbf\xe0\xa4\x95\xe0\xa4\xbe\xe0\xa4\xaf\xe0\xa4\xa4'
p4432
sS'af'
p4433
S'\xe0\xa4\xb6\xe0\xa4\xbf\xe0\xa4\x95\xe0\xa4\xbe\xe0\xa4\xaf\xe0\xa4\xa4,n,f,sg,3,o,0,0'
p4434
ssbsg1921
I00
sba(issf_api
Word
p4435
(dp4436
g2211
I00
sg2212
V\u0915\u0947
p4437
sg2214
(issf_api
FeatureSet
p4438
(dp4439
g295
(dp4440
S'posn'
p4441
S'150'
p4442
sS'name'
p4443
S'\xe0\xa4\x95\xe0\xa5\x87'
p4444
sS'drel'
p4445
S'lwg__psp:\xe0\xa4\xb6\xe0\xa4\xbf\xe0\xa4\x95\xe0\xa4\xbe\xe0\xa4\xaf\xe0\xa4\xa4'
p4446
sS'chunktype'
p4447
S'child:NP5'
p4448
sS'af'
p4449
S'\xe0\xa4\x95\xe0\xa4\xbe,psp,m,sg,,o,,'
p4450
ssbsg1899
I00
sg1902
I00
sg1913
Nsg1900
Nsg199
I8
sg185
I3
sg2232
Nsg1911
Nsg2233
S'PSP'
p4451
sg292
(issf_api
FeatureSet
p4452
(dp4453
g295
(dp4454
S'posn'
p4455
S'150'
p4456
sS'name'
p4457
S'\xe0\xa4\x95\xe0\xa5\x87'
p4458
sS'af'
p4459
S'\xe0\xa4\x95\xe0\xa4\xbe,psp,m,sg,,o,,'
p4460
ssbsg1921
I00
sba(issf_api
Word
p4461
(dp4462
g2211
I00
sg2212
V\u0906\u0927\u093e\u0930
p4463
sg2214
(issf_api
FeatureSet
p4464
(dp4465
g295
(dp4466
S'posn'
p4467
S'160'
p4468
sS'name'
p4469
S'\xe0\xa4\x86\xe0\xa4\xa7\xe0\xa4\xbe\xe0\xa4\xb0'
p4470
sS'af'
p4471
S'\xe0\xa4\x86\xe0\xa4\xa7\xe0\xa4\xbe\xe0\xa4\xb0,n,m,sg,3,o,0_\xe0\xa4\xaa\xe0\xa4\xb0,0'
p4472
sS'chunkid'
p4473
S'NP6'
p4474
sS'drel'
p4475
S'k7:\xe0\xa4\x95\xe0\xa4\xb9\xe0\xa4\xbe2'
p4476
sS'vpos'
p4477
S'vib_2'
p4478
sS'chunktype'
p4479
S'head:NP6'
p4480
ssbsg1899
I00
sg1902
I00
sg1913
Nsg1900
Nsg199
I9
sg185
I3
sg2232
Nsg1911
Nsg2233
S'NN'
p4481
sg292
(issf_api
FeatureSet
p4482
(dp4483
g295
(dp4484
S'posn'
p4485
S'160'
p4486
sS'name'
p4487
S'\xe0\xa4\x86\xe0\xa4\xa7\xe0\xa4\xbe\xe0\xa4\xb0'
p4488
sS'af'
p4489
S'\xe0\xa4\x86\xe0\xa4\xa7\xe0\xa4\xbe\xe0\xa4\xb0,n,m,sg,3,o,0,0'
p4490
ssbsg1921
I00
sba(issf_api
Word
p4491
(dp4492
g2211
I00
sg2212
V\u092a\u0930
p4493
sg2214
(issf_api
FeatureSet
p4494
(dp4495
g295
(dp4496
S'posn'
p4497
S'170'
p4498
sS'name'
p4499
S'\xe0\xa4\xaa\xe0\xa4\xb0'
p4500
sS'drel'
p4501
S'lwg__psp:\xe0\xa4\x86\xe0\xa4\xa7\xe0\xa4\xbe\xe0\xa4\xb0'
p4502
sS'chunktype'
p4503
S'child:NP6'
p4504
sS'af'
p4505
S'\xe0\xa4\xaa\xe0\xa4\xb0,psp,,,,,,'
p4506
ssbsg1899
I00
sg1902
I00
sg1913
Nsg1900
Nsg199
I9
sg185
I3
sg2232
Nsg1911
Nsg2233
S'PSP'
p4507
sg292
(issf_api
FeatureSet
p4508
(dp4509
g295
(dp4510
S'posn'
p4511
S'170'
p4512
sS'name'
p4513
S'\xe0\xa4\xaa\xe0\xa4\xb0'
p4514
sS'af'
p4515
S'\xe0\xa4\xaa\xe0\xa4\xb0,psp,,,,,,'
p4516
ssbsg1921
I00
sba(issf_api
Word
p4517
(dp4518
g2211
I00
sg2212
V\u0909\u0928\u094d\u0939\u094b\u0902\u0928\u0947
p4519
sg2214
(issf_api
FeatureSet
p4520
(dp4521
g295
(dp4522
S'posn'
p4523
S'180'
p4524
sS'name'
p4525
S'\xe0\xa4\x89\xe0\xa4\xa8\xe0\xa5\x8d\xe0\xa4\xb9\xe0\xa5\x8b\xe0\xa4\x82\xe0\xa4\xa8\xe0\xa5\x872'
p4526
sS'af'
p4527
S'\xe0\xa4\xb5\xe0\xa4\xb9,pn,any,sg,3h,o,\xe0\xa4\xa8\xe0\xa5\x87,ne'
p4528
sS'chunkid'
p4529
S'NP7'
p4530
sS'drel'
p4531
S'k1:\xe0\xa4\x95\xe0\xa4\xb9\xe0\xa4\xbe2'
p4532
sS'chunktype'
p4533
S'head:NP7'
p4534
ssbsg1899
I00
sg1902
I00
sg1913
Nsg1900
Nsg199
I10
sg185
I3
sg2232
Nsg1911
Nsg2233
S'PRP'
p4535
sg292
(issf_api
FeatureSet
p4536
(dp4537
g295
(dp4538
S'posn'
p4539
S'180'
p4540
sS'name'
p4541
S'\xe0\xa4\x89\xe0\xa4\xa8\xe0\xa5\x8d\xe0\xa4\xb9\xe0\xa5\x8b\xe0\xa4\x82\xe0\xa4\xa8\xe0\xa5\x872'
p4542
sS'af'
p4543
S'\xe0\xa4\xb5\xe0\xa4\xb9,pn,any,sg,3h,o,\xe0\xa4\xa8\xe0\xa5\x87,ne'
p4544
ssbsg1921
I00
sba(issf_api
Word
p4545
(dp4546
g2211
I00
sg2212
V\u092a\u0902\u0926\u094d\u0930\u0939
p4547
sg2214
(issf_api
FeatureSet
p4548
(dp4549
g295
(dp4550
S'posn'
p4551
S'190'
p4552
sS'name'
p4553
S'\xe0\xa4\xaa\xe0\xa4\x82\xe0\xa4\xa6\xe0\xa5\x8d\xe0\xa4\xb0\xe0\xa4\xb9'
p4554
sS'drel'
p4555
S'nmod__adj:\xe0\xa4\xa6\xe0\xa4\xbf\xe0\xa4\xa8'
p4556
sS'chunktype'
p4557
S'child:NP8'
p4558
sS'af'
p4559
S'\xe0\xa4\xaa\xe0\xa4\x82\xe0\xa4\xa6\xe0\xa5\x8d\xe0\xa4\xb0\xe0\xa4\xb9,num,any,any,,any,,'
p4560
ssbsg1899
I00
sg1902
I00
sg1913
Nsg1900
Nsg199
I11
sg185
I3
sg2232
Nsg1911
Nsg2233
S'QC'
p4561
sg292
(issf_api
FeatureSet
p4562
(dp4563
g295
(dp4564
S'posn'
p4565
S'190'
p4566
sS'name'
p4567
S'\xe0\xa4\xaa\xe0\xa4\x82\xe0\xa4\xa6\xe0\xa5\x8d\xe0\xa4\xb0\xe0\xa4\xb9'
p4568
sS'af'
p4569
S'\xe0\xa4\xaa\xe0\xa4\x82\xe0\xa4\xa6\xe0\xa5\x8d\xe0\xa4\xb0\xe0\xa4\xb9,num,any,any,,any,,'
p4570
ssbsg1921
I00
sba(issf_api
Word
p4571
(dp4572
g2211
I00
sg2212
V\u0926\u093f\u0928
p4573
sg2214
(issf_api
FeatureSet
p4574
(dp4575
g295
(dp4576
S'posn'
p4577
S'200'
p4578
sS'name'
p4579
S'\xe0\xa4\xa6\xe0\xa4\xbf\xe0\xa4\xa8'
p4580
sS'af'
p4581
S'\xe0\xa4\xa6\xe0\xa4\xbf\xe0\xa4\xa8,n,m,sg,3,o,0_\xe0\xa4\x95\xe0\xa5\x87_\xe0\xa4\x85\xe0\xa4\x82\xe0\xa4\xa6\xe0\xa4\xb0,0'
p4582
sS'chunkid'
p4583
S'NP8'
p4584
sS'drel'
p4585
S'k7t:\xe0\xa4\x95\xe0\xa4\xb9\xe0\xa4\xbe2'
p4586
sS'vpos'
p4587
S'vib_3_4'
p4588
sS'chunktype'
p4589
S'head:NP8'
p4590
ssbsg1899
I00
sg1902
I00
sg1913
Nsg1900
Nsg199
I11
sg185
I3
sg2232
Nsg1911
Nsg2233
S'NN'
p4591
sg292
(issf_api
FeatureSet
p4592
(dp4593
g295
(dp4594
S'posn'
p4595
S'200'
p4596
sS'name'
p4597
S'\xe0\xa4\xa6\xe0\xa4\xbf\xe0\xa4\xa8'
p4598
sS'af'
p4599
S'\xe0\xa4\xa6\xe0\xa4\xbf\xe0\xa4\xa8,n,m,sg,3,o,0,0'
p4600
ssbsg1921
I00
sba(issf_api
Word
p4601
(dp4602
g2211
I00
sg2212
V\u0915\u0947
p4603
sg2214
(issf_api
FeatureSet
p4604
(dp4605
g295
(dp4606
S'posn'
p4607
S'210'
p4608
sS'name'
p4609
S'\xe0\xa4\x95\xe0\xa5\x872'
p4610
sS'drel'
p4611
S'lwg__psp:\xe0\xa4\xa6\xe0\xa4\xbf\xe0\xa4\xa8'
p4612
sS'chunktype'
p4613
S'child:NP8'
p4614
sS'af'
p4615
S'\xe0\xa4\x95\xe0\xa5\x87,psp,,,,,,'
p4616
ssbsg1899
I00
sg1902
I00
sg1913
Nsg1900
Nsg199
I11
sg185
I3
sg2232
Nsg1911
Nsg2233
S'PSP'
p4617
sg292
(issf_api
FeatureSet
p4618
(dp4619
g295
(dp4620
S'posn'
p4621
S'210'
p4622
sS'name'
p4623
S'\xe0\xa4\x95\xe0\xa5\x872'
p4624
sS'af'
p4625
S'\xe0\xa4\x95\xe0\xa5\x87,psp,,,,,,'
p4626
ssbsg1921
I00
sba(issf_api
Word
p4627
(dp4628
g2211
I00
sg2212
V\u0905\u0902\u0926\u0930
p4629
sg2214
(issf_api
FeatureSet
p4630
(dp4631
g295
(dp4632
S'posn'
p4633
S'220'
p4634
sS'name'
p4635
S'\xe0\xa4\x85\xe0\xa4\x82\xe0\xa4\xa6\xe0\xa4\xb0'
p4636
sS'drel'
p4637
S'lwg__psp:\xe0\xa4\xa6\xe0\xa4\xbf\xe0\xa4\xa8'
p4638
sS'chunktype'
p4639
S'child:NP8'
p4640
sS'af'
p4641
S'\xe0\xa4\x85\xe0\xa4\x82\xe0\xa4\xa6\xe0\xa4\xb0,nst,m,sg,3,d,,'
p4642
ssbsg1899
I00
sg1902
I00
sg1913
Nsg1900
Nsg199
I11
sg185
I3
sg2232
Nsg1911
Nsg2233
S'NST'
p4643
sg292
(issf_api
FeatureSet
p4644
(dp4645
g295
(dp4646
S'posn'
p4647
S'220'
p4648
sS'name'
p4649
S'\xe0\xa4\x85\xe0\xa4\x82\xe0\xa4\xa6\xe0\xa4\xb0'
p4650
sS'af'
p4651
S'\xe0\xa4\x85\xe0\xa4\x82\xe0\xa4\xa6\xe0\xa4\xb0,nst,m,sg,3,d,,'
p4652
ssbsg1921
I00
sba(issf_api
Word
p4653
(dp4654
g2211
I00
sg2212
V\u0905\u092a\u0928\u093e
p4655
sg2214
(issf_api
FeatureSet
p4656
(dp4657
g295
(dp4658
S'posn'
p4659
S'230'
p4660
sS'name'
p4661
S'\xe0\xa4\x85\xe0\xa4\xaa\xe0\xa4\xa8\xe0\xa4\xbe'
p4662
sS'af'
p4663
S'\xe0\xa4\x85\xe0\xa4\xaa\xe0\xa4\xa8\xe0\xa4\xbe,pn,m,sg,any,d,0,0'
p4664
sS'chunkid'
p4665
S'NP9'
p4666
sS'drel'
p4667
S'r6:\xe0\xa4\xb8\xe0\xa5\x8d\xe0\xa4\xaa\xe0\xa4\xb7\xe0\xa5\x8d\xe0\xa4\x9f\xe0\xa5\x80\xe0\xa4\x95\xe0\xa4\xb0\xe0\xa4\xa3'
p4668
sS'chunktype'
p4669
S'head:NP9'
p4670
ssbsg1899
I00
sg1902
I00
sg1913
Nsg1900
Nsg199
I12
sg185
I3
sg2232
Nsg1911
Nsg2233
S'PRP'
p4671
sg292
(issf_api
FeatureSet
p4672
(dp4673
g295
(dp4674
S'posn'
p4675
S'230'
p4676
sS'name'
p4677
S'\xe0\xa4\x85\xe0\xa4\xaa\xe0\xa4\xa8\xe0\xa4\xbe'
p4678
sS'af'
p4679
S'\xe0\xa4\x85\xe0\xa4\xaa\xe0\xa4\xa8\xe0\xa4\xbe,pn,m,sg,any,d,0,0'
p4680
ssbsg1921
I00
sba(issf_api
Word
p4681
(dp4682
g2211
I00
sg2212
V\u0938\u094d\u092a\u0937\u094d\u091f\u0940\u0915\u0930\u0923
p4683
sg2214
(issf_api
FeatureSet
p4684
(dp4685
g295
(dp4686
S'posn'
p4687
S'240'
p4688
sS'name'
p4689
S'\xe0\xa4\xb8\xe0\xa5\x8d\xe0\xa4\xaa\xe0\xa4\xb7\xe0\xa5\x8d\xe0\xa4\x9f\xe0\xa5\x80\xe0\xa4\x95\xe0\xa4\xb0\xe0\xa4\xa3'
p4690
sS'af'
p4691
S'\xe0\xa4\xb8\xe0\xa5\x8d\xe0\xa4\xaa\xe0\xa4\xb7\xe0\xa5\x8d\xe0\xa4\x9f\xe0\xa5\x80\xe0\xa4\x95\xe0\xa4\xb0\xe0\xa4\xa3,n,m,sg,3,d,0,0'
p4692
sS'chunkid'
p4693
S'NP10'
p4694
sS'drel'
p4695
S'k2:\xe0\xa4\xa6\xe0\xa5\x87\xe0\xa4\xa8\xe0\xa5\x87'
p4696
sS'chunktype'
p4697
S'head:NP10'
p4698
ssbsg1899
I00
sg1902
I00
sg1913
Nsg1900
Nsg199
I13
sg185
I3
sg2232
Nsg1911
Nsg2233
S'NN'
p4699
sg292
(issf_api
FeatureSet
p4700
(dp4701
g295
(dp4702
S'posn'
p4703
S'240'
p4704
sS'name'
p4705
S'\xe0\xa4\xb8\xe0\xa5\x8d\xe0\xa4\xaa\xe0\xa4\xb7\xe0\xa5\x8d\xe0\xa4\x9f\xe0\xa5\x80\xe0\xa4\x95\xe0\xa4\xb0\xe0\xa4\xa3'
p4706
sS'af'
p4707
S'\xe0\xa4\xb8\xe0\xa5\x8d\xe0\xa4\xaa\xe0\xa4\xb7\xe0\xa5\x8d\xe0\xa4\x9f\xe0\xa5\x80\xe0\xa4\x95\xe0\xa4\xb0\xe0\xa4\xa3,n,m,sg,3,d,0,0'
p4708
ssbsg1921
I00
sba(issf_api
Word
p4709
(dp4710
g2211
I00
sg2212
V\u0926\u0947\u0928\u0947
p4711
sg2214
(issf_api
FeatureSet
p4712
(dp4713
g295
(dp4714
S'posn'
p4715
S'250'
p4716
sS'name'
p4717
S'\xe0\xa4\xa6\xe0\xa5\x87\xe0\xa4\xa8\xe0\xa5\x87'
p4718
sS'af'
p4719
S'\xe0\xa4\xa6\xe0\xa5\x87,v,any,any,any,o,\xe0\xa4\xa8\xe0\xa4\xbe_\xe0\xa4\x95\xe0\xa5\x87_\xe0\xa4\xb2\xe0\xa4\xbf\xe0\xa4\x8f,nA'
p4720
sS'chunkid'
p4721
S'VGNN3'
p4722
sS'drel'
p4723
S'rt:\xe0\xa4\x95\xe0\xa4\xb9\xe0\xa4\xbe2'
p4724
sS'vpos'
p4725
S'tam_2_3'
p4726
sS'chunktype'
p4727
S'head:VGNN3'
p4728
ssbsg1899
I00
sg1902
I00
sg1913
Nsg1900
Nsg199
I14
sg185
I3
sg2232
Nsg1911
Nsg2233
S'VM'
p4729
sg292
(issf_api
FeatureSet
p4730
(dp4731
g295
(dp4732
S'posn'
p4733
S'250'
p4734
sS'name'
p4735
S'\xe0\xa4\xa6\xe0\xa5\x87\xe0\xa4\xa8\xe0\xa5\x87'
p4736
sS'af'
p4737
S'\xe0\xa4\xa6\xe0\xa5\x87,v,any,any,any,o,\xe0\xa4\xa8\xe0\xa4\xbe,nA'
p4738
ssbsg1921
I00
sba(issf_api
Word
p4739
(dp4740
g2211
I00
sg2212
V\u0915\u0947
p4741
sg2214
(issf_api
FeatureSet
p4742
(dp4743
g295
(dp4744
S'posn'
p4745
S'260'
p4746
sS'name'
p4747
S'\xe0\xa4\x95\xe0\xa5\x873'
p4748
sS'drel'
p4749
S'lwg__psp:\xe0\xa4\xa6\xe0\xa5\x87\xe0\xa4\xa8\xe0\xa5\x87'
p4750
sS'chunktype'
p4751
S'child:VGNN3'
p4752
sS'af'
p4753
S'\xe0\xa4\x95\xe0\xa5\x87,psp,,,,,,'
p4754
ssbsg1899
I00
sg1902
I00
sg1913
Nsg1900
Nsg199
I14
sg185
I3
sg2232
Nsg1911
Nsg2233
S'PSP'
p4755
sg292
(issf_api
FeatureSet
p4756
(dp4757
g295
(dp4758
S'posn'
p4759
S'260'
p4760
sS'name'
p4761
S'\xe0\xa4\x95\xe0\xa5\x873'
p4762
sS'af'
p4763
S'\xe0\xa4\x95\xe0\xa5\x87,psp,,,,,,'
p4764
ssbsg1921
I00
sba(issf_api
Word
p4765
(dp4766
g2211
I00
sg2212
V\u0932\u093f\u090f
p4767
sg2214
(issf_api
FeatureSet
p4768
(dp4769
g295
(dp4770
S'posn'
p4771
S'270'
p4772
sS'name'
p4773
S'\xe0\xa4\xb2\xe0\xa4\xbf\xe0\xa4\x8f'
p4774
sS'drel'
p4775
S'lwg__psp:\xe0\xa4\xa6\xe0\xa5\x87\xe0\xa4\xa8\xe0\xa5\x87'
p4776
sS'chunktype'
p4777
S'child:VGNN3'
p4778
sS'af'
p4779
S'\xe0\xa4\xb2\xe0\xa4\xbf\xe0\xa4\x8f,psp,,,,,,'
p4780
ssbsg1899
I00
sg1902
I00
sg1913
Nsg1900
Nsg199
I14
sg185
I3
sg2232
Nsg1911
Nsg2233
S'PSP'
p4781
sg292
(issf_api
FeatureSet
p4782
(dp4783
g295
(dp4784
S'posn'
p4785
S'270'
p4786
sS'name'
p4787
S'\xe0\xa4\xb2\xe0\xa4\xbf\xe0\xa4\x8f'
p4788
sS'af'
p4789
S'\xe0\xa4\xb2\xe0\xa4\xbf\xe0\xa4\x8f,psp,,,,,,'
p4790
ssbsg1921
I00
sba(issf_api
Word
p4791
(dp4792
g2211
I00
sg2212
V\u0915\u0939\u093e
p4793
sg2214
(issf_api
FeatureSet
p4794
(dp4795
g295
(dp4796
S'posn'
p4797
S'280'
p4798
sS'name'
p4799
S'\xe0\xa4\x95\xe0\xa4\xb9\xe0\xa4\xbe2'
p4800
sS'af'
p4801
S'\xe0\xa4\x95\xe0\xa4\xb9,v,m,sg,3,,\xe0\xa4\xaf\xe0\xa4\xbe_\xe0\xa4\xb9\xe0\xa5\x88,yA'
p4802
sS'chunkid'
p4803
S'VGF2'
p4804
sS'stype'
p4805
S'declarative'
p4806
sS'drel'
p4807
S'ccof:\xe0\xa4\x95\xe0\xa4\xbf'
p4808
sS'voicetype'
p4809
S'active'
p4810
sS'vpos'
p4811
S'tam_2'
p4812
sS'chunktype'
p4813
S'head:VGF2'
p4814
ssbsg1899
I00
sg1902
I00
sg1913
Nsg1900
Nsg199
I15
sg185
I3
sg2232
Nsg1911
Nsg2233
S'VM'
p4815
sg292
(issf_api
FeatureSet
p4816
(dp4817
g295
(dp4818
S'posn'
p4819
S'280'
p4820
sS'name'
p4821
S'\xe0\xa4\x95\xe0\xa4\xb9\xe0\xa4\xbe2'
p4822
sS'af'
p4823
S'\xe0\xa4\x95\xe0\xa4\xb9,v,m,sg,any,,\xe0\xa4\xaf\xe0\xa4\xbe,yA'
p4824
ssbsg1921
I00
sba(issf_api
Word
p4825
(dp4826
g2211
I00
sg2212
V\u0939\u0948
p4827
sg2214
(issf_api
FeatureSet
p4828
(dp4829
g295
(dp4830
S'posn'
p4831
S'290'
p4832
sS'name'
p4833
S'\xe0\xa4\xb9\xe0\xa5\x88'
p4834
sS'drel'
p4835
S'lwg__vaux:\xe0\xa4\x95\xe0\xa4\xb9\xe0\xa4\xbe2'
p4836
sS'chunktype'
p4837
S'child:VGF2'
p4838
sS'af'
p4839
S'\xe0\xa4\xb9\xe0\xa5\x88,v,any,sg,3,,\xe0\xa4\xb9\xe0\xa5\x88,hE'
p4840
ssbsg1899
I00
sg1902
I00
sg1913
Nsg1900
Nsg199
I15
sg185
I3
sg2232
Nsg1911
Nsg2233
S'VAUX'
p4841
sg292
(issf_api
FeatureSet
p4842
(dp4843
g295
(dp4844
S'posn'
p4845
S'290'
p4846
sS'name'
p4847
S'\xe0\xa4\xb9\xe0\xa5\x88'
p4848
sS'af'
p4849
S'\xe0\xa4\xb9\xe0\xa5\x88,v,any,sg,3,,\xe0\xa4\xb9\xe0\xa5\x88,hE'
p4850
ssbsg1921
I00
sba(issf_api
Word
p4851
(dp4852
g2211
I00
sg2212
V\u0964
sg2214
(issf_api
FeatureSet
p4853
(dp4854
g295
(dp4855
S'posn'
p4856
S'300'
p4857
sS'name'
p4858
S'\xe0\xa5\xa4'
p4859
sS'af'
p4860
S'\xe0\xa5\xa4,punc,,,,,,'
p4861
sS'chunkid'
p4862
S'BLK'
p4863
sS'drel'
p4864
S'rsym:\xe0\xa4\x95\xe0\xa4\xb9\xe0\xa4\xbe'
p4865
sS'chunktype'
p4866
S'head:BLK'
p4867
ssbsg1899
I00
sg1902
I00
sg1913
Nsg1900
Nsg199
I16
sg185
I3
sg2232
Nsg1911
Nsg2233
S'SYM'
p4868
sg292
(issf_api
FeatureSet
p4869
(dp4870
g295
(dp4871
S'posn'
p4872
S'300'
p4873
sS'name'
p4874
S'\xe0\xa5\xa4'
p4875
sS'af'
p4876
S'\xe0\xa5\xa4,punc,,,,,,'
p4877
ssbsg1921
I00
sba(issf_api
Word
p4878
(dp4879
g2211
I00
sg2212
V\u0906\u092f\u094b\u0917
p4880
sg2214
(issf_api
FeatureSet
p4881
(dp4882
g295
(dp4883
S'posn'
p4884
S'10'
p4885
sS'name'
p4886
S'\xe0\xa4\x86\xe0\xa4\xaf\xe0\xa5\x8b\xe0\xa4\x97'
p4887
sS'af'
p4888
S'\xe0\xa4\x86\xe0\xa4\xaf\xe0\xa5\x8b\xe0\xa4\x97,n,m,sg,3,o,0_\xe0\xa4\xa8\xe0\xa5\x87,0'
p4889
sS'chunkid'
p4890
S'NP'
p4891
sS'drel'
p4892
S'k1:\xe0\xa4\xaa\xe0\xa4\xbe\xe0\xa4\xaf\xe0\xa4\xbe'
p4893
sS'vpos'
p4894
S'vib_2'
p4895
sS'chunktype'
p4896
S'head:NP'
p4897
ssbsg1899
I00
sg1902
I00
sg1913
Nsg1900
Nsg199
I0
sg185
I4
sg2232
Nsg1911
Nsg2233
S'NN'
p4898
sg292
(issf_api
FeatureSet
p4899
(dp4900
g295
(dp4901
S'posn'
p4902
S'10'
p4903
sS'name'
p4904
S'\xe0\xa4\x86\xe0\xa4\xaf\xe0\xa5\x8b\xe0\xa4\x97'
p4905
sS'af'
p4906
S'\xe0\xa4\x86\xe0\xa4\xaf\xe0\xa5\x8b\xe0\xa4\x97,n,m,sg,3,o,0,0'
p4907
ssbsg1921
I00
sba(issf_api
Word
p4908
(dp4909
g2211
I00
sg2212
V\u0928\u0947
p4910
sg2214
(issf_api
FeatureSet
p4911
(dp4912
g295
(dp4913
S'posn'
p4914
S'20'
p4915
sS'name'
p4916
S'\xe0\xa4\xa8\xe0\xa5\x87'
p4917
sS'drel'
p4918
S'lwg__psp:\xe0\xa4\x86\xe0\xa4\xaf\xe0\xa5\x8b\xe0\xa4\x97'
p4919
sS'chunktype'
p4920
S'child:NP'
p4921
sS'af'
p4922
S'\xe0\xa4\xa8\xe0\xa5\x87,psp,,,,,,'
p4923
ssbsg1899
I00
sg1902
I00
sg1913
Nsg1900
Nsg199
I0
sg185
I4
sg2232
Nsg1911
Nsg2233
S'PSP'
p4924
sg292
(issf_api
FeatureSet
p4925
(dp4926
g295
(dp4927
S'posn'
p4928
S'20'
p4929
sS'name'
p4930
S'\xe0\xa4\xa8\xe0\xa5\x87'
p4931
sS'af'
p4932
S'\xe0\xa4\xa8\xe0\xa5\x87,psp,,,,,,'
p4933
ssbsg1921
I00
sba(issf_api
Word
p4934
(dp4935
g2211
I00
sg2212
V\u0936\u0928\u093f\u0935\u093e\u0930
p4936
sg2214
(issf_api
FeatureSet
p4937
(dp4938
g295
(dp4939
S'posn'
p4940
S'30'
p4941
sS'name'
p4942
S'\xe0\xa4\xb6\xe0\xa4\xa8\xe0\xa4\xbf\xe0\xa4\xb5\xe0\xa4\xbe\xe0\xa4\xb0'
p4943
sS'af'
p4944
S'\xe0\xa4\xb6\xe0\xa4\xa8\xe0\xa4\xbf\xe0\xa4\xb5\xe0\xa4\xbe\xe0\xa4\xb0,n,m,sg,3,o,0_\xe0\xa4\x95\xe0\xa5\x8b,0'
p4945
sS'chunkid'
p4946
S'NP2'
p4947
sS'drel'
p4948
S'k7t:\xe0\xa4\xaa\xe0\xa4\xbe\xe0\xa4\xaf\xe0\xa4\xbe'
p4949
sS'vpos'
p4950
S'vib_2'
p4951
sS'chunktype'
p4952
S'head:NP2'
p4953
ssbsg1899
I00
sg1902
I00
sg1913
Nsg1900
Nsg199
I1
sg185
I4
sg2232
Nsg1911
Nsg2233
S'NNP'
p4954
sg292
(issf_api
FeatureSet
p4955
(dp4956
g295
(dp4957
S'posn'
p4958
S'30'
p4959
sS'name'
p4960
S'\xe0\xa4\xb6\xe0\xa4\xa8\xe0\xa4\xbf\xe0\xa4\xb5\xe0\xa4\xbe\xe0\xa4\xb0'
p4961
sS'af'
p4962
S'\xe0\xa4\xb6\xe0\xa4\xa8\xe0\xa4\xbf\xe0\xa4\xb5\xe0\xa4\xbe\xe0\xa4\xb0,n,m,sg,3,o,0,0'
p4963
ssbsg1921
I00
sba(issf_api
Word
p4964
(dp4965
g2211
I00
sg2212
V\u0915\u094b
p4966
sg2214
(issf_api
FeatureSet
p4967
(dp4968
g295
(dp4969
S'posn'
p4970
S'40'
p4971
sS'name'
p4972
S'\xe0\xa4\x95\xe0\xa5\x8b'
p4973
sS'drel'
p4974
S'lwg__psp:\xe0\xa4\xb6\xe0\xa4\xa8\xe0\xa4\xbf\xe0\xa4\xb5\xe0\xa4\xbe\xe0\xa4\xb0'
p4975
sS'chunktype'
p4976
S'child:NP2'
p4977
sS'af'
p4978
S'\xe0\xa4\x95\xe0\xa5\x8b,psp,,,,,,'
p4979
ssbsg1899
I00
sg1902
I00
sg1913
Nsg1900
Nsg199
I1
sg185
I4
sg2232
Nsg1911
Nsg2233
S'PSP'
p4980
sg292
(issf_api
FeatureSet
p4981
(dp4982
g295
(dp4983
S'posn'
p4984
S'40'
p4985
sS'name'
p4986
S'\xe0\xa4\x95\xe0\xa5\x8b'
p4987
sS'af'
p4988
S'\xe0\xa4\x95\xe0\xa5\x8b,psp,,,,,,'
p4989
ssbsg1921
I00
sba(issf_api
Word
p4990
(dp4991
g2211
I00
sg2212
V\u0930\u0902\u091c\u0928\u093e
p4992
sg2214
(issf_api
FeatureSet
p4993
(dp4994
g295
(dp4995
S'posn'
p4996
S'50'
p4997
sS'name'
p4998
S'\xe0\xa4\xb0\xe0\xa4\x82\xe0\xa4\x9c\xe0\xa4\xa8\xe0\xa4\xbe'
p4999
sS'af'
p5000
S'\xe0\xa4\xb0\xe0\xa4\x82\xe0\xa4\x9c\xe0\xa4\xa8\xe0\xa4\xbe,n,f,sg,3,o,0_\xe0\xa4\x95\xe0\xa4\xbe,0'
p5001
sS'chunkid'
p5002
S'NP3'
p5003
sS'drel'
p5004
S'r6:\xe0\xa4\xb6\xe0\xa4\xbf\xe0\xa4\x95\xe0\xa4\xbe\xe0\xa4\xaf\xe0\xa4\xa4'
p5005
sS'vpos'
p5006
S'vib_2'
p5007
sS'chunktype'
p5008
S'head:NP3'
p5009
ssbsg1899
I00
sg1902
I00
sg1913
Nsg1900
Nsg199
I2
sg185
I4
sg2232
Nsg1911
Nsg2233
S'NNP'
p5010
sg292
(issf_api
FeatureSet
p5011
(dp5012
g295
(dp5013
S'posn'
p5014
S'50'
p5015
sS'name'
p5016
S'\xe0\xa4\xb0\xe0\xa4\x82\xe0\xa4\x9c\xe0\xa4\xa8\xe0\xa4\xbe'
p5017
sS'af'
p5018
S'\xe0\xa4\xb0\xe0\xa4\x82\xe0\xa4\x9c\xe0\xa4\xa8\xe0\xa4\xbe,n,f,sg,3,o,0,0'
p5019
ssbsg1921
I00
sba(issf_api
Word
p5020
(dp5021
g2211
I00
sg2212
V\u0915\u0940
p5022
sg2214
(issf_api
FeatureSet
p5023
(dp5024
g295
(dp5025
S'posn'
p5026
S'60'
p5027
sS'name'
p5028
S'\xe0\xa4\x95\xe0\xa5\x80'
p5029
sS'drel'
p5030
S'lwg__psp:\xe0\xa4\xb0\xe0\xa4\x82\xe0\xa4\x9c\xe0\xa4\xa8\xe0\xa4\xbe'
p5031
sS'chunktype'
p5032
S'child:NP3'
p5033
sS'af'
p5034
S'\xe0\xa4\x95\xe0\xa4\xbe,psp,f,sg,,o,,'
p5035
ssbsg1899
I00
sg1902
I00
sg1913
Nsg1900
Nsg199
I2
sg185
I4
sg2232
Nsg1911
Nsg2233
S'PSP'
p5036
sg292
(issf_api
FeatureSet
p5037
(dp5038
g295
(dp5039
S'posn'
p5040
S'60'
p5041
sS'name'
p5042
S'\xe0\xa4\x95\xe0\xa5\x80'
p5043
sS'af'
p5044
S'\xe0\xa4\x95\xe0\xa4\xbe,psp,f,sg,,o,,'
p5045
ssbsg1921
I00
sba(issf_api
Word
p5046
(dp5047
g2211
I00
sg2212
V\u0936\u093f\u0915\u093e\u092f\u0924
p5048
sg2214
(issf_api
FeatureSet
p5049
(dp5050
g295
(dp5051
S'posn'
p5052
S'70'
p5053
sS'name'
p5054
S'\xe0\xa4\xb6\xe0\xa4\xbf\xe0\xa4\x95\xe0\xa4\xbe\xe0\xa4\xaf\xe0\xa4\xa4'
p5055
sS'af'
p5056
S'\xe0\xa4\xb6\xe0\xa4\xbf\xe0\xa4\x95\xe0\xa4\xbe\xe0\xa4\xaf\xe0\xa4\xa4,n,f,sg,3,o,0_\xe0\xa4\x95\xe0\xa5\x8b,0'
p5057
sS'chunkid'
p5058
S'NP4'
p5059
sS'drel'
p5060
S'k2:\xe0\xa4\xaa\xe0\xa4\xbe\xe0\xa4\xaf\xe0\xa4\xbe'
p5061
sS'vpos'
p5062
S'vib_2'
p5063
sS'chunktype'
p5064
S'head:NP4'
p5065
ssbsg1899
I00
sg1902
I00
sg1913
Nsg1900
Nsg199
I3
sg185
I4
sg2232
Nsg1911
Nsg2233
S'NN'
p5066
sg292
(issf_api
FeatureSet
p5067
(dp5068
g295
(dp5069
S'posn'
p5070
S'70'
p5071
sS'name'
p5072
S'\xe0\xa4\xb6\xe0\xa4\xbf\xe0\xa4\x95\xe0\xa4\xbe\xe0\xa4\xaf\xe0\xa4\xa4'
p5073
sS'af'
p5074
S'\xe0\xa4\xb6\xe0\xa4\xbf\xe0\xa4\x95\xe0\xa4\xbe\xe0\xa4\xaf\xe0\xa4\xa4,n,f,sg,3,o,0,0'
p5075
ssbsg1921
I00
sba(issf_api
Word
p5076
(dp5077
g2211
I00
sg2212
V\u0915\u094b
p5078
sg2214
(issf_api
FeatureSet
p5079
(dp5080
g295
(dp5081
S'posn'
p5082
S'80'
p5083
sS'name'
p5084
S'\xe0\xa4\x95\xe0\xa5\x8b2'
p5085
sS'drel'
p5086
S'lwg__psp:\xe0\xa4\xb6\xe0\xa4\xbf\xe0\xa4\x95\xe0\xa4\xbe\xe0\xa4\xaf\xe0\xa4\xa4'
p5087
sS'chunktype'
p5088
S'child:NP4'
p5089
sS'af'
p5090
S'\xe0\xa4\x95\xe0\xa5\x8b,psp,,,,,,'
p5091
ssbsg1899
I00
sg1902
I00
sg1913
Nsg1900
Nsg199
I3
sg185
I4
sg2232
Nsg1911
Nsg2233
S'PSP'
p5092
sg292
(issf_api
FeatureSet
p5093
(dp5094
g295
(dp5095
S'posn'
p5096
S'80'
p5097
sS'name'
p5098
S'\xe0\xa4\x95\xe0\xa5\x8b2'
p5099
sS'af'
p5100
S'\xe0\xa4\x95\xe0\xa5\x8b,psp,,,,,,'
p5101
ssbsg1921
I00
sba(issf_api
Word
p5102
(dp5103
g2211
I00
sg2212
V\u092a\u094d\u0930\u0925\u092e
p5104
sg2214
(issf_api
FeatureSet
p5105
(dp5106
g295
(dp5107
S'posn'
p5108
S'90'
p5109
sS'name'
p5110
S'\xe0\xa4\xaa\xe0\xa5\x8d\xe0\xa4\xb0\xe0\xa4\xa5\xe0\xa4\xae'
p5111
sS'drel'
p5112
S'nmod__adj:\xe0\xa4\xa6\xe0\xa5\x83\xe0\xa4\xb7\xe0\xa5\x8d\xe0\xa4\x9f\xe0\xa4\xaf\xe0\xa4\xbe'
p5113
sS'chunktype'
p5114
S'child:NP5'
p5115
sS'af'
p5116
S'\xe0\xa4\xaa\xe0\xa5\x8d\xe0\xa4\xb0\xe0\xa4\xa5\xe0\xa4\xae,num,any,any,,any,,'
p5117
ssbsg1899
I00
sg1902
I00
sg1913
Nsg1900
Nsg199
I4
sg185
I4
sg2232
Nsg1911
Nsg2233
S'QO'
p5118
sg292
(issf_api
FeatureSet
p5119
(dp5120
g295
(dp5121
S'posn'
p5122
S'90'
p5123
sS'name'
p5124
S'\xe0\xa4\xaa\xe0\xa5\x8d\xe0\xa4\xb0\xe0\xa4\xa5\xe0\xa4\xae'
p5125
sS'af'
p5126
S'\xe0\xa4\xaa\xe0\xa5\x8d\xe0\xa4\xb0\xe0\xa4\xa5\xe0\xa4\xae,num,any,any,,any,,'
p5127
ssbsg1921
I00
sba(issf_api
Word
p5128
(dp5129
g2211
I00
sg2212
V\u0926\u0943\u0937\u094d\u091f\u092f\u093e
p5130
sg2214
(issf_api
FeatureSet
p5131
(dp5132
g295
(dp5133
S'posn'
p5134
S'100'
p5135
sS'name'
p5136
S'\xe0\xa4\xa6\xe0\xa5\x83\xe0\xa4\xb7\xe0\xa5\x8d\xe0\xa4\x9f\xe0\xa4\xaf\xe0\xa4\xbe'
p5137
sS'af'
p5138
S'\xe0\xa4\xa6\xe0\xa5\x83\xe0\xa4\xb7\xe0\xa5\x8d\xe0\xa4\x9f\xe0\xa4\xaf\xe0\xa4\xbe,n,m,sg,3,d,0,0'
p5139
sS'chunkid'
p5140
S'NP5'
p5141
sS'drel'
p5142
S'vmod:\xe0\xa4\xaa\xe0\xa4\xbe\xe0\xa4\xaf\xe0\xa4\xbe'
p5143
sS'chunktype'
p5144
S'head:NP5'
p5145
ssbsg1899
I00
sg1902
I00
sg1913
Nsg1900
Nsg199
I4
sg185
I4
sg2232
Nsg1911
Nsg2233
S'NN'
p5146
sg292
(issf_api
FeatureSet
p5147
(dp5148
g295
(dp5149
S'posn'
p5150
S'100'
p5151
sS'name'
p5152
S'\xe0\xa4\xa6\xe0\xa5\x83\xe0\xa4\xb7\xe0\xa5\x8d\xe0\xa4\x9f\xe0\xa4\xaf\xe0\xa4\xbe'
p5153
sS'af'
p5154
S'\xe0\xa4\xa6\xe0\xa5\x83\xe0\xa4\xb7\xe0\xa5\x8d\xe0\xa4\x9f\xe0\xa4\xaf\xe0\xa4\xbe,n,m,sg,3,d,0,0'
p5155
ssbsg1921
I00
sba(issf_api
Word
p5156
(dp5157
g2211
I00
sg2212
V\u0938\u0939\u0940
p5158
sg2214
(issf_api
FeatureSet
p5159
(dp5160
g295
(dp5161
S'posn'
p5162
S'110'
p5163
sS'name'
p5164
S'\xe0\xa4\xb8\xe0\xa4\xb9\xe0\xa5\x80'
p5165
sS'af'
p5166
S'\xe0\xa4\xb8\xe0\xa4\xb9\xe0\xa5\x80,adj,any,any,,,,'
p5167
sS'chunkid'
p5168
S'JJP'
p5169
sS'drel'
p5170
S'pof:\xe0\xa4\xaa\xe0\xa4\xbe\xe0\xa4\xaf\xe0\xa4\xbe'
p5171
sS'chunktype'
p5172
S'head:JJP'
p5173
ssbsg1899
I00
sg1902
I00
sg1913
Nsg1900
Nsg199
I5
sg185
I4
sg2232
Nsg1911
Nsg2233
S'JJ'
p5174
sg292
(issf_api
FeatureSet
p5175
(dp5176
g295
(dp5177
S'posn'
p5178
S'110'
p5179
sS'name'
p5180
S'\xe0\xa4\xb8\xe0\xa4\xb9\xe0\xa5\x80'
p5181
sS'af'
p5182
S'\xe0\xa4\xb8\xe0\xa4\xb9\xe0\xa5\x80,adj,any,any,,,,'
p5183
ssbsg1921
I00
sba(issf_api
Word
p5184
(dp5185
g2211
I00
sg2212
V\u092a\u093e\u092f\u093e
p5186
sg2214
(issf_api
FeatureSet
p5187
(dp5188
g295
(dp5189
S'posn'
p5190
S'120'
p5191
sS'name'
p5192
S'\xe0\xa4\xaa\xe0\xa4\xbe\xe0\xa4\xaf\xe0\xa4\xbe'
p5193
sS'af'
p5194
S'\xe0\xa4\xaa\xe0\xa4\xbe,v,m,sg,any,,\xe0\xa4\xaf\xe0\xa4\xbe_\xe0\xa4\xa5\xe0\xa4\xbe,yA'
p5195
sS'chunkid'
p5196
S'VGF'
p5197
sS'chunktype'
p5198
S'head:VGF'
p5199
sS'voicetype'
p5200
S'active'
p5201
sS'vpos'
p5202
S'tam_2'
p5203
sS'stype'
p5204
S'declarative'
p5205
ssbsg1899
I00
sg1902
I00
sg1913
Nsg1900
Nsg199
I6
sg185
I4
sg2232
Nsg1911
Nsg2233
S'VM'
p5206
sg292
(issf_api
FeatureSet
p5207
(dp5208
g295
(dp5209
S'posn'
p5210
S'120'
p5211
sS'name'
p5212
S'\xe0\xa4\xaa\xe0\xa4\xbe\xe0\xa4\xaf\xe0\xa4\xbe'
p5213
sS'af'
p5214
S'\xe0\xa4\xaa\xe0\xa4\xbe,v,m,sg,any,,\xe0\xa4\xaf\xe0\xa4\xbe,yA'
p5215
ssbsg1921
I00
sba(issf_api
Word
p5216
(dp5217
g2211
I00
sg2212
V\u0925\u093e
p5218
sg2214
(issf_api
FeatureSet
p5219
(dp5220
g295
(dp5221
S'posn'
p5222
S'130'
p5223
sS'name'
p5224
S'\xe0\xa4\xa5\xe0\xa4\xbe'
p5225
sS'drel'
p5226
S'lwg__vaux:\xe0\xa4\xaa\xe0\xa4\xbe\xe0\xa4\xaf\xe0\xa4\xbe'
p5227
sS'chunktype'
p5228
S'child:VGF'
p5229
sS'af'
p5230
S'\xe0\xa4\xa5\xe0\xa4\xbe,v,m,sg,any,,\xe0\xa4\xa5\xe0\xa4\xbe,WA'
p5231
ssbsg1899
I00
sg1902
I00
sg1913
Nsg1900
Nsg199
I6
sg185
I4
sg2232
Nsg1911
Nsg2233
S'VAUX'
p5232
sg292
(issf_api
FeatureSet
p5233
(dp5234
g295
(dp5235
S'posn'
p5236
S'130'
p5237
sS'name'
p5238
S'\xe0\xa4\xa5\xe0\xa4\xbe'
p5239
sS'af'
p5240
S'\xe0\xa4\xa5\xe0\xa4\xbe,v,m,sg,any,,\xe0\xa4\xa5\xe0\xa4\xbe,WA'
p5241
ssbsg1921
I00
sba(issf_api
Word
p5242
(dp5243
g2211
I00
sg2212
V\u0964
sg2214
(issf_api
FeatureSet
p5244
(dp5245
g295
(dp5246
S'posn'
p5247
S'140'
p5248
sS'name'
p5249
S'\xe0\xa5\xa4'
p5250
sS'af'
p5251
S'\xe0\xa5\xa4,punc,,,,,,'
p5252
sS'chunkid'
p5253
S'BLK'
p5254
sS'drel'
p5255
S'rsym:\xe0\xa4\xaa\xe0\xa4\xbe\xe0\xa4\xaf\xe0\xa4\xbe'
p5256
sS'chunktype'
p5257
S'head:BLK'
p5258
ssbsg1899
I00
sg1902
I00
sg1913
Nsg1900
Nsg199
I7
sg185
I4
sg2232
Nsg1911
Nsg2233
S'SYM'
p5259
sg292
(issf_api
FeatureSet
p5260
(dp5261
g295
(dp5262
S'posn'
p5263
S'140'
p5264
sS'name'
p5265
S'\xe0\xa5\xa4'
p5266
sS'af'
p5267
S'\xe0\xa5\xa4,punc,,,,,,'
p5268
ssbsg1921
I00
sba(issf_api
Word
p5269
(dp5270
g2211
I00
sg2212
V\u092e\u0902\u091c\u0942
p5271
sg2214
(issf_api
FeatureSet
p5272
(dp5273
g295
(dp5274
S'posn'
p5275
S'10'
p5276
sS'name'
p5277
S'\xe0\xa4\xae\xe0\xa4\x82\xe0\xa4\x9c\xe0\xa5\x82'
p5278
sS'drel'
p5279
S'pof__cn:\xe0\xa4\xaa\xe0\xa5\x8d\xe0\xa4\xb0\xe0\xa4\x95\xe0\xa4\xbe\xe0\xa4\xb6'
p5280
sS'chunktype'
p5281
S'child:NP'
p5282
sS'af'
p5283
S'\xe0\xa4\xae\xe0\xa4\x82\xe0\xa4\x9c\xe0\xa5\x82,n,f,sg,3,d,0,0'
p5284
ssbsg1899
I00
sg1902
I00
sg1913
Nsg1900
Nsg199
I0
sg185
I5
sg2232
Nsg1911
Nsg2233
S'NNPC'
p5285
sg292
(issf_api
FeatureSet
p5286
(dp5287
g295
(dp5288
S'posn'
p5289
S'10'
p5290
sS'name'
p5291
S'\xe0\xa4\xae\xe0\xa4\x82\xe0\xa4\x9c\xe0\xa5\x82'
p5292
sS'af'
p5293
S'\xe0\xa4\xae\xe0\xa4\x82\xe0\xa4\x9c\xe0\xa5\x82,n,f,sg,3,d,0,0'
p5294
ssbsg1921
I00
sba(issf_api
Word
p5295
(dp5296
g2211
I00
sg2212
V\u092a\u094d\u0930\u0915\u093e\u0936
p5297
sg2214
(issf_api
FeatureSet
p5298
(dp5299
g295
(dp5300
S'posn'
p5301
S'20'
p5302
sS'name'
p5303
S'\xe0\xa4\xaa\xe0\xa5\x8d\xe0\xa4\xb0\xe0\xa4\x95\xe0\xa4\xbe\xe0\xa4\xb6'
p5304
sS'af'
p5305
S'\xe0\xa4\xaa\xe0\xa5\x8d\xe0\xa4\xb0\xe0\xa4\x95\xe0\xa4\xbe\xe0\xa4\xb6,n,f,sg,3,o,0_\xe0\xa4\xa8\xe0\xa5\x87,0'
p5306
sS'chunkid'
p5307
S'NP'
p5308
sS'drel'
p5309
S'k1:\xe0\xa4\x95\xe0\xa4\xb9\xe0\xa4\xbe'
p5310
sS'vpos'
p5311
S'vib_3'
p5312
sS'chunktype'
p5313
S'head:NP'
p5314
ssbsg1899
I00
sg1902
I00
sg1913
Nsg1900
Nsg199
I0
sg185
I5
sg2232
Nsg1911
Nsg2233
S'NNP'
p5315
sg292
(issf_api
FeatureSet
p5316
(dp5317
g295
(dp5318
S'posn'
p5319
S'20'
p5320
sS'name'
p5321
S'\xe0\xa4\xaa\xe0\xa5\x8d\xe0\xa4\xb0\xe0\xa4\x95\xe0\xa4\xbe\xe0\xa4\xb6'
p5322
sS'af'
p5323
S'\xe0\xa4\xaa\xe0\xa5\x8d\xe0\xa4\xb0\xe0\xa4\x95\xe0\xa4\xbe\xe0\xa4\xb6,n,f,sg,3,o,0,0'
p5324
ssbsg1921
I00
sba(issf_api
Word
p5325
(dp5326
g2211
I00
sg2212
V\u0928\u0947
p5327
sg2214
(issf_api
FeatureSet
p5328
(dp5329
g295
(dp5330
S'posn'
p5331
S'30'
p5332
sS'name'
p5333
S'\xe0\xa4\xa8\xe0\xa5\x87'
p5334
sS'drel'
p5335
S'lwg__psp:\xe0\xa4\xaa\xe0\xa5\x8d\xe0\xa4\xb0\xe0\xa4\x95\xe0\xa4\xbe\xe0\xa4\xb6'
p5336
sS'chunktype'
p5337
S'child:NP'
p5338
sS'af'
p5339
S'\xe0\xa4\xa8\xe0\xa5\x87,psp,,,,,,'
p5340
ssbsg1899
I00
sg1902
I00
sg1913
Nsg1900
Nsg199
I0
sg185
I5
sg2232
Nsg1911
Nsg2233
S'PSP'
p5341
sg292
(issf_api
FeatureSet
p5342
(dp5343
g295
(dp5344
S'posn'
p5345
S'30'
p5346
sS'name'
p5347
S'\xe0\xa4\xa8\xe0\xa5\x87'
p5348
sS'af'
p5349
S'\xe0\xa4\xa8\xe0\xa5\x87,psp,,,,,,'
p5350
ssbsg1921
I00
sba(issf_api
Word
p5351
(dp5352
g2211
I00
sg2212
V\u0915\u0939\u093e
p5353
sg2214
(issf_api
FeatureSet
p5354
(dp5355
g295
(dp5356
S'posn'
p5357
S'40'
p5358
sS'name'
p5359
S'\xe0\xa4\x95\xe0\xa4\xb9\xe0\xa4\xbe'
p5360
sS'af'
p5361
S'\xe0\xa4\x95\xe0\xa4\xb9,v,m,sg,any,,\xe0\xa4\xaf\xe0\xa4\xbe,yA'
p5362
sS'chunkid'
p5363
S'VGF'
p5364
sS'chunktype'
p5365
S'head:VGF'
p5366
sS'voicetype'
p5367
S'active'
p5368
sS'stype'
p5369
S'declarative'
p5370
ssbsg1899
I00
sg1902
I00
sg1913
Nsg1900
Nsg199
I1
sg185
I5
sg2232
Nsg1911
Nsg2233
S'VM'
p5371
sg292
(issf_api
FeatureSet
p5372
(dp5373
g295
(dp5374
S'posn'
p5375
S'40'
p5376
sS'name'
p5377
S'\xe0\xa4\x95\xe0\xa4\xb9\xe0\xa4\xbe'
p5378
sS'af'
p5379
S'\xe0\xa4\x95\xe0\xa4\xb9,v,m,sg,any,,\xe0\xa4\xaf\xe0\xa4\xbe,yA'
p5380
ssbsg1921
I00
sba(issf_api
Word
p5381
(dp5382
g2211
I00
sg2212
V\u0915\u093f
p5383
sg2214
(issf_api
FeatureSet
p5384
(dp5385
g295
(dp5386
S'posn'
p5387
S'50'
p5388
sS'name'
p5389
S'\xe0\xa4\x95\xe0\xa4\xbf'
p5390
sS'af'
p5391
S'\xe0\xa4\x95\xe0\xa4\xbf,avy,,,,,,'
p5392
sS'chunkid'
p5393
S'CCP'
p5394
sS'drel'
p5395
S'k2:\xe0\xa4\x95\xe0\xa4\xb9\xe0\xa4\xbe'
p5396
sS'chunktype'
p5397
S'head:CCP'
p5398
ssbsg1899
I00
sg1902
I00
sg1913
Nsg1900
Nsg199
I2
sg185
I5
sg2232
Nsg1911
Nsg2233
S'CC'
p5399
sg292
(issf_api
FeatureSet
p5400
(dp5401
g295
(dp5402
S'posn'
p5403
S'50'
p5404
sS'name'
p5405
S'\xe0\xa4\x95\xe0\xa4\xbf'
p5406
sS'af'
p5407
S'\xe0\xa4\x95\xe0\xa4\xbf,avy,,,,,,'
p5408
ssbsg1921
I00
sba(issf_api
Word
p5409
(dp5410
g2211
I00
sg2212
V\u092c\u0948\u0902\u0915
p5411
sg2214
(issf_api
FeatureSet
p5412
(dp5413
g295
(dp5414
S'posn'
p5415
S'60'
p5416
sS'name'
p5417
S'\xe0\xa4\xac\xe0\xa5\x88\xe0\xa4\x82\xe0\xa4\x95'
p5418
sS'af'
p5419
S'\xe0\xa4\xac\xe0\xa5\x88\xe0\xa4\x82\xe0\xa4\x95,n,m,sg,3,o,0_\xe0\xa4\x95\xe0\xa4\xbe,0'
p5420
sS'chunkid'
p5421
S'NP2'
p5422
sS'drel'
p5423
S'r6:\xe0\xa4\xaa\xe0\xa4\xbe\xe0\xa4\xb8\xe0\xa4\xac\xe0\xa5\x81\xe0\xa4\x95'
p5424
sS'vpos'
p5425
S'vib_2'
p5426
sS'chunktype'
p5427
S'head:NP2'
p5428
ssbsg1899
I00
sg1902
I00
sg1913
Nsg1900
Nsg199
I3
sg185
I5
sg2232
Nsg1911
Nsg2233
S'NN'
p5429
sg292
(issf_api
FeatureSet
p5430
(dp5431
g295
(dp5432
S'posn'
p5433
S'60'
p5434
sS'name'
p5435
S'\xe0\xa4\xac\xe0\xa5\x88\xe0\xa4\x82\xe0\xa4\x95'
p5436
sS'af'
p5437
S'\xe0\xa4\xac\xe0\xa5\x88\xe0\xa4\x82\xe0\xa4\x95,n,m,sg,3,o,0,0'
p5438
ssbsg1921
I00
sba(issf_api
Word
p5439
(dp5440
g2211
I00
sg2212
V\u0915\u0940
p5441
sg2214
(issf_api
FeatureSet
p5442
(dp5443
g295
(dp5444
S'posn'
p5445
S'70'
p5446
sS'name'
p5447
S'\xe0\xa4\x95\xe0\xa5\x80'
p5448
sS'drel'
p5449
S'lwg__psp:\xe0\xa4\xac\xe0\xa5\x88\xe0\xa4\x82\xe0\xa4\x95'
p5450
sS'chunktype'
p5451
S'child:NP2'
p5452
sS'af'
p5453
S'\xe0\xa4\x95\xe0\xa4\xbe,psp,f,sg,,o,,'
p5454
ssbsg1899
I00
sg1902
I00
sg1913
Nsg1900
Nsg199
I3
sg185
I5
sg2232
Nsg1911
Nsg2233
S'PSP'
p5455
sg292
(issf_api
FeatureSet
p5456
(dp5457
g295
(dp5458
S'posn'
p5459
S'70'
p5460
sS'name'
p5461
S'\xe0\xa4\x95\xe0\xa5\x80'
p5462
sS'af'
p5463
S'\xe0\xa4\x95\xe0\xa4\xbe,psp,f,sg,,o,,'
p5464
ssbsg1921
I00
sba(issf_api
Word
p5465
(dp5466
g2211
I00
sg2212
V\u092a\u093e\u0938\u092c\u0941\u0915
p5467
sg2214
(issf_api
FeatureSet
p5468
(dp5469
g295
(dp5470
S'posn'
p5471
S'80'
p5472
sS'name'
p5473
S'\xe0\xa4\xaa\xe0\xa4\xbe\xe0\xa4\xb8\xe0\xa4\xac\xe0\xa5\x81\xe0\xa4\x95'
p5474
sS'af'
p5475
S'\xe0\xa4\xaa\xe0\xa4\xbe\xe0\xa4\xb8\xe0\xa4\xac\xe0\xa5\x81\xe0\xa4\x95,n,f,sg,3,o,0,0'
p5476
sS'chunkid'
p5477
S'NP3'
p5478
sS'drel'
p5479
S'ccof:\xe0\xa4\x94\xe0\xa4\xb0'
p5480
sS'chunktype'
p5481
S'head:NP3'
p5482
ssbsg1899
I00
sg1902
I00
sg1913
Nsg1900
Nsg199
I4
sg185
I5
sg2232
Nsg1911
Nsg2233
S'NN'
p5483
sg292
(issf_api
FeatureSet
p5484
(dp5485
g295
(dp5486
S'posn'
p5487
S'80'
p5488
sS'name'
p5489
S'\xe0\xa4\xaa\xe0\xa4\xbe\xe0\xa4\xb8\xe0\xa4\xac\xe0\xa5\x81\xe0\xa4\x95'
p5490
sS'af'
p5491
S'\xe0\xa4\xaa\xe0\xa4\xbe\xe0\xa4\xb8\xe0\xa4\xac\xe0\xa5\x81\xe0\xa4\x95,n,f,sg,3,o,0,0'
p5492
ssbsg1921
I00
sba(issf_api
Word
p5493
(dp5494
g2211
I00
sg2212
V,
sg2214
(issf_api
FeatureSet
p5495
(dp5496
g295
(dp5497
S'posn'
p5498
S'90'
p5499
sS'name'
p5500
S','
sS'drel'
p5501
S'rsym:\xe0\xa4\xaa\xe0\xa4\xbe\xe0\xa4\xb8\xe0\xa4\xac\xe0\xa5\x81\xe0\xa4\x95'
p5502
sS'chunktype'
p5503
S'child:NP3'
p5504
sS'af'
p5505
S'COMMA,punc,,,,,,'
p5506
ssbsg1899
I00
sg1902
I00
sg1913
Nsg1900
Nsg199
I4
sg185
I5
sg2232
Nsg1911
Nsg2233
S'SYM'
p5507
sg292
(issf_api
FeatureSet
p5508
(dp5509
g295
(dp5510
S'posn'
p5511
S'90'
p5512
sS'name'
p5513
S','
sS'af'
p5514
S'COMMA,punc,,,,,,'
p5515
ssbsg1921
I00
sba(issf_api
Word
p5516
(dp5517
g2211
I00
sg2212
V\u0930\u093e\u0936\u0928
p5518
sg2214
(issf_api
FeatureSet
p5519
(dp5520
g295
(dp5521
S'posn'
p5522
S'100'
p5523
sS'name'
p5524
S'\xe0\xa4\xb0\xe0\xa4\xbe\xe0\xa4\xb6\xe0\xa4\xa8'
p5525
sS'drel'
p5526
S'pof__cn:\xe0\xa4\x95\xe0\xa4\xbe\xe0\xa4\xb0\xe0\xa5\x8d\xe0\xa4\xa1'
p5527
sS'chunktype'
p5528
S'child:NP4'
p5529
sS'af'
p5530
S'\xe0\xa4\xb0\xe0\xa4\xbe\xe0\xa4\xb6\xe0\xa4\xa8,n,m,sg,3,d,0,0'
p5531
ssbsg1899
I00
sg1902
I00
sg1913
Nsg1900
Nsg199
I5
sg185
I5
sg2232
Nsg1911
Nsg2233
S'NNC'
p5532
sg292
(issf_api
FeatureSet
p5533
(dp5534
g295
(dp5535
S'posn'
p5536
S'100'
p5537
sS'name'
p5538
S'\xe0\xa4\xb0\xe0\xa4\xbe\xe0\xa4\xb6\xe0\xa4\xa8'
p5539
sS'af'
p5540
S'\xe0\xa4\xb0\xe0\xa4\xbe\xe0\xa4\xb6\xe0\xa4\xa8,n,m,sg,3,d,0,0'
p5541
ssbsg1921
I00
sba(issf_api
Word
p5542
(dp5543
g2211
I00
sg2212
V\u0915\u093e\u0930\u094d\u0921
p5544
sg2214
(issf_api
FeatureSet
p5545
(dp5546
g295
(dp5547
S'posn'
p5548
S'110'
p5549
sS'name'
p5550
S'\xe0\xa4\x95\xe0\xa4\xbe\xe0\xa4\xb0\xe0\xa5\x8d\xe0\xa4\xa1'
p5551
sS'af'
p5552
S'\xe0\xa4\x95\xe0\xa4\xbe\xe0\xa4\xb0\xe0\xa5\x8d\xe0\xa4\xa1,n,m,sg,3,o,0,0'
p5553
sS'chunkid'
p5554
S'NP4'
p5555
sS'drel'
p5556
S'ccof:\xe0\xa4\x94\xe0\xa4\xb0'
p5557
sS'chunktype'
p5558
S'head:NP4'
p5559
ssbsg1899
I00
sg1902
I00
sg1913
Nsg1900
Nsg199
I5
sg185
I5
sg2232
Nsg1911
Nsg2233
S'NN'
p5560
sg292
(issf_api
FeatureSet
p5561
(dp5562
g295
(dp5563
S'posn'
p5564
S'110'
p5565
sS'name'
p5566
S'\xe0\xa4\x95\xe0\xa4\xbe\xe0\xa4\xb0\xe0\xa5\x8d\xe0\xa4\xa1'
p5567
sS'af'
p5568
S'\xe0\xa4\x95\xe0\xa4\xbe\xe0\xa4\xb0\xe0\xa5\x8d\xe0\xa4\xa1,n,m,sg,3,o,0,0'
p5569
ssbsg1921
I00
sba(issf_api
Word
p5570
(dp5571
g2211
I00
sg2212
V\u0914\u0930
p5572
sg2214
(issf_api
FeatureSet
p5573
(dp5574
g295
(dp5575
S'posn'
p5576
S'120'
p5577
sS'name'
p5578
S'\xe0\xa4\x94\xe0\xa4\xb0'
p5579
sS'af'
p5580
S'\xe0\xa4\x94\xe0\xa4\xb0,avy,,,,,,'
p5581
sS'chunkid'
p5582
S'CCP2'
p5583
sS'drel'
p5584
S'k2:\xe0\xa4\xa6\xe0\xa5\x87\xe0\xa4\x96\xe0\xa4\xa4\xe0\xa5\x87'
p5585
sS'chunktype'
p5586
S'head:CCP2'
p5587
ssbsg1899
I00
sg1902
I00
sg1913
Nsg1900
Nsg199
I6
sg185
I5
sg2232
Nsg1911
Nsg2233
S'CC'
p5588
sg292
(issf_api
FeatureSet
p5589
(dp5590
g295
(dp5591
S'posn'
p5592
S'120'
p5593
sS'name'
p5594
S'\xe0\xa4\x94\xe0\xa4\xb0'
p5595
sS'af'
p5596
S'\xe0\xa4\x94\xe0\xa4\xb0,avy,,,,,,'
p5597
ssbsg1921
I00
sba(issf_api
Word
p5598
(dp5599
g2211
I00
sg2212
V\u0905\u0928\u094d\u092f
p5600
sg2214
(issf_api
FeatureSet
p5601
(dp5602
g295
(dp5603
S'posn'
p5604
S'130'
p5605
sS'name'
p5606
S'\xe0\xa4\x85\xe0\xa4\xa8\xe0\xa5\x8d\xe0\xa4\xaf'
p5607
sS'drel'
p5608
S'nmod__adj:\xe0\xa4\xb8\xe0\xa4\xbe\xe0\xa4\x95\xe0\xa5\x8d\xe0\xa4\xb7\xe0\xa5\x8d\xe0\xa4\xaf\xe0\xa5\x8b\xe0\xa4\x82'
p5609
sS'chunktype'
p5610
S'child:NP5'
p5611
sS'af'
p5612
S'\xe0\xa4\x85\xe0\xa4\xa8\xe0\xa5\x8d\xe0\xa4\xaf,adj,any,any,,o,,'
p5613
ssbsg1899
I00
sg1902
I00
sg1913
Nsg1900
Nsg199
I7
sg185
I5
sg2232
Nsg1911
Nsg2233
S'JJ'
p5614
sg292
(issf_api
FeatureSet
p5615
(dp5616
g295
(dp5617
S'posn'
p5618
S'130'
p5619
sS'name'
p5620
S'\xe0\xa4\x85\xe0\xa4\xa8\xe0\xa5\x8d\xe0\xa4\xaf'
p5621
sS'af'
p5622
S'\xe0\xa4\x85\xe0\xa4\xa8\xe0\xa5\x8d\xe0\xa4\xaf,adj,any,any,,o,,'
p5623
ssbsg1921
I00
sba(issf_api
Word
p5624
(dp5625
g2211
I00
sg2212
V\u092a\u0930\u093f\u0938\u094d\u0925\u093f\u0924\u093f\u091c\u0928\u094d\u092f
p5626
sg2214
(issf_api
FeatureSet
p5627
(dp5628
g295
(dp5629
S'posn'
p5630
S'140'
p5631
sS'name'
p5632
S'\xe0\xa4\xaa\xe0\xa4\xb0\xe0\xa4\xbf\xe0\xa4\xb8\xe0\xa5\x8d\xe0\xa4\xa5\xe0\xa4\xbf\xe0\xa4\xa4\xe0\xa4\xbf\xe0\xa4\x9c\xe0\xa4\xa8\xe0\xa5\x8d\xe0\xa4\xaf'
p5633
sS'drel'
p5634
S'nmod__adj:\xe0\xa4\xb8\xe0\xa4\xbe\xe0\xa4\x95\xe0\xa5\x8d\xe0\xa4\xb7\xe0\xa5\x8d\xe0\xa4\xaf\xe0\xa5\x8b\xe0\xa4\x82'
p5635
sS'chunktype'
p5636
S'child:NP5'
p5637
sS'af'
p5638
S'\xe0\xa4\xaa\xe0\xa4\xb0\xe0\xa4\xbf\xe0\xa4\xb8\xe0\xa5\x8d\xe0\xa4\xa5\xe0\xa4\xbf\xe0\xa4\xa4\xe0\xa4\xbf\xe0\xa4\x9c\xe0\xa4\xa8\xe0\xa5\x8d\xe0\xa4\xaf,adj,any,any,,o,,'
p5639
ssbsg1899
I00
sg1902
I00
sg1913
Nsg1900
Nsg199
I7
sg185
I5
sg2232
Nsg1911
Nsg2233
S'JJ'
p5640
sg292
(issf_api
FeatureSet
p5641
(dp5642
g295
(dp5643
S'posn'
p5644
S'140'
p5645
sS'name'
p5646
S'\xe0\xa4\xaa\xe0\xa4\xb0\xe0\xa4\xbf\xe0\xa4\xb8\xe0\xa5\x8d\xe0\xa4\xa5\xe0\xa4\xbf\xe0\xa4\xa4\xe0\xa4\xbf\xe0\xa4\x9c\xe0\xa4\xa8\xe0\xa5\x8d\xe0\xa4\xaf'
p5647
sS'af'
p5648
S'\xe0\xa4\xaa\xe0\xa4\xb0\xe0\xa4\xbf\xe0\xa4\xb8\xe0\xa5\x8d\xe0\xa4\xa5\xe0\xa4\xbf\xe0\xa4\xa4\xe0\xa4\xbf\xe0\xa4\x9c\xe0\xa4\xa8\xe0\xa5\x8d\xe0\xa4\xaf,adj,any,any,,o,,'
p5649
ssbsg1921
I00
sba(issf_api
Word
p5650
(dp5651
g2211
I00
sg2212
V\u0938\u093e\u0915\u094d\u0937\u094d\u092f\u094b\u0902
p5652
sg2214
(issf_api
FeatureSet
p5653
(dp5654
g295
(dp5655
S'posn'
p5656
S'150'
p5657
sS'name'
p5658
S'\xe0\xa4\xb8\xe0\xa4\xbe\xe0\xa4\x95\xe0\xa5\x8d\xe0\xa4\xb7\xe0\xa5\x8d\xe0\xa4\xaf\xe0\xa5\x8b\xe0\xa4\x82'
p5659
sS'af'
p5660
S'\xe0\xa4\xb8\xe0\xa4\xbe\xe0\xa4\x95\xe0\xa5\x8d\xe0\xa4\xb7\xe0\xa5\x8d\xe0\xa4\xaf,n,m,pl,3,o,0_\xe0\xa4\x95\xe0\xa5\x8b,0'
p5661
sS'chunkid'
p5662
S'NP5'
p5663
sS'drel'
p5664
S'ccof:\xe0\xa4\x94\xe0\xa4\xb0'
p5665
sS'vpos'
p5666
S'vib_4'
p5667
sS'chunktype'
p5668
S'head:NP5'
p5669
ssbsg1899
I00
sg1902
I00
sg1913
Nsg1900
Nsg199
I7
sg185
I5
sg2232
Nsg1911
Nsg2233
S'NN'
p5670
sg292
(issf_api
FeatureSet
p5671
(dp5672
g295
(dp5673
S'posn'
p5674
S'150'
p5675
sS'name'
p5676
S'\xe0\xa4\xb8\xe0\xa4\xbe\xe0\xa4\x95\xe0\xa5\x8d\xe0\xa4\xb7\xe0\xa5\x8d\xe0\xa4\xaf\xe0\xa5\x8b\xe0\xa4\x82'
p5677
sS'af'
p5678
S'\xe0\xa4\xb8\xe0\xa4\xbe\xe0\xa4\x95\xe0\xa5\x8d\xe0\xa4\xb7\xe0\xa5\x8d\xe0\xa4\xaf,n,m,pl,3,o,0,0'
p5679
ssbsg1921
I00
sba(issf_api
Word
p5680
(dp5681
g2211
I00
sg2212
V\u0915\u094b
p5682
sg2214
(issf_api
FeatureSet
p5683
(dp5684
g295
(dp5685
S'posn'
p5686
S'160'
p5687
sS'name'
p5688
S'\xe0\xa4\x95\xe0\xa5\x8b'
p5689
sS'drel'
p5690
S'lwg__psp:\xe0\xa4\xb8\xe0\xa4\xbe\xe0\xa4\x95\xe0\xa5\x8d\xe0\xa4\xb7\xe0\xa5\x8d\xe0\xa4\xaf\xe0\xa5\x8b\xe0\xa4\x82'
p5691
sS'chunktype'
p5692
S'child:NP5'
p5693
sS'af'
p5694
S'\xe0\xa4\x95\xe0\xa5\x8b,psp,,,,,,'
p5695
ssbsg1899
I00
sg1902
I00
sg1913
Nsg1900
Nsg199
I7
sg185
I5
sg2232
Nsg1911
Nsg2233
S'PSP'
p5696
sg292
(issf_api
FeatureSet
p5697
(dp5698
g295
(dp5699
S'posn'
p5700
S'160'
p5701
sS'name'
p5702
S'\xe0\xa4\x95\xe0\xa5\x8b'
p5703
sS'af'
p5704
S'\xe0\xa4\x95\xe0\xa5\x8b,psp,,,,,,'
p5705
ssbsg1921
I00
sba(issf_api
Word
p5706
(dp5707
g2211
I00
sg2212
V\u0926\u0947\u0916\u0924\u0947
p5708
sg2214
(issf_api
FeatureSet
p5709
(dp5710
g295
(dp5711
S'posn'
p5712
S'170'
p5713
sS'name'
p5714
S'\xe0\xa4\xa6\xe0\xa5\x87\xe0\xa4\x96\xe0\xa4\xa4\xe0\xa5\x87'
p5715
sS'af'
p5716
S'\xe0\xa4\xa6\xe0\xa5\x87\xe0\xa4\x96,v,m,sg,any,,\xe0\xa4\xa4\xe0\xa4\xbe_\xe0\xa4\xb9\xe0\xa5\x8b+\xe0\xa4\xaf\xe0\xa4\xbe,wA'
p5717
sS'chunkid'
p5718
S'VGNF'
p5719
sS'drel'
p5720
S'vmod:\xe0\xa4\xb2\xe0\xa4\x97\xe0\xa4\xa4\xe0\xa4\xbe'
p5721
sS'vpos'
p5722
S'tam_2'
p5723
sS'chunktype'
p5724
S'head:VGNF'
p5725
ssbsg1899
I00
sg1902
I00
sg1913
Nsg1900
Nsg199
I8
sg185
I5
sg2232
Nsg1911
Nsg2233
S'VM'
p5726
sg292
(issf_api
FeatureSet
p5727
(dp5728
g295
(dp5729
S'posn'
p5730
S'170'
p5731
sS'name'
p5732
S'\xe0\xa4\xa6\xe0\xa5\x87\xe0\xa4\x96\xe0\xa4\xa4\xe0\xa5\x87'
p5733
sS'af'
p5734
S'\xe0\xa4\xa6\xe0\xa5\x87\xe0\xa4\x96,v,m,sg,any,,\xe0\xa4\xa4\xe0\xa4\xbe,wA'
p5735
ssbsg1921
I00
sba(issf_api
Word
p5736
(dp5737
g2211
I00
sg2212
V\u0939\u0941\u090f
p5738
sg2214
(issf_api
FeatureSet
p5739
(dp5740
g295
(dp5741
S'posn'
p5742
S'180'
p5743
sS'name'
p5744
S'\xe0\xa4\xb9\xe0\xa5\x81\xe0\xa4\x8f'
p5745
sS'drel'
p5746
S'lwg__vaux:\xe0\xa4\xa6\xe0\xa5\x87\xe0\xa4\x96\xe0\xa4\xa4\xe0\xa5\x87'
p5747
sS'chunktype'
p5748
S'child:VGNF'
p5749
sS'af'
p5750
S'\xe0\xa4\xb9\xe0\xa5\x8b,v,m,sg,any,,\xe0\xa4\xaf\xe0\xa4\xbe,yA'
p5751
ssbsg1899
I00
sg1902
I00
sg1913
Nsg1900
Nsg199
I8
sg185
I5
sg2232
Nsg1911
Nsg2233
S'VAUX'
p5752
sg292
(issf_api
FeatureSet
p5753
(dp5754
g295
(dp5755
S'posn'
p5756
S'180'
p5757
sS'name'
p5758
S'\xe0\xa4\xb9\xe0\xa5\x81\xe0\xa4\x8f'
p5759
sS'af'
p5760
S'\xe0\xa4\xb9\xe0\xa5\x8b,v,m,sg,any,,\xe0\xa4\xaf\xe0\xa4\xbe,yA'
p5761
ssbsg1921
I00
sba(issf_api
Word
p5762
(dp5763
g2211
I00
sg2212
V\u0932\u0917\u0924\u093e
p5764
sg2214
(issf_api
FeatureSet
p5765
(dp5766
g295
(dp5767
S'posn'
p5768
S'190'
p5769
sS'name'
p5770
S'\xe0\xa4\xb2\xe0\xa4\x97\xe0\xa4\xa4\xe0\xa4\xbe'
p5771
sS'af'
p5772
S'\xe0\xa4\xb2\xe0\xa4\x97,v,m,sg,3,,\xe0\xa4\xa4\xe0\xa4\xbe_\xe0\xa4\xb9\xe0\xa5\x88,wA'
p5773
sS'chunkid'
p5774
S'VGF2'
p5775
sS'stype'
p5776
S'declarative'
p5777
sS'drel'
p5778
S'ccof:\xe0\xa4\x95\xe0\xa4\xbf'
p5779
sS'voicetype'
p5780
S'active'
p5781
sS'vpos'
p5782
S'tam_2'
p5783
sS'chunktype'
p5784
S'head:VGF2'
p5785
ssbsg1899
I00
sg1902
I00
sg1913
Nsg1900
Nsg199
I9
sg185
I5
sg2232
Nsg1911
Nsg2233
S'VM'
p5786
sg292
(issf_api
FeatureSet
p5787
(dp5788
g295
(dp5789
S'posn'
p5790
S'190'
p5791
sS'name'
p5792
S'\xe0\xa4\xb2\xe0\xa4\x97\xe0\xa4\xa4\xe0\xa4\xbe'
p5793
sS'af'
p5794
S'\xe0\xa4\xb2\xe0\xa4\x97,v,m,sg,any,,\xe0\xa4\xa4\xe0\xa4\xbe,wA'
p5795
ssbsg1921
I00
sba(issf_api
Word
p5796
(dp5797
g2211
I00
sg2212
V\u0939\u0948
p5798
sg2214
(issf_api
FeatureSet
p5799
(dp5800
g295
(dp5801
S'posn'
p5802
S'200'
p5803
sS'name'
p5804
S'\xe0\xa4\xb9\xe0\xa5\x88'
p5805
sS'drel'
p5806
S'lwg__vaux:\xe0\xa4\xb2\xe0\xa4\x97\xe0\xa4\xa4\xe0\xa4\xbe'
p5807
sS'chunktype'
p5808
S'child:VGF2'
p5809
sS'af'
p5810
S'\xe0\xa4\xb9\xe0\xa5\x88,v,any,sg,3,,\xe0\xa4\xb9\xe0\xa5\x88,hE'
p5811
ssbsg1899
I00
sg1902
I00
sg1913
Nsg1900
Nsg199
I9
sg185
I5
sg2232
Nsg1911
Nsg2233
S'VAUX'
p5812
sg292
(issf_api
FeatureSet
p5813
(dp5814
g295
(dp5815
S'posn'
p5816
S'200'
p5817
sS'name'
p5818
S'\xe0\xa4\xb9\xe0\xa5\x88'
p5819
sS'af'
p5820
S'\xe0\xa4\xb9\xe0\xa5\x88,v,any,sg,3,,\xe0\xa4\xb9\xe0\xa5\x88,hE'
p5821
ssbsg1921
I00
sba(issf_api
Word
p5822
(dp5823
g2211
I00
sg2212
V\u0915\u093f
p5824
sg2214
(issf_api
FeatureSet
p5825
(dp5826
g295
(dp5827
S'posn'
p5828
S'210'
p5829
sS'name'
p5830
S'\xe0\xa4\x95\xe0\xa4\xbf2'
p5831
sS'af'
p5832
S'\xe0\xa4\x95\xe0\xa4\xbf,avy,,,,,,'
p5833
sS'chunkid'
p5834
S'CCP3'
p5835
sS'drel'
p5836
S'k2:\xe0\xa4\xb2\xe0\xa4\x97\xe0\xa4\xa4\xe0\xa4\xbe'
p5837
sS'chunktype'
p5838
S'head:CCP3'
p5839
ssbsg1899
I00
sg1902
I00
sg1913
Nsg1900
Nsg199
I10
sg185
I5
sg2232
Nsg1911
Nsg2233
S'CC'
p5840
sg292
(issf_api
FeatureSet
p5841
(dp5842
g295
(dp5843
S'posn'
p5844
S'210'
p5845
sS'name'
p5846
S'\xe0\xa4\x95\xe0\xa4\xbf2'
p5847
sS'af'
p5848
S'\xe0\xa4\x95\xe0\xa4\xbf,avy,,,,,,'
p5849
ssbsg1921
I00
sba(issf_api
Word
p5850
(dp5851
g2211
I00
sg2212
V\u0917\u093e\u092f\u0915
p5852
sg2214
(issf_api
FeatureSet
p5853
(dp5854
g295
(dp5855
S'posn'
p5856
S'220'
p5857
sS'name'
p5858
S'\xe0\xa4\x97\xe0\xa4\xbe\xe0\xa4\xaf\xe0\xa4\x95'
p5859
sS'af'
p5860
S'\xe0\xa4\x97\xe0\xa4\xbe\xe0\xa4\xaf\xe0\xa4\x95,n,m,sg,3,o,0,0'
p5861
sS'chunkid'
p5862
S'NP6'
p5863
sS'drel'
p5864
S'nmod:\xe0\xa4\xa8\xe0\xa4\xbe\xe0\xa4\xb0\xe0\xa4\xbe\xe0\xa4\xaf\xe0\xa4\xa3'
p5865
sS'chunktype'
p5866
S'head:NP6'
p5867
ssbsg1899
I00
sg1902
I00
sg1913
Nsg1900
Nsg199
I11
sg185
I5
sg2232
Nsg1911
Nsg2233
S'NN'
p5868
sg292
(issf_api
FeatureSet
p5869
(dp5870
g295
(dp5871
S'posn'
p5872
S'220'
p5873
sS'name'
p5874
S'\xe0\xa4\x97\xe0\xa4\xbe\xe0\xa4\xaf\xe0\xa4\x95'
p5875
sS'af'
p5876
S'\xe0\xa4\x97\xe0\xa4\xbe\xe0\xa4\xaf\xe0\xa4\x95,n,m,sg,3,o,0,0'
p5877
ssbsg1921
I00
sba(issf_api
Word
p5878
(dp5879
g2211
I00
sg2212
V\u0909\u0926\u093f\u0924
p5880
sg2214
(issf_api
FeatureSet
p5881
(dp5882
g295
(dp5883
S'posn'
p5884
S'230'
p5885
sS'name'
p5886
S'\xe0\xa4\x89\xe0\xa4\xa6\xe0\xa4\xbf\xe0\xa4\xa4'
p5887
sS'drel'
p5888
S'pof__cn:\xe0\xa4\xa8\xe0\xa4\xbe\xe0\xa4\xb0\xe0\xa4\xbe\xe0\xa4\xaf\xe0\xa4\xa3'
p5889
sS'chunktype'
p5890
S'child:NP7'
p5891
sS'af'
p5892
S'\xe0\xa4\x89\xe0\xa4\xa6\xe0\xa4\xbf\xe0\xa4\xa4,n,m,sg,3,d,0,0'
p5893
ssbsg1899
I00
sg1902
I00
sg1913
Nsg1900
Nsg199
I12
sg185
I5
sg2232
Nsg1911
Nsg2233
S'NNPC'
p5894
sg292
(issf_api
FeatureSet
p5895
(dp5896
g295
(dp5897
S'posn'
p5898
S'230'
p5899
sS'name'
p5900
S'\xe0\xa4\x89\xe0\xa4\xa6\xe0\xa4\xbf\xe0\xa4\xa4'
p5901
sS'af'
p5902
S'\xe0\xa4\x89\xe0\xa4\xa6\xe0\xa4\xbf\xe0\xa4\xa4,n,m,sg,3,d,0,0'
p5903
ssbsg1921
I00
sba(issf_api
Word
p5904
(dp5905
g2211
I00
sg2212
V\u0928\u093e\u0930\u093e\u092f\u0923
p5906
sg2214
(issf_api
FeatureSet
p5907
(dp5908
g295
(dp5909
S'posn'
p5910
S'240'
p5911
sS'name'
p5912
S'\xe0\xa4\xa8\xe0\xa4\xbe\xe0\xa4\xb0\xe0\xa4\xbe\xe0\xa4\xaf\xe0\xa4\xa3'
p5913
sS'af'
p5914
S'\xe0\xa4\xa8\xe0\xa4\xbe\xe0\xa4\xb0\xe0\xa4\xbe\xe0\xa4\xaf\xe0\xa4\xa3,n,m,sg,3,o,0_\xe0\xa4\x95\xe0\xa4\xbe,0'
p5915
sS'chunkid'
p5916
S'NP7'
p5917
sS'drel'
p5918
S'r6:\xe0\xa4\xb0\xe0\xa4\x82\xe0\xa4\x9c\xe0\xa4\xa8\xe0\xa4\xbe'
p5919
sS'vpos'
p5920
S'vib_3'
p5921
sS'chunktype'
p5922
S'head:NP7'
p5923
ssbsg1899
I00
sg1902
I00
sg1913
Nsg1900
Nsg199
I12
sg185
I5
sg2232
Nsg1911
Nsg2233
S'NNP'
p5924
sg292
(issf_api
FeatureSet
p5925
(dp5926
g295
(dp5927
S'posn'
p5928
S'240'
p5929
sS'name'
p5930
S'\xe0\xa4\xa8\xe0\xa4\xbe\xe0\xa4\xb0\xe0\xa4\xbe\xe0\xa4\xaf\xe0\xa4\xa3'
p5931
sS'af'
p5932
S'\xe0\xa4\xa8\xe0\xa4\xbe\xe0\xa4\xb0\xe0\xa4\xbe\xe0\xa4\xaf\xe0\xa4\xa3,n,m,sg,3,o,0,0'
p5933
ssbsg1921
I00
sba(issf_api
Word
p5934
(dp5935
g2211
I00
sg2212
V\u0915\u0940
p5936
sg2214
(issf_api
FeatureSet
p5937
(dp5938
g295
(dp5939
S'posn'
p5940
S'250'
p5941
sS'name'
p5942
S'\xe0\xa4\x95\xe0\xa5\x802'
p5943
sS'drel'
p5944
S'lwg__psp:\xe0\xa4\xa8\xe0\xa4\xbe\xe0\xa4\xb0\xe0\xa4\xbe\xe0\xa4\xaf\xe0\xa4\xa3'
p5945
sS'chunktype'
p5946
S'child:NP7'
p5947
sS'af'
p5948
S'\xe0\xa4\x95\xe0\xa4\xbe,psp,f,sg,,o,,'
p5949
ssbsg1899
I00
sg1902
I00
sg1913
Nsg1900
Nsg199
I12
sg185
I5
sg2232
Nsg1911
Nsg2233
S'PSP'
p5950
sg292
(issf_api
FeatureSet
p5951
(dp5952
g295
(dp5953
S'posn'
p5954
S'250'
p5955
sS'name'
p5956
S'\xe0\xa4\x95\xe0\xa5\x802'
p5957
sS'af'
p5958
S'\xe0\xa4\x95\xe0\xa4\xbe,psp,f,sg,,o,,'
p5959
ssbsg1921
I00
sba(issf_api
Word
p5960
(dp5961
g2211
I00
sg2212
V\u0930\u0902\u091c\u0928\u093e
p5962
sg2214
(issf_api
FeatureSet
p5963
(dp5964
g295
(dp5965
S'posn'
p5966
S'260'
p5967
sS'name'
p5968
S'\xe0\xa4\xb0\xe0\xa4\x82\xe0\xa4\x9c\xe0\xa4\xa8\xe0\xa4\xbe'
p5969
sS'af'
p5970
S'\xe0\xa4\xb0\xe0\xa4\x82\xe0\xa4\x9c\xe0\xa4\xa8\xe0\xa4\xbe,n,f,sg,3,o,0_\xe0\xa4\xb8\xe0\xa5\x87,0'
p5971
sS'chunkid'
p5972
S'NP8'
p5973
sS'drel'
p5974
S'ras-k1:\xe0\xa4\xb9\xe0\xa5\x81\xe0\xa4\x88'
p5975
sS'vpos'
p5976
S'vib_2'
p5977
sS'chunktype'
p5978
S'head:NP8'
p5979
ssbsg1899
I00
sg1902
I00
sg1913
Nsg1900
Nsg199
I13
sg185
I5
sg2232
Nsg1911
Nsg2233
S'NNP'
p5980
sg292
(issf_api
FeatureSet
p5981
(dp5982
g295
(dp5983
S'posn'
p5984
S'260'
p5985
sS'name'
p5986
S'\xe0\xa4\xb0\xe0\xa4\x82\xe0\xa4\x9c\xe0\xa4\xa8\xe0\xa4\xbe'
p5987
sS'af'
p5988
S'\xe0\xa4\xb0\xe0\xa4\x82\xe0\xa4\x9c\xe0\xa4\xa8\xe0\xa4\xbe,n,f,sg,3,o,0,0'
p5989
ssbsg1921
I00
sba(issf_api
Word
p5990
(dp5991
g2211
I00
sg2212
V\u0938\u0947
p5992
sg2214
(issf_api
FeatureSet
p5993
(dp5994
g295
(dp5995
S'posn'
p5996
S'270'
p5997
sS'name'
p5998
S'\xe0\xa4\xb8\xe0\xa5\x87'
p5999
sS'drel'
p6000
S'lwg__psp:\xe0\xa4\xb0\xe0\xa4\x82\xe0\xa4\x9c\xe0\xa4\xa8\xe0\xa4\xbe'
p6001
sS'chunktype'
p6002
S'child:NP8'
p6003
sS'af'
p6004
S'\xe0\xa4\xb8\xe0\xa5\x87,psp,,,,,,'
p6005
ssbsg1899
I00
sg1902
I00
sg1913
Nsg1900
Nsg199
I13
sg185
I5
sg2232
Nsg1911
Nsg2233
S'PSP'
p6006
sg292
(issf_api
FeatureSet
p6007
(dp6008
g295
(dp6009
S'posn'
p6010
S'270'
p6011
sS'name'
p6012
S'\xe0\xa4\xb8\xe0\xa5\x87'
p6013
sS'af'
p6014
S'\xe0\xa4\xb8\xe0\xa5\x87,psp,,,,,,'
p6015
ssbsg1921
I00
sba(issf_api
Word
p6016
(dp6017
g2211
I00
sg2212
V\u0936\u093e\u0926\u0940
p6018
sg2214
(issf_api
FeatureSet
p6019
(dp6020
g295
(dp6021
S'posn'
p6022
S'280'
p6023
sS'name'
p6024
S'\xe0\xa4\xb6\xe0\xa4\xbe\xe0\xa4\xa6\xe0\xa5\x80'
p6025
sS'af'
p6026
S'\xe0\xa4\xb6\xe0\xa4\xbe\xe0\xa4\xa6\xe0\xa5\x80,n,f,sg,3,d,0,0'
p6027
sS'chunkid'
p6028
S'NP9'
p6029
sS'drel'
p6030
S'pof:\xe0\xa4\xb9\xe0\xa5\x81\xe0\xa4\x88'
p6031
sS'chunktype'
p6032
S'head:NP9'
p6033
ssbsg1899
I00
sg1902
I00
sg1913
Nsg1900
Nsg199
I14
sg185
I5
sg2232
Nsg1911
Nsg2233
S'NN'
p6034
sg292
(issf_api
FeatureSet
p6035
(dp6036
g295
(dp6037
S'posn'
p6038
S'280'
p6039
sS'name'
p6040
S'\xe0\xa4\xb6\xe0\xa4\xbe\xe0\xa4\xa6\xe0\xa5\x80'
p6041
sS'af'
p6042
S'\xe0\xa4\xb6\xe0\xa4\xbe\xe0\xa4\xa6\xe0\xa5\x80,n,f,sg,3,d,0,0'
p6043
ssbsg1921
I00
sba(issf_api
Word
p6044
(dp6045
g2211
I00
sg2212
V\u0939\u0941\u0908
p6046
sg2214
(issf_api
FeatureSet
p6047
(dp6048
g295
(dp6049
S'posn'
p6050
S'290'
p6051
sS'name'
p6052
S'\xe0\xa4\xb9\xe0\xa5\x81\xe0\xa4\x88'
p6053
sS'af'
p6054
S'\xe0\xa4\xb9\xe0\xa5\x8b,v,f,sg,any,,\xe0\xa4\xaf\xe0\xa4\xbe_\xe0\xa4\xa5\xe0\xa4\xbe,yA'
p6055
sS'chunkid'
p6056
S'VGF3'
p6057
sS'stype'
p6058
S'declarative'
p6059
sS'drel'
p6060
S'ccof:\xe0\xa4\x95\xe0\xa4\xbf2'
p6061
sS'voicetype'
p6062
S'active'
p6063
sS'vpos'
p6064
S'tam_2'
p6065
sS'chunktype'
p6066
S'head:VGF3'
p6067
ssbsg1899
I00
sg1902
I00
sg1913
Nsg1900
Nsg199
I15
sg185
I5
sg2232
Nsg1911
Nsg2233
S'VM'
p6068
sg292
(issf_api
FeatureSet
p6069
(dp6070
g295
(dp6071
S'posn'
p6072
S'290'
p6073
sS'name'
p6074
S'\xe0\xa4\xb9\xe0\xa5\x81\xe0\xa4\x88'
p6075
sS'af'
p6076
S'\xe0\xa4\xb9\xe0\xa5\x8b,v,f,sg,any,,\xe0\xa4\xaf\xe0\xa4\xbe,yA'
p6077
ssbsg1921
I00
sba(issf_api
Word
p6078
(dp6079
g2211
I00
sg2212
V\u0925\u0940
p6080
sg2214
(issf_api
FeatureSet
p6081
(dp6082
g295
(dp6083
S'posn'
p6084
S'300'
p6085
sS'name'
p6086
S'\xe0\xa4\xa5\xe0\xa5\x80'
p6087
sS'drel'
p6088
S'lwg__vaux:\xe0\xa4\xb9\xe0\xa5\x81\xe0\xa4\x88'
p6089
sS'chunktype'
p6090
S'child:VGF3'
p6091
sS'af'
p6092
S'\xe0\xa4\xa5\xe0\xa4\xbe,v,f,sg,any,,\xe0\xa4\xa5\xe0\xa4\xbe,WA'
p6093
ssbsg1899
I00
sg1902
I00
sg1913
Nsg1900
Nsg199
I15
sg185
I5
sg2232
Nsg1911
Nsg2233
S'VAUX'
p6094
sg292
(issf_api
FeatureSet
p6095
(dp6096
g295
(dp6097
S'posn'
p6098
S'300'
p6099
sS'name'
p6100
S'\xe0\xa4\xa5\xe0\xa5\x80'
p6101
sS'af'
p6102
S'\xe0\xa4\xa5\xe0\xa4\xbe,v,f,sg,any,,\xe0\xa4\xa5\xe0\xa4\xbe,WA'
p6103
ssbsg1921
I00
sba(issf_api
Word
p6104
(dp6105
g2211
I00
sg2212
V\u0964
sg2214
(issf_api
FeatureSet
p6106
(dp6107
g295
(dp6108
S'posn'
p6109
S'310'
p6110
sS'name'
p6111
S'\xe0\xa5\xa4'
p6112
sS'af'
p6113
S'\xe0\xa5\xa4,punc,,,,,,'
p6114
sS'chunkid'
p6115
S'BLK'
p6116
sS'drel'
p6117
S'rsym:\xe0\xa4\x95\xe0\xa4\xb9\xe0\xa4\xbe'
p6118
sS'chunktype'
p6119
S'head:BLK'
p6120
ssbsg1899
I00
sg1902
I00
sg1913
Nsg1900
Nsg199
I16
sg185
I5
sg2232
Nsg1911
Nsg2233
S'SYM'
p6121
sg292
(issf_api
FeatureSet
p6122
(dp6123
g295
(dp6124
S'posn'
p6125
S'310'
p6126
sS'name'
p6127
S'\xe0\xa5\xa4'
p6128
sS'af'
p6129
S'\xe0\xa5\xa4,punc,,,,,,'
p6130
ssbsg1921
I00
sba(issf_api
Word
p6131
(dp6132
g2211
I00
sg2212
V\u0909\u0928\u094d\u0939\u094b\u0902\u0928\u0947
p6133
sg2214
(issf_api
FeatureSet
p6134
(dp6135
g295
(dp6136
S'posn'
p6137
S'10'
p6138
sS'name'
p6139
S'\xe0\xa4\x89\xe0\xa4\xa8\xe0\xa5\x8d\xe0\xa4\xb9\xe0\xa5\x8b\xe0\xa4\x82\xe0\xa4\xa8\xe0\xa5\x87'
p6140
sS'af'
p6141
S'\xe0\xa4\xb5\xe0\xa4\xb9,pn,any,sg,3h,o,\xe0\xa4\xa8\xe0\xa5\x87,ne'
p6142
sS'chunkid'
p6143
S'NP'
p6144
sS'drel'
p6145
S'k1:\xe0\xa4\x95\xe0\xa4\xb9\xe0\xa4\xbe'
p6146
sS'chunktype'
p6147
S'head:NP'
p6148
ssbsg1899
I00
sg1902
I00
sg1913
Nsg1900
Nsg199
I0
sg185
I6
sg2232
Nsg1911
Nsg2233
S'PRP'
p6149
sg292
(issf_api
FeatureSet
p6150
(dp6151
g295
(dp6152
S'posn'
p6153
S'10'
p6154
sS'name'
p6155
S'\xe0\xa4\x89\xe0\xa4\xa8\xe0\xa5\x8d\xe0\xa4\xb9\xe0\xa5\x8b\xe0\xa4\x82\xe0\xa4\xa8\xe0\xa5\x87'
p6156
sS'af'
p6157
S'\xe0\xa4\xb5\xe0\xa4\xb9,pn,any,sg,3h,o,\xe0\xa4\xa8\xe0\xa5\x87,ne'
p6158
ssbsg1921
I00
sba(issf_api
Word
p6159
(dp6160
g2211
I00
sg2212
V\u0915\u0939\u093e
p6161
sg2214
(issf_api
FeatureSet
p6162
(dp6163
g295
(dp6164
S'posn'
p6165
S'20'
p6166
sS'name'
p6167
S'\xe0\xa4\x95\xe0\xa4\xb9\xe0\xa4\xbe'
p6168
sS'af'
p6169
S'\xe0\xa4\x95\xe0\xa4\xb9,v,m,sg,any,,\xe0\xa4\xaf\xe0\xa4\xbe,yA'
p6170
sS'chunkid'
p6171
S'VGF'
p6172
sS'chunktype'
p6173
S'head:VGF'
p6174
sS'voicetype'
p6175
S'active'
p6176
sS'stype'
p6177
S'declarative'
p6178
ssbsg1899
I00
sg1902
I00
sg1913
Nsg1900
Nsg199
I1
sg185
I6
sg2232
Nsg1911
Nsg2233
S'VM'
p6179
sg292
(issf_api
FeatureSet
p6180
(dp6181
g295
(dp6182
S'posn'
p6183
S'20'
p6184
sS'name'
p6185
S'\xe0\xa4\x95\xe0\xa4\xb9\xe0\xa4\xbe'
p6186
sS'af'
p6187
S'\xe0\xa4\x95\xe0\xa4\xb9,v,m,sg,any,,\xe0\xa4\xaf\xe0\xa4\xbe,yA'
p6188
ssbsg1921
I00
sba(issf_api
Word
p6189
(dp6190
g2211
I00
sg2212
V\u0915\u093f
p6191
sg2214
(issf_api
FeatureSet
p6192
(dp6193
g295
(dp6194
S'posn'
p6195
S'30'
p6196
sS'name'
p6197
S'\xe0\xa4\x95\xe0\xa4\xbf'
p6198
sS'af'
p6199
S'\xe0\xa4\x95\xe0\xa4\xbf,avy,,,,,,'
p6200
sS'chunkid'
p6201
S'CCP'
p6202
sS'drel'
p6203
S'k2:\xe0\xa4\x95\xe0\xa4\xb9\xe0\xa4\xbe'
p6204
sS'chunktype'
p6205
S'head:CCP'
p6206
ssbsg1899
I00
sg1902
I00
sg1913
Nsg1900
Nsg199
I2
sg185
I6
sg2232
Nsg1911
Nsg2233
S'CC'
p6207
sg292
(issf_api
FeatureSet
p6208
(dp6209
g295
(dp6210
S'posn'
p6211
S'30'
p6212
sS'name'
p6213
S'\xe0\xa4\x95\xe0\xa4\xbf'
p6214
sS'af'
p6215
S'\xe0\xa4\x95\xe0\xa4\xbf,avy,,,,,,'
p6216
ssbsg1921
I00
sba(issf_api
Word
p6217
(dp6218
g2211
I00
sg2212
V\u0906\u092f\u094b\u0917
p6219
sg2214
(issf_api
FeatureSet
p6220
(dp6221
g295
(dp6222
S'posn'
p6223
S'40'
p6224
sS'name'
p6225
S'\xe0\xa4\x86\xe0\xa4\xaf\xe0\xa5\x8b\xe0\xa4\x97'
p6226
sS'af'
p6227
S'\xe0\xa4\x86\xe0\xa4\xaf\xe0\xa5\x8b\xe0\xa4\x97,n,m,sg,3,d,0,0'
p6228
sS'chunkid'
p6229
S'NP2'
p6230
sS'drel'
p6231
S'k1:\xe0\xa4\x95\xe0\xa4\xb0\xe0\xa5\x87\xe0\xa4\x97\xe0\xa4\xbe'
p6232
sS'chunktype'
p6233
S'head:NP2'
p6234
ssbsg1899
I00
sg1902
I00
sg1913
Nsg1900
Nsg199
I3
sg185
I6
sg2232
Nsg1911
Nsg2233
S'NN'
p6235
sg292
(issf_api
FeatureSet
p6236
(dp6237
g295
(dp6238
S'posn'
p6239
S'40'
p6240
sS'name'
p6241
S'\xe0\xa4\x86\xe0\xa4\xaf\xe0\xa5\x8b\xe0\xa4\x97'
p6242
sS'af'
p6243
S'\xe0\xa4\x86\xe0\xa4\xaf\xe0\xa5\x8b\xe0\xa4\x97,n,m,sg,3,d,0,0'
p6244
ssbsg1921
I00
sba(issf_api
Word
p6245
(dp6246
g2211
I00
sg2212
V\u0907\u0938
p6247
sg2214
(issf_api
FeatureSet
p6248
(dp6249
g295
(dp6250
S'posn'
p6251
S'50'
p6252
sS'name'
p6253
S'\xe0\xa4\x87\xe0\xa4\xb8'
p6254
sS'drel'
p6255
S'nmod__adj:\xe0\xa4\xae\xe0\xa4\xbe\xe0\xa4\xae\xe0\xa4\xb2\xe0\xa5\x87'
p6256
sS'chunktype'
p6257
S'child:NP3'
p6258
sS'af'
p6259
S'\xe0\xa4\xaf\xe0\xa4\xb9,pn,any,sg,3,o,,'
p6260
ssbsg1899
I00
sg1902
I00
sg1913
Nsg1900
Nsg199
I4
sg185
I6
sg2232
Nsg1911
Nsg2233
S'DEM'
p6261
sg292
(issf_api
FeatureSet
p6262
(dp6263
g295
(dp6264
S'posn'
p6265
S'50'
p6266
sS'name'
p6267
S'\xe0\xa4\x87\xe0\xa4\xb8'
p6268
sS'af'
p6269
S'\xe0\xa4\xaf\xe0\xa4\xb9,pn,any,sg,3,o,,'
p6270
ssbsg1921
I00
sba(issf_api
Word
p6271
(dp6272
g2211
I00
sg2212
V\u092e\u093e\u092e\u0932\u0947
p6273
sg2214
(issf_api
FeatureSet
p6274
(dp6275
g295
(dp6276
S'posn'
p6277
S'60'
p6278
sS'name'
p6279
S'\xe0\xa4\xae\xe0\xa4\xbe\xe0\xa4\xae\xe0\xa4\xb2\xe0\xa5\x87'
p6280
sS'af'
p6281
S'\xe0\xa4\xae\xe0\xa4\xbe\xe0\xa4\xae\xe0\xa4\xb2\xe0\xa4\xbe,n,m,sg,3,o,0_\xe0\xa4\xae\xe0\xa5\x87\xe0\xa4\x82,0'
p6282
sS'chunkid'
p6283
S'NP3'
p6284
sS'drel'
p6285
S'k7:\xe0\xa4\x95\xe0\xa4\xb0\xe0\xa5\x87\xe0\xa4\x97\xe0\xa4\xbe'
p6286
sS'vpos'
p6287
S'vib_3'
p6288
sS'chunktype'
p6289
S'head:NP3'
p6290
ssbsg1899
I00
sg1902
I00
sg1913
Nsg1900
Nsg199
I4
sg185
I6
sg2232
Nsg1911
Nsg2233
S'NN'
p6291
sg292
(issf_api
FeatureSet
p6292
(dp6293
g295
(dp6294
S'posn'
p6295
S'60'
p6296
sS'name'
p6297
S'\xe0\xa4\xae\xe0\xa4\xbe\xe0\xa4\xae\xe0\xa4\xb2\xe0\xa5\x87'
p6298
sS'af'
p6299
S'\xe0\xa4\xae\xe0\xa4\xbe\xe0\xa4\xae\xe0\xa4\xb2\xe0\xa4\xbe,n,m,sg,3,o,0,0'
p6300
ssbsg1921
I00
sba(issf_api
Word
p6301
(dp6302
g2211
I00
sg2212
V\u092e\u0947\u0902
p6303
sg2214
(issf_api
FeatureSet
p6304
(dp6305
g295
(dp6306
S'posn'
p6307
S'70'
p6308
sS'name'
p6309
S'\xe0\xa4\xae\xe0\xa5\x87\xe0\xa4\x82'
p6310
sS'drel'
p6311
S'lwg__psp:\xe0\xa4\xae\xe0\xa4\xbe\xe0\xa4\xae\xe0\xa4\xb2\xe0\xa5\x87'
p6312
sS'chunktype'
p6313
S'child:NP3'
p6314
sS'af'
p6315
S'\xe0\xa4\xae\xe0\xa5\x87\xe0\xa4\x82,psp,,,,,,'
p6316
ssbsg1899
I00
sg1902
I00
sg1913
Nsg1900
Nsg199
I4
sg185
I6
sg2232
Nsg1911
Nsg2233
S'PSP'
p6317
sg292
(issf_api
FeatureSet
p6318
(dp6319
g295
(dp6320
S'posn'
p6321
S'70'
p6322
sS'name'
p6323
S'\xe0\xa4\xae\xe0\xa5\x87\xe0\xa4\x82'
p6324
sS'af'
p6325
S'\xe0\xa4\xae\xe0\xa5\x87\xe0\xa4\x82,psp,,,,,,'
p6326
ssbsg1921
I00
sba(issf_api
Word
p6327
(dp6328
g2211
I00
sg2212
V\u0905\u092c
p6329
sg2214
(issf_api
FeatureSet
p6330
(dp6331
g295
(dp6332
S'posn'
p6333
S'80'
p6334
sS'name'
p6335
S'\xe0\xa4\x85\xe0\xa4\xac'
p6336
sS'af'
p6337
S'\xe0\xa4\x85\xe0\xa4\xac,pn,,,,d,,'
p6338
sS'chunkid'
p6339
S'NP4'
p6340
sS'drel'
p6341
S'k7t:\xe0\xa4\x95\xe0\xa4\xb0\xe0\xa5\x87\xe0\xa4\x97\xe0\xa4\xbe'
p6342
sS'chunktype'
p6343
S'head:NP4'
p6344
ssbsg1899
I00
sg1902
I00
sg1913
Nsg1900
Nsg199
I5
sg185
I6
sg2232
Nsg1911
Nsg2233
S'PRP'
p6345
sg292
(issf_api
FeatureSet
p6346
(dp6347
g295
(dp6348
S'posn'
p6349
S'80'
p6350
sS'name'
p6351
S'\xe0\xa4\x85\xe0\xa4\xac'
p6352
sS'af'
p6353
S'\xe0\xa4\x85\xe0\xa4\xac,pn,,,,d,,'
p6354
ssbsg1921
I00
sba(issf_api
Word
p6355
(dp6356
g2211
I00
sg2212
V\u0915\u093e\u0928\u0942\u0928\u0940
p6357
sg2214
(issf_api
FeatureSet
p6358
(dp6359
g295
(dp6360
S'posn'
p6361
S'90'
p6362
sS'name'
p6363
S'\xe0\xa4\x95\xe0\xa4\xbe\xe0\xa4\xa8\xe0\xa5\x82\xe0\xa4\xa8\xe0\xa5\x80'
p6364
sS'drel'
p6365
S'nmod__adj:\xe0\xa4\x95\xe0\xa4\xbe\xe0\xa4\xb0\xe0\xa5\x8d\xe0\xa4\xb0\xe0\xa4\xb5\xe0\xa4\xbe\xe0\xa4\x88'
p6366
sS'chunktype'
p6367
S'child:NP5'
p6368
sS'af'
p6369
S'\xe0\xa4\x95\xe0\xa4\xbe\xe0\xa4\xa8\xe0\xa5\x82\xe0\xa4\xa8\xe0\xa5\x80,adj,any,any,,o,,'
p6370
ssbsg1899
I00
sg1902
I00
sg1913
Nsg1900
Nsg199
I6
sg185
I6
sg2232
Nsg1911
Nsg2233
S'JJ'
p6371
sg292
(issf_api
FeatureSet
p6372
(dp6373
g295
(dp6374
S'posn'
p6375
S'90'
p6376
sS'name'
p6377
S'\xe0\xa4\x95\xe0\xa4\xbe\xe0\xa4\xa8\xe0\xa5\x82\xe0\xa4\xa8\xe0\xa5\x80'
p6378
sS'af'
p6379
S'\xe0\xa4\x95\xe0\xa4\xbe\xe0\xa4\xa8\xe0\xa5\x82\xe0\xa4\xa8\xe0\xa5\x80,adj,any,any,,o,,'
p6380
ssbsg1921
I00
sba(issf_api
Word
p6381
(dp6382
g2211
I00
sg2212
V\u0915\u093e\u0930\u094d\u0930\u0935\u093e\u0908
p6383
sg2214
(issf_api
FeatureSet
p6384
(dp6385
g295
(dp6386
S'posn'
p6387
S'100'
p6388
sS'name'
p6389
S'\xe0\xa4\x95\xe0\xa4\xbe\xe0\xa4\xb0\xe0\xa5\x8d\xe0\xa4\xb0\xe0\xa4\xb5\xe0\xa4\xbe\xe0\xa4\x88'
p6390
sS'af'
p6391
S'\xe0\xa4\x95\xe0\xa4\xbe\xe0\xa4\xb0\xe0\xa5\x8d\xe0\xa4\xb0\xe0\xa4\xb5\xe0\xa4\xbe\xe0\xa4\x88,n,f,sg,3,d,0,0'
p6392
sS'chunkid'
p6393
S'NP5'
p6394
sS'drel'
p6395
S'pof:\xe0\xa4\x95\xe0\xa4\xb0\xe0\xa5\x87\xe0\xa4\x97\xe0\xa4\xbe'
p6396
sS'chunktype'
p6397
S'head:NP5'
p6398
ssbsg1899
I00
sg1902
I00
sg1913
Nsg1900
Nsg199
I6
sg185
I6
sg2232
Nsg1911
Nsg2233
S'NN'
p6399
sg292
(issf_api
FeatureSet
p6400
(dp6401
g295
(dp6402
S'posn'
p6403
S'100'
p6404
sS'name'
p6405
S'\xe0\xa4\x95\xe0\xa4\xbe\xe0\xa4\xb0\xe0\xa5\x8d\xe0\xa4\xb0\xe0\xa4\xb5\xe0\xa4\xbe\xe0\xa4\x88'
p6406
sS'af'
p6407
S'\xe0\xa4\x95\xe0\xa4\xbe\xe0\xa4\xb0\xe0\xa5\x8d\xe0\xa4\xb0\xe0\xa4\xb5\xe0\xa4\xbe\xe0\xa4\x88,n,f,sg,3,d,0,0'
p6408
ssbsg1921
I00
sba(issf_api
Word
p6409
(dp6410
g2211
I00
sg2212
V\u0915\u0930\u0947\u0917\u093e
p6411
sg2214
(issf_api
FeatureSet
p6412
(dp6413
g295
(dp6414
S'posn'
p6415
S'110'
p6416
sS'name'
p6417
S'\xe0\xa4\x95\xe0\xa4\xb0\xe0\xa5\x87\xe0\xa4\x97\xe0\xa4\xbe'
p6418
sS'af'
p6419
S'\xe0\xa4\x95\xe0\xa4\xb0,v,m,sg,3,,\xe0\xa4\x97\xe0\xa4\xbe,gA'
p6420
sS'chunkid'
p6421
S'VGF2'
p6422
sS'stype'
p6423
S'declarative'
p6424
sS'drel'
p6425
S'ccof:\xe0\xa4\x95\xe0\xa4\xbf'
p6426
sS'voicetype'
p6427
S'active'
p6428
sS'chunktype'
p6429
S'head:VGF2'
p6430
ssbsg1899
I00
sg1902
I00
sg1913
Nsg1900
Nsg199
I7
sg185
I6
sg2232
Nsg1911
Nsg2233
S'VM'
p6431
sg292
(issf_api
FeatureSet
p6432
(dp6433
g295
(dp6434
S'posn'
p6435
S'110'
p6436
sS'name'
p6437
S'\xe0\xa4\x95\xe0\xa4\xb0\xe0\xa5\x87\xe0\xa4\x97\xe0\xa4\xbe'
p6438
sS'af'
p6439
S'\xe0\xa4\x95\xe0\xa4\xb0,v,m,sg,3,,\xe0\xa4\x97\xe0\xa4\xbe,gA'
p6440
ssbsg1921
I00
sba(issf_api
Word
p6441
(dp6442
g2211
I00
sg2212
V\u0964
sg2214
(issf_api
FeatureSet
p6443
(dp6444
g295
(dp6445
S'posn'
p6446
S'120'
p6447
sS'name'
p6448
S'\xe0\xa5\xa4'
p6449
sS'af'
p6450
S'\xe0\xa5\xa4,punc,,,,,,'
p6451
sS'chunkid'
p6452
S'BLK'
p6453
sS'drel'
p6454
S'rsym:\xe0\xa4\x95\xe0\xa4\xb9\xe0\xa4\xbe'
p6455
sS'chunktype'
p6456
S'head:BLK'
p6457
ssbsg1899
I00
sg1902
I00
sg1913
Nsg1900
Nsg199
I8
sg185
I6
sg2232
Nsg1911
Nsg2233
S'SYM'
p6458
sg292
(issf_api
FeatureSet
p6459
(dp6460
g295
(dp6461
S'posn'
p6462
S'120'
p6463
sS'name'
p6464
S'\xe0\xa5\xa4'
p6465
sS'af'
p6466
S'\xe0\xa5\xa4,punc,,,,,,'
p6467
ssbsg1921
I00
sba(issf_api
Word
p6468
(dp6469
g2211
I00
sg2212
V\u0930\u0902\u091c\u0928\u093e
p6470
sg2214
(issf_api
FeatureSet
p6471
(dp6472
g295
(dp6473
S'posn'
p6474
S'10'
p6475
sS'name'
p6476
S'\xe0\xa4\xb0\xe0\xa4\x82\xe0\xa4\x9c\xe0\xa4\xa8\xe0\xa4\xbe'
p6477
sS'af'
p6478
S'\xe0\xa4\xb0\xe0\xa4\x82\xe0\xa4\x9c\xe0\xa4\xa8\xe0\xa4\xbe,n,f,sg,3,d,0,0'
p6479
sS'chunkid'
p6480
S'NP'
p6481
sS'drel'
p6482
S'k1:\xe0\xa4\x9a\xe0\xa4\xbe\xe0\xa4\xb9\xe0\xa4\xa4\xe0\xa5\x80'
p6483
sS'chunktype'
p6484
S'head:NP'
p6485
ssbsg1899
I00
sg1902
I00
sg1913
Nsg1900
Nsg199
I0
sg185
I7
sg2232
Nsg1911
Nsg2233
S'NNP'
p6486
sg292
(issf_api
FeatureSet
p6487
(dp6488
g295
(dp6489
S'posn'
p6490
S'10'
p6491
sS'name'
p6492
S'\xe0\xa4\xb0\xe0\xa4\x82\xe0\xa4\x9c\xe0\xa4\xa8\xe0\xa4\xbe'
p6493
sS'af'
p6494
S'\xe0\xa4\xb0\xe0\xa4\x82\xe0\xa4\x9c\xe0\xa4\xa8\xe0\xa4\xbe,n,f,sg,3,d,0,0'
p6495
ssbsg1921
I00
sba(issf_api
Word
p6496
(dp6497
g2211
I00
sg2212
V\u091a\u093e\u0939\u0924\u0940
p6498
sg2214
(issf_api
FeatureSet
p6499
(dp6500
g295
(dp6501
S'posn'
p6502
S'20'
p6503
sS'name'
p6504
S'\xe0\xa4\x9a\xe0\xa4\xbe\xe0\xa4\xb9\xe0\xa4\xa4\xe0\xa5\x80'
p6505
sS'af'
p6506
S'\xe0\xa4\x9a\xe0\xa4\xbe\xe0\xa4\xb9,v,f,sg,3h,,\xe0\xa4\xa4\xe0\xa4\xbe_\xe0\xa4\xb9\xe0\xa5\x88,wA'
p6507
sS'chunkid'
p6508
S'VGF'
p6509
sS'chunktype'
p6510
S'head:VGF'
p6511
sS'voicetype'
p6512
S'active'
p6513
sS'vpos'
p6514
S'tam_2'
p6515
sS'stype'
p6516
S'declarative'
p6517
ssbsg1899
I00
sg1902
I00
sg1913
Nsg1900
Nsg199
I1
sg185
I7
sg2232
Nsg1911
Nsg2233
S'VM'
p6518
sg292
(issf_api
FeatureSet
p6519
(dp6520
g295
(dp6521
S'posn'
p6522
S'20'
p6523
sS'name'
p6524
S'\xe0\xa4\x9a\xe0\xa4\xbe\xe0\xa4\xb9\xe0\xa4\xa4\xe0\xa5\x80'
p6525
sS'af'
p6526
S'\xe0\xa4\x9a\xe0\xa4\xbe\xe0\xa4\xb9,v,f,sg,any,,\xe0\xa4\xa4\xe0\xa4\xbe,wA'
p6527
ssbsg1921
I00
sba(issf_api
Word
p6528
(dp6529
g2211
I00
sg2212
V\u0939\u0948\u0902
p6530
sg2214
(issf_api
FeatureSet
p6531
(dp6532
g295
(dp6533
S'posn'
p6534
S'30'
p6535
sS'name'
p6536
S'\xe0\xa4\xb9\xe0\xa5\x88\xe0\xa4\x82'
p6537
sS'drel'
p6538
S'lwg__vaux:\xe0\xa4\x9a\xe0\xa4\xbe\xe0\xa4\xb9\xe0\xa4\xa4\xe0\xa5\x80'
p6539
sS'chunktype'
p6540
S'child:VGF'
p6541
sS'af'
p6542
S'\xe0\xa4\xb9\xe0\xa5\x88,v,any,sg,3h,,\xe0\xa4\xb9\xe0\xa5\x88,hE'
p6543
ssbsg1899
I00
sg1902
I00
sg1913
Nsg1900
Nsg199
I1
sg185
I7
sg2232
Nsg1911
Nsg2233
S'VAUX'
p6544
sg292
(issf_api
FeatureSet
p6545
(dp6546
g295
(dp6547
S'posn'
p6548
S'30'
p6549
sS'name'
p6550
S'\xe0\xa4\xb9\xe0\xa5\x88\xe0\xa4\x82'
p6551
sS'af'
p6552
S'\xe0\xa4\xb9\xe0\xa5\x88,v,any,sg,3h,,\xe0\xa4\xb9\xe0\xa5\x88,hE'
p6553
ssbsg1921
I00
sba(issf_api
Word
p6554
(dp6555
g2211
I00
sg2212
V\u0915\u093f
p6556
sg2214
(issf_api
FeatureSet
p6557
(dp6558
g295
(dp6559
S'posn'
p6560
S'40'
p6561
sS'name'
p6562
S'\xe0\xa4\x95\xe0\xa4\xbf'
p6563
sS'af'
p6564
S'\xe0\xa4\x95\xe0\xa4\xbf,avy,,,,,,'
p6565
sS'chunkid'
p6566
S'CCP'
p6567
sS'drel'
p6568
S'k2:\xe0\xa4\x9a\xe0\xa4\xbe\xe0\xa4\xb9\xe0\xa4\xa4\xe0\xa5\x80'
p6569
sS'chunktype'
p6570
S'head:CCP'
p6571
ssbsg1899
I00
sg1902
I00
sg1913
Nsg1900
Nsg199
I2
sg185
I7
sg2232
Nsg1911
Nsg2233
S'CC'
p6572
sg292
(issf_api
FeatureSet
p6573
(dp6574
g295
(dp6575
S'posn'
p6576
S'40'
p6577
sS'name'
p6578
S'\xe0\xa4\x95\xe0\xa4\xbf'
p6579
sS'af'
p6580
S'\xe0\xa4\x95\xe0\xa4\xbf,avy,,,,,,'
p6581
ssbsg1921
I00
sba(issf_api
Word
p6582
(dp6583
g2211
I00
sg2212
V\u0909\u0926\u093f\u0924
p6584
sg2214
(issf_api
FeatureSet
p6585
(dp6586
g295
(dp6587
S'posn'
p6588
S'50'
p6589
sS'name'
p6590
S'\xe0\xa4\x89\xe0\xa4\xa6\xe0\xa4\xbf\xe0\xa4\xa4'
p6591
sS'af'
p6592
S'\xe0\xa4\x89\xe0\xa4\xa6\xe0\xa4\xbf\xe0\xa4\xa4,n,m,sg,3,d,0,0'
p6593
sS'chunkid'
p6594
S'NP2'
p6595
sS'drel'
p6596
S'k1:\xe0\xa4\xa6\xe0\xa5\x87\xe0\xa4\x82'
p6597
sS'chunktype'
p6598
S'head:NP2'
p6599
ssbsg1899
I00
sg1902
I00
sg1913
Nsg1900
Nsg199
I3
sg185
I7
sg2232
Nsg1911
Nsg2233
S'NNP'
p6600
sg292
(issf_api
FeatureSet
p6601
(dp6602
g295
(dp6603
S'posn'
p6604
S'50'
p6605
sS'name'
p6606
S'\xe0\xa4\x89\xe0\xa4\xa6\xe0\xa4\xbf\xe0\xa4\xa4'
p6607
sS'af'
p6608
S'\xe0\xa4\x89\xe0\xa4\xa6\xe0\xa4\xbf\xe0\xa4\xa4,n,m,sg,3,d,0,0'
p6609
ssbsg1921
I00
sba(issf_api
Word
p6610
(dp6611
g2211
I00
sg2212
V\u0909\u0928\u094d\u0939\u0947\u0902
p6612
sg2214
(issf_api
FeatureSet
p6613
(dp6614
g295
(dp6615
S'posn'
p6616
S'60'
p6617
sS'name'
p6618
S'\xe0\xa4\x89\xe0\xa4\xa8\xe0\xa5\x8d\xe0\xa4\xb9\xe0\xa5\x87\xe0\xa4\x82'
p6619
sS'af'
p6620
S'\xe0\xa4\xb5\xe0\xa4\xb9,pn,any,sg,3h,o,\xe0\xa4\x95\xe0\xa5\x8b,ko'
p6621
sS'chunkid'
p6622
S'NP3'
p6623
sS'drel'
p6624
S'k4:\xe0\xa4\xa6\xe0\xa5\x87\xe0\xa4\x82'
p6625
sS'chunktype'
p6626
S'head:NP3'
p6627
ssbsg1899
I00
sg1902
I00
sg1913
Nsg1900
Nsg199
I4
sg185
I7
sg2232
Nsg1911
Nsg2233
S'PRP'
p6628
sg292
(issf_api
FeatureSet
p6629
(dp6630
g295
(dp6631
S'posn'
p6632
S'60'
p6633
sS'name'
p6634
S'\xe0\xa4\x89\xe0\xa4\xa8\xe0\xa5\x8d\xe0\xa4\xb9\xe0\xa5\x87\xe0\xa4\x82'
p6635
sS'af'
p6636
S'\xe0\xa4\xb5\xe0\xa4\xb9,pn,any,sg,3h,o,\xe0\xa4\x95\xe0\xa5\x8b,ko'
p6637
ssbsg1921
I00
sba(issf_api
Word
p6638
(dp6639
g2211
I00
sg2212
V\u0909\u0928\u0915\u093e
p6640
sg2214
(issf_api
FeatureSet
p6641
(dp6642
g295
(dp6643
S'posn'
p6644
S'70'
p6645
sS'name'
p6646
S'\xe0\xa4\x89\xe0\xa4\xa8\xe0\xa4\x95\xe0\xa4\xbe'
p6647
sS'af'
p6648
S'\xe0\xa4\xb5\xe0\xa4\xb9,pn,m,sg,3,o,\xe0\xa4\x95\xe0\xa4\xbe,kA'
p6649
sS'chunkid'
p6650
S'NP4'
p6651
sS'drel'
p6652
S'r6:\xe0\xa4\xb9\xe0\xa4\x95'
p6653
sS'chunktype'
p6654
S'head:NP4'
p6655
ssbsg1899
I00
sg1902
I00
sg1913
Nsg1900
Nsg199
I5
sg185
I7
sg2232
Nsg1911
Nsg2233
S'PRP'
p6656
sg292
(issf_api
FeatureSet
p6657
(dp6658
g295
(dp6659
S'posn'
p6660
S'70'
p6661
sS'name'
p6662
S'\xe0\xa4\x89\xe0\xa4\xa8\xe0\xa4\x95\xe0\xa4\xbe'
p6663
sS'af'
p6664
S'\xe0\xa4\xb5\xe0\xa4\xb9,pn,m,sg,3,o,\xe0\xa4\x95\xe0\xa4\xbe,kA'
p6665
ssbsg1921
I00
sba(issf_api
Word
p6666
(dp6667
g2211
I00
sg2212
V\u0939\u0915
p6668
sg2214
(issf_api
FeatureSet
p6669
(dp6670
g295
(dp6671
S'posn'
p6672
S'80'
p6673
sS'name'
p6674
S'\xe0\xa4\xb9\xe0\xa4\x95'
p6675
sS'af'
p6676
S'\xe0\xa4\xb9\xe0\xa4\x95,n,m,sg,3,d,0,0'
p6677
sS'chunkid'
p6678
S'NP5'
p6679
sS'drel'
p6680
S'k2:\xe0\xa4\xa6\xe0\xa5\x87\xe0\xa4\x82'
p6681
sS'chunktype'
p6682
S'head:NP5'
p6683
ssbsg1899
I00
sg1902
I00
sg1913
Nsg1900
Nsg199
I6
sg185
I7
sg2232
Nsg1911
Nsg2233
S'NN'
p6684
sg292
(issf_api
FeatureSet
p6685
(dp6686
g295
(dp6687
S'posn'
p6688
S'80'
p6689
sS'name'
p6690
S'\xe0\xa4\xb9\xe0\xa4\x95'
p6691
sS'af'
p6692
S'\xe0\xa4\xb9\xe0\xa4\x95,n,m,sg,3,d,0,0'
p6693
ssbsg1921
I00
sba(issf_api
Word
p6694
(dp6695
g2211
I00
sg2212
V\u0926\u0947\u0902
p6696
sg2214
(issf_api
FeatureSet
p6697
(dp6698
g295
(dp6699
S'posn'
p6700
S'90'
p6701
sS'name'
p6702
S'\xe0\xa4\xa6\xe0\xa5\x87\xe0\xa4\x82'
p6703
sS'af'
p6704
S'\xe0\xa4\xa6\xe0\xa5\x87,v,any,sg,3h,,\xe0\xa4\x8f\xe0\xa4\x82,eM'
p6705
sS'chunkid'
p6706
S'VGF2'
p6707
sS'stype'
p6708
S'declarative'
p6709
sS'drel'
p6710
S'ccof:\xe0\xa4\x95\xe0\xa4\xbf'
p6711
sS'voicetype'
p6712
S'active'
p6713
sS'chunktype'
p6714
S'head:VGF2'
p6715
ssbsg1899
I00
sg1902
I00
sg1913
Nsg1900
Nsg199
I7
sg185
I7
sg2232
Nsg1911
Nsg2233
S'VM'
p6716
sg292
(issf_api
FeatureSet
p6717
(dp6718
g295
(dp6719
S'posn'
p6720
S'90'
p6721
sS'name'
p6722
S'\xe0\xa4\xa6\xe0\xa5\x87\xe0\xa4\x82'
p6723
sS'af'
p6724
S'\xe0\xa4\xa6\xe0\xa5\x87,v,any,sg,3h,,\xe0\xa4\x8f\xe0\xa4\x82,eM'
p6725
ssbsg1921
I00
sba(issf_api
Word
p6726
(dp6727
g2211
I00
sg2212
V\u0964
sg2214
(issf_api
FeatureSet
p6728
(dp6729
g295
(dp6730
S'posn'
p6731
S'100'
p6732
sS'name'
p6733
S'\xe0\xa5\xa4'
p6734
sS'af'
p6735
S'\xe0\xa5\xa4,punc,,,,,,'
p6736
sS'chunkid'
p6737
S'BLK'
p6738
sS'drel'
p6739
S'rsym:\xe0\xa4\x9a\xe0\xa4\xbe\xe0\xa4\xb9\xe0\xa4\xa4\xe0\xa5\x80'
p6740
sS'chunktype'
p6741
S'head:BLK'
p6742
ssbsg1899
I00
sg1902
I00
sg1913
Nsg1900
Nsg199
I8
sg185
I7
sg2232
Nsg1911
Nsg2233
S'SYM'
p6743
sg292
(issf_api
FeatureSet
p6744
(dp6745
g295
(dp6746
S'posn'
p6747
S'100'
p6748
sS'name'
p6749
S'\xe0\xa5\xa4'
p6750
sS'af'
p6751
S'\xe0\xa5\xa4,punc,,,,,,'
p6752
ssbsg1921
I00
sba(issf_api
Word
p6753
(dp6754
g2211
I00
sg2212
V\u0935\u0947
p6755
sg2214
(issf_api
FeatureSet
p6756
(dp6757
g295
(dp6758
S'posn'
p6759
S'10'
p6760
sS'name'
p6761
S'\xe0\xa4\xb5\xe0\xa5\x87'
p6762
sS'af'
p6763
S'\xe0\xa4\xb5\xe0\xa4\xb9,pn,any,sg,3h,d,0,0'
p6764
sS'chunkid'
p6765
S'NP'
p6766
sS'drel'
p6767
S'k1:\xe0\xa4\xb0\xe0\xa4\xb9'
p6768
sS'chunktype'
p6769
S'head:NP'
p6770
ssbsg1899
I00
sg1902
I00
sg1913
Nsg1900
Nsg199
I0
sg185
I8
sg2232
Nsg1911
Nsg2233
S'PRP'
p6771
sg292
(issf_api
FeatureSet
p6772
(dp6773
g295
(dp6774
S'posn'
p6775
S'10'
p6776
sS'name'
p6777
S'\xe0\xa4\xb5\xe0\xa5\x87'
p6778
sS'af'
p6779
S'\xe0\xa4\xb5\xe0\xa4\xb9,pn,any,sg,3h,d,0,0'
p6780
ssbsg1921
I00
sba(issf_api
Word
p6781
(dp6782
g2211
I00
sg2212
V\u0915\u093e\u092b\u0940
p6783
sg2214
(issf_api
FeatureSet
p6784
(dp6785
g295
(dp6786
S'posn'
p6787
S'20'
p6788
sS'name'
p6789
S'\xe0\xa4\x95\xe0\xa4\xbe\xe0\xa4\xab\xe0\xa5\x80'
p6790
sS'drel'
p6791
S'nmod__adj:\xe0\xa4\xb8\xe0\xa4\xae\xe0\xa4\xaf'
p6792
sS'chunktype'
p6793
S'child:NP2'
p6794
sS'af'
p6795
S'\xe0\xa4\x95\xe0\xa4\xbe\xe0\xa4\xab\xe0\xa5\x80,avy,,,,,,'
p6796
ssbsg1899
I00
sg1902
I00
sg1913
Nsg1900
Nsg199
I1
sg185
I8
sg2232
Nsg1911
Nsg2233
S'QF'
p6797
sg292
(issf_api
FeatureSet
p6798
(dp6799
g295
(dp6800
S'posn'
p6801
S'20'
p6802
sS'name'
p6803
S'\xe0\xa4\x95\xe0\xa4\xbe\xe0\xa4\xab\xe0\xa5\x80'
p6804
sS'af'
p6805
S'\xe0\xa4\x95\xe0\xa4\xbe\xe0\xa4\xab\xe0\xa5\x80,avy,,,,,,'
p6806
ssbsg1921
I00
sba(issf_api
Word
p6807
(dp6808
g2211
I00
sg2212
V\u0938\u092e\u092f
p6809
sg2214
(issf_api
FeatureSet
p6810
(dp6811
g295
(dp6812
S'posn'
p6813
S'30'
p6814
sS'name'
p6815
S'\xe0\xa4\xb8\xe0\xa4\xae\xe0\xa4\xaf'
p6816
sS'af'
p6817
S'\xe0\xa4\xb8\xe0\xa4\xae\xe0\xa4\xaf,n,m,sg,3,o,0_\xe0\xa4\xb8\xe0\xa5\x87,0'
p6818
sS'chunkid'
p6819
S'NP2'
p6820
sS'drel'
p6821
S'k5:\xe0\xa4\xb0\xe0\xa4\xb9'
p6822
sS'vpos'
p6823
S'vib_3'
p6824
sS'chunktype'
p6825
S'head:NP2'
p6826
ssbsg1899
I00
sg1902
I00
sg1913
Nsg1900
Nsg199
I1
sg185
I8
sg2232
Nsg1911
Nsg2233
S'NN'
p6827
sg292
(issf_api
FeatureSet
p6828
(dp6829
g295
(dp6830
S'posn'
p6831
S'30'
p6832
sS'name'
p6833
S'\xe0\xa4\xb8\xe0\xa4\xae\xe0\xa4\xaf'
p6834
sS'af'
p6835
S'\xe0\xa4\xb8\xe0\xa4\xae\xe0\xa4\xaf,n,m,sg,3,o,0,0'
p6836
ssbsg1921
I00
sba(issf_api
Word
p6837
(dp6838
g2211
I00
sg2212
V\u0938\u0947
p6839
sg2214
(issf_api
FeatureSet
p6840
(dp6841
g295
(dp6842
S'posn'
p6843
S'40'
p6844
sS'name'
p6845
S'\xe0\xa4\xb8\xe0\xa5\x87'
p6846
sS'drel'
p6847
S'lwg__psp:\xe0\xa4\xb8\xe0\xa4\xae\xe0\xa4\xaf'
p6848
sS'chunktype'
p6849
S'child:NP2'
p6850
sS'af'
p6851
S'\xe0\xa4\xb8\xe0\xa5\x87,psp,,,,,,'
p6852
ssbsg1899
I00
sg1902
I00
sg1913
Nsg1900
Nsg199
I1
sg185
I8
sg2232
Nsg1911
Nsg2233
S'PSP'
p6853
sg292
(issf_api
FeatureSet
p6854
(dp6855
g295
(dp6856
S'posn'
p6857
S'40'
p6858
sS'name'
p6859
S'\xe0\xa4\xb8\xe0\xa5\x87'
p6860
sS'af'
p6861
S'\xe0\xa4\xb8\xe0\xa5\x87,psp,,,,,,'
p6862
ssbsg1921
I00
sba(issf_api
Word
p6863
(dp6864
g2211
I00
sg2212
V\u0909\u0926\u093f\u0924
p6865
sg2214
(issf_api
FeatureSet
p6866
(dp6867
g295
(dp6868
S'posn'
p6869
S'50'
p6870
sS'name'
p6871
S'\xe0\xa4\x89\xe0\xa4\xa6\xe0\xa4\xbf\xe0\xa4\xa4'
p6872
sS'af'
p6873
S'\xe0\xa4\x89\xe0\xa4\xa6\xe0\xa4\xbf\xe0\xa4\xa4,n,m,sg,3,o,0_\xe0\xa4\xb8\xe0\xa5\x87,0'
p6874
sS'chunkid'
p6875
S'NP3'
p6876
sS'drel'
p6877
S'k2:\xe0\xa4\xb0\xe0\xa4\xb9'
p6878
sS'vpos'
p6879
S'vib_2'
p6880
sS'chunktype'
p6881
S'head:NP3'
p6882
ssbsg1899
I00
sg1902
I00
sg1913
Nsg1900
Nsg199
I2
sg185
I8
sg2232
Nsg1911
Nsg2233
S'NNP'
p6883
sg292
(issf_api
FeatureSet
p6884
(dp6885
g295
(dp6886
S'posn'
p6887
S'50'
p6888
sS'name'
p6889
S'\xe0\xa4\x89\xe0\xa4\xa6\xe0\xa4\xbf\xe0\xa4\xa4'
p6890
sS'af'
p6891
S'\xe0\xa4\x89\xe0\xa4\xa6\xe0\xa4\xbf\xe0\xa4\xa4,n,m,sg,3,o,0,0'
p6892
ssbsg1921
I00
sba(issf_api
Word
p6893
(dp6894
g2211
I00
sg2212
V\u0938\u0947
p6895
sg2214
(issf_api
FeatureSet
p6896
(dp6897
g295
(dp6898
S'posn'
p6899
S'60'
p6900
sS'name'
p6901
S'\xe0\xa4\xb8\xe0\xa5\x872'
p6902
sS'drel'
p6903
S'lwg__psp:\xe0\xa4\x89\xe0\xa4\xa6\xe0\xa4\xbf\xe0\xa4\xa4'
p6904
sS'chunktype'
p6905
S'child:NP3'
p6906
sS'af'
p6907
S'\xe0\xa4\xb8\xe0\xa5\x87,psp,,,,,,'
p6908
ssbsg1899
I00
sg1902
I00
sg1913
Nsg1900
Nsg199
I2
sg185
I8
sg2232
Nsg1911
Nsg2233
S'PSP'
p6909
sg292
(issf_api
FeatureSet
p6910
(dp6911
g295
(dp6912
S'posn'
p6913
S'60'
p6914
sS'name'
p6915
S'\xe0\xa4\xb8\xe0\xa5\x872'
p6916
sS'af'
p6917
S'\xe0\xa4\xb8\xe0\xa5\x87,psp,,,,,,'
p6918
ssbsg1921
I00
sba(issf_api
Word
p6919
(dp6920
g2211
I00
sg2212
V\u0905\u0932\u0917
p6921
sg2214
(issf_api
FeatureSet
p6922
(dp6923
g295
(dp6924
S'posn'
p6925
S'70'
p6926
sS'name'
p6927
S'\xe0\xa4\x85\xe0\xa4\xb2\xe0\xa4\x97'
p6928
sS'af'
p6929
S'\xe0\xa4\x85\xe0\xa4\xb2\xe0\xa4\x97,adj,any,any,,,,'
p6930
sS'chunkid'
p6931
S'JJP'
p6932
sS'drel'
p6933
S'pof:\xe0\xa4\xb0\xe0\xa4\xb9'
p6934
sS'chunktype'
p6935
S'head:JJP'
p6936
ssbsg1899
I00
sg1902
I00
sg1913
Nsg1900
Nsg199
I3
sg185
I8
sg2232
Nsg1911
Nsg2233
S'JJ'
p6937
sg292
(issf_api
FeatureSet
p6938
(dp6939
g295
(dp6940
S'posn'
p6941
S'70'
p6942
sS'name'
p6943
S'\xe0\xa4\x85\xe0\xa4\xb2\xe0\xa4\x97'
p6944
sS'af'
p6945
S'\xe0\xa4\x85\xe0\xa4\xb2\xe0\xa4\x97,adj,any,any,,,,'
p6946
ssbsg1921
I00
sba(issf_api
Word
p6947
(dp6948
g2211
I00
sg2212
V\u0930\u0939
p6949
sg2214
(issf_api
FeatureSet
p6950
(dp6951
g295
(dp6952
S'posn'
p6953
S'80'
p6954
sS'name'
p6955
S'\xe0\xa4\xb0\xe0\xa4\xb9'
p6956
sS'af'
p6957
S'\xe0\xa4\xb0\xe0\xa4\xb9,v,f,sg,3h,,0_\xe0\xa4\xb0\xe0\xa4\xb9+\xe0\xa4\xaf\xe0\xa4\xbe_\xe0\xa4\xb9\xe0\xa5\x88,0'
p6958
sS'chunkid'
p6959
S'VGF'
p6960
sS'chunktype'
p6961
S'head:VGF'
p6962
sS'voicetype'
p6963
S'active'
p6964
sS'vpos'
p6965
S'tam_2_3'
p6966
sS'stype'
p6967
S'declarative'
p6968
ssbsg1899
I00
sg1902
I00
sg1913
Nsg1900
Nsg199
I4
sg185
I8
sg2232
Nsg1911
Nsg2233
S'VM'
p6969
sg292
(issf_api
FeatureSet
p6970
(dp6971
g295
(dp6972
S'posn'
p6973
S'80'
p6974
sS'name'
p6975
S'\xe0\xa4\xb0\xe0\xa4\xb9'
p6976
sS'af'
p6977
S'\xe0\xa4\xb0\xe0\xa4\xb9,v,any,any,any,,0,0'
p6978
ssbsg1921
I00
sba(issf_api
Word
p6979
(dp6980
g2211
I00
sg2212
V\u0930\u0939\u0940
p6981
sg2214
(issf_api
FeatureSet
p6982
(dp6983
g295
(dp6984
S'posn'
p6985
S'90'
p6986
sS'name'
p6987
S'\xe0\xa4\xb0\xe0\xa4\xb9\xe0\xa5\x80'
p6988
sS'drel'
p6989
S'lwg__vaux:\xe0\xa4\xb0\xe0\xa4\xb9'
p6990
sS'chunktype'
p6991
S'child:VGF'
p6992
sS'af'
p6993
S'\xe0\xa4\xb0\xe0\xa4\xb9,v,f,sg,any,,\xe0\xa4\xaf\xe0\xa4\xbe,yA'
p6994
ssbsg1899
I00
sg1902
I00
sg1913
Nsg1900
Nsg199
I4
sg185
I8
sg2232
Nsg1911
Nsg2233
S'VAUX'
p6995
sg292
(issf_api
FeatureSet
p6996
(dp6997
g295
(dp6998
S'posn'
p6999
S'90'
p7000
sS'name'
p7001
S'\xe0\xa4\xb0\xe0\xa4\xb9\xe0\xa5\x80'
p7002
sS'af'
p7003
S'\xe0\xa4\xb0\xe0\xa4\xb9,v,f,sg,any,,\xe0\xa4\xaf\xe0\xa4\xbe,yA'
p7004
ssbsg1921
I00
sba(issf_api
Word
p7005
(dp7006
g2211
I00
sg2212
V\u0939\u0948\u0902
p7007
sg2214
(issf_api
FeatureSet
p7008
(dp7009
g295
(dp7010
S'posn'
p7011
S'100'
p7012
sS'name'
p7013
S'\xe0\xa4\xb9\xe0\xa5\x88\xe0\xa4\x82'
p7014
sS'drel'
p7015
S'lwg__vaux:\xe0\xa4\xb0\xe0\xa4\xb9'
p7016
sS'chunktype'
p7017
S'child:VGF'
p7018
sS'af'
p7019
S'\xe0\xa4\xb9\xe0\xa5\x88,v,any,sg,3h,,\xe0\xa4\xb9\xe0\xa5\x88,hE'
p7020
ssbsg1899
I00
sg1902
I00
sg1913
Nsg1900
Nsg199
I4
sg185
I8
sg2232
Nsg1911
Nsg2233
S'VAUX'
p7021
sg292
(issf_api
FeatureSet
p7022
(dp7023
g295
(dp7024
S'posn'
p7025
S'100'
p7026
sS'name'
p7027
S'\xe0\xa4\xb9\xe0\xa5\x88\xe0\xa4\x82'
p7028
sS'af'
p7029
S'\xe0\xa4\xb9\xe0\xa5\x88,v,any,sg,3h,,\xe0\xa4\xb9\xe0\xa5\x88,hE'
p7030
ssbsg1921
I00
sba(issf_api
Word
p7031
(dp7032
g2211
I00
sg2212
V\u0964
sg2214
(issf_api
FeatureSet
p7033
(dp7034
g295
(dp7035
S'posn'
p7036
S'110'
p7037
sS'name'
p7038
S'\xe0\xa5\xa4'
p7039
sS'af'
p7040
S'\xe0\xa5\xa4,punc,,,,,,'
p7041
sS'chunkid'
p7042
S'BLK'
p7043
sS'drel'
p7044
S'rsym:\xe0\xa4\xb0\xe0\xa4\xb9'
p7045
sS'chunktype'
p7046
S'head:BLK'
p7047
ssbsg1899
I00
sg1902
I00
sg1913
Nsg1900
Nsg199
I5
sg185
I8
sg2232
Nsg1911
Nsg2233
S'SYM'
p7048
sg292
(issf_api
FeatureSet
p7049
(dp7050
g295
(dp7051
S'posn'
p7052
S'110'
p7053
sS'name'
p7054
S'\xe0\xa5\xa4'
p7055
sS'af'
p7056
S'\xe0\xa5\xa4,punc,,,,,,'
p7057
ssbsg1921
I00
sbasb.