(iannotated_data
discourseFile
p1
(dp2
S'annToRawMapping'
p3
(dp4
I0
(I0
tp5
sI1
(I1
tp6
sI2
(I2
tp7
sI3
(I3
tp8
sI4
(I4
tp9
sI5
(I5
tp10
sI6
(I6
tp11
sI7
(I7
tp12
sI8
(I8
tp13
sI9
(I9
tp14
sI10
(I10
tp15
sI11
(I11
tp16
sI12
(I12
tp17
sI13
(I13
tp18
sI14
(I14
tp19
sI15
(I15
tp20
sI16
(I16
tp21
sI17
(I17
tp22
sI18
(I18
tp23
sI19
(I19
tp24
sI20
(I20
tp25
sI21
(I21
tp26
sI22
(I22
tp27
sI23
(I23
tp28
sI24
(I24
tp29
sI25
(I25
tp30
sI26
(I26
tp31
sI27
(I27
tp32
sI28
(I28
tp33
sI29
(I29
I30
tp34
sI30
(I31
tp35
sI31
(I32
tp36
sI32
(I33
tp37
sI33
(I34
tp38
sI34
(I35
tp39
sI35
(I36
tp40
sI36
(I37
tp41
sI37
(I38
tp42
sI38
(I39
tp43
sI39
(I40
tp44
sI40
(I41
tp45
sI41
(I42
tp46
sI42
(I43
tp47
sI43
(I44
tp48
sI44
(I45
tp49
sI45
(I46
tp50
sI46
(I47
tp51
sI47
(I48
tp52
sI48
(I49
tp53
sI49
(I50
tp54
sI50
(I51
tp55
sI51
(I52
tp56
sI52
(I53
tp57
sI53
(I54
tp58
sI54
(I55
tp59
sI55
(I56
tp60
sI56
(I57
tp61
sI57
(I58
tp62
sI58
(I59
tp63
sI59
(I60
tp64
sI60
(I61
tp65
sI61
(I62
tp66
sI62
(I63
tp67
sI63
(I64
tp68
sI64
(I65
tp69
sI65
(I66
tp70
sI66
(I67
tp71
sI67
(I68
tp72
sI68
(I69
tp73
sI69
(I70
tp74
sI70
(I71
tp75
sI71
(I72
tp76
sI72
(I73
tp77
sI73
(I74
tp78
sI74
(I75
tp79
sI75
(I76
tp80
sI76
(I77
tp81
sI77
(I78
tp82
sI78
(I79
tp83
sI79
(I80
tp84
sI80
(I81
tp85
sI81
(I82
tp86
sI82
(I83
tp87
sI83
(I84
tp88
sI84
(I85
tp89
sI85
(I86
tp90
sI86
(I87
tp91
sI87
(I88
tp92
sI88
(I89
tp93
sI89
(I90
tp94
sI90
(I91
tp95
sI91
(I92
tp96
sI92
(I93
tp97
sI93
(I94
tp98
sI94
(I95
tp99
sI95
(I96
tp100
sI96
(I97
tp101
sI97
(I98
tp102
sI98
(I99
tp103
sI99
(I100
tp104
sI100
(I101
tp105
sI101
(I102
tp106
sI102
(I103
tp107
sI103
(I104
tp108
sI104
(I105
tp109
sI105
(I106
tp110
sI106
(I107
tp111
sI107
(I108
tp112
sI108
(I109
tp113
sI109
(I110
tp114
sI110
(I111
tp115
sI111
(I112
tp116
sI112
(I113
tp117
sI113
(I114
tp118
sI114
(I115
tp119
sI115
(I116
tp120
sI116
(I117
tp121
sI117
(I118
tp122
sI118
(I119
tp123
sI119
(I120
tp124
sI120
(I121
tp125
sI121
(I122
tp126
sI122
(I123
tp127
sI123
(I124
tp128
sI124
(I125
tp129
sI125
(I126
tp130
sI126
(I127
tp131
sI127
(I128
tp132
sI128
(I129
tp133
sI129
(I130
tp134
sI130
(I131
tp135
sI131
(I132
tp136
sI132
(I133
tp137
sI133
(I134
tp138
sI134
(I135
tp139
sI135
(I136
tp140
sI136
(I137
tp141
sI137
(I138
tp142
sI138
(I139
tp143
sI139
(I140
tp144
sI140
(I141
tp145
sI141
(I142
tp146
sI142
(I143
tp147
sI143
(I144
tp148
sI144
(I145
tp149
sI145
(I146
tp150
sI146
(I147
tp151
sI147
(I148
tp152
sI148
(I149
tp153
sI149
(I150
tp154
sI150
(I151
tp155
sI151
(I152
tp156
sI152
(I153
tp157
sI153
(I154
tp158
sI154
(I155
tp159
sI155
(I156
tp160
sI156
(I157
tp161
ssS'sentenceList'
p162
(lp163
(issf_api
Sentence
p164
(dp165
S'rootNode'
p166
(lp167
sS'sentenceNum'
p168
I0
sS'wordNumList'
p169
(lp170
I0
aI1
aI2
aI3
aI4
aI5
aI6
aI7
aI8
aI9
aI10
aI11
aI12
aI13
aI14
aI15
aI16
aI17
aI18
aI19
aI20
aI21
aI22
aI23
aI24
aI25
aI26
aI27
aI28
aI29
aI30
asS'nodeDict'
p171
(dp172
S'NULL__VGF'
p173
(issf_api
Node
p174
(dp175
S'nodeRelation'
p176
S'ccof'
p177
sS'nodeName'
p178
g173
sS'nodeParent'
p179
S'CCP'
p180
sS'nodeLevel'
p181
I-1
sS'chunkNum'
p182
I-1
sS'childList'
p183
(lp184
sbsS'NP10'
p185
(issf_api
Node
p186
(dp187
g176
S'k2'
p188
sg178
g185
sg179
S'VGF'
p189
sg181
I-1
sg182
I10
sg183
(lp190
sbsS'VGF'
p191
(issf_api
Node
p192
(dp193
g176
S'ccof'
p194
sg178
g191
sg179
S'CCP'
p195
sg181
I-1
sg182
I11
sg183
(lp196
sbsS'CCP'
p197
(issf_api
Node
p198
(dp199
g176
S'None'
p200
sg178
g197
sg179
g200
sg181
I-1
sg182
I6
sg183
(lp201
sbsS'NP5'
p202
(issf_api
Node
p203
(dp204
g176
S'k7p'
p205
sg178
g202
sg179
S'NULL__VGF'
p206
sg181
I-1
sg182
I4
sg183
(lp207
sbsS'NP9'
p208
(issf_api
Node
p209
(dp210
g176
S'k7p'
p211
sg178
g208
sg179
S'VGF'
p212
sg181
I-1
sg182
I9
sg183
(lp213
sbsS'NP8'
p214
(issf_api
Node
p215
(dp216
g176
S'r6'
p217
sg178
g214
sg179
S'NP9'
p218
sg181
I-1
sg182
I8
sg183
(lp219
sbsS'BLK'
p220
(issf_api
Node
p221
(dp222
g176
S'rsym'
p223
sg178
g220
sg179
S'CCP'
p224
sg181
I-1
sg182
I12
sg183
(lp225
sbsS'NP'
p226
(issf_api
Node
p227
(dp228
g176
S'r6'
p229
sg178
g226
sg179
S'NP2'
p230
sg181
I-1
sg182
I0
sg183
(lp231
sbsS'NP4'
p232
(issf_api
Node
p233
(dp234
g176
S'k7p'
p235
sg178
g232
sg179
S'NULL__VGF'
p236
sg181
I-1
sg182
I3
sg183
(lp237
sbsS'NP7'
p238
(issf_api
Node
p239
(dp240
g176
S'nmod'
p241
sg178
g238
sg179
S'NP8'
p242
sg181
I-1
sg182
I7
sg183
(lp243
sbsS'NP6'
p244
(issf_api
Node
p245
(dp246
g176
S'k2'
p247
sg178
g244
sg179
S'NULL__VGF'
p248
sg181
I-1
sg182
I5
sg183
(lp249
sbsS'NP3'
p250
(issf_api
Node
p251
(dp252
g176
S'k1'
p253
sg178
g250
sg179
S'NULL__VGF'
p254
sg181
I-1
sg182
I2
sg183
(lp255
sbsS'NP2'
p256
(issf_api
Node
p257
(dp258
g176
S'nmod'
p259
sg178
g256
sg179
S'NP3'
p260
sg181
I-1
sg182
I1
sg183
(lp261
sbssS'chunkList'
p262
(lp263
(issf_api
Chunk
p264
(dp265
g178
g226
sg182
I0
sS'chunkTag'
p266
S'NP'
p267
sg168
I0
sg169
(lp268
I0
aI1
asS'featureSet'
p269
(issf_api
FeatureSet
p270
(dp271
S'featureDict'
p272
(dp273
S'drel'
p274
S'r6:NP2'
p275
sS'name'
p276
g226
ssbsba(issf_api
Chunk
p277
(dp278
g178
g256
sg182
I1
sg266
S'NP'
p279
sg168
I0
sg169
(lp280
I2
aI3
aI4
aI5
aI6
asg269
(issf_api
FeatureSet
p281
(dp282
g272
(dp283
S'drel'
p284
S'nmod:NP3'
p285
sS'name'
p286
g256
ssbsba(issf_api
Chunk
p287
(dp288
g178
g250
sg182
I2
sg266
S'NP'
p289
sg168
I0
sg169
(lp290
I7
aI8
aI9
aI10
aI11
asg269
(issf_api
FeatureSet
p291
(dp292
g272
(dp293
S'drel'
p294
S'k1:NULL__VGF'
p295
sS'name'
p296
g250
ssbsba(issf_api
Chunk
p297
(dp298
g178
g232
sg182
I3
sg266
S'NP'
p299
sg168
I0
sg169
(lp300
I12
asg269
(issf_api
FeatureSet
p301
(dp302
g272
(dp303
S'drel'
p304
S'k7p:NULL__VGF'
p305
sS'name'
p306
g232
ssbsba(issf_api
Chunk
p307
(dp308
g178
g202
sg182
I4
sg266
S'NP'
p309
sg168
I0
sg169
(lp310
I13
aI14
aI15
asg269
(issf_api
FeatureSet
p311
(dp312
g272
(dp313
S'drel'
p314
S'k7p:NULL__VGF'
p315
sS'name'
p316
g202
ssbsba(issf_api
Chunk
p317
(dp318
g178
g244
sg182
I5
sg266
S'NP'
p319
sg168
I0
sg169
(lp320
I16
aI17
aI18
asg269
(issf_api
FeatureSet
p321
(dp322
g272
(dp323
S'drel'
p324
S'k2:NULL__VGF'
p325
sS'name'
p326
g244
ssbsba(issf_api
Chunk
p327
(dp328
g178
g197
sg182
I6
sg266
S'CCP'
p329
sg168
I0
sg169
(lp330
I19
asg269
(issf_api
FeatureSet
p331
(dp332
g272
(dp333
S'name'
p334
g197
ssbsba(issf_api
Chunk
p335
(dp336
g178
g238
sg182
I7
sg266
S'NP'
p337
sg168
I0
sg169
(lp338
I20
aI21
asg269
(issf_api
FeatureSet
p339
(dp340
g272
(dp341
S'drel'
p342
S'nmod:NP8'
p343
sS'name'
p344
g238
ssbsba(issf_api
Chunk
p345
(dp346
g178
g214
sg182
I8
sg266
S'NP'
p347
sg168
I0
sg169
(lp348
I22
aI23
asg269
(issf_api
FeatureSet
p349
(dp350
g272
(dp351
S'drel'
p352
S'r6:NP9'
p353
sS'name'
p354
g214
ssbsba(issf_api
Chunk
p355
(dp356
g178
g208
sg182
I9
sg266
S'NP'
p357
sg168
I0
sg169
(lp358
I24
aI25
asg269
(issf_api
FeatureSet
p359
(dp360
g272
(dp361
S'drel'
p362
S'k7p:VGF'
p363
sS'name'
p364
g208
ssbsba(issf_api
Chunk
p365
(dp366
g178
g185
sg182
I10
sg266
S'NP'
p367
sg168
I0
sg169
(lp368
I26
aI27
asg269
(issf_api
FeatureSet
p369
(dp370
g272
(dp371
S'drel'
p372
S'k2:VGF'
p373
sS'name'
p374
g185
ssbsba(issf_api
Chunk
p375
(dp376
g178
g191
sg182
I11
sg266
S'VGF'
p377
sg168
I0
sg169
(lp378
I28
aI29
asg269
(issf_api
FeatureSet
p379
(dp380
g272
(dp381
S'voicetype'
p382
S'active'
p383
sS'drel'
p384
S'ccof:CCP'
p385
sS'stype'
p386
S'declarative'
p387
sS'name'
p388
g191
ssbsba(issf_api
Chunk
p389
(dp390
g178
g220
sg182
I12
sg266
S'BLK'
p391
sg168
I0
sg169
(lp392
I30
asg269
(issf_api
FeatureSet
p393
(dp394
g272
(dp395
S'drel'
p396
S'rsym:CCP'
p397
sS'name'
p398
g220
ssbsbasba(issf_api
Sentence
p399
(dp400
g166
(lp401
sg168
I1
sg169
(lp402
I31
aI32
aI33
aI34
aI35
aI36
aI37
aI38
aI39
aI40
aI41
aI42
aI43
aI44
aI45
aI46
aI47
aI48
aI49
aI50
aI51
aI52
aI53
aI54
aI55
aI56
aI57
aI58
aI59
aI60
aI61
aI62
aI63
aI64
aI65
aI66
aI67
aI68
aI69
aI70
asg171
(dp403
S'VGF2'
p404
(issf_api
Node
p405
(dp406
g176
S'ccof'
p407
sg178
g404
sg179
S'CCP'
p408
sg181
I-1
sg182
I18
sg183
(lp409
sbsS'NP13'
p410
(issf_api
Node
p411
(dp412
g176
S'nmod'
p413
sg178
g410
sg179
S'NP14'
p414
sg181
I-1
sg182
I16
sg183
(lp415
sbsS'NP11'
p416
(issf_api
Node
p417
(dp418
g176
S'nmod'
p419
sg178
g416
sg179
S'NP12'
p420
sg181
I-1
sg182
I13
sg183
(lp421
sbsS'NP10'
p422
(issf_api
Node
p423
(dp424
g176
S'nmod'
p425
sg178
g422
sg179
S'NP11'
p426
sg181
I-1
sg182
I12
sg183
(lp427
sbsS'VGF'
p428
(issf_api
Node
p429
(dp430
g176
g200
sg178
g428
sg179
g200
sg181
I-1
sg182
I4
sg183
(lp431
sbsS'NP12'
p432
(issf_api
Node
p433
(dp434
g176
S'ccof'
p435
sg178
g432
sg179
S'CCP3'
p436
sg181
I-1
sg182
I14
sg183
(lp437
sbsS'CCP'
p438
(issf_api
Node
p439
(dp440
g176
S'k2'
p441
sg178
g438
sg179
S'VGF'
p442
sg181
I-1
sg182
I5
sg183
(lp443
sbsS'NP14'
p444
(issf_api
Node
p445
(dp446
g176
S'ccof'
p447
sg178
g444
sg179
S'CCP3'
p448
sg181
I-1
sg182
I17
sg183
(lp449
sbsS'NP5'
p450
(issf_api
Node
p451
(dp452
g176
S'ccof'
p453
sg178
g450
sg179
S'CCP2'
p454
sg181
I-1
sg182
I6
sg183
(lp455
sbsS'NP9'
p456
(issf_api
Node
p457
(dp458
g176
S'r6'
p459
sg178
g456
sg179
S'NP10'
p460
sg181
I-1
sg182
I11
sg183
(lp461
sbsS'NP8'
p462
(issf_api
Node
p463
(dp464
g176
S'ccof'
p465
sg178
g462
sg179
S'CCP2'
p466
sg181
I-1
sg182
I10
sg183
(lp467
sbsS'BLK'
p468
(issf_api
Node
p469
(dp470
g176
S'rsym'
p471
sg178
g468
sg179
S'VGF'
p472
sg181
I-1
sg182
I19
sg183
(lp473
sbsS'NP'
p474
(issf_api
Node
p475
(dp476
g176
S'r6'
p477
sg178
g474
sg179
S'NP2'
p478
sg181
I-1
sg182
I0
sg183
(lp479
sbsS'NP4'
p480
(issf_api
Node
p481
(dp482
g176
S'k1'
p483
sg178
g480
sg179
S'VGF'
p484
sg181
I-1
sg182
I3
sg183
(lp485
sbsS'NP7'
p486
(issf_api
Node
p487
(dp488
g176
S'nmod'
p489
sg178
g486
sg179
S'NP8'
p490
sg181
I-1
sg182
I9
sg183
(lp491
sbsS'NP6'
p492
(issf_api
Node
p493
(dp494
g176
S'r6'
p495
sg178
g492
sg179
S'NP7'
p496
sg181
I-1
sg182
I8
sg183
(lp497
sbsS'CCP2'
p498
(issf_api
Node
p499
(dp500
g176
S'r6'
p501
sg178
g498
sg179
S'NP9'
p502
sg181
I-1
sg182
I7
sg183
(lp503
sbsS'CCP3'
p504
(issf_api
Node
p505
(dp506
g176
S'k2'
p507
sg178
g504
sg179
S'VGF2'
p508
sg181
I-1
sg182
I15
sg183
(lp509
sbsS'NP3'
p510
(issf_api
Node
p511
(dp512
g176
S'nmod'
p513
sg178
g510
sg179
S'NP4'
p514
sg181
I-1
sg182
I2
sg183
(lp515
sbsS'NP2'
p516
(issf_api
Node
p517
(dp518
g176
S'r6'
p519
sg178
g516
sg179
S'NP3'
p520
sg181
I-1
sg182
I1
sg183
(lp521
sbssg262
(lp522
(issf_api
Chunk
p523
(dp524
g178
g474
sg182
I0
sg266
S'NP'
p525
sg168
I1
sg169
(lp526
I31
aI32
asg269
(issf_api
FeatureSet
p527
(dp528
g272
(dp529
S'drel'
p530
S'r6:NP2'
p531
sS'name'
p532
g474
ssbsba(issf_api
Chunk
p533
(dp534
g178
g516
sg182
I1
sg266
S'NP'
p535
sg168
I1
sg169
(lp536
I33
aI34
aI35
asg269
(issf_api
FeatureSet
p537
(dp538
g272
(dp539
S'drel'
p540
S'r6:NP3'
p541
sS'name'
p542
g516
ssbsba(issf_api
Chunk
p543
(dp544
g178
g510
sg182
I2
sg266
S'NP'
p545
sg168
I1
sg169
(lp546
I36
aI37
asg269
(issf_api
FeatureSet
p547
(dp548
g272
(dp549
S'drel'
p550
S'nmod:NP4'
p551
sS'name'
p552
g510
ssbsba(issf_api
Chunk
p553
(dp554
g178
g480
sg182
I3
sg266
S'NP'
p555
sg168
I1
sg169
(lp556
I38
aI39
aI40
asg269
(issf_api
FeatureSet
p557
(dp558
g272
(dp559
S'drel'
p560
S'k1:VGF'
p561
sS'name'
p562
g480
ssbsba(issf_api
Chunk
p563
(dp564
g178
g428
sg182
I4
sg266
S'VGF'
p565
sg168
I1
sg169
(lp566
I41
asg269
(issf_api
FeatureSet
p567
(dp568
g272
(dp569
S'name'
p570
g428
sS'stype'
p571
S'declarative'
p572
sS'voicetype'
p573
S'active'
p574
ssbsba(issf_api
Chunk
p575
(dp576
g178
g438
sg182
I5
sg266
S'CCP'
p577
sg168
I1
sg169
(lp578
I42
asg269
(issf_api
FeatureSet
p579
(dp580
g272
(dp581
S'drel'
p582
S'k2:VGF'
p583
sS'name'
p584
g438
ssbsba(issf_api
Chunk
p585
(dp586
g178
g450
sg182
I6
sg266
S'NP'
p587
sg168
I1
sg169
(lp588
I43
aI44
asg269
(issf_api
FeatureSet
p589
(dp590
g272
(dp591
S'drel'
p592
S'ccof:CCP2'
p593
sS'name'
p594
g450
ssbsba(issf_api
Chunk
p595
(dp596
g178
g498
sg182
I7
sg266
S'CCP'
p597
sg168
I1
sg169
(lp598
I45
asg269
(issf_api
FeatureSet
p599
(dp600
g272
(dp601
S'drel'
p602
S'r6:NP9'
p603
sS'name'
p604
g498
ssbsba(issf_api
Chunk
p605
(dp606
g178
g492
sg182
I8
sg266
S'NP'
p607
sg168
I1
sg169
(lp608
I46
aI47
asg269
(issf_api
FeatureSet
p609
(dp610
g272
(dp611
S'drel'
p612
S'r6:NP7'
p613
sS'name'
p614
g492
ssbsba(issf_api
Chunk
p615
(dp616
g178
g486
sg182
I9
sg266
S'NP'
p617
sg168
I1
sg169
(lp618
I48
aI49
asg269
(issf_api
FeatureSet
p619
(dp620
g272
(dp621
S'drel'
p622
S'nmod:NP8'
p623
sS'name'
p624
g486
ssbsba(issf_api
Chunk
p625
(dp626
g178
g462
sg182
I10
sg266
S'NP'
p627
sg168
I1
sg169
(lp628
I50
aI51
asg269
(issf_api
FeatureSet
p629
(dp630
g272
(dp631
S'drel'
p632
S'ccof:CCP2'
p633
sS'name'
p634
g462
ssbsba(issf_api
Chunk
p635
(dp636
g178
g456
sg182
I11
sg266
S'NP'
p637
sg168
I1
sg169
(lp638
I52
aI53
asg269
(issf_api
FeatureSet
p639
(dp640
g272
(dp641
S'drel'
p642
S'r6:NP10'
p643
sS'name'
p644
g456
ssbsba(issf_api
Chunk
p645
(dp646
g178
g422
sg182
I12
sg266
S'NP'
p647
sg168
I1
sg169
(lp648
I54
aI55
aI56
asg269
(issf_api
FeatureSet
p649
(dp650
g272
(dp651
S'drel'
p652
S'nmod:NP11'
p653
sS'name'
p654
g422
ssbsba(issf_api
Chunk
p655
(dp656
g178
g416
sg182
I13
sg266
S'NP'
p657
sg168
I1
sg169
(lp658
I57
aI58
aI59
asg269
(issf_api
FeatureSet
p659
(dp660
g272
(dp661
S'drel'
p662
S'nmod:NP12'
p663
sS'name'
p664
g416
ssbsba(issf_api
Chunk
p665
(dp666
g178
g432
sg182
I14
sg266
S'NP'
p667
sg168
I1
sg169
(lp668
I60
aI61
asg269
(issf_api
FeatureSet
p669
(dp670
g272
(dp671
S'drel'
p672
S'ccof:CCP3'
p673
sS'name'
p674
g432
ssbsba(issf_api
Chunk
p675
(dp676
g178
g504
sg182
I15
sg266
S'CCP'
p677
sg168
I1
sg169
(lp678
I62
asg269
(issf_api
FeatureSet
p679
(dp680
g272
(dp681
S'drel'
p682
S'k2:VGF2'
p683
sS'name'
p684
g504
ssbsba(issf_api
Chunk
p685
(dp686
g178
g410
sg182
I16
sg266
S'NP'
p687
sg168
I1
sg169
(lp688
I63
aI64
asg269
(issf_api
FeatureSet
p689
(dp690
g272
(dp691
S'drel'
p692
S'nmod:NP14'
p693
sS'name'
p694
g410
ssbsba(issf_api
Chunk
p695
(dp696
g178
g444
sg182
I17
sg266
S'NP'
p697
sg168
I1
sg169
(lp698
I65
aI66
asg269
(issf_api
FeatureSet
p699
(dp700
g272
(dp701
S'drel'
p702
S'ccof:CCP3'
p703
sS'name'
p704
g444
ssbsba(issf_api
Chunk
p705
(dp706
g178
g404
sg182
I18
sg266
S'VGF'
p707
sg168
I1
sg169
(lp708
I67
aI68
aI69
asg269
(issf_api
FeatureSet
p709
(dp710
g272
(dp711
S'voicetype'
p712
S'active'
p713
sS'drel'
p714
S'ccof:CCP'
p715
sS'stype'
p716
S'declarative'
p717
sS'name'
p718
g404
ssbsba(issf_api
Chunk
p719
(dp720
g178
g468
sg182
I19
sg266
S'BLK'
p721
sg168
I1
sg169
(lp722
I70
asg269
(issf_api
FeatureSet
p723
(dp724
g272
(dp725
S'drel'
p726
S'rsym:VGF'
p727
sS'name'
p728
g468
ssbsbasba(issf_api
Sentence
p729
(dp730
g166
(lp731
sg168
I2
sg169
(lp732
I71
aI72
aI73
aI74
aI75
aI76
aI77
aI78
aI79
aI80
asg171
(dp733
S'VGF'
p734
(issf_api
Node
p735
(dp736
g176
g200
sg178
g734
sg179
g200
sg181
I-1
sg182
I4
sg183
(lp737
sbsS'BLK'
p738
(issf_api
Node
p739
(dp740
g176
S'rsym'
p741
sg178
g738
sg179
S'VGF'
p742
sg181
I-1
sg182
I5
sg183
(lp743
sbsS'NP'
p744
(issf_api
Node
p745
(dp746
g176
S'k1'
p747
sg178
g744
sg179
S'VGF'
p748
sg181
I-1
sg182
I0
sg183
(lp749
sbsS'NP4'
p750
(issf_api
Node
p751
(dp752
g176
S'k1s'
p753
sg178
g750
sg179
S'VGF'
p754
sg181
I-1
sg182
I3
sg183
(lp755
sbsS'NP3'
p756
(issf_api
Node
p757
(dp758
g176
S'r6'
p759
sg178
g756
sg179
S'NP4'
p760
sg181
I-1
sg182
I2
sg183
(lp761
sbsS'NP2'
p762
(issf_api
Node
p763
(dp764
g176
S'r6'
p765
sg178
g762
sg179
S'NP3'
p766
sg181
I-1
sg182
I1
sg183
(lp767
sbssg262
(lp768
(issf_api
Chunk
p769
(dp770
g178
g744
sg182
I0
sg266
S'NP'
p771
sg168
I2
sg169
(lp772
I71
asg269
(issf_api
FeatureSet
p773
(dp774
g272
(dp775
S'drel'
p776
S'k1:VGF'
p777
sS'name'
p778
g744
ssbsba(issf_api
Chunk
p779
(dp780
g178
g762
sg182
I1
sg266
S'NP'
p781
sg168
I2
sg169
(lp782
I72
aI73
aI74
asg269
(issf_api
FeatureSet
p783
(dp784
g272
(dp785
S'drel'
p786
S'r6:NP3'
p787
sS'name'
p788
g762
ssbsba(issf_api
Chunk
p789
(dp790
g178
g756
sg182
I2
sg266
S'NP'
p791
sg168
I2
sg169
(lp792
I75
aI76
aI77
asg269
(issf_api
FeatureSet
p793
(dp794
g272
(dp795
S'drel'
p796
S'r6:NP4'
p797
sS'name'
p798
g756
ssbsba(issf_api
Chunk
p799
(dp800
g178
g750
sg182
I3
sg266
S'NP'
p801
sg168
I2
sg169
(lp802
I78
asg269
(issf_api
FeatureSet
p803
(dp804
g272
(dp805
S'drel'
p806
S'k1s:VGF'
p807
sS'name'
p808
g750
ssbsba(issf_api
Chunk
p809
(dp810
g178
g734
sg182
I4
sg266
S'VGF'
p811
sg168
I2
sg169
(lp812
I79
asg269
(issf_api
FeatureSet
p813
(dp814
g272
(dp815
S'name'
p816
g734
sS'stype'
p817
S'declarative'
p818
sS'voicetype'
p819
S'active'
p820
ssbsba(issf_api
Chunk
p821
(dp822
g178
g738
sg182
I5
sg266
S'BLK'
p823
sg168
I2
sg169
(lp824
I80
asg269
(issf_api
FeatureSet
p825
(dp826
g272
(dp827
S'drel'
p828
S'rsym:VGF'
p829
sS'name'
p830
g738
ssbsbasba(issf_api
Sentence
p831
(dp832
g166
(lp833
sg168
I3
sg169
(lp834
I81
aI82
aI83
aI84
aI85
aI86
aI87
aI88
aI89
aI90
aI91
aI92
aI93
aI94
aI95
aI96
aI97
aI98
aI99
aI100
aI101
aI102
aI103
aI104
aI105
aI106
asg171
(dp835
S'VGNF'
p836
(issf_api
Node
p837
(dp838
g176
S'nmod__k1inv'
p839
sg178
g836
sg179
S'NP4'
p840
sg181
I-1
sg182
I4
sg183
(lp841
sbsS'VGNN'
p842
(issf_api
Node
p843
(dp844
g176
S'rt'
p845
sg178
g842
sg179
S'VGF2'
p846
sg181
I-1
sg182
I9
sg183
(lp847
sbsS'VGF'
p848
(issf_api
Node
p849
(dp850
g176
g200
sg178
g848
sg179
g200
sg181
I-1
sg182
I1
sg183
(lp851
sbsS'CCP'
p852
(issf_api
Node
p853
(dp854
g176
S'k2'
p855
sg178
g852
sg179
S'VGF'
p856
sg181
I-1
sg182
I2
sg183
(lp857
sbsS'VGF2'
p858
(issf_api
Node
p859
(dp860
g176
S'ccof'
p861
sg178
g858
sg179
S'CCP'
p862
sg181
I-1
sg182
I12
sg183
(lp863
sbsS'NP5'
p864
(issf_api
Node
p865
(dp866
g176
S'r6'
p867
sg178
g864
sg179
S'NP6'
p868
sg181
I-1
sg182
I7
sg183
(lp869
sbsS'NP8'
p870
(issf_api
Node
p871
(dp872
g176
S'pof'
p873
sg178
g870
sg179
S'VGF2'
p874
sg181
I-1
sg182
I11
sg183
(lp875
sbsS'BLK'
p876
(issf_api
Node
p877
(dp878
g176
S'rsym'
p879
sg178
g876
sg179
S'VGF'
p880
sg181
I-1
sg182
I13
sg183
(lp881
sbsS'NP'
p882
(issf_api
Node
p883
(dp884
g176
S'k1'
p885
sg178
g882
sg179
S'VGF'
p886
sg181
I-1
sg182
I0
sg183
(lp887
sbsS'NP4'
p888
(issf_api
Node
p889
(dp890
g176
S'k1'
p891
sg178
g888
sg179
S'VGF2'
p892
sg181
I-1
sg182
I6
sg183
(lp893
sbsS'NP7'
p894
(issf_api
Node
p895
(dp896
g176
S'r6-k2'
p897
sg178
g894
sg179
S'NP8'
p898
sg181
I-1
sg182
I10
sg183
(lp899
sbsS'NP6'
p900
(issf_api
Node
p901
(dp902
g176
S'k2'
p903
sg178
g900
sg179
S'VGNN'
p904
sg181
I-1
sg182
I8
sg183
(lp905
sbsS'NP3'
p906
(issf_api
Node
p907
(dp908
g176
S'r6'
p909
sg178
g906
sg179
S'NP4'
p910
sg181
I-1
sg182
I5
sg183
(lp911
sbsS'NP2'
p912
(issf_api
Node
p913
(dp914
g176
S'k2p'
p915
sg178
g912
sg179
S'VGNF'
p916
sg181
I-1
sg182
I3
sg183
(lp917
sbssg262
(lp918
(issf_api
Chunk
p919
(dp920
g178
g882
sg182
I0
sg266
S'NP'
p921
sg168
I3
sg169
(lp922
I81
aI82
aI83
asg269
(issf_api
FeatureSet
p923
(dp924
g272
(dp925
S'drel'
p926
S'k1:VGF'
p927
sS'name'
p928
g882
ssbsba(issf_api
Chunk
p929
(dp930
g178
g848
sg182
I1
sg266
S'VGF'
p931
sg168
I3
sg169
(lp932
I84
asg269
(issf_api
FeatureSet
p933
(dp934
g272
(dp935
S'name'
p936
g848
sS'stype'
p937
S'declarative'
p938
sS'voicetype'
p939
S'active'
p940
ssbsba(issf_api
Chunk
p941
(dp942
g178
g852
sg182
I2
sg266
S'CCP'
p943
sg168
I3
sg169
(lp944
I85
asg269
(issf_api
FeatureSet
p945
(dp946
g272
(dp947
S'drel'
p948
S'k2:VGF'
p949
sS'name'
p950
g852
ssbsba(issf_api
Chunk
p951
(dp952
g178
g912
sg182
I3
sg266
S'NP'
p953
sg168
I3
sg169
(lp954
I86
aI87
aI88
asg269
(issf_api
FeatureSet
p955
(dp956
g272
(dp957
S'drel'
p958
S'k2p:VGNF'
p959
sS'name'
p960
g912
ssbsba(issf_api
Chunk
p961
(dp962
g178
g836
sg182
I4
sg266
S'VGNF'
p963
sg168
I3
sg169
(lp964
I89
asg269
(issf_api
FeatureSet
p965
(dp966
g272
(dp967
S'drel'
p968
S'nmod__k1inv:NP4'
p969
sS'name'
p970
g836
ssbsba(issf_api
Chunk
p971
(dp972
g178
g906
sg182
I5
sg266
S'NP'
p973
sg168
I3
sg169
(lp974
I90
aI91
asg269
(issf_api
FeatureSet
p975
(dp976
g272
(dp977
S'drel'
p978
S'r6:NP4'
p979
sS'name'
p980
g906
ssbsba(issf_api
Chunk
p981
(dp982
g178
g888
sg182
I6
sg266
S'NP'
p983
sg168
I3
sg169
(lp984
I92
aI93
aI94
asg269
(issf_api
FeatureSet
p985
(dp986
g272
(dp987
S'drel'
p988
S'k1:VGF2'
p989
sS'name'
p990
g888
ssbsba(issf_api
Chunk
p991
(dp992
g178
g864
sg182
I7
sg266
S'NP'
p993
sg168
I3
sg169
(lp994
I95
asg269
(issf_api
FeatureSet
p995
(dp996
g272
(dp997
S'drel'
p998
S'r6:NP6'
p999
sS'name'
p1000
g864
ssbsba(issf_api
Chunk
p1001
(dp1002
g178
g900
sg182
I8
sg266
S'NP'
p1003
sg168
I3
sg169
(lp1004
I96
asg269
(issf_api
FeatureSet
p1005
(dp1006
g272
(dp1007
S'drel'
p1008
S'k2:VGNN'
p1009
sS'name'
p1010
g900
ssbsba(issf_api
Chunk
p1011
(dp1012
g178
g842
sg182
I9
sg266
S'VGNN'
p1013
sg168
I3
sg169
(lp1014
I97
aI98
aI99
asg269
(issf_api
FeatureSet
p1015
(dp1016
g272
(dp1017
S'drel'
p1018
S'rt:VGF2'
p1019
sS'name'
p1020
g842
ssbsba(issf_api
Chunk
p1021
(dp1022
g178
g894
sg182
I10
sg266
S'NP'
p1023
sg168
I3
sg169
(lp1024
I100
aI101
aI102
aI103
asg269
(issf_api
FeatureSet
p1025
(dp1026
g272
(dp1027
S'drel'
p1028
S'r6-k2:NP8'
p1029
sS'name'
p1030
g894
ssbsba(issf_api
Chunk
p1031
(dp1032
g178
g870
sg182
I11
sg266
S'NP'
p1033
sg168
I3
sg169
(lp1034
I104
asg269
(issf_api
FeatureSet
p1035
(dp1036
g272
(dp1037
S'drel'
p1038
S'pof:VGF2'
p1039
sS'name'
p1040
g870
ssbsba(issf_api
Chunk
p1041
(dp1042
g178
g858
sg182
I12
sg266
S'VGF'
p1043
sg168
I3
sg169
(lp1044
I105
asg269
(issf_api
FeatureSet
p1045
(dp1046
g272
(dp1047
S'voicetype'
p1048
S'active'
p1049
sS'drel'
p1050
S'ccof:CCP'
p1051
sS'stype'
p1052
S'declarative'
p1053
sS'name'
p1054
g858
ssbsba(issf_api
Chunk
p1055
(dp1056
g178
g876
sg182
I13
sg266
S'BLK'
p1057
sg168
I3
sg169
(lp1058
I106
asg269
(issf_api
FeatureSet
p1059
(dp1060
g272
(dp1061
S'drel'
p1062
S'rsym:VGF'
p1063
sS'name'
p1064
g876
ssbsbasba(issf_api
Sentence
p1065
(dp1066
g166
(lp1067
sg168
I4
sg169
(lp1068
I107
aI108
aI109
aI110
aI111
aI112
aI113
aI114
aI115
aI116
aI117
aI118
aI119
aI120
aI121
aI122
aI123
aI124
aI125
aI126
aI127
aI128
aI129
aI130
aI131
aI132
aI133
aI134
aI135
aI136
aI137
aI138
aI139
asg171
(dp1069
S'VGNN'
p1070
(issf_api
Node
p1071
(dp1072
g176
S'rt'
p1073
sg178
g1070
sg179
S'VGF2'
p1074
sg181
I-1
sg182
I10
sg183
(lp1075
sbsS'VGF'
p1076
(issf_api
Node
p1077
(dp1078
g176
g200
sg178
g1076
sg179
g200
sg181
I-1
sg182
I1
sg183
(lp1079
sbsS'VGF3'
p1080
(issf_api
Node
p1081
(dp1082
g176
S'ccof'
p1083
sg178
g1080
sg179
S'CCP3'
p1084
sg181
I-1
sg182
I17
sg183
(lp1085
sbsS'CCP'
p1086
(issf_api
Node
p1087
(dp1088
g176
S'k2'
p1089
sg178
g1086
sg179
S'VGF'
p1090
sg181
I-1
sg182
I2
sg183
(lp1091
sbsS'VGF2'
p1092
(issf_api
Node
p1093
(dp1094
g176
S'ccof'
p1095
sg178
g1092
sg179
S'CCP3'
p1096
sg181
I-1
sg182
I12
sg183
(lp1097
sbsS'NP5'
p1098
(issf_api
Node
p1099
(dp1100
g176
S'ccof'
p1101
sg178
g1098
sg179
S'CCP2'
p1102
sg181
I-1
sg182
I7
sg183
(lp1103
sbsS'JJP'
p1104
(issf_api
Node
p1105
(dp1106
g176
S'pof'
p1107
sg178
g1104
sg179
S'VGF3'
p1108
sg181
I-1
sg182
I16
sg183
(lp1109
sbsS'NP9'
p1110
(issf_api
Node
p1111
(dp1112
g176
S'rh'
p1113
sg178
g1110
sg179
S'VGF3'
p1114
sg181
I-1
sg182
I14
sg183
(lp1115
sbsS'NP8'
p1116
(issf_api
Node
p1117
(dp1118
g176
S'pof'
p1119
sg178
g1116
sg179
S'VGF2'
p1120
sg181
I-1
sg182
I11
sg183
(lp1121
sbsS'BLK'
p1122
(issf_api
Node
p1123
(dp1124
g176
S'rsym'
p1125
sg178
g1122
sg179
S'VGF'
p1126
sg181
I-1
sg182
I18
sg183
(lp1127
sbsS'NP10'
p1128
(issf_api
Node
p1129
(dp1130
g176
S'k2'
p1131
sg178
g1128
sg179
S'VGF3'
p1132
sg181
I-1
sg182
I15
sg183
(lp1133
sbsS'NP'
p1134
(issf_api
Node
p1135
(dp1136
g176
S'k1'
p1137
sg178
g1134
sg179
S'VGF'
p1138
sg181
I-1
sg182
I0
sg183
(lp1139
sbsS'NP4'
p1140
(issf_api
Node
p1141
(dp1142
g176
S'ccof'
p1143
sg178
g1140
sg179
S'CCP2'
p1144
sg181
I-1
sg182
I5
sg183
(lp1145
sbsS'NP7'
p1146
(issf_api
Node
p1147
(dp1148
g176
S'pof'
p1149
sg178
g1146
sg179
S'VGNN'
p1150
sg181
I-1
sg182
I9
sg183
(lp1151
sbsS'NP6'
p1152
(issf_api
Node
p1153
(dp1154
g176
S'k2'
p1155
sg178
g1152
sg179
S'VGNN'
p1156
sg181
I-1
sg182
I8
sg183
(lp1157
sbsS'CCP2'
p1158
(issf_api
Node
p1159
(dp1160
g176
S'k7p'
p1161
sg178
g1158
sg179
S'VGNN'
p1162
sg181
I-1
sg182
I6
sg183
(lp1163
sbsS'CCP3'
p1164
(issf_api
Node
p1165
(dp1166
g176
S'ccof'
p1167
sg178
g1164
sg179
S'CCP'
p1168
sg181
I-1
sg182
I13
sg183
(lp1169
sbsS'NP3'
p1170
(issf_api
Node
p1171
(dp1172
g176
S'ccof'
p1173
sg178
g1170
sg179
S'CCP2'
p1174
sg181
I-1
sg182
I4
sg183
(lp1175
sbsS'NP2'
p1176
(issf_api
Node
p1177
(dp1178
g176
S'k1'
p1179
sg178
g1176
sg179
S'VGF2'
p1180
sg181
I-1
sg182
I3
sg183
(lp1181
sbssg262
(lp1182
(issf_api
Chunk
p1183
(dp1184
g178
g1134
sg182
I0
sg266
S'NP'
p1185
sg168
I4
sg169
(lp1186
I107
asg269
(issf_api
FeatureSet
p1187
(dp1188
g272
(dp1189
S'drel'
p1190
S'k1:VGF'
p1191
sS'name'
p1192
g1134
ssbsba(issf_api
Chunk
p1193
(dp1194
g178
g1076
sg182
I1
sg266
S'VGF'
p1195
sg168
I4
sg169
(lp1196
I108
asg269
(issf_api
FeatureSet
p1197
(dp1198
g272
(dp1199
S'name'
p1200
g1076
sS'stype'
p1201
S'declarative'
p1202
sS'voicetype'
p1203
S'active'
p1204
ssbsba(issf_api
Chunk
p1205
(dp1206
g178
g1086
sg182
I2
sg266
S'CCP'
p1207
sg168
I4
sg169
(lp1208
I109
asg269
(issf_api
FeatureSet
p1209
(dp1210
g272
(dp1211
S'drel'
p1212
S'k2:VGF'
p1213
sS'name'
p1214
g1086
ssbsba(issf_api
Chunk
p1215
(dp1216
g178
g1176
sg182
I3
sg266
S'NP'
p1217
sg168
I4
sg169
(lp1218
I110
aI111
asg269
(issf_api
FeatureSet
p1219
(dp1220
g272
(dp1221
S'drel'
p1222
S'k1:VGF2'
p1223
sS'name'
p1224
g1176
ssbsba(issf_api
Chunk
p1225
(dp1226
g178
g1170
sg182
I4
sg266
S'NP'
p1227
sg168
I4
sg169
(lp1228
I112
aI113
aI114
asg269
(issf_api
FeatureSet
p1229
(dp1230
g272
(dp1231
S'drel'
p1232
S'ccof:CCP2'
p1233
sS'name'
p1234
g1170
ssbsba(issf_api
Chunk
p1235
(dp1236
g178
g1140
sg182
I5
sg266
S'NP'
p1237
sg168
I4
sg169
(lp1238
I115
aI116
asg269
(issf_api
FeatureSet
p1239
(dp1240
g272
(dp1241
S'drel'
p1242
S'ccof:CCP2'
p1243
sS'name'
p1244
g1140
ssbsba(issf_api
Chunk
p1245
(dp1246
g178
g1158
sg182
I6
sg266
S'CCP'
p1247
sg168
I4
sg169
(lp1248
I117
asg269
(issf_api
FeatureSet
p1249
(dp1250
g272
(dp1251
S'drel'
p1252
S'k7p:VGNN'
p1253
sS'name'
p1254
g1158
ssbsba(issf_api
Chunk
p1255
(dp1256
g178
g1098
sg182
I7
sg266
S'NP'
p1257
sg168
I4
sg169
(lp1258
I118
aI119
asg269
(issf_api
FeatureSet
p1259
(dp1260
g272
(dp1261
S'drel'
p1262
S'ccof:CCP2'
p1263
sS'name'
p1264
g1098
ssbsba(issf_api
Chunk
p1265
(dp1266
g178
g1152
sg182
I8
sg266
S'NP'
p1267
sg168
I4
sg169
(lp1268
I120
aI121
asg269
(issf_api
FeatureSet
p1269
(dp1270
g272
(dp1271
S'drel'
p1272
S'k2:VGNN'
p1273
sS'name'
p1274
g1152
ssbsba(issf_api
Chunk
p1275
(dp1276
g178
g1146
sg182
I9
sg266
S'NP'
p1277
sg168
I4
sg169
(lp1278
I122
asg269
(issf_api
FeatureSet
p1279
(dp1280
g272
(dp1281
S'drel'
p1282
S'pof:VGNN'
p1283
sS'name'
p1284
g1146
ssbsba(issf_api
Chunk
p1285
(dp1286
g178
g1070
sg182
I10
sg266
S'VGNN'
p1287
sg168
I4
sg169
(lp1288
I123
aI124
aI125
asg269
(issf_api
FeatureSet
p1289
(dp1290
g272
(dp1291
S'drel'
p1292
S'rt:VGF2'
p1293
sS'name'
p1294
g1070
ssbsba(issf_api
Chunk
p1295
(dp1296
g178
g1116
sg182
I11
sg266
S'NP'
p1297
sg168
I4
sg169
(lp1298
I126
aI127
asg269
(issf_api
FeatureSet
p1299
(dp1300
g272
(dp1301
S'drel'
p1302
S'pof:VGF2'
p1303
sS'name'
p1304
g1116
ssbsba(issf_api
Chunk
p1305
(dp1306
g178
g1092
sg182
I12
sg266
S'VGF'
p1307
sg168
I4
sg169
(lp1308
I128
asg269
(issf_api
FeatureSet
p1309
(dp1310
g272
(dp1311
S'voicetype'
p1312
S'active'
p1313
sS'drel'
p1314
S'ccof:CCP3'
p1315
sS'stype'
p1316
S'declarative'
p1317
sS'name'
p1318
g1092
ssbsba(issf_api
Chunk
p1319
(dp1320
g178
g1164
sg182
I13
sg266
S'CCP'
p1321
sg168
I4
sg169
(lp1322
I129
asg269
(issf_api
FeatureSet
p1323
(dp1324
g272
(dp1325
S'drel'
p1326
S'ccof:CCP'
p1327
sS'name'
p1328
g1164
ssbsba(issf_api
Chunk
p1329
(dp1330
g178
g1110
sg182
I14
sg266
S'NP'
p1331
sg168
I4
sg169
(lp1332
I130
aI131
aI132
aI133
asg269
(issf_api
FeatureSet
p1333
(dp1334
g272
(dp1335
S'drel'
p1336
S'rh:VGF3'
p1337
sS'name'
p1338
g1110
ssbsba(issf_api
Chunk
p1339
(dp1340
g178
g1128
sg182
I15
sg266
S'NP'
p1341
sg168
I4
sg169
(lp1342
I134
aI135
asg269
(issf_api
FeatureSet
p1343
(dp1344
g272
(dp1345
S'drel'
p1346
S'k2:VGF3'
p1347
sS'name'
p1348
g1128
ssbsba(issf_api
Chunk
p1349
(dp1350
g178
g1104
sg182
I16
sg266
S'JJP'
p1351
sg168
I4
sg169
(lp1352
I136
asg269
(issf_api
FeatureSet
p1353
(dp1354
g272
(dp1355
S'drel'
p1356
S'pof:VGF3'
p1357
sS'name'
p1358
g1104
ssbsba(issf_api
Chunk
p1359
(dp1360
g178
g1080
sg182
I17
sg266
S'VGF'
p1361
sg168
I4
sg169
(lp1362
I137
aI138
asg269
(issf_api
FeatureSet
p1363
(dp1364
g272
(dp1365
S'voicetype'
p1366
S'active'
p1367
sS'drel'
p1368
S'ccof:CCP3'
p1369
sS'stype'
p1370
S'declarative'
p1371
sS'name'
p1372
g1080
ssbsba(issf_api
Chunk
p1373
(dp1374
g178
g1122
sg182
I18
sg266
S'BLK'
p1375
sg168
I4
sg169
(lp1376
I139
asg269
(issf_api
FeatureSet
p1377
(dp1378
g272
(dp1379
S'drel'
p1380
S'rsym:VGF'
p1381
sS'name'
p1382
g1122
ssbsbasba(issf_api
Sentence
p1383
(dp1384
g166
(lp1385
sg168
I5
sg169
(lp1386
I140
aI141
aI142
aI143
aI144
aI145
aI146
aI147
aI148
aI149
aI150
aI151
aI152
aI153
aI154
aI155
aI156
asg171
(dp1387
S'VGF'
p1388
(issf_api
Node
p1389
(dp1390
g176
g200
sg178
g1388
sg179
g200
sg181
I-1
sg182
I1
sg183
(lp1391
sbsS'CCP'
p1392
(issf_api
Node
p1393
(dp1394
g176
S'k2'
p1395
sg178
g1392
sg179
S'VGF'
p1396
sg181
I-1
sg182
I2
sg183
(lp1397
sbsS'VGF2'
p1398
(issf_api
Node
p1399
(dp1400
g176
S'ccof'
p1401
sg178
g1398
sg179
S'CCP'
p1402
sg181
I-1
sg182
I8
sg183
(lp1403
sbsS'NP5'
p1404
(issf_api
Node
p1405
(dp1406
g176
S'k1'
p1407
sg178
g1404
sg179
S'VGF2'
p1408
sg181
I-1
sg182
I6
sg183
(lp1409
sbsS'BLK'
p1410
(issf_api
Node
p1411
(dp1412
g176
S'rsym'
p1413
sg178
g1410
sg179
S'VGF'
p1414
sg181
I-1
sg182
I9
sg183
(lp1415
sbsS'NP'
p1416
(issf_api
Node
p1417
(dp1418
g176
S'k1'
p1419
sg178
g1416
sg179
S'VGF'
p1420
sg181
I-1
sg182
I0
sg183
(lp1421
sbsS'NP4'
p1422
(issf_api
Node
p1423
(dp1424
g176
S'k7p'
p1425
sg178
g1422
sg179
S'VGF2'
p1426
sg181
I-1
sg182
I5
sg183
(lp1427
sbsS'NP6'
p1428
(issf_api
Node
p1429
(dp1430
g176
S'pof'
p1431
sg178
g1428
sg179
S'VGF2'
p1432
sg181
I-1
sg182
I7
sg183
(lp1433
sbsS'NP3'
p1434
(issf_api
Node
p1435
(dp1436
g176
S'k7t'
p1437
sg178
g1434
sg179
S'VGF2'
p1438
sg181
I-1
sg182
I4
sg183
(lp1439
sbsS'NP2'
p1440
(issf_api
Node
p1441
(dp1442
g176
S'r6'
p1443
sg178
g1440
sg179
S'NP3'
p1444
sg181
I-1
sg182
I3
sg183
(lp1445
sbssg262
(lp1446
(issf_api
Chunk
p1447
(dp1448
g178
g1416
sg182
I0
sg266
S'NP'
p1449
sg168
I5
sg169
(lp1450
I140
asg269
(issf_api
FeatureSet
p1451
(dp1452
g272
(dp1453
S'drel'
p1454
S'k1:VGF'
p1455
sS'name'
p1456
g1416
ssbsba(issf_api
Chunk
p1457
(dp1458
g178
g1388
sg182
I1
sg266
S'VGF'
p1459
sg168
I5
sg169
(lp1460
I141
asg269
(issf_api
FeatureSet
p1461
(dp1462
g272
(dp1463
S'name'
p1464
g1388
sS'stype'
p1465
S'declarative'
p1466
sS'voicetype'
p1467
S'active'
p1468
ssbsba(issf_api
Chunk
p1469
(dp1470
g178
g1392
sg182
I2
sg266
S'CCP'
p1471
sg168
I5
sg169
(lp1472
I142
asg269
(issf_api
FeatureSet
p1473
(dp1474
g272
(dp1475
S'drel'
p1476
S'k2:VGF'
p1477
sS'name'
p1478
g1392
ssbsba(issf_api
Chunk
p1479
(dp1480
g178
g1440
sg182
I3
sg266
S'NP'
p1481
sg168
I5
sg169
(lp1482
I143
aI144
aI145
asg269
(issf_api
FeatureSet
p1483
(dp1484
g272
(dp1485
S'drel'
p1486
S'r6:NP3'
p1487
sS'name'
p1488
g1440
ssbsba(issf_api
Chunk
p1489
(dp1490
g178
g1434
sg182
I4
sg266
S'NP'
p1491
sg168
I5
sg169
(lp1492
I146
aI147
asg269
(issf_api
FeatureSet
p1493
(dp1494
g272
(dp1495
S'drel'
p1496
S'k7t:VGF2'
p1497
sS'name'
p1498
g1434
ssbsba(issf_api
Chunk
p1499
(dp1500
g178
g1422
sg182
I5
sg266
S'NP'
p1501
sg168
I5
sg169
(lp1502
I148
aI149
aI150
asg269
(issf_api
FeatureSet
p1503
(dp1504
g272
(dp1505
S'drel'
p1506
S'k7p:VGF2'
p1507
sS'name'
p1508
g1422
ssbsba(issf_api
Chunk
p1509
(dp1510
g178
g1404
sg182
I6
sg266
S'NP'
p1511
sg168
I5
sg169
(lp1512
I151
aI152
asg269
(issf_api
FeatureSet
p1513
(dp1514
g272
(dp1515
S'drel'
p1516
S'k1:VGF2'
p1517
sS'name'
p1518
g1404
ssbsba(issf_api
Chunk
p1519
(dp1520
g178
g1428
sg182
I7
sg266
S'NP'
p1521
sg168
I5
sg169
(lp1522
I153
asg269
(issf_api
FeatureSet
p1523
(dp1524
g272
(dp1525
S'drel'
p1526
S'pof:VGF2'
p1527
sS'name'
p1528
g1428
ssbsba(issf_api
Chunk
p1529
(dp1530
g178
g1398
sg182
I8
sg266
S'VGF'
p1531
sg168
I5
sg169
(lp1532
I154
aI155
asg269
(issf_api
FeatureSet
p1533
(dp1534
g272
(dp1535
S'voicetype'
p1536
S'active'
p1537
sS'drel'
p1538
S'ccof:CCP'
p1539
sS'stype'
p1540
S'declarative'
p1541
sS'name'
p1542
g1398
ssbsba(issf_api
Chunk
p1543
(dp1544
g178
g1410
sg182
I9
sg266
S'BLK'
p1545
sg168
I5
sg169
(lp1546
I156
asg269
(issf_api
FeatureSet
p1547
(dp1548
g272
(dp1549
S'drel'
p1550
S'rsym:VGF'
p1551
sS'name'
p1552
g1410
ssbsbasbasS'relationList'
p1553
(lp1554
(iextract_relations
discourseRelation
p1555
(dp1556
S'arg1Trees'
p1557
(lp1558
sS'arg2Sentence'
p1559
(lp1560
sS'arg1Sentence'
p1561
(lp1562
sS'connList'
p1563
(lp1564
sS'isPaired'
p1565
I00
sS'arg1'
p1566
NsS'arg1Span'
p1567
V145..311
p1568
sS'arg2'
p1569
NsS'arg2Trees'
p1570
(lp1571
sS'fileName'
p1572
S'../data/raw/Section_16/fullnews_id_2580832_date_8_7_2004.utf8'
p1573
sS'connTrees'
p1574
(lp1575
sS'arg2List'
p1576
(lp1577
sS'arg2Span'
p1578
V313..517
p1579
sS'sense'
p1580
VContingency.Pragmatic cause
p1581
sS'relationType'
p1582
VImplicit
p1583
sS'connSpan'
p1584
V
sS'arg1List'
p1585
(lp1586
sS'conn'
p1587
VjEse ki
p1588
sba(iextract_relations
discourseRelation
p1589
(dp1590
g1557
(lp1591
sg1559
(lp1592
sg1561
(lp1593
sg1563
(lp1594
sg1565
I00
sg1566
Nsg1567
V380..517
p1595
sg1569
Nsg1570
(lp1596
sg1572
g1573
sg1574
(lp1597
sg1576
(lp1598
sg1578
V519..559
p1599
sg1580
VExpansion.Conjunction
p1600
sg1582
VImplicit
p1601
sg1584
V
sg1585
(lp1602
sg1587
VevaM
p1603
sba(iextract_relations
discourseRelation
p1604
(dp1605
g1557
(lp1606
sg1559
(lp1607
sg1561
(lp1608
sg1563
(lp1609
sg1565
I00
sg1566
Nsg1567
V313..559
p1610
sg1569
Nsg1570
(lp1611
sg1572
g1573
sg1574
(lp1612
sg1576
(lp1613
sg1578
V561..689
p1614
sg1580
VExpansion.Conjunction
p1615
sg1582
VImplicit
p1616
sg1584
V
sg1585
(lp1617
sg1587
VsAWa hI
p1618
sba(iextract_relations
discourseRelation
p1619
(dp1620
g1557
(lp1621
sg1559
(lp1622
sg1561
(lp1623
sg1563
(lp1624
sg1565
I00
sg1566
Nsg1567
V561..689
p1625
sg1569
Nsg1570
(lp1626
sg1572
g1573
sg1574
(lp1627
sg1576
(lp1628
sg1578
V691..842
p1629
sg1580
VExpansion.Conjunction
p1630
sg1582
VImplicit
p1631
sg1584
V
sg1585
(lp1632
sg1587
VAge
p1633
sba(iextract_relations
discourseRelation
p1634
(dp1635
g1557
(lp1636
sg1559
(lp1637
sg1561
(lp1638
sg1563
(lp1639
I129
asg1565
I00
sg1566
Nsg1567
V707..795
p1640
sg1569
Nsg1570
(lp1641
sg1572
g1573
sg1574
(lp1642
sg1576
(lp1643
I130
aI131
aI132
aI133
aI134
aI135
aI136
aI137
aI138
asg1578
V802..842
p1644
sg1580
VComparison.Concession.Contra-expectation
p1645
sg1582
VExplicit
p1646
sg1584
V796..801
p1647
sg1585
(lp1648
I110
aI111
aI112
aI113
aI114
aI115
aI116
aI117
aI118
aI119
aI120
aI121
aI122
aI123
aI124
aI125
aI126
aI127
aI128
asg1587
V\u0932\u0947\u0915\u093f\u0928
p1649
sba(iextract_relations
discourseRelation
p1650
(dp1651
g1557
(lp1652
sg1559
(lp1653
sg1561
(lp1654
sg1563
(lp1655
sg1565
I00
sg1566
Nsg1567
V691..842
p1656
sg1569
Nsg1570
(lp1657
sg1572
g1573
sg1574
(lp1658
sg1576
(lp1659
sg1578
V844..918
p1660
sg1580
VComparison.Concession.Contra-expectation
p1661
sg1582
VImplicit
p1662
sg1584
V
sg1585
(lp1663
sg1587
VparaMwu
p1664
sbasS'rawData'
p1665
V<DOC>\u000a<DOCNO>fullnews_id_2580832_date_8_7_2004.utf8</DOCNO>\u000a<TEXT>\u000a\u000a\u000a\u0935\u093f\u092d\u093e\u091c\u093f\u0924 \u0915\u0936\u092e\u0940\u0930 \u0915\u094b \u092c\u0940\u090f\u0938\u090f\u0928\u090f\u0932 \u0928\u0947 \u091c\u094b\u095c\u093e\u000a\u000a\u000a\u000a\u092f\u0942\u000a\u000a\u0915\u092e\u093e\u0928 \u092a\u094b\u0938\u094d\u091f (\u0928\u093f\u092f\u0902\u0924\u094d\u0930\u0923 \u0930\u0947\u0916\u093e)\u0964  \u000a\u000a\u000a\u000a\u000a\u000a\u092d\u093e\u0930\u0924 \u0915\u0947 \u0938\u092c\u0938\u0947 \u092c\u095c\u0947 \u0926\u0942\u0930\u0938\u0902\u091a\u093e\u0930 \u0938\u0947\u0935\u093e \u092a\u094d\u0930\u0926\u093e\u0924\u093e \u092d\u093e\u0930\u0924 \u0938\u0902\u091a\u093e\u0930 \u0928\u093f\u0917\u092e \u0932\u093f\u092e\u093f\u091f\u0947\u0921 \u0928\u0947 \u092f\u0939\u093e\u0902 \u0928\u093f\u092f\u0902\u0924\u094d\u0930\u0923 \u0930\u0947\u0916\u093e \u092a\u0930 \u0938\u093e\u0924 \u091f\u0947\u0932\u0940\u092b\u094b\u0928 \u0932\u093e\u0907\u0928\u0947\u0902 \u0935 \u0938\u0940\u092e\u093e\u0935\u0930\u094d\u0924\u0940 \u091c\u093f\u0932\u0947 \u0909\u0930\u0940 \u0915\u0947 \u0938\u0932\u093e\u092e\u093e\u092c\u093e\u0926 \u092e\u0947\u0902 \u0926\u0938 \u0932\u093e\u0907\u0928\u0947\u0902 \u092c\u093f\u091b\u093e\u0908 \u0917\u0908 \u0939\u0948\u0902\u0964 \u092c\u0940\u090f\u0938\u090f\u0928\u090f\u0932 \u0915\u0947 \u0909\u0924\u094d\u0924\u0930\u0940 \u0915\u0936\u092e\u0940\u0930 \u0915\u0947 \u092e\u0902\u0921\u0932\u0940\u092f \u0905\u092d\u093f\u092f\u0902\u0924\u093e \u0930\u093e\u0915\u0947\u0936 \u0935\u0930\u094d\u092e\u093e \u0928\u0947 \u092c\u0924\u093e\u092f\u093e \u0915\u093f \u091c\u092e\u094d\u092e\u0942 \u0915\u0936\u092e\u0940\u0930 \u0914\u0930 \u092a\u093e\u0915\u093f\u0938\u094d\u0924\u093e\u0928 \u0915\u0947 \u0915\u092c\u094d\u091c\u0947 \u0935\u093e\u0932\u0947 \u0915\u0936\u092e\u0940\u0930 \u0915\u0947 \u092f\u093e\u0924\u094d\u0930\u093f\u092f\u094b\u0902 \u0915\u0940 \u0938\u0941\u0935\u093f\u0927\u093e \u0915\u0947 \u0932\u093f\u090f \u0915\u092e\u093e\u0928 \u092a\u094b\u0938\u094d\u091f \u092a\u0930 \u0938\u093e\u0924 \u0932\u093e\u0907\u0928\u0947\u0902 \u0935 \u0938\u0932\u093e\u092e\u093e\u092c\u093e\u0926 \u092e\u0947\u0902 \u0926\u0938 \u0932\u093e\u0907\u0928\u0947\u0902 \u092c\u093f\u091b\u093e\u0908 \u0917\u0908 \u0939\u0948\u0902\u0964 \u092f\u0939 \u092a\u0902\u0926\u094d\u0930\u0939 \u0926\u093f\u0928\u094b\u0902 \u0915\u0940 \u0915\u095c\u0940 \u092e\u0947\u0939\u0928\u0924 \u0915\u093e \u0928\u0924\u0940\u091c\u093e \u0939\u0948\u0964 \u092c\u0940\u090f\u0938\u090f\u0928\u090f\u0932 \u0905\u0927\u093f\u0915\u093e\u0930\u093f\u092f\u094b\u0902 \u0928\u0947 \u0915\u0939\u093e \u0915\u093f \u0935\u093f\u0936\u0935 \u092d\u0930 \u0938\u0947 \u0906\u090f \u092e\u0940\u0921\u093f\u092f\u093e \u0915\u0947 \u0932\u094b\u0917\u094b\u0902 \u0928\u0947 \u092d\u0940 \u0905\u092a\u0928\u0940 \u0916\u092c\u0930\u0947\u0902 \u092d\u0947\u091c\u0928\u0947 \u0915\u0947 \u0932\u093f\u090f \u0907\u0928\u094d\u0939\u0940\u0902 \u091f\u0947\u0932\u0940\u092b\u094b\u0928 \u0932\u093e\u0907\u0928\u094b\u0902 \u0915\u093e \u0907\u0938\u094d\u0924\u0947\u092e\u093e\u0932 \u0915\u093f\u092f\u093e\u0964 \u0909\u0928\u094d\u0939\u094b\u0902\u0928\u0947 \u0915\u0939\u093e \u0915\u093f \u092c\u0940\u090f\u0938\u090f\u0928\u090f\u0932 \u0928\u0947 \u0909\u0930\u0940 \u0936\u0939\u0930,\u0915\u092e\u093e\u0928 \u092a\u094b\u0938\u094d\u091f \u0935 \u0938\u0932\u093e\u092e\u093e\u092c\u093e\u0926 \u092e\u0947\u0902 \u092e\u094b\u092c\u093e\u0907\u0932 \u0938\u0947\u0935\u093e \u0936\u0941\u0930\u0942 \u0915\u0930\u0928\u0947 \u0915\u0947 \u0932\u093f\u090f \u092d\u0930\u0938\u0915 \u0915\u094b\u0936\u093f\u0936 \u0915\u0940 \u0932\u0947\u0915\u093f\u0928 \u0916\u0930\u093e\u092c \u092e\u094c\u0938\u092e \u0915\u0947 \u0915\u093e\u0930\u0923 \u092f\u0939 \u092f\u094b\u091c\u0928\u093e \u0930\u0926\u094d\u0926 \u0915\u0930\u0928\u0940 \u092a\u095c\u0940\u0964 \u0909\u0928\u094d\u0939\u094b\u0902\u0928\u0947 \u0915\u0939\u093e \u0915\u093f \u0905\u092a\u094d\u0930\u0948\u0932 \u092e\u093e\u0939 \u0915\u0947 \u0905\u0902\u0924 \u0924\u0915 \u0907\u0928 \u091c\u0917\u0939\u094b\u0902 \u092a\u0930 \u092e\u094b\u092c\u093e\u0907\u0932 \u0938\u0947\u0935\u093e \u0936\u0941\u0930\u0942 \u0939\u094b \u091c\u093e\u090f\u0917\u0940\u0964\u000a\u000a\u000a\u000a\u000a</TEXT>\u000a</DOC>
p1666
sS'rawFileName'
p1667
g1573
sS'rawToAnnMapping'
p1668
(dp1669
I0
(I0
tp1670
sI1
(I1
tp1671
sI2
(I2
tp1672
sI3
(I3
tp1673
sI4
(I4
tp1674
sI5
(I5
tp1675
sI6
(I6
tp1676
sI7
(I7
tp1677
sI8
(I8
tp1678
sI9
(I9
tp1679
sI10
(I10
tp1680
sI11
(I11
tp1681
sI12
(I12
tp1682
sI13
(I13
tp1683
sI14
(I14
tp1684
sI15
(I15
tp1685
sI16
(I16
tp1686
sI17
(I17
tp1687
sI18
(I18
tp1688
sI19
(I19
tp1689
sI20
(I20
tp1690
sI21
(I21
tp1691
sI22
(I22
tp1692
sI23
(I23
tp1693
sI24
(I24
tp1694
sI25
(I25
tp1695
sI26
(I26
tp1696
sI27
(I27
tp1697
sI28
(I28
tp1698
sI29
(I29
tp1699
sI30
(I29
tp1700
sI31
(I30
tp1701
sI32
(I31
tp1702
sI33
(I32
tp1703
sI34
(I33
tp1704
sI35
(I34
tp1705
sI36
(I35
tp1706
sI37
(I36
tp1707
sI38
(I37
tp1708
sI39
(I38
tp1709
sI40
(I39
tp1710
sI41
(I40
tp1711
sI42
(I41
tp1712
sI43
(I42
tp1713
sI44
(I43
tp1714
sI45
(I44
tp1715
sI46
(I45
tp1716
sI47
(I46
tp1717
sI48
(I47
tp1718
sI49
(I48
tp1719
sI50
(I49
tp1720
sI51
(I50
tp1721
sI52
(I51
tp1722
sI53
(I52
tp1723
sI54
(I53
tp1724
sI55
(I54
tp1725
sI56
(I55
tp1726
sI57
(I56
tp1727
sI58
(I57
tp1728
sI59
(I58
tp1729
sI60
(I59
tp1730
sI61
(I60
tp1731
sI62
(I61
tp1732
sI63
(I62
tp1733
sI64
(I63
tp1734
sI65
(I64
tp1735
sI66
(I65
tp1736
sI67
(I66
tp1737
sI68
(I67
tp1738
sI69
(I68
tp1739
sI70
(I69
tp1740
sI71
(I70
tp1741
sI72
(I71
tp1742
sI73
(I72
tp1743
sI74
(I73
tp1744
sI75
(I74
tp1745
sI76
(I75
tp1746
sI77
(I76
tp1747
sI78
(I77
tp1748
sI79
(I78
tp1749
sI80
(I79
tp1750
sI81
(I80
tp1751
sI82
(I81
tp1752
sI83
(I82
tp1753
sI84
(I83
tp1754
sI85
(I84
tp1755
sI86
(I85
tp1756
sI87
(I86
tp1757
sI88
(I87
tp1758
sI89
(I88
tp1759
sI90
(I89
tp1760
sI91
(I90
tp1761
sI92
(I91
tp1762
sI93
(I92
tp1763
sI94
(I93
tp1764
sI95
(I94
tp1765
sI96
(I95
tp1766
sI97
(I96
tp1767
sI98
(I97
tp1768
sI99
(I98
tp1769
sI100
(I99
tp1770
sI101
(I100
tp1771
sI102
(I101
tp1772
sI103
(I102
tp1773
sI104
(I103
tp1774
sI105
(I104
tp1775
sI106
(I105
tp1776
sI107
(I106
tp1777
sI108
(I107
tp1778
sI109
(I108
tp1779
sI110
(I109
tp1780
sI111
(I110
tp1781
sI112
(I111
tp1782
sI113
(I112
tp1783
sI114
(I113
tp1784
sI115
(I114
tp1785
sI116
(I115
tp1786
sI117
(I116
tp1787
sI118
(I117
tp1788
sI119
(I118
tp1789
sI120
(I119
tp1790
sI121
(I120
tp1791
sI122
(I121
tp1792
sI123
(I122
tp1793
sI124
(I123
tp1794
sI125
(I124
tp1795
sI126
(I125
tp1796
sI127
(I126
tp1797
sI128
(I127
tp1798
sI129
(I128
tp1799
sI130
(I129
tp1800
sI131
(I130
tp1801
sI132
(I131
tp1802
sI133
(I132
tp1803
sI134
(I133
tp1804
sI135
(I134
tp1805
sI136
(I135
tp1806
sI137
(I136
tp1807
sI138
(I137
tp1808
sI139
(I138
tp1809
sI140
(I139
tp1810
sI141
(I140
tp1811
sI142
(I141
tp1812
sI143
(I142
tp1813
sI144
(I143
tp1814
sI145
(I144
tp1815
sI146
(I145
tp1816
sI147
(I146
tp1817
sI148
(I147
tp1818
sI149
(I148
tp1819
sI150
(I149
tp1820
sI151
(I150
tp1821
sI152
(I151
tp1822
sI153
(I152
tp1823
sI154
(I153
tp1824
sI155
(I154
tp1825
sI156
(I155
tp1826
sI157
(I156
tp1827
ssS'globalWordList'
p1828
(lp1829
(issf_api
Word
p1830
(dp1831
S'splitConn'
p1832
I00
sS'word'
p1833
V\u092d\u093e\u0930\u0924
p1834
sS'extraFeatureSet'
p1835
(issf_api
FeatureSet
p1836
(dp1837
g272
(dp1838
S'posn'
p1839
S'10'
p1840
sS'name'
p1841
S'\xe0\xa4\xad\xe0\xa4\xbe\xe0\xa4\xb0\xe0\xa4\xa4'
p1842
sS'af'
p1843
S'\xe0\xa4\xad\xe0\xa4\xbe\xe0\xa4\xb0\xe0\xa4\xa4,n,m,sg,3,o,0_\xe0\xa4\x95\xe0\xa4\xbe,0'
p1844
sS'chunkid'
p1845
S'NP'
p1846
sS'drel'
p1847
S'r6:\xe0\xa4\xaa\xe0\xa5\x8d\xe0\xa4\xb0\xe0\xa4\xa6\xe0\xa4\xbe\xe0\xa4\xa4\xe0\xa4\xbe'
p1848
sS'vpos'
p1849
S'vib_2'
p1850
sS'chunktype'
p1851
S'head:NP'
p1852
ssbsg1566
I00
sg1569
I00
sg1580
Nsg1567
Nsg182
I0
sg168
I0
sS'relationNum'
p1853
Nsg1578
NsS'wordTag'
p1854
S'NNP'
p1855
sg269
(issf_api
FeatureSet
p1856
(dp1857
g272
(dp1858
S'posn'
p1859
S'10'
p1860
sS'name'
p1861
S'\xe0\xa4\xad\xe0\xa4\xbe\xe0\xa4\xb0\xe0\xa4\xa4'
p1862
sS'af'
p1863
S'\xe0\xa4\xad\xe0\xa4\xbe\xe0\xa4\xb0\xe0\xa4\xa4,n,m,sg,3,o,0,0'
p1864
ssbsg1587
I00
sba(issf_api
Word
p1865
(dp1866
g1832
I00
sg1833
V\u0915\u0947
p1867
sg1835
(issf_api
FeatureSet
p1868
(dp1869
g272
(dp1870
S'posn'
p1871
S'20'
p1872
sS'name'
p1873
S'\xe0\xa4\x95\xe0\xa5\x87'
p1874
sS'drel'
p1875
S'lwg__psp:\xe0\xa4\xad\xe0\xa4\xbe\xe0\xa4\xb0\xe0\xa4\xa4'
p1876
sS'chunktype'
p1877
S'child:NP'
p1878
sS'af'
p1879
S'\xe0\xa4\x95\xe0\xa4\xbe,psp,m,sg,,o,,'
p1880
ssbsg1566
I00
sg1569
I00
sg1580
Nsg1567
Nsg182
I0
sg168
I0
sg1853
Nsg1578
Nsg1854
S'PSP'
p1881
sg269
(issf_api
FeatureSet
p1882
(dp1883
g272
(dp1884
S'posn'
p1885
S'20'
p1886
sS'name'
p1887
S'\xe0\xa4\x95\xe0\xa5\x87'
p1888
sS'af'
p1889
S'\xe0\xa4\x95\xe0\xa4\xbe,psp,m,sg,,o,,'
p1890
ssbsg1587
I00
sba(issf_api
Word
p1891
(dp1892
g1832
I00
sg1833
V\u0938\u092c\u0938\u0947
p1893
sg1835
(issf_api
FeatureSet
p1894
(dp1895
g272
(dp1896
S'posn'
p1897
S'30'
p1898
sS'name'
p1899
S'\xe0\xa4\xb8\xe0\xa4\xac\xe0\xa4\xb8\xe0\xa5\x87'
p1900
sS'drel'
p1901
S'jjmod__intf:\xe0\xa4\xac\xe0\xa5\x9c\xe0\xa5\x87'
p1902
sS'chunktype'
p1903
S'child:NP2'
p1904
sS'af'
p1905
S'\xe0\xa4\xb8\xe0\xa4\xac\xe0\xa4\xb8\xe0\xa5\x87,avy,,,,,,'
p1906
ssbsg1566
I00
sg1569
I00
sg1580
Nsg1567
Nsg182
I1
sg168
I0
sg1853
Nsg1578
Nsg1854
S'INTF'
p1907
sg269
(issf_api
FeatureSet
p1908
(dp1909
g272
(dp1910
S'posn'
p1911
S'30'
p1912
sS'name'
p1913
S'\xe0\xa4\xb8\xe0\xa4\xac\xe0\xa4\xb8\xe0\xa5\x87'
p1914
sS'af'
p1915
S'\xe0\xa4\xb8\xe0\xa4\xac\xe0\xa4\xb8\xe0\xa5\x87,avy,,,,,,'
p1916
ssbsg1587
I00
sba(issf_api
Word
p1917
(dp1918
g1832
I00
sg1833
V\u092c\u095c\u0947
p1919
sg1835
(issf_api
FeatureSet
p1920
(dp1921
g272
(dp1922
S'posn'
p1923
S'40'
p1924
sS'name'
p1925
S'\xe0\xa4\xac\xe0\xa5\x9c\xe0\xa5\x87'
p1926
sS'drel'
p1927
S'nmod__adj:\xe0\xa4\xaa\xe0\xa5\x8d\xe0\xa4\xb0\xe0\xa4\xa6\xe0\xa4\xbe\xe0\xa4\xa4\xe0\xa4\xbe'
p1928
sS'chunktype'
p1929
S'child:NP2'
p1930
sS'af'
p1931
S'\xe0\xa4\xac\xe0\xa5\x9c\xe0\xa4\xbe,adj,m,sg,,o,,'
p1932
ssbsg1566
I00
sg1569
I00
sg1580
Nsg1567
Nsg182
I1
sg168
I0
sg1853
Nsg1578
Nsg1854
S'JJ'
p1933
sg269
(issf_api
FeatureSet
p1934
(dp1935
g272
(dp1936
S'posn'
p1937
S'40'
p1938
sS'name'
p1939
S'\xe0\xa4\xac\xe0\xa5\x9c\xe0\xa5\x87'
p1940
sS'af'
p1941
S'\xe0\xa4\xac\xe0\xa5\x9c\xe0\xa4\xbe,adj,m,sg,,o,,'
p1942
ssbsg1587
I00
sba(issf_api
Word
p1943
(dp1944
g1832
I00
sg1833
V\u0926\u0942\u0930\u0938\u0902\u091a\u093e\u0930
p1945
sg1835
(issf_api
FeatureSet
p1946
(dp1947
g272
(dp1948
S'posn'
p1949
S'50'
p1950
sS'name'
p1951
S'\xe0\xa4\xa6\xe0\xa5\x82\xe0\xa4\xb0\xe0\xa4\xb8\xe0\xa4\x82\xe0\xa4\x9a\xe0\xa4\xbe\xe0\xa4\xb0'
p1952
sS'drel'
p1953
S'pof__cn:\xe0\xa4\xaa\xe0\xa5\x8d\xe0\xa4\xb0\xe0\xa4\xa6\xe0\xa4\xbe\xe0\xa4\xa4\xe0\xa4\xbe'
p1954
sS'chunktype'
p1955
S'child:NP2'
p1956
sS'af'
p1957
S'\xe0\xa4\xa6\xe0\xa5\x82\xe0\xa4\xb0\xe0\xa4\xb8\xe0\xa4\x82\xe0\xa4\x9a\xe0\xa4\xbe\xe0\xa4\xb0,n,m,sg,3,d,0,0'
p1958
ssbsg1566
I00
sg1569
I00
sg1580
Nsg1567
Nsg182
I1
sg168
I0
sg1853
Nsg1578
Nsg1854
S'NNC'
p1959
sg269
(issf_api
FeatureSet
p1960
(dp1961
g272
(dp1962
S'posn'
p1963
S'50'
p1964
sS'name'
p1965
S'\xe0\xa4\xa6\xe0\xa5\x82\xe0\xa4\xb0\xe0\xa4\xb8\xe0\xa4\x82\xe0\xa4\x9a\xe0\xa4\xbe\xe0\xa4\xb0'
p1966
sS'af'
p1967
S'\xe0\xa4\xa6\xe0\xa5\x82\xe0\xa4\xb0\xe0\xa4\xb8\xe0\xa4\x82\xe0\xa4\x9a\xe0\xa4\xbe\xe0\xa4\xb0,n,m,sg,3,d,0,0'
p1968
ssbsg1587
I00
sba(issf_api
Word
p1969
(dp1970
g1832
I00
sg1833
V\u0938\u0947\u0935\u093e
p1971
sg1835
(issf_api
FeatureSet
p1972
(dp1973
g272
(dp1974
S'posn'
p1975
S'60'
p1976
sS'name'
p1977
S'\xe0\xa4\xb8\xe0\xa5\x87\xe0\xa4\xb5\xe0\xa4\xbe'
p1978
sS'drel'
p1979
S'pof__cn:\xe0\xa4\xaa\xe0\xa5\x8d\xe0\xa4\xb0\xe0\xa4\xa6\xe0\xa4\xbe\xe0\xa4\xa4\xe0\xa4\xbe'
p1980
sS'chunktype'
p1981
S'child:NP2'
p1982
sS'af'
p1983
S'\xe0\xa4\xb8\xe0\xa5\x87\xe0\xa4\xb5\xe0\xa4\xbe,n,f,sg,3,d,0,0'
p1984
ssbsg1566
I00
sg1569
I00
sg1580
Nsg1567
Nsg182
I1
sg168
I0
sg1853
Nsg1578
Nsg1854
S'NNC'
p1985
sg269
(issf_api
FeatureSet
p1986
(dp1987
g272
(dp1988
S'posn'
p1989
S'60'
p1990
sS'name'
p1991
S'\xe0\xa4\xb8\xe0\xa5\x87\xe0\xa4\xb5\xe0\xa4\xbe'
p1992
sS'af'
p1993
S'\xe0\xa4\xb8\xe0\xa5\x87\xe0\xa4\xb5\xe0\xa4\xbe,n,f,sg,3,d,0,0'
p1994
ssbsg1587
I00
sba(issf_api
Word
p1995
(dp1996
g1832
I00
sg1833
V\u092a\u094d\u0930\u0926\u093e\u0924\u093e
p1997
sg1835
(issf_api
FeatureSet
p1998
(dp1999
g272
(dp2000
S'posn'
p2001
S'70'
p2002
sS'name'
p2003
S'\xe0\xa4\xaa\xe0\xa5\x8d\xe0\xa4\xb0\xe0\xa4\xa6\xe0\xa4\xbe\xe0\xa4\xa4\xe0\xa4\xbe'
p2004
sS'af'
p2005
S'\xe0\xa4\xaa\xe0\xa5\x8d\xe0\xa4\xb0\xe0\xa4\xa6\xe0\xa4\xbe\xe0\xa4\xa4\xe0\xa4\xbe,n,m,sg,3,o,0,0'
p2006
sS'chunkid'
p2007
S'NP2'
p2008
sS'drel'
p2009
S'nmod:\xe0\xa4\xb2\xe0\xa4\xbf\xe0\xa4\xae\xe0\xa4\xbf\xe0\xa4\x9f\xe0\xa5\x87\xe0\xa4\xa1'
p2010
sS'chunktype'
p2011
S'head:NP2'
p2012
ssbsg1566
I00
sg1569
I00
sg1580
Nsg1567
Nsg182
I1
sg168
I0
sg1853
Nsg1578
Nsg1854
S'NN'
p2013
sg269
(issf_api
FeatureSet
p2014
(dp2015
g272
(dp2016
S'posn'
p2017
S'70'
p2018
sS'name'
p2019
S'\xe0\xa4\xaa\xe0\xa5\x8d\xe0\xa4\xb0\xe0\xa4\xa6\xe0\xa4\xbe\xe0\xa4\xa4\xe0\xa4\xbe'
p2020
sS'af'
p2021
S'\xe0\xa4\xaa\xe0\xa5\x8d\xe0\xa4\xb0\xe0\xa4\xa6\xe0\xa4\xbe\xe0\xa4\xa4\xe0\xa4\xbe,n,m,sg,3,o,0,0'
p2022
ssbsg1587
I00
sba(issf_api
Word
p2023
(dp2024
g1832
I00
sg1833
V\u092d\u093e\u0930\u0924
p2025
sg1835
(issf_api
FeatureSet
p2026
(dp2027
g272
(dp2028
S'posn'
p2029
S'80'
p2030
sS'name'
p2031
S'\xe0\xa4\xad\xe0\xa4\xbe\xe0\xa4\xb0\xe0\xa4\xa42'
p2032
sS'drel'
p2033
S'pof__cn:\xe0\xa4\xb2\xe0\xa4\xbf\xe0\xa4\xae\xe0\xa4\xbf\xe0\xa4\x9f\xe0\xa5\x87\xe0\xa4\xa1'
p2034
sS'chunktype'
p2035
S'child:NP3'
p2036
sS'af'
p2037
S'\xe0\xa4\xad\xe0\xa4\xbe\xe0\xa4\xb0\xe0\xa4\xa4,n,m,sg,3,d,0,0'
p2038
ssbsg1566
I00
sg1569
I00
sg1580
Nsg1567
Nsg182
I2
sg168
I0
sg1853
Nsg1578
Nsg1854
S'NNPC'
p2039
sg269
(issf_api
FeatureSet
p2040
(dp2041
g272
(dp2042
S'posn'
p2043
S'80'
p2044
sS'name'
p2045
S'\xe0\xa4\xad\xe0\xa4\xbe\xe0\xa4\xb0\xe0\xa4\xa42'
p2046
sS'af'
p2047
S'\xe0\xa4\xad\xe0\xa4\xbe\xe0\xa4\xb0\xe0\xa4\xa4,n,m,sg,3,d,0,0'
p2048
ssbsg1587
I00
sba(issf_api
Word
p2049
(dp2050
g1832
I00
sg1833
V\u0938\u0902\u091a\u093e\u0930
p2051
sg1835
(issf_api
FeatureSet
p2052
(dp2053
g272
(dp2054
S'posn'
p2055
S'90'
p2056
sS'name'
p2057
S'\xe0\xa4\xb8\xe0\xa4\x82\xe0\xa4\x9a\xe0\xa4\xbe\xe0\xa4\xb0'
p2058
sS'drel'
p2059
S'pof__cn:\xe0\xa4\xb2\xe0\xa4\xbf\xe0\xa4\xae\xe0\xa4\xbf\xe0\xa4\x9f\xe0\xa5\x87\xe0\xa4\xa1'
p2060
sS'chunktype'
p2061
S'child:NP3'
p2062
sS'af'
p2063
S'\xe0\xa4\xb8\xe0\xa4\x82\xe0\xa4\x9a\xe0\xa4\xbe\xe0\xa4\xb0,n,m,sg,3,d,0,0'
p2064
ssbsg1566
I00
sg1569
I00
sg1580
Nsg1567
Nsg182
I2
sg168
I0
sg1853
Nsg1578
Nsg1854
S'NNPC'
p2065
sg269
(issf_api
FeatureSet
p2066
(dp2067
g272
(dp2068
S'posn'
p2069
S'90'
p2070
sS'name'
p2071
S'\xe0\xa4\xb8\xe0\xa4\x82\xe0\xa4\x9a\xe0\xa4\xbe\xe0\xa4\xb0'
p2072
sS'af'
p2073
S'\xe0\xa4\xb8\xe0\xa4\x82\xe0\xa4\x9a\xe0\xa4\xbe\xe0\xa4\xb0,n,m,sg,3,d,0,0'
p2074
ssbsg1587
I00
sba(issf_api
Word
p2075
(dp2076
g1832
I00
sg1833
V\u0928\u093f\u0917\u092e
p2077
sg1835
(issf_api
FeatureSet
p2078
(dp2079
g272
(dp2080
S'posn'
p2081
S'100'
p2082
sS'name'
p2083
S'\xe0\xa4\xa8\xe0\xa4\xbf\xe0\xa4\x97\xe0\xa4\xae'
p2084
sS'drel'
p2085
S'pof__cn:\xe0\xa4\xb2\xe0\xa4\xbf\xe0\xa4\xae\xe0\xa4\xbf\xe0\xa4\x9f\xe0\xa5\x87\xe0\xa4\xa1'
p2086
sS'chunktype'
p2087
S'child:NP3'
p2088
sS'af'
p2089
S'\xe0\xa4\xa8\xe0\xa4\xbf\xe0\xa4\x97\xe0\xa4\xae,n,m,sg,3,d,0,0'
p2090
ssbsg1566
I00
sg1569
I00
sg1580
Nsg1567
Nsg182
I2
sg168
I0
sg1853
Nsg1578
Nsg1854
S'NNPC'
p2091
sg269
(issf_api
FeatureSet
p2092
(dp2093
g272
(dp2094
S'posn'
p2095
S'100'
p2096
sS'name'
p2097
S'\xe0\xa4\xa8\xe0\xa4\xbf\xe0\xa4\x97\xe0\xa4\xae'
p2098
sS'af'
p2099
S'\xe0\xa4\xa8\xe0\xa4\xbf\xe0\xa4\x97\xe0\xa4\xae,n,m,sg,3,d,0,0'
p2100
ssbsg1587
I00
sba(issf_api
Word
p2101
(dp2102
g1832
I00
sg1833
V\u0932\u093f\u092e\u093f\u091f\u0947\u0921
p2103
sg1835
(issf_api
FeatureSet
p2104
(dp2105
g272
(dp2106
S'posn'
p2107
S'110'
p2108
sS'name'
p2109
S'\xe0\xa4\xb2\xe0\xa4\xbf\xe0\xa4\xae\xe0\xa4\xbf\xe0\xa4\x9f\xe0\xa5\x87\xe0\xa4\xa1'
p2110
sS'af'
p2111
S'\xe0\xa4\xb2\xe0\xa4\xbf\xe0\xa4\xae\xe0\xa4\xbf\xe0\xa4\x9f\xe0\xa5\x87\xe0\xa4\xa1,n,m,sg,3,o,0_\xe0\xa4\xa8\xe0\xa5\x87,0'
p2112
sS'chunkid'
p2113
S'NP3'
p2114
sS'drel'
p2115
S'k1:NULL'
p2116
sS'vpos'
p2117
S'vib_5'
p2118
sS'chunktype'
p2119
S'head:NP3'
p2120
ssbsg1566
I00
sg1569
I00
sg1580
Nsg1567
Nsg182
I2
sg168
I0
sg1853
Nsg1578
Nsg1854
S'NNP'
p2121
sg269
(issf_api
FeatureSet
p2122
(dp2123
g272
(dp2124
S'posn'
p2125
S'110'
p2126
sS'name'
p2127
S'\xe0\xa4\xb2\xe0\xa4\xbf\xe0\xa4\xae\xe0\xa4\xbf\xe0\xa4\x9f\xe0\xa5\x87\xe0\xa4\xa1'
p2128
sS'af'
p2129
S'\xe0\xa4\xb2\xe0\xa4\xbf\xe0\xa4\xae\xe0\xa4\xbf\xe0\xa4\x9f\xe0\xa5\x87\xe0\xa4\xa1,n,m,sg,3,o,0,0'
p2130
ssbsg1587
I00
sba(issf_api
Word
p2131
(dp2132
g1832
I00
sg1833
V\u0928\u0947
p2133
sg1835
(issf_api
FeatureSet
p2134
(dp2135
g272
(dp2136
S'posn'
p2137
S'120'
p2138
sS'name'
p2139
S'\xe0\xa4\xa8\xe0\xa5\x87'
p2140
sS'drel'
p2141
S'lwg__psp:\xe0\xa4\xb2\xe0\xa4\xbf\xe0\xa4\xae\xe0\xa4\xbf\xe0\xa4\x9f\xe0\xa5\x87\xe0\xa4\xa1'
p2142
sS'chunktype'
p2143
S'child:NP3'
p2144
sS'af'
p2145
S'\xe0\xa4\xa8\xe0\xa5\x87,psp,,,,,,'
p2146
ssbsg1566
I00
sg1569
I00
sg1580
Nsg1567
Nsg182
I2
sg168
I0
sg1853
Nsg1578
Nsg1854
S'PSP'
p2147
sg269
(issf_api
FeatureSet
p2148
(dp2149
g272
(dp2150
S'posn'
p2151
S'120'
p2152
sS'name'
p2153
S'\xe0\xa4\xa8\xe0\xa5\x87'
p2154
sS'af'
p2155
S'\xe0\xa4\xa8\xe0\xa5\x87,psp,,,,,,'
p2156
ssbsg1587
I00
sba(issf_api
Word
p2157
(dp2158
g1832
I00
sg1833
V\u092f\u0939\u093e\u0902
p2159
sg1835
(issf_api
FeatureSet
p2160
(dp2161
g272
(dp2162
S'posn'
p2163
S'130'
p2164
sS'name'
p2165
S'\xe0\xa4\xaf\xe0\xa4\xb9\xe0\xa4\xbe\xe0\xa4\x82'
p2166
sS'af'
p2167
S'\xe0\xa4\xaf\xe0\xa4\xb9\xe0\xa4\xbe\xe0\xa4\x81,pn,,,,d,,'
p2168
sS'chunkid'
p2169
S'NP4'
p2170
sS'drel'
p2171
S'k7p:NULL'
p2172
sS'chunktype'
p2173
S'head:NP4'
p2174
ssbsg1566
I00
sg1569
I00
sg1580
Nsg1567
Nsg182
I3
sg168
I0
sg1853
Nsg1578
Nsg1854
S'PRP'
p2175
sg269
(issf_api
FeatureSet
p2176
(dp2177
g272
(dp2178
S'posn'
p2179
S'130'
p2180
sS'name'
p2181
S'\xe0\xa4\xaf\xe0\xa4\xb9\xe0\xa4\xbe\xe0\xa4\x82'
p2182
sS'af'
p2183
S'\xe0\xa4\xaf\xe0\xa4\xb9\xe0\xa4\xbe\xe0\xa4\x81,pn,,,,d,,'
p2184
ssbsg1587
I00
sba(issf_api
Word
p2185
(dp2186
g1832
I00
sg1833
V\u0928\u093f\u092f\u0902\u0924\u094d\u0930\u0923
p2187
sg1835
(issf_api
FeatureSet
p2188
(dp2189
g272
(dp2190
S'posn'
p2191
S'140'
p2192
sS'name'
p2193
S'\xe0\xa4\xa8\xe0\xa4\xbf\xe0\xa4\xaf\xe0\xa4\x82\xe0\xa4\xa4\xe0\xa5\x8d\xe0\xa4\xb0\xe0\xa4\xa3'
p2194
sS'drel'
p2195
S'pof__cn:\xe0\xa4\xb0\xe0\xa5\x87\xe0\xa4\x96\xe0\xa4\xbe'
p2196
sS'chunktype'
p2197
S'child:NP5'
p2198
sS'af'
p2199
S'\xe0\xa4\xa8\xe0\xa4\xbf\xe0\xa4\xaf\xe0\xa4\x82\xe0\xa4\xa4\xe0\xa5\x8d\xe0\xa4\xb0\xe0\xa4\xa3,n,m,sg,3,d,0,0'
p2200
ssbsg1566
I00
sg1569
I00
sg1580
Nsg1567
Nsg182
I4
sg168
I0
sg1853
Nsg1578
Nsg1854
S'NNC'
p2201
sg269
(issf_api
FeatureSet
p2202
(dp2203
g272
(dp2204
S'posn'
p2205
S'140'
p2206
sS'name'
p2207
S'\xe0\xa4\xa8\xe0\xa4\xbf\xe0\xa4\xaf\xe0\xa4\x82\xe0\xa4\xa4\xe0\xa5\x8d\xe0\xa4\xb0\xe0\xa4\xa3'
p2208
sS'af'
p2209
S'\xe0\xa4\xa8\xe0\xa4\xbf\xe0\xa4\xaf\xe0\xa4\x82\xe0\xa4\xa4\xe0\xa5\x8d\xe0\xa4\xb0\xe0\xa4\xa3,n,m,sg,3,d,0,0'
p2210
ssbsg1587
I00
sba(issf_api
Word
p2211
(dp2212
g1832
I00
sg1833
V\u0930\u0947\u0916\u093e
p2213
sg1835
(issf_api
FeatureSet
p2214
(dp2215
g272
(dp2216
S'posn'
p2217
S'150'
p2218
sS'name'
p2219
S'\xe0\xa4\xb0\xe0\xa5\x87\xe0\xa4\x96\xe0\xa4\xbe'
p2220
sS'af'
p2221
S'\xe0\xa4\xb0\xe0\xa5\x87\xe0\xa4\x96\xe0\xa4\xbe,n,f,sg,3,o,0_\xe0\xa4\xaa\xe0\xa4\xb0,0'
p2222
sS'chunkid'
p2223
S'NP5'
p2224
sS'drel'
p2225
S'k7p:NULL'
p2226
sS'vpos'
p2227
S'vib_3'
p2228
sS'chunktype'
p2229
S'head:NP5'
p2230
ssbsg1566
I00
sg1569
I00
sg1580
Nsg1567
Nsg182
I4
sg168
I0
sg1853
Nsg1578
Nsg1854
S'NN'
p2231
sg269
(issf_api
FeatureSet
p2232
(dp2233
g272
(dp2234
S'posn'
p2235
S'150'
p2236
sS'name'
p2237
S'\xe0\xa4\xb0\xe0\xa5\x87\xe0\xa4\x96\xe0\xa4\xbe'
p2238
sS'af'
p2239
S'\xe0\xa4\xb0\xe0\xa5\x87\xe0\xa4\x96\xe0\xa4\xbe,n,f,sg,3,o,0,0'
p2240
ssbsg1587
I00
sba(issf_api
Word
p2241
(dp2242
g1832
I00
sg1833
V\u092a\u0930
p2243
sg1835
(issf_api
FeatureSet
p2244
(dp2245
g272
(dp2246
S'posn'
p2247
S'160'
p2248
sS'name'
p2249
S'\xe0\xa4\xaa\xe0\xa4\xb0'
p2250
sS'drel'
p2251
S'lwg__psp:\xe0\xa4\xb0\xe0\xa5\x87\xe0\xa4\x96\xe0\xa4\xbe'
p2252
sS'chunktype'
p2253
S'child:NP5'
p2254
sS'af'
p2255
S'\xe0\xa4\xaa\xe0\xa4\xb0,psp,,,,,,'
p2256
ssbsg1566
I00
sg1569
I00
sg1580
Nsg1567
Nsg182
I4
sg168
I0
sg1853
Nsg1578
Nsg1854
S'PSP'
p2257
sg269
(issf_api
FeatureSet
p2258
(dp2259
g272
(dp2260
S'posn'
p2261
S'160'
p2262
sS'name'
p2263
S'\xe0\xa4\xaa\xe0\xa4\xb0'
p2264
sS'af'
p2265
S'\xe0\xa4\xaa\xe0\xa4\xb0,psp,,,,,,'
p2266
ssbsg1587
I00
sba(issf_api
Word
p2267
(dp2268
g1832
I00
sg1833
V\u0938\u093e\u0924
p2269
sg1835
(issf_api
FeatureSet
p2270
(dp2271
g272
(dp2272
S'posn'
p2273
S'170'
p2274
sS'name'
p2275
S'\xe0\xa4\xb8\xe0\xa4\xbe\xe0\xa4\xa4'
p2276
sS'drel'
p2277
S'nmod__adj:\xe0\xa4\xb2\xe0\xa4\xbe\xe0\xa4\x87\xe0\xa4\xa8\xe0\xa5\x87\xe0\xa4\x82'
p2278
sS'chunktype'
p2279
S'child:NP6'
p2280
sS'af'
p2281
S'\xe0\xa4\xb8\xe0\xa4\xbe\xe0\xa4\xa4,num,any,any,,any,,'
p2282
ssbsg1566
I00
sg1569
I00
sg1580
Nsg1567
Nsg182
I5
sg168
I0
sg1853
Nsg1578
Nsg1854
S'QC'
p2283
sg269
(issf_api
FeatureSet
p2284
(dp2285
g272
(dp2286
S'posn'
p2287
S'170'
p2288
sS'name'
p2289
S'\xe0\xa4\xb8\xe0\xa4\xbe\xe0\xa4\xa4'
p2290
sS'af'
p2291
S'\xe0\xa4\xb8\xe0\xa4\xbe\xe0\xa4\xa4,num,any,any,,any,,'
p2292
ssbsg1587
I00
sba(issf_api
Word
p2293
(dp2294
g1832
I00
sg1833
V\u091f\u0947\u0932\u0940\u092b\u094b\u0928
p2295
sg1835
(issf_api
FeatureSet
p2296
(dp2297
g272
(dp2298
S'posn'
p2299
S'180'
p2300
sS'name'
p2301
S'\xe0\xa4\x9f\xe0\xa5\x87\xe0\xa4\xb2\xe0\xa5\x80\xe0\xa4\xab\xe0\xa5\x8b\xe0\xa4\xa8'
p2302
sS'drel'
p2303
S'pof__cn:\xe0\xa4\xb2\xe0\xa4\xbe\xe0\xa4\x87\xe0\xa4\xa8\xe0\xa5\x87\xe0\xa4\x82'
p2304
sS'chunktype'
p2305
S'child:NP6'
p2306
sS'af'
p2307
S'\xe0\xa4\x9f\xe0\xa5\x87\xe0\xa4\xb2\xe0\xa5\x80\xe0\xa4\xab\xe0\xa5\x8b\xe0\xa4\xa8,n,m,sg,3,d,0,0'
p2308
ssbsg1566
I00
sg1569
I00
sg1580
Nsg1567
Nsg182
I5
sg168
I0
sg1853
Nsg1578
Nsg1854
S'NNC'
p2309
sg269
(issf_api
FeatureSet
p2310
(dp2311
g272
(dp2312
S'posn'
p2313
S'180'
p2314
sS'name'
p2315
S'\xe0\xa4\x9f\xe0\xa5\x87\xe0\xa4\xb2\xe0\xa5\x80\xe0\xa4\xab\xe0\xa5\x8b\xe0\xa4\xa8'
p2316
sS'af'
p2317
S'\xe0\xa4\x9f\xe0\xa5\x87\xe0\xa4\xb2\xe0\xa5\x80\xe0\xa4\xab\xe0\xa5\x8b\xe0\xa4\xa8,n,m,sg,3,d,0,0'
p2318
ssbsg1587
I00
sba(issf_api
Word
p2319
(dp2320
g1832
I00
sg1833
V\u0932\u093e\u0907\u0928\u0947\u0902
p2321
sg1835
(issf_api
FeatureSet
p2322
(dp2323
g272
(dp2324
S'posn'
p2325
S'190'
p2326
sS'name'
p2327
S'\xe0\xa4\xb2\xe0\xa4\xbe\xe0\xa4\x87\xe0\xa4\xa8\xe0\xa5\x87\xe0\xa4\x82'
p2328
sS'af'
p2329
S'\xe0\xa4\xb2\xe0\xa4\xbe\xe0\xa4\x87\xe0\xa4\xa8,n,f,pl,3,d,0,0'
p2330
sS'chunkid'
p2331
S'NP6'
p2332
sS'drel'
p2333
S'k2:NULL'
p2334
sS'chunktype'
p2335
S'head:NP6'
p2336
ssbsg1566
I00
sg1569
I00
sg1580
Nsg1567
Nsg182
I5
sg168
I0
sg1853
Nsg1578
Nsg1854
S'NN'
p2337
sg269
(issf_api
FeatureSet
p2338
(dp2339
g272
(dp2340
S'posn'
p2341
S'190'
p2342
sS'name'
p2343
S'\xe0\xa4\xb2\xe0\xa4\xbe\xe0\xa4\x87\xe0\xa4\xa8\xe0\xa5\x87\xe0\xa4\x82'
p2344
sS'af'
p2345
S'\xe0\xa4\xb2\xe0\xa4\xbe\xe0\xa4\x87\xe0\xa4\xa8,n,f,pl,3,d,0,0'
p2346
ssbsg1587
I00
sba(issf_api
Word
p2347
(dp2348
g1832
I00
sg1833
V\u0935
sg1835
(issf_api
FeatureSet
p2349
(dp2350
g272
(dp2351
S'name'
p2352
S'NULL'
p2353
sS'dmrel'
p2354
S'ccof:\xe0\xa4\xb5'
p2355
sS'chunkid'
p2356
S'NULL__VGF'
p2357
sS'mtype'
p2358
S'gap'
p2359
sS'troot'
p2360
S'\xe0\xa4\xac\xe0\xa4\xbf\xe0\xa4\x9b\xe0\xa4\xbe'
p2361
sS'chunktype'
p2362
S'head:NULL__VGF'
p2363
ssbsg1566
I00
sg1569
I00
sg1580
Nsg1567
Nsg182
I6
sg168
I0
sg1853
Nsg1578
Nsg1854
S'CC'
p2364
sg269
(issf_api
FeatureSet
p2365
(dp2366
g272
(dp2367
S'posn'
p2368
S'200'
p2369
sS'name'
p2370
S'\xe0\xa4\xb5'
p2371
sS'af'
p2372
S'\xe0\xa4\xb5,avy,,,,,,'
p2373
ssbsg1587
I00
sba(issf_api
Word
p2374
(dp2375
g1832
I00
sg1833
V\u0938\u0940\u092e\u093e\u0935\u0930\u094d\u0924\u0940
p2376
sg1835
(issf_api
FeatureSet
p2377
(dp2378
g272
(dp2379
S'posn'
p2380
S'200'
p2381
sS'chunkid'
p2382
S'CCP'
p2383
sS'name'
p2384
S'\xe0\xa4\xb5'
p2385
sS'chunktype'
p2386
S'head:CCP'
p2387
sS'af'
p2388
S'\xe0\xa4\xb5,avy,,,,,,'
p2389
ssbsg1566
I00
sg1569
I00
sg1580
Nsg1567
Nsg182
I7
sg168
I0
sg1853
Nsg1578
Nsg1854
S'JJ'
p2390
sg269
(issf_api
FeatureSet
p2391
(dp2392
g272
(dp2393
S'posn'
p2394
S'210'
p2395
sS'name'
p2396
S'\xe0\xa4\xb8\xe0\xa5\x80\xe0\xa4\xae\xe0\xa4\xbe\xe0\xa4\xb5\xe0\xa4\xb0\xe0\xa5\x8d\xe0\xa4\xa4\xe0\xa5\x80'
p2397
sS'af'
p2398
S'\xe0\xa4\xb8\xe0\xa5\x80\xe0\xa4\xae\xe0\xa4\xbe\xe0\xa4\xb5\xe0\xa4\xb0\xe0\xa5\x8d\xe0\xa4\xa4\xe0\xa5\x80,adj,any,any,,o,,'
p2399
ssbsg1587
I00
sba(issf_api
Word
p2400
(dp2401
g1832
I00
sg1833
V\u091c\u093f\u0932\u0947
p2402
sg1835
(issf_api
FeatureSet
p2403
(dp2404
g272
(dp2405
S'posn'
p2406
S'210'
p2407
sS'name'
p2408
S'\xe0\xa4\xb8\xe0\xa5\x80\xe0\xa4\xae\xe0\xa4\xbe\xe0\xa4\xb5\xe0\xa4\xb0\xe0\xa5\x8d\xe0\xa4\xa4\xe0\xa5\x80'
p2409
sS'drel'
p2410
S'nmod__adj:\xe0\xa4\x9c\xe0\xa4\xbf\xe0\xa4\xb2\xe0\xa5\x87'
p2411
sS'chunktype'
p2412
S'child:NP7'
p2413
sS'af'
p2414
S'\xe0\xa4\xb8\xe0\xa5\x80\xe0\xa4\xae\xe0\xa4\xbe\xe0\xa4\xb5\xe0\xa4\xb0\xe0\xa5\x8d\xe0\xa4\xa4\xe0\xa5\x80,adj,any,any,,o,,'
p2415
ssbsg1566
I00
sg1569
I00
sg1580
Nsg1567
Nsg182
I7
sg168
I0
sg1853
Nsg1578
Nsg1854
S'NN'
p2416
sg269
(issf_api
FeatureSet
p2417
(dp2418
g272
(dp2419
S'posn'
p2420
S'220'
p2421
sS'name'
p2422
S'\xe0\xa4\x9c\xe0\xa4\xbf\xe0\xa4\xb2\xe0\xa5\x87'
p2423
sS'af'
p2424
S'\xe0\xa4\x9c\xe0\xa4\xbf\xe0\xa4\xb2\xe0\xa4\xbe,n,m,sg,3,o,0,0'
p2425
ssbsg1587
I00
sba(issf_api
Word
p2426
(dp2427
g1832
I00
sg1833
V\u0909\u0930\u0940
p2428
sg1835
(issf_api
FeatureSet
p2429
(dp2430
g272
(dp2431
S'posn'
p2432
S'220'
p2433
sS'name'
p2434
S'\xe0\xa4\x9c\xe0\xa4\xbf\xe0\xa4\xb2\xe0\xa5\x87'
p2435
sS'af'
p2436
S'\xe0\xa4\x9c\xe0\xa4\xbf\xe0\xa4\xb2\xe0\xa4\xbe,n,m,sg,3,o,0,0'
p2437
sS'chunkid'
p2438
S'NP7'
p2439
sS'drel'
p2440
S'nmod:\xe0\xa4\x89\xe0\xa4\xb0\xe0\xa5\x80'
p2441
sS'chunktype'
p2442
S'head:NP7'
p2443
ssbsg1566
I00
sg1569
I00
sg1580
Nsg1567
Nsg182
I8
sg168
I0
sg1853
Nsg1578
Nsg1854
S'NNP'
p2444
sg269
(issf_api
FeatureSet
p2445
(dp2446
g272
(dp2447
S'posn'
p2448
S'230'
p2449
sS'name'
p2450
S'\xe0\xa4\x89\xe0\xa4\xb0\xe0\xa5\x80'
p2451
sS'af'
p2452
S'\xe0\xa4\x89\xe0\xa4\xb0\xe0\xa5\x80,n,m,sg,3,o,0,0'
p2453
ssbsg1587
I00
sba(issf_api
Word
p2454
(dp2455
g1832
I00
sg1833
V\u0915\u0947
p2456
sg1835
(issf_api
FeatureSet
p2457
(dp2458
g272
(dp2459
S'posn'
p2460
S'230'
p2461
sS'name'
p2462
S'\xe0\xa4\x89\xe0\xa4\xb0\xe0\xa5\x80'
p2463
sS'af'
p2464
S'\xe0\xa4\x89\xe0\xa4\xb0\xe0\xa5\x80,n,m,sg,3,o,0_\xe0\xa4\x95\xe0\xa4\xbe,0'
p2465
sS'chunkid'
p2466
S'NP8'
p2467
sS'drel'
p2468
S'r6:\xe0\xa4\xb8\xe0\xa4\xb2\xe0\xa4\xbe\xe0\xa4\xae\xe0\xa4\xbe\xe0\xa4\xac\xe0\xa4\xbe\xe0\xa4\xa6'
p2469
sS'vpos'
p2470
S'vib_2'
p2471
sS'chunktype'
p2472
S'head:NP8'
p2473
ssbsg1566
I00
sg1569
I00
sg1580
Nsg1567
Nsg182
I8
sg168
I0
sg1853
Nsg1578
Nsg1854
S'PSP'
p2474
sg269
(issf_api
FeatureSet
p2475
(dp2476
g272
(dp2477
S'posn'
p2478
S'240'
p2479
sS'name'
p2480
S'\xe0\xa4\x95\xe0\xa5\x872'
p2481
sS'af'
p2482
S'\xe0\xa4\x95\xe0\xa4\xbe,psp,m,sg,,o,,'
p2483
ssbsg1587
I00
sba(issf_api
Word
p2484
(dp2485
g1832
I00
sg1833
V\u0938\u0932\u093e\u092e\u093e\u092c\u093e\u0926
p2486
sg1835
(issf_api
FeatureSet
p2487
(dp2488
g272
(dp2489
S'posn'
p2490
S'240'
p2491
sS'name'
p2492
S'\xe0\xa4\x95\xe0\xa5\x872'
p2493
sS'drel'
p2494
S'lwg__psp:\xe0\xa4\x89\xe0\xa4\xb0\xe0\xa5\x80'
p2495
sS'chunktype'
p2496
S'child:NP8'
p2497
sS'af'
p2498
S'\xe0\xa4\x95\xe0\xa4\xbe,psp,m,sg,,o,,'
p2499
ssbsg1566
I00
sg1569
I00
sg1580
Nsg1567
Nsg182
I9
sg168
I0
sg1853
Nsg1578
Nsg1854
S'NNP'
p2500
sg269
(issf_api
FeatureSet
p2501
(dp2502
g272
(dp2503
S'posn'
p2504
S'250'
p2505
sS'name'
p2506
S'\xe0\xa4\xb8\xe0\xa4\xb2\xe0\xa4\xbe\xe0\xa4\xae\xe0\xa4\xbe\xe0\xa4\xac\xe0\xa4\xbe\xe0\xa4\xa6'
p2507
sS'af'
p2508
S'\xe0\xa4\xb8\xe0\xa4\xb2\xe0\xa4\xbe\xe0\xa4\xae\xe0\xa4\xbe\xe0\xa4\xac\xe0\xa4\xbe\xe0\xa4\xa6,n,m,sg,3,o,0,0'
p2509
ssbsg1587
I00
sba(issf_api
Word
p2510
(dp2511
g1832
I00
sg1833
V\u092e\u0947\u0902
p2512
sg1835
(issf_api
FeatureSet
p2513
(dp2514
g272
(dp2515
S'posn'
p2516
S'250'
p2517
sS'name'
p2518
S'\xe0\xa4\xb8\xe0\xa4\xb2\xe0\xa4\xbe\xe0\xa4\xae\xe0\xa4\xbe\xe0\xa4\xac\xe0\xa4\xbe\xe0\xa4\xa6'
p2519
sS'af'
p2520
S'\xe0\xa4\xb8\xe0\xa4\xb2\xe0\xa4\xbe\xe0\xa4\xae\xe0\xa4\xbe\xe0\xa4\xac\xe0\xa4\xbe\xe0\xa4\xa6,n,m,sg,3,o,0_\xe0\xa4\xae\xe0\xa5\x87\xe0\xa4\x82,0'
p2521
sS'chunkid'
p2522
S'NP9'
p2523
sS'drel'
p2524
S'k7p:\xe0\xa4\xac\xe0\xa4\xbf\xe0\xa4\x9b\xe0\xa4\xbe\xe0\xa4\x88'
p2525
sS'vpos'
p2526
S'vib_2'
p2527
sS'chunktype'
p2528
S'head:NP9'
p2529
ssbsg1566
I00
sg1569
I00
sg1580
Nsg1567
Nsg182
I9
sg168
I0
sg1853
Nsg1578
Nsg1854
S'PSP'
p2530
sg269
(issf_api
FeatureSet
p2531
(dp2532
g272
(dp2533
S'posn'
p2534
S'260'
p2535
sS'name'
p2536
S'\xe0\xa4\xae\xe0\xa5\x87\xe0\xa4\x82'
p2537
sS'af'
p2538
S'\xe0\xa4\xae\xe0\xa5\x87\xe0\xa4\x82,psp,,,,,,'
p2539
ssbsg1587
I00
sba(issf_api
Word
p2540
(dp2541
g1832
I00
sg1833
V\u0926\u0938
p2542
sg1835
(issf_api
FeatureSet
p2543
(dp2544
g272
(dp2545
S'posn'
p2546
S'260'
p2547
sS'name'
p2548
S'\xe0\xa4\xae\xe0\xa5\x87\xe0\xa4\x82'
p2549
sS'drel'
p2550
S'lwg__psp:\xe0\xa4\xb8\xe0\xa4\xb2\xe0\xa4\xbe\xe0\xa4\xae\xe0\xa4\xbe\xe0\xa4\xac\xe0\xa4\xbe\xe0\xa4\xa6'
p2551
sS'chunktype'
p2552
S'child:NP9'
p2553
sS'af'
p2554
S'\xe0\xa4\xae\xe0\xa5\x87\xe0\xa4\x82,psp,,,,,,'
p2555
ssbsg1566
I00
sg1569
I00
sg1580
Nsg1567
Nsg182
I10
sg168
I0
sg1853
Nsg1578
Nsg1854
S'QC'
p2556
sg269
(issf_api
FeatureSet
p2557
(dp2558
g272
(dp2559
S'posn'
p2560
S'270'
p2561
sS'name'
p2562
S'\xe0\xa4\xa6\xe0\xa4\xb8'
p2563
sS'af'
p2564
S'\xe0\xa4\xa6\xe0\xa4\xb8,num,any,any,,any,,'
p2565
ssbsg1587
I00
sba(issf_api
Word
p2566
(dp2567
g1832
I00
sg1833
V\u0932\u093e\u0907\u0928\u0947\u0902
p2568
sg1835
(issf_api
FeatureSet
p2569
(dp2570
g272
(dp2571
S'posn'
p2572
S'270'
p2573
sS'name'
p2574
S'\xe0\xa4\xa6\xe0\xa4\xb8'
p2575
sS'drel'
p2576
S'nmod__adj:\xe0\xa4\xb2\xe0\xa4\xbe\xe0\xa4\x87\xe0\xa4\xa8\xe0\xa5\x87\xe0\xa4\x822'
p2577
sS'chunktype'
p2578
S'child:NP10'
p2579
sS'af'
p2580
S'\xe0\xa4\xa6\xe0\xa4\xb8,num,any,any,,any,,'
p2581
ssbsg1566
I00
sg1569
I00
sg1580
Nsg1567
Nsg182
I10
sg168
I0
sg1853
Nsg1578
Nsg1854
S'NN'
p2582
sg269
(issf_api
FeatureSet
p2583
(dp2584
g272
(dp2585
S'posn'
p2586
S'280'
p2587
sS'name'
p2588
S'\xe0\xa4\xb2\xe0\xa4\xbe\xe0\xa4\x87\xe0\xa4\xa8\xe0\xa5\x87\xe0\xa4\x822'
p2589
sS'af'
p2590
S'\xe0\xa4\xb2\xe0\xa4\xbe\xe0\xa4\x87\xe0\xa4\xa8,n,f,pl,3,d,0,0'
p2591
ssbsg1587
I00
sba(issf_api
Word
p2592
(dp2593
g1832
I00
sg1833
V\u092c\u093f\u091b\u093e\u0908
p2594
sg1835
(issf_api
FeatureSet
p2595
(dp2596
g272
(dp2597
S'posn'
p2598
S'280'
p2599
sS'name'
p2600
S'\xe0\xa4\xb2\xe0\xa4\xbe\xe0\xa4\x87\xe0\xa4\xa8\xe0\xa5\x87\xe0\xa4\x822'
p2601
sS'af'
p2602
S'\xe0\xa4\xb2\xe0\xa4\xbe\xe0\xa4\x87\xe0\xa4\xa8,n,f,pl,3,d,0,0'
p2603
sS'chunkid'
p2604
S'NP10'
p2605
sS'drel'
p2606
S'k2:\xe0\xa4\xac\xe0\xa4\xbf\xe0\xa4\x9b\xe0\xa4\xbe\xe0\xa4\x88'
p2607
sS'chunktype'
p2608
S'head:NP10'
p2609
ssbsg1566
I00
sg1569
I00
sg1580
Nsg1567
Nsg182
I11
sg168
I0
sg1853
Nsg1578
Nsg1854
S'VM'
p2610
sg269
(issf_api
FeatureSet
p2611
(dp2612
g272
(dp2613
S'posn'
p2614
S'290'
p2615
sS'name'
p2616
S'\xe0\xa4\xac\xe0\xa4\xbf\xe0\xa4\x9b\xe0\xa4\xbe\xe0\xa4\x88'
p2617
sS'af'
p2618
S'\xe0\xa4\xac\xe0\xa4\xbf\xe0\xa4\x9b\xe0\xa4\xbe,v,f,pl,any,,\xe0\xa4\xaf\xe0\xa4\xbe,yA'
p2619
ssbsg1587
I00
sba(issf_api
Word
p2620
(dp2621
g1832
I00
sg1833
V\u0939\u0948\u0902
p2622
sg1835
(issf_api
FeatureSet
p2623
(dp2624
g272
(dp2625
S'posn'
p2626
S'290'
p2627
sS'name'
p2628
S'\xe0\xa4\xac\xe0\xa4\xbf\xe0\xa4\x9b\xe0\xa4\xbe\xe0\xa4\x88'
p2629
sS'af'
p2630
S'\xe0\xa4\xac\xe0\xa4\xbf\xe0\xa4\x9b\xe0\xa4\xbe,v,f,pl,3,,\xe0\xa4\xaf\xe0\xa4\xbe_\xe0\xa4\xb9\xe0\xa5\x88,yA'
p2631
sS'chunkid'
p2632
S'VGF'
p2633
sS'stype'
p2634
S'declarative'
p2635
sS'drel'
p2636
S'ccof:\xe0\xa4\xb5'
p2637
sS'voicetype'
p2638
S'active'
p2639
sS'vpos'
p2640
S'tam_2'
p2641
sS'chunktype'
p2642
S'head:VGF'
p2643
ssbsg1566
I00
sg1569
I00
sg1580
Nsg1567
Nsg182
I11
sg168
I0
sg1853
Nsg1578
Nsg1854
S'VAUX'
p2644
sg269
(issf_api
FeatureSet
p2645
(dp2646
g272
(dp2647
S'posn'
p2648
S'300'
p2649
sS'name'
p2650
S'\xe0\xa4\xb9\xe0\xa5\x88\xe0\xa4\x82'
p2651
sS'af'
p2652
S'\xe0\xa4\xb9\xe0\xa5\x88,v,any,pl,3,,\xe0\xa4\xb9\xe0\xa5\x88,hE'
p2653
ssbsg1587
I00
sba(issf_api
Word
p2654
(dp2655
g1832
I00
sg1833
V\u0964
sg1835
(issf_api
FeatureSet
p2656
(dp2657
g272
(dp2658
S'posn'
p2659
S'300'
p2660
sS'name'
p2661
S'\xe0\xa4\xb9\xe0\xa5\x88\xe0\xa4\x82'
p2662
sS'drel'
p2663
S'lwg__vaux:\xe0\xa4\xac\xe0\xa4\xbf\xe0\xa4\x9b\xe0\xa4\xbe\xe0\xa4\x88'
p2664
sS'chunktype'
p2665
S'child:VGF'
p2666
sS'af'
p2667
S'\xe0\xa4\xb9\xe0\xa5\x88,v,any,pl,3,,\xe0\xa4\xb9\xe0\xa5\x88,hE'
p2668
ssbsg1566
I00
sg1569
I00
sg1580
Nsg1567
Nsg182
I12
sg168
I0
sg1853
Nsg1578
Nsg1854
S'SYM'
p2669
sg269
(issf_api
FeatureSet
p2670
(dp2671
g272
(dp2672
S'posn'
p2673
S'310'
p2674
sS'name'
p2675
S'\xe0\xa5\xa4'
p2676
sS'af'
p2677
S'\xe0\xa5\xa4,punc,,,,,,'
p2678
ssbsg1587
I00
sba(issf_api
Word
p2679
(dp2680
g1832
I00
sg1833
V\u092c\u0940\u090f\u0938\u090f\u0928\u090f\u0932
p2681
sg1835
(issf_api
FeatureSet
p2682
(dp2683
g272
(dp2684
S'posn'
p2685
S'10'
p2686
sS'name'
p2687
S'\xe0\xa4\xac\xe0\xa5\x80\xe0\xa4\x8f\xe0\xa4\xb8\xe0\xa4\x8f\xe0\xa4\xa8\xe0\xa4\x8f\xe0\xa4\xb2'
p2688
sS'af'
p2689
S'\xe0\xa4\xac\xe0\xa5\x80\xe0\xa4\x8f\xe0\xa4\xb8\xe0\xa4\x8f\xe0\xa4\xa8\xe0\xa4\x8f\xe0\xa4\xb2,n,m,sg,3,o,0_\xe0\xa4\x95\xe0\xa4\xbe,0'
p2690
sS'chunkid'
p2691
S'NP'
p2692
sS'drel'
p2693
S'r6:\xe0\xa4\x95\xe0\xa4\xb6\xe0\xa5\x8d\xe0\xa4\xae\xe0\xa5\x80\xe0\xa4\xb0'
p2694
sS'vpos'
p2695
S'vib_2'
p2696
sS'chunktype'
p2697
S'head:NP'
p2698
ssbsg1566
I00
sg1569
I00
sg1580
Nsg1567
Nsg182
I0
sg168
I1
sg1853
Nsg1578
Nsg1854
S'NNP'
p2699
sg269
(issf_api
FeatureSet
p2700
(dp2701
g272
(dp2702
S'posn'
p2703
S'10'
p2704
sS'name'
p2705
S'\xe0\xa4\xac\xe0\xa5\x80\xe0\xa4\x8f\xe0\xa4\xb8\xe0\xa4\x8f\xe0\xa4\xa8\xe0\xa4\x8f\xe0\xa4\xb2'
p2706
sS'af'
p2707
S'\xe0\xa4\xac\xe0\xa5\x80\xe0\xa4\x8f\xe0\xa4\xb8\xe0\xa4\x8f\xe0\xa4\xa8\xe0\xa4\x8f\xe0\xa4\xb2,n,m,sg,3,o,0,0'
p2708
ssbsg1587
I00
sba(issf_api
Word
p2709
(dp2710
g1832
I00
sg1833
V\u0915\u0947
p2711
sg1835
(issf_api
FeatureSet
p2712
(dp2713
g272
(dp2714
S'posn'
p2715
S'20'
p2716
sS'name'
p2717
S'\xe0\xa4\x95\xe0\xa5\x87'
p2718
sS'drel'
p2719
S'lwg__psp:\xe0\xa4\xac\xe0\xa5\x80\xe0\xa4\x8f\xe0\xa4\xb8\xe0\xa4\x8f\xe0\xa4\xa8\xe0\xa4\x8f\xe0\xa4\xb2'
p2720
sS'chunktype'
p2721
S'child:NP'
p2722
sS'af'
p2723
S'\xe0\xa4\x95\xe0\xa4\xbe,psp,m,sg,,o,,'
p2724
ssbsg1566
I00
sg1569
I00
sg1580
Nsg1567
Nsg182
I0
sg168
I1
sg1853
Nsg1578
Nsg1854
S'PSP'
p2725
sg269
(issf_api
FeatureSet
p2726
(dp2727
g272
(dp2728
S'posn'
p2729
S'20'
p2730
sS'name'
p2731
S'\xe0\xa4\x95\xe0\xa5\x87'
p2732
sS'af'
p2733
S'\xe0\xa4\x95\xe0\xa4\xbe,psp,m,sg,,o,,'
p2734
ssbsg1587
I00
sba(issf_api
Word
p2735
(dp2736
g1832
I00
sg1833
V\u0909\u0924\u094d\u0924\u0930\u0940
p2737
sg1835
(issf_api
FeatureSet
p2738
(dp2739
g272
(dp2740
S'posn'
p2741
S'30'
p2742
sS'name'
p2743
S'\xe0\xa4\x89\xe0\xa4\xa4\xe0\xa5\x8d\xe0\xa4\xa4\xe0\xa4\xb0\xe0\xa5\x80'
p2744
sS'drel'
p2745
S'nmod__adj:\xe0\xa4\x95\xe0\xa4\xb6\xe0\xa5\x8d\xe0\xa4\xae\xe0\xa5\x80\xe0\xa4\xb0'
p2746
sS'chunktype'
p2747
S'child:NP2'
p2748
sS'af'
p2749
S'\xe0\xa4\x89\xe0\xa4\xa4\xe0\xa5\x8d\xe0\xa4\xa4\xe0\xa4\xb0\xe0\xa5\x80,adj,any,any,,o,,'
p2750
ssbsg1566
I00
sg1569
I00
sg1580
Nsg1567
Nsg182
I1
sg168
I1
sg1853
Nsg1578
Nsg1854
S'JJ'
p2751
sg269
(issf_api
FeatureSet
p2752
(dp2753
g272
(dp2754
S'posn'
p2755
S'30'
p2756
sS'name'
p2757
S'\xe0\xa4\x89\xe0\xa4\xa4\xe0\xa5\x8d\xe0\xa4\xa4\xe0\xa4\xb0\xe0\xa5\x80'
p2758
sS'af'
p2759
S'\xe0\xa4\x89\xe0\xa4\xa4\xe0\xa5\x8d\xe0\xa4\xa4\xe0\xa4\xb0\xe0\xa5\x80,adj,any,any,,o,,'
p2760
ssbsg1587
I00
sba(issf_api
Word
p2761
(dp2762
g1832
I00
sg1833
V\u0915\u0936\u094d\u092e\u0940\u0930
p2763
sg1835
(issf_api
FeatureSet
p2764
(dp2765
g272
(dp2766
S'posn'
p2767
S'40'
p2768
sS'name'
p2769
S'\xe0\xa4\x95\xe0\xa4\xb6\xe0\xa5\x8d\xe0\xa4\xae\xe0\xa5\x80\xe0\xa4\xb0'
p2770
sS'af'
p2771
S'\xe0\xa4\x95\xe0\xa4\xb6\xe0\xa5\x8d\xe0\xa4\xae\xe0\xa5\x80\xe0\xa4\xb0,n,m,sg,3,o,0_\xe0\xa4\x95\xe0\xa4\xbe,0'
p2772
sS'chunkid'
p2773
S'NP2'
p2774
sS'drel'
p2775
S'r6:\xe0\xa4\x85\xe0\xa4\xad\xe0\xa4\xbf\xe0\xa4\xaf\xe0\xa4\x82\xe0\xa4\xa4\xe0\xa4\xbe'
p2776
sS'vpos'
p2777
S'vib_3'
p2778
sS'chunktype'
p2779
S'head:NP2'
p2780
ssbsg1566
I00
sg1569
I00
sg1580
Nsg1567
Nsg182
I1
sg168
I1
sg1853
Nsg1578
Nsg1854
S'NNP'
p2781
sg269
(issf_api
FeatureSet
p2782
(dp2783
g272
(dp2784
S'posn'
p2785
S'40'
p2786
sS'name'
p2787
S'\xe0\xa4\x95\xe0\xa4\xb6\xe0\xa5\x8d\xe0\xa4\xae\xe0\xa5\x80\xe0\xa4\xb0'
p2788
sS'af'
p2789
S'\xe0\xa4\x95\xe0\xa4\xb6\xe0\xa5\x8d\xe0\xa4\xae\xe0\xa5\x80\xe0\xa4\xb0,n,m,sg,3,o,0,0'
p2790
ssbsg1587
I00
sba(issf_api
Word
p2791
(dp2792
g1832
I00
sg1833
V\u0915\u0947
p2793
sg1835
(issf_api
FeatureSet
p2794
(dp2795
g272
(dp2796
S'posn'
p2797
S'50'
p2798
sS'name'
p2799
S'\xe0\xa4\x95\xe0\xa5\x872'
p2800
sS'drel'
p2801
S'lwg__psp:\xe0\xa4\x95\xe0\xa4\xb6\xe0\xa5\x8d\xe0\xa4\xae\xe0\xa5\x80\xe0\xa4\xb0'
p2802
sS'chunktype'
p2803
S'child:NP2'
p2804
sS'af'
p2805
S'\xe0\xa4\x95\xe0\xa4\xbe,psp,m,sg,,o,,'
p2806
ssbsg1566
I00
sg1569
I00
sg1580
Nsg1567
Nsg182
I1
sg168
I1
sg1853
Nsg1578
Nsg1854
S'PSP'
p2807
sg269
(issf_api
FeatureSet
p2808
(dp2809
g272
(dp2810
S'posn'
p2811
S'50'
p2812
sS'name'
p2813
S'\xe0\xa4\x95\xe0\xa5\x872'
p2814
sS'af'
p2815
S'\xe0\xa4\x95\xe0\xa4\xbe,psp,m,sg,,o,,'
p2816
ssbsg1587
I00
sba(issf_api
Word
p2817
(dp2818
g1832
I00
sg1833
V\u092e\u0902\u0921\u0932\u0940\u092f
p2819
sg1835
(issf_api
FeatureSet
p2820
(dp2821
g272
(dp2822
S'posn'
p2823
S'60'
p2824
sS'name'
p2825
S'\xe0\xa4\xae\xe0\xa4\x82\xe0\xa4\xa1\xe0\xa4\xb2\xe0\xa5\x80\xe0\xa4\xaf'
p2826
sS'drel'
p2827
S'nmod__adj:\xe0\xa4\x85\xe0\xa4\xad\xe0\xa4\xbf\xe0\xa4\xaf\xe0\xa4\x82\xe0\xa4\xa4\xe0\xa4\xbe'
p2828
sS'chunktype'
p2829
S'child:NP3'
p2830
sS'af'
p2831
S'\xe0\xa4\xae\xe0\xa4\x82\xe0\xa4\xa1\xe0\xa4\xb2\xe0\xa5\x80\xe0\xa4\xaf,adj,any,any,,o,,'
p2832
ssbsg1566
I00
sg1569
I00
sg1580
Nsg1567
Nsg182
I2
sg168
I1
sg1853
Nsg1578
Nsg1854
S'JJ'
p2833
sg269
(issf_api
FeatureSet
p2834
(dp2835
g272
(dp2836
S'posn'
p2837
S'60'
p2838
sS'name'
p2839
S'\xe0\xa4\xae\xe0\xa4\x82\xe0\xa4\xa1\xe0\xa4\xb2\xe0\xa5\x80\xe0\xa4\xaf'
p2840
sS'af'
p2841
S'\xe0\xa4\xae\xe0\xa4\x82\xe0\xa4\xa1\xe0\xa4\xb2\xe0\xa5\x80\xe0\xa4\xaf,adj,any,any,,o,,'
p2842
ssbsg1587
I00
sba(issf_api
Word
p2843
(dp2844
g1832
I00
sg1833
V\u0905\u092d\u093f\u092f\u0902\u0924\u093e
p2845
sg1835
(issf_api
FeatureSet
p2846
(dp2847
g272
(dp2848
S'posn'
p2849
S'70'
p2850
sS'name'
p2851
S'\xe0\xa4\x85\xe0\xa4\xad\xe0\xa4\xbf\xe0\xa4\xaf\xe0\xa4\x82\xe0\xa4\xa4\xe0\xa4\xbe'
p2852
sS'af'
p2853
S'\xe0\xa4\x85\xe0\xa4\xad\xe0\xa4\xbf\xe0\xa4\xaf\xe0\xa4\x82\xe0\xa4\xa4\xe0\xa4\xbe,n,m,sg,3,o,0,0'
p2854
sS'chunkid'
p2855
S'NP3'
p2856
sS'drel'
p2857
S'nmod:\xe0\xa4\xb5\xe0\xa4\xb0\xe0\xa5\x8d\xe0\xa4\xae\xe0\xa4\xbe'
p2858
sS'chunktype'
p2859
S'head:NP3'
p2860
ssbsg1566
I00
sg1569
I00
sg1580
Nsg1567
Nsg182
I2
sg168
I1
sg1853
Nsg1578
Nsg1854
S'NN'
p2861
sg269
(issf_api
FeatureSet
p2862
(dp2863
g272
(dp2864
S'posn'
p2865
S'70'
p2866
sS'name'
p2867
S'\xe0\xa4\x85\xe0\xa4\xad\xe0\xa4\xbf\xe0\xa4\xaf\xe0\xa4\x82\xe0\xa4\xa4\xe0\xa4\xbe'
p2868
sS'af'
p2869
S'\xe0\xa4\x85\xe0\xa4\xad\xe0\xa4\xbf\xe0\xa4\xaf\xe0\xa4\x82\xe0\xa4\xa4\xe0\xa4\xbe,n,m,sg,3,o,0,0'
p2870
ssbsg1587
I00
sba(issf_api
Word
p2871
(dp2872
g1832
I00
sg1833
V\u0930\u093e\u0915\u0947\u0936
p2873
sg1835
(issf_api
FeatureSet
p2874
(dp2875
g272
(dp2876
S'posn'
p2877
S'80'
p2878
sS'name'
p2879
S'\xe0\xa4\xb0\xe0\xa4\xbe\xe0\xa4\x95\xe0\xa5\x87\xe0\xa4\xb6'
p2880
sS'drel'
p2881
S'pof__cn:\xe0\xa4\xb5\xe0\xa4\xb0\xe0\xa5\x8d\xe0\xa4\xae\xe0\xa4\xbe'
p2882
sS'chunktype'
p2883
S'child:NP4'
p2884
sS'af'
p2885
S'\xe0\xa4\xb0\xe0\xa4\xbe\xe0\xa4\x95\xe0\xa5\x87\xe0\xa4\xb6,n,m,sg,3,d,0,0'
p2886
ssbsg1566
I00
sg1569
I00
sg1580
Nsg1567
Nsg182
I3
sg168
I1
sg1853
Nsg1578
Nsg1854
S'NNPC'
p2887
sg269
(issf_api
FeatureSet
p2888
(dp2889
g272
(dp2890
S'posn'
p2891
S'80'
p2892
sS'name'
p2893
S'\xe0\xa4\xb0\xe0\xa4\xbe\xe0\xa4\x95\xe0\xa5\x87\xe0\xa4\xb6'
p2894
sS'af'
p2895
S'\xe0\xa4\xb0\xe0\xa4\xbe\xe0\xa4\x95\xe0\xa5\x87\xe0\xa4\xb6,n,m,sg,3,d,0,0'
p2896
ssbsg1587
I00
sba(issf_api
Word
p2897
(dp2898
g1832
I00
sg1833
V\u0935\u0930\u094d\u092e\u093e
p2899
sg1835
(issf_api
FeatureSet
p2900
(dp2901
g272
(dp2902
S'posn'
p2903
S'90'
p2904
sS'name'
p2905
S'\xe0\xa4\xb5\xe0\xa4\xb0\xe0\xa5\x8d\xe0\xa4\xae\xe0\xa4\xbe'
p2906
sS'af'
p2907
S'\xe0\xa4\xb5\xe0\xa4\xb0\xe0\xa5\x8d\xe0\xa4\xae\xe0\xa4\xbe,n,any,sg,3,o,0_\xe0\xa4\xa8\xe0\xa5\x87,0'
p2908
sS'chunkid'
p2909
S'NP4'
p2910
sS'drel'
p2911
S'k1:\xe0\xa4\xac\xe0\xa4\xa4\xe0\xa4\xbe\xe0\xa4\xaf\xe0\xa4\xbe'
p2912
sS'vpos'
p2913
S'vib_3'
p2914
sS'chunktype'
p2915
S'head:NP4'
p2916
ssbsg1566
I00
sg1569
I00
sg1580
Nsg1567
Nsg182
I3
sg168
I1
sg1853
Nsg1578
Nsg1854
S'NNP'
p2917
sg269
(issf_api
FeatureSet
p2918
(dp2919
g272
(dp2920
S'posn'
p2921
S'90'
p2922
sS'name'
p2923
S'\xe0\xa4\xb5\xe0\xa4\xb0\xe0\xa5\x8d\xe0\xa4\xae\xe0\xa4\xbe'
p2924
sS'af'
p2925
S'\xe0\xa4\xb5\xe0\xa4\xb0\xe0\xa5\x8d\xe0\xa4\xae\xe0\xa4\xbe,n,any,sg,3,o,0,0'
p2926
ssbsg1587
I00
sba(issf_api
Word
p2927
(dp2928
g1832
I00
sg1833
V\u0928\u0947
p2929
sg1835
(issf_api
FeatureSet
p2930
(dp2931
g272
(dp2932
S'posn'
p2933
S'100'
p2934
sS'name'
p2935
S'\xe0\xa4\xa8\xe0\xa5\x87'
p2936
sS'drel'
p2937
S'lwg__psp:\xe0\xa4\xb5\xe0\xa4\xb0\xe0\xa5\x8d\xe0\xa4\xae\xe0\xa4\xbe'
p2938
sS'chunktype'
p2939
S'child:NP4'
p2940
sS'af'
p2941
S'\xe0\xa4\xa8\xe0\xa5\x87,psp,,,,,,'
p2942
ssbsg1566
I00
sg1569
I00
sg1580
Nsg1567
Nsg182
I3
sg168
I1
sg1853
Nsg1578
Nsg1854
S'PSP'
p2943
sg269
(issf_api
FeatureSet
p2944
(dp2945
g272
(dp2946
S'posn'
p2947
S'100'
p2948
sS'name'
p2949
S'\xe0\xa4\xa8\xe0\xa5\x87'
p2950
sS'af'
p2951
S'\xe0\xa4\xa8\xe0\xa5\x87,psp,,,,,,'
p2952
ssbsg1587
I00
sba(issf_api
Word
p2953
(dp2954
g1832
I00
sg1833
V\u092c\u0924\u093e\u092f\u093e
p2955
sg1835
(issf_api
FeatureSet
p2956
(dp2957
g272
(dp2958
S'posn'
p2959
S'110'
p2960
sS'name'
p2961
S'\xe0\xa4\xac\xe0\xa4\xa4\xe0\xa4\xbe\xe0\xa4\xaf\xe0\xa4\xbe'
p2962
sS'af'
p2963
S'\xe0\xa4\xac\xe0\xa4\xa4\xe0\xa4\xbe,v,m,sg,any,,\xe0\xa4\xaf\xe0\xa4\xbe,yA'
p2964
sS'chunkid'
p2965
S'VGF'
p2966
sS'chunktype'
p2967
S'head:VGF'
p2968
sS'voicetype'
p2969
S'active'
p2970
sS'stype'
p2971
S'declarative'
p2972
ssbsg1566
I00
sg1569
I00
sg1580
Nsg1567
Nsg182
I4
sg168
I1
sg1853
Nsg1578
Nsg1854
S'VM'
p2973
sg269
(issf_api
FeatureSet
p2974
(dp2975
g272
(dp2976
S'posn'
p2977
S'110'
p2978
sS'name'
p2979
S'\xe0\xa4\xac\xe0\xa4\xa4\xe0\xa4\xbe\xe0\xa4\xaf\xe0\xa4\xbe'
p2980
sS'af'
p2981
S'\xe0\xa4\xac\xe0\xa4\xa4\xe0\xa4\xbe,v,m,sg,any,,\xe0\xa4\xaf\xe0\xa4\xbe,yA'
p2982
ssbsg1587
I00
sba(issf_api
Word
p2983
(dp2984
g1832
I00
sg1833
V\u0915\u093f
p2985
sg1835
(issf_api
FeatureSet
p2986
(dp2987
g272
(dp2988
S'posn'
p2989
S'120'
p2990
sS'name'
p2991
S'\xe0\xa4\x95\xe0\xa4\xbf'
p2992
sS'af'
p2993
S'\xe0\xa4\x95\xe0\xa4\xbf,avy,,,,,,'
p2994
sS'chunkid'
p2995
S'CCP'
p2996
sS'drel'
p2997
S'k2:\xe0\xa4\xac\xe0\xa4\xa4\xe0\xa4\xbe\xe0\xa4\xaf\xe0\xa4\xbe'
p2998
sS'chunktype'
p2999
S'head:CCP'
p3000
ssbsg1566
I00
sg1569
I00
sg1580
Nsg1567
Nsg182
I5
sg168
I1
sg1853
Nsg1578
Nsg1854
S'CC'
p3001
sg269
(issf_api
FeatureSet
p3002
(dp3003
g272
(dp3004
S'posn'
p3005
S'120'
p3006
sS'name'
p3007
S'\xe0\xa4\x95\xe0\xa4\xbf'
p3008
sS'af'
p3009
S'\xe0\xa4\x95\xe0\xa4\xbf,avy,,,,,,'
p3010
ssbsg1587
I00
sba(issf_api
Word
p3011
(dp3012
g1832
I00
sg1833
V\u091c\u092e\u094d\u092e\u0942
p3013
sg1835
(issf_api
FeatureSet
p3014
(dp3015
g272
(dp3016
S'posn'
p3017
S'130'
p3018
sS'name'
p3019
S'\xe0\xa4\x9c\xe0\xa4\xae\xe0\xa5\x8d\xe0\xa4\xae\xe0\xa5\x82'
p3020
sS'drel'
p3021
S'pof__cn:\xe0\xa4\x95\xe0\xa4\xb6\xe0\xa5\x8d\xe0\xa4\xae\xe0\xa5\x80\xe0\xa4\xb02'
p3022
sS'chunktype'
p3023
S'child:NP5'
p3024
sS'af'
p3025
S'\xe0\xa4\x9c\xe0\xa4\xae\xe0\xa5\x8d\xe0\xa4\xae\xe0\xa5\x82,n,m,sg,3,d,0,0'
p3026
ssbsg1566
I00
sg1569
I00
sg1580
Nsg1567
Nsg182
I6
sg168
I1
sg1853
Nsg1578
Nsg1854
S'NNPC'
p3027
sg269
(issf_api
FeatureSet
p3028
(dp3029
g272
(dp3030
S'posn'
p3031
S'130'
p3032
sS'name'
p3033
S'\xe0\xa4\x9c\xe0\xa4\xae\xe0\xa5\x8d\xe0\xa4\xae\xe0\xa5\x82'
p3034
sS'af'
p3035
S'\xe0\xa4\x9c\xe0\xa4\xae\xe0\xa5\x8d\xe0\xa4\xae\xe0\xa5\x82,n,m,sg,3,d,0,0'
p3036
ssbsg1587
I00
sba(issf_api
Word
p3037
(dp3038
g1832
I00
sg1833
V\u0915\u0936\u094d\u092e\u0940\u0930
p3039
sg1835
(issf_api
FeatureSet
p3040
(dp3041
g272
(dp3042
S'posn'
p3043
S'140'
p3044
sS'name'
p3045
S'\xe0\xa4\x95\xe0\xa4\xb6\xe0\xa5\x8d\xe0\xa4\xae\xe0\xa5\x80\xe0\xa4\xb02'
p3046
sS'af'
p3047
S'\xe0\xa4\x95\xe0\xa4\xb6\xe0\xa5\x8d\xe0\xa4\xae\xe0\xa5\x80\xe0\xa4\xb0,n,m,sg,3,o,0,0'
p3048
sS'chunkid'
p3049
S'NP5'
p3050
sS'drel'
p3051
S'ccof:\xe0\xa4\x94\xe0\xa4\xb0'
p3052
sS'chunktype'
p3053
S'head:NP5'
p3054
ssbsg1566
I00
sg1569
I00
sg1580
Nsg1567
Nsg182
I6
sg168
I1
sg1853
Nsg1578
Nsg1854
S'NNP'
p3055
sg269
(issf_api
FeatureSet
p3056
(dp3057
g272
(dp3058
S'posn'
p3059
S'140'
p3060
sS'name'
p3061
S'\xe0\xa4\x95\xe0\xa4\xb6\xe0\xa5\x8d\xe0\xa4\xae\xe0\xa5\x80\xe0\xa4\xb02'
p3062
sS'af'
p3063
S'\xe0\xa4\x95\xe0\xa4\xb6\xe0\xa5\x8d\xe0\xa4\xae\xe0\xa5\x80\xe0\xa4\xb0,n,m,sg,3,o,0,0'
p3064
ssbsg1587
I00
sba(issf_api
Word
p3065
(dp3066
g1832
I00
sg1833
V\u0914\u0930
p3067
sg1835
(issf_api
FeatureSet
p3068
(dp3069
g272
(dp3070
S'posn'
p3071
S'150'
p3072
sS'name'
p3073
S'\xe0\xa4\x94\xe0\xa4\xb0'
p3074
sS'af'
p3075
S'\xe0\xa4\x94\xe0\xa4\xb0,avy,,,,,,'
p3076
sS'chunkid'
p3077
S'CCP2'
p3078
sS'drel'
p3079
S'r6:\xe0\xa4\xaf\xe0\xa4\xbe\xe0\xa4\xa4\xe0\xa5\x8d\xe0\xa4\xb0\xe0\xa4\xbf\xe0\xa4\xaf\xe0\xa5\x8b\xe0\xa4\x82'
p3080
sS'chunktype'
p3081
S'head:CCP2'
p3082
ssbsg1566
I00
sg1569
I00
sg1580
Nsg1567
Nsg182
I7
sg168
I1
sg1853
Nsg1578
Nsg1854
S'CC'
p3083
sg269
(issf_api
FeatureSet
p3084
(dp3085
g272
(dp3086
S'posn'
p3087
S'150'
p3088
sS'name'
p3089
S'\xe0\xa4\x94\xe0\xa4\xb0'
p3090
sS'af'
p3091
S'\xe0\xa4\x94\xe0\xa4\xb0,avy,,,,,,'
p3092
ssbsg1587
I00
sba(issf_api
Word
p3093
(dp3094
g1832
I00
sg1833
V\u092a\u093e\u0915\u093f\u0938\u094d\u0924\u093e\u0928
p3095
sg1835
(issf_api
FeatureSet
p3096
(dp3097
g272
(dp3098
S'posn'
p3099
S'160'
p3100
sS'name'
p3101
S'\xe0\xa4\xaa\xe0\xa4\xbe\xe0\xa4\x95\xe0\xa4\xbf\xe0\xa4\xb8\xe0\xa5\x8d\xe0\xa4\xa4\xe0\xa4\xbe\xe0\xa4\xa8'
p3102
sS'af'
p3103
S'\xe0\xa4\xaa\xe0\xa4\xbe\xe0\xa4\x95\xe0\xa4\xbf\xe0\xa4\xb8\xe0\xa5\x8d\xe0\xa4\xa4\xe0\xa4\xbe\xe0\xa4\xa8,n,m,sg,3,o,0_\xe0\xa4\x95\xe0\xa4\xbe,0'
p3104
sS'chunkid'
p3105
S'NP6'
p3106
sS'drel'
p3107
S'r6:\xe0\xa4\x95\xe0\xa4\xac\xe0\xa5\x8d\xe0\xa4\x9c\xe0\xa5\x87'
p3108
sS'vpos'
p3109
S'vib_2'
p3110
sS'chunktype'
p3111
S'head:NP6'
p3112
ssbsg1566
I00
sg1569
I00
sg1580
Nsg1567
Nsg182
I8
sg168
I1
sg1853
Nsg1578
Nsg1854
S'NNP'
p3113
sg269
(issf_api
FeatureSet
p3114
(dp3115
g272
(dp3116
S'posn'
p3117
S'160'
p3118
sS'name'
p3119
S'\xe0\xa4\xaa\xe0\xa4\xbe\xe0\xa4\x95\xe0\xa4\xbf\xe0\xa4\xb8\xe0\xa5\x8d\xe0\xa4\xa4\xe0\xa4\xbe\xe0\xa4\xa8'
p3120
sS'af'
p3121
S'\xe0\xa4\xaa\xe0\xa4\xbe\xe0\xa4\x95\xe0\xa4\xbf\xe0\xa4\xb8\xe0\xa5\x8d\xe0\xa4\xa4\xe0\xa4\xbe\xe0\xa4\xa8,n,m,sg,3,o,0,0'
p3122
ssbsg1587
I00
sba(issf_api
Word
p3123
(dp3124
g1832
I00
sg1833
V\u0915\u0947
p3125
sg1835
(issf_api
FeatureSet
p3126
(dp3127
g272
(dp3128
S'posn'
p3129
S'170'
p3130
sS'name'
p3131
S'\xe0\xa4\x95\xe0\xa5\x873'
p3132
sS'drel'
p3133
S'lwg__psp:\xe0\xa4\xaa\xe0\xa4\xbe\xe0\xa4\x95\xe0\xa4\xbf\xe0\xa4\xb8\xe0\xa5\x8d\xe0\xa4\xa4\xe0\xa4\xbe\xe0\xa4\xa8'
p3134
sS'chunktype'
p3135
S'child:NP6'
p3136
sS'af'
p3137
S'\xe0\xa4\x95\xe0\xa4\xbe,psp,m,sg,,o,,'
p3138
ssbsg1566
I00
sg1569
I00
sg1580
Nsg1567
Nsg182
I8
sg168
I1
sg1853
Nsg1578
Nsg1854
S'PSP'
p3139
sg269
(issf_api
FeatureSet
p3140
(dp3141
g272
(dp3142
S'posn'
p3143
S'170'
p3144
sS'name'
p3145
S'\xe0\xa4\x95\xe0\xa5\x873'
p3146
sS'af'
p3147
S'\xe0\xa4\x95\xe0\xa4\xbe,psp,m,sg,,o,,'
p3148
ssbsg1587
I00
sba(issf_api
Word
p3149
(dp3150
g1832
I00
sg1833
V\u0915\u092c\u094d\u091c\u0947
p3151
sg1835
(issf_api
FeatureSet
p3152
(dp3153
g272
(dp3154
S'posn'
p3155
S'180'
p3156
sS'name'
p3157
S'\xe0\xa4\x95\xe0\xa4\xac\xe0\xa5\x8d\xe0\xa4\x9c\xe0\xa5\x87'
p3158
sS'af'
p3159
S'\xe0\xa4\x95\xe0\xa4\xac\xe0\xa5\x8d\xe0\xa4\x9c\xe0\xa4\xbe,n,m,sg,3,o,0_\xe0\xa4\xb5\xe0\xa4\xbe\xe0\xa4\xb2\xe0\xa4\xbe,0'
p3160
sS'chunkid'
p3161
S'NP7'
p3162
sS'drel'
p3163
S'nmod:\xe0\xa4\x95\xe0\xa4\xb6\xe0\xa5\x8d\xe0\xa4\xae\xe0\xa5\x80\xe0\xa4\xb03'
p3164
sS'vpos'
p3165
S'vib_2'
p3166
sS'chunktype'
p3167
S'head:NP7'
p3168
ssbsg1566
I00
sg1569
I00
sg1580
Nsg1567
Nsg182
I9
sg168
I1
sg1853
Nsg1578
Nsg1854
S'NN'
p3169
sg269
(issf_api
FeatureSet
p3170
(dp3171
g272
(dp3172
S'posn'
p3173
S'180'
p3174
sS'name'
p3175
S'\xe0\xa4\x95\xe0\xa4\xac\xe0\xa5\x8d\xe0\xa4\x9c\xe0\xa5\x87'
p3176
sS'af'
p3177
S'\xe0\xa4\x95\xe0\xa4\xac\xe0\xa5\x8d\xe0\xa4\x9c\xe0\xa4\xbe,n,m,sg,3,o,0,0'
p3178
ssbsg1587
I00
sba(issf_api
Word
p3179
(dp3180
g1832
I00
sg1833
V\u0935\u093e\u0932\u0947
p3181
sg1835
(issf_api
FeatureSet
p3182
(dp3183
g272
(dp3184
S'posn'
p3185
S'190'
p3186
sS'name'
p3187
S'\xe0\xa4\xb5\xe0\xa4\xbe\xe0\xa4\xb2\xe0\xa5\x87'
p3188
sS'drel'
p3189
S'lwg__psp:\xe0\xa4\x95\xe0\xa4\xac\xe0\xa5\x8d\xe0\xa4\x9c\xe0\xa5\x87'
p3190
sS'chunktype'
p3191
S'child:NP7'
p3192
sS'af'
p3193
S'\xe0\xa4\xb5\xe0\xa4\xbe\xe0\xa4\xb2\xe0\xa4\xbe,psp,m,sg,,o,,'
p3194
ssbsg1566
I00
sg1569
I00
sg1580
Nsg1567
Nsg182
I9
sg168
I1
sg1853
Nsg1578
Nsg1854
S'PSP'
p3195
sg269
(issf_api
FeatureSet
p3196
(dp3197
g272
(dp3198
S'posn'
p3199
S'190'
p3200
sS'name'
p3201
S'\xe0\xa4\xb5\xe0\xa4\xbe\xe0\xa4\xb2\xe0\xa5\x87'
p3202
sS'af'
p3203
S'\xe0\xa4\xb5\xe0\xa4\xbe\xe0\xa4\xb2\xe0\xa4\xbe,psp,m,sg,,o,,'
p3204
ssbsg1587
I00
sba(issf_api
Word
p3205
(dp3206
g1832
I00
sg1833
V\u0915\u0936\u094d\u092e\u0940\u0930
p3207
sg1835
(issf_api
FeatureSet
p3208
(dp3209
g272
(dp3210
S'posn'
p3211
S'200'
p3212
sS'name'
p3213
S'\xe0\xa4\x95\xe0\xa4\xb6\xe0\xa5\x8d\xe0\xa4\xae\xe0\xa5\x80\xe0\xa4\xb03'
p3214
sS'af'
p3215
S'\xe0\xa4\x95\xe0\xa4\xb6\xe0\xa5\x8d\xe0\xa4\xae\xe0\xa5\x80\xe0\xa4\xb0,n,m,sg,3,o,0_\xe0\xa4\x95\xe0\xa4\xbe,0'
p3216
sS'chunkid'
p3217
S'NP8'
p3218
sS'drel'
p3219
S'ccof:\xe0\xa4\x94\xe0\xa4\xb0'
p3220
sS'vpos'
p3221
S'vib_2'
p3222
sS'chunktype'
p3223
S'head:NP8'
p3224
ssbsg1566
I00
sg1569
I00
sg1580
Nsg1567
Nsg182
I10
sg168
I1
sg1853
Nsg1578
Nsg1854
S'NNP'
p3225
sg269
(issf_api
FeatureSet
p3226
(dp3227
g272
(dp3228
S'posn'
p3229
S'200'
p3230
sS'name'
p3231
S'\xe0\xa4\x95\xe0\xa4\xb6\xe0\xa5\x8d\xe0\xa4\xae\xe0\xa5\x80\xe0\xa4\xb03'
p3232
sS'af'
p3233
S'\xe0\xa4\x95\xe0\xa4\xb6\xe0\xa5\x8d\xe0\xa4\xae\xe0\xa5\x80\xe0\xa4\xb0,n,m,sg,3,o,0,0'
p3234
ssbsg1587
I00
sba(issf_api
Word
p3235
(dp3236
g1832
I00
sg1833
V\u0915\u0947
p3237
sg1835
(issf_api
FeatureSet
p3238
(dp3239
g272
(dp3240
S'posn'
p3241
S'210'
p3242
sS'name'
p3243
S'\xe0\xa4\x95\xe0\xa5\x874'
p3244
sS'drel'
p3245
S'lwg__psp:\xe0\xa4\x95\xe0\xa4\xb6\xe0\xa5\x8d\xe0\xa4\xae\xe0\xa5\x80\xe0\xa4\xb03'
p3246
sS'chunktype'
p3247
S'child:NP8'
p3248
sS'af'
p3249
S'\xe0\xa4\x95\xe0\xa4\xbe,psp,m,pl,,o,,'
p3250
ssbsg1566
I00
sg1569
I00
sg1580
Nsg1567
Nsg182
I10
sg168
I1
sg1853
Nsg1578
Nsg1854
S'PSP'
p3251
sg269
(issf_api
FeatureSet
p3252
(dp3253
g272
(dp3254
S'posn'
p3255
S'210'
p3256
sS'name'
p3257
S'\xe0\xa4\x95\xe0\xa5\x874'
p3258
sS'af'
p3259
S'\xe0\xa4\x95\xe0\xa4\xbe,psp,m,pl,,o,,'
p3260
ssbsg1587
I00
sba(issf_api
Word
p3261
(dp3262
g1832
I00
sg1833
V\u092f\u093e\u0924\u094d\u0930\u093f\u092f\u094b\u0902
p3263
sg1835
(issf_api
FeatureSet
p3264
(dp3265
g272
(dp3266
S'posn'
p3267
S'220'
p3268
sS'name'
p3269
S'\xe0\xa4\xaf\xe0\xa4\xbe\xe0\xa4\xa4\xe0\xa5\x8d\xe0\xa4\xb0\xe0\xa4\xbf\xe0\xa4\xaf\xe0\xa5\x8b\xe0\xa4\x82'
p3270
sS'af'
p3271
S'\xe0\xa4\xaf\xe0\xa4\xbe\xe0\xa4\xa4\xe0\xa5\x8d\xe0\xa4\xb0\xe0\xa5\x80,n,m,pl,3,o,0_\xe0\xa4\x95\xe0\xa4\xbe,0'
p3272
sS'chunkid'
p3273
S'NP9'
p3274
sS'drel'
p3275
S'r6:\xe0\xa4\xb8\xe0\xa5\x81\xe0\xa4\xb5\xe0\xa4\xbf\xe0\xa4\xa7\xe0\xa4\xbe'
p3276
sS'vpos'
p3277
S'vib_2'
p3278
sS'chunktype'
p3279
S'head:NP9'
p3280
ssbsg1566
I00
sg1569
I00
sg1580
Nsg1567
Nsg182
I11
sg168
I1
sg1853
Nsg1578
Nsg1854
S'NN'
p3281
sg269
(issf_api
FeatureSet
p3282
(dp3283
g272
(dp3284
S'posn'
p3285
S'220'
p3286
sS'name'
p3287
S'\xe0\xa4\xaf\xe0\xa4\xbe\xe0\xa4\xa4\xe0\xa5\x8d\xe0\xa4\xb0\xe0\xa4\xbf\xe0\xa4\xaf\xe0\xa5\x8b\xe0\xa4\x82'
p3288
sS'af'
p3289
S'\xe0\xa4\xaf\xe0\xa4\xbe\xe0\xa4\xa4\xe0\xa5\x8d\xe0\xa4\xb0\xe0\xa5\x80,n,m,pl,3,o,0,0'
p3290
ssbsg1587
I00
sba(issf_api
Word
p3291
(dp3292
g1832
I00
sg1833
V\u0915\u0940
p3293
sg1835
(issf_api
FeatureSet
p3294
(dp3295
g272
(dp3296
S'posn'
p3297
S'230'
p3298
sS'name'
p3299
S'\xe0\xa4\x95\xe0\xa5\x80'
p3300
sS'drel'
p3301
S'lwg__psp:\xe0\xa4\xaf\xe0\xa4\xbe\xe0\xa4\xa4\xe0\xa5\x8d\xe0\xa4\xb0\xe0\xa4\xbf\xe0\xa4\xaf\xe0\xa5\x8b\xe0\xa4\x82'
p3302
sS'chunktype'
p3303
S'child:NP9'
p3304
sS'af'
p3305
S'\xe0\xa4\x95\xe0\xa4\xbe,psp,f,sg,,o,,'
p3306
ssbsg1566
I00
sg1569
I00
sg1580
Nsg1567
Nsg182
I11
sg168
I1
sg1853
Nsg1578
Nsg1854
S'PSP'
p3307
sg269
(issf_api
FeatureSet
p3308
(dp3309
g272
(dp3310
S'posn'
p3311
S'230'
p3312
sS'name'
p3313
S'\xe0\xa4\x95\xe0\xa5\x80'
p3314
sS'af'
p3315
S'\xe0\xa4\x95\xe0\xa4\xbe,psp,f,sg,,o,,'
p3316
ssbsg1587
I00
sba(issf_api
Word
p3317
(dp3318
g1832
I00
sg1833
V\u0938\u0941\u0935\u093f\u0927\u093e
p3319
sg1835
(issf_api
FeatureSet
p3320
(dp3321
g272
(dp3322
S'posn'
p3323
S'240'
p3324
sS'name'
p3325
S'\xe0\xa4\xb8\xe0\xa5\x81\xe0\xa4\xb5\xe0\xa4\xbf\xe0\xa4\xa7\xe0\xa4\xbe'
p3326
sS'af'
p3327
S'\xe0\xa4\xb8\xe0\xa5\x81\xe0\xa4\xb5\xe0\xa4\xbf\xe0\xa4\xa7\xe0\xa4\xbe,n,f,sg,3,o,0_\xe0\xa4\x95\xe0\xa5\x87_\xe0\xa4\xb2\xe0\xa4\xbf\xe0\xa4\x8f,0'
p3328
sS'chunkid'
p3329
S'NP10'
p3330
sS'drel'
p3331
S'nmod:\xe0\xa4\xaa\xe0\xa5\x8b\xe0\xa4\xb8\xe0\xa5\x8d\xe0\xa4\x9f'
p3332
sS'vpos'
p3333
S'vib_2_3'
p3334
sS'chunktype'
p3335
S'head:NP10'
p3336
ssbsg1566
I00
sg1569
I00
sg1580
Nsg1567
Nsg182
I12
sg168
I1
sg1853
Nsg1578
Nsg1854
S'NN'
p3337
sg269
(issf_api
FeatureSet
p3338
(dp3339
g272
(dp3340
S'posn'
p3341
S'240'
p3342
sS'name'
p3343
S'\xe0\xa4\xb8\xe0\xa5\x81\xe0\xa4\xb5\xe0\xa4\xbf\xe0\xa4\xa7\xe0\xa4\xbe'
p3344
sS'af'
p3345
S'\xe0\xa4\xb8\xe0\xa5\x81\xe0\xa4\xb5\xe0\xa4\xbf\xe0\xa4\xa7\xe0\xa4\xbe,n,f,sg,3,o,0,0'
p3346
ssbsg1587
I00
sba(issf_api
Word
p3347
(dp3348
g1832
I00
sg1833
V\u0915\u0947
p3349
sg1835
(issf_api
FeatureSet
p3350
(dp3351
g272
(dp3352
S'posn'
p3353
S'250'
p3354
sS'name'
p3355
S'\xe0\xa4\x95\xe0\xa5\x875'
p3356
sS'drel'
p3357
S'lwg__psp:\xe0\xa4\xb8\xe0\xa5\x81\xe0\xa4\xb5\xe0\xa4\xbf\xe0\xa4\xa7\xe0\xa4\xbe'
p3358
sS'chunktype'
p3359
S'child:NP10'
p3360
sS'af'
p3361
S'\xe0\xa4\x95\xe0\xa5\x87,psp,,,,,,'
p3362
ssbsg1566
I00
sg1569
I00
sg1580
Nsg1567
Nsg182
I12
sg168
I1
sg1853
Nsg1578
Nsg1854
S'PSP'
p3363
sg269
(issf_api
FeatureSet
p3364
(dp3365
g272
(dp3366
S'posn'
p3367
S'250'
p3368
sS'name'
p3369
S'\xe0\xa4\x95\xe0\xa5\x875'
p3370
sS'af'
p3371
S'\xe0\xa4\x95\xe0\xa5\x87,psp,,,,,,'
p3372
ssbsg1587
I00
sba(issf_api
Word
p3373
(dp3374
g1832
I00
sg1833
V\u0932\u093f\u090f
p3375
sg1835
(issf_api
FeatureSet
p3376
(dp3377
g272
(dp3378
S'posn'
p3379
S'260'
p3380
sS'name'
p3381
S'\xe0\xa4\xb2\xe0\xa4\xbf\xe0\xa4\x8f'
p3382
sS'drel'
p3383
S'lwg__psp:\xe0\xa4\xb8\xe0\xa5\x81\xe0\xa4\xb5\xe0\xa4\xbf\xe0\xa4\xa7\xe0\xa4\xbe'
p3384
sS'chunktype'
p3385
S'child:NP10'
p3386
sS'af'
p3387
S'\xe0\xa4\xb2\xe0\xa4\xbf\xe0\xa4\x8f,psp,,,,,,'
p3388
ssbsg1566
I00
sg1569
I00
sg1580
Nsg1567
Nsg182
I12
sg168
I1
sg1853
Nsg1578
Nsg1854
S'PSP'
p3389
sg269
(issf_api
FeatureSet
p3390
(dp3391
g272
(dp3392
S'posn'
p3393
S'260'
p3394
sS'name'
p3395
S'\xe0\xa4\xb2\xe0\xa4\xbf\xe0\xa4\x8f'
p3396
sS'af'
p3397
S'\xe0\xa4\xb2\xe0\xa4\xbf\xe0\xa4\x8f,psp,,,,,,'
p3398
ssbsg1587
I00
sba(issf_api
Word
p3399
(dp3400
g1832
I00
sg1833
V\u0915\u092e\u093e\u0928
p3401
sg1835
(issf_api
FeatureSet
p3402
(dp3403
g272
(dp3404
S'posn'
p3405
S'270'
p3406
sS'name'
p3407
S'\xe0\xa4\x95\xe0\xa4\xae\xe0\xa4\xbe\xe0\xa4\xa8'
p3408
sS'drel'
p3409
S'pof__cn:\xe0\xa4\xaa\xe0\xa5\x8b\xe0\xa4\xb8\xe0\xa5\x8d\xe0\xa4\x9f'
p3410
sS'chunktype'
p3411
S'child:NP11'
p3412
sS'af'
p3413
S'\xe0\xa4\x95\xe0\xa4\xae\xe0\xa4\xbe\xe0\xa4\xa8,n,f,sg,3,d,0,0'
p3414
ssbsg1566
I00
sg1569
I00
sg1580
Nsg1567
Nsg182
I13
sg168
I1
sg1853
Nsg1578
Nsg1854
S'NNPC'
p3415
sg269
(issf_api
FeatureSet
p3416
(dp3417
g272
(dp3418
S'posn'
p3419
S'270'
p3420
sS'name'
p3421
S'\xe0\xa4\x95\xe0\xa4\xae\xe0\xa4\xbe\xe0\xa4\xa8'
p3422
sS'af'
p3423
S'\xe0\xa4\x95\xe0\xa4\xae\xe0\xa4\xbe\xe0\xa4\xa8,n,f,sg,3,d,0,0'
p3424
ssbsg1587
I00
sba(issf_api
Word
p3425
(dp3426
g1832
I00
sg1833
V\u092a\u094b\u0938\u094d\u091f
p3427
sg1835
(issf_api
FeatureSet
p3428
(dp3429
g272
(dp3430
S'posn'
p3431
S'280'
p3432
sS'name'
p3433
S'\xe0\xa4\xaa\xe0\xa5\x8b\xe0\xa4\xb8\xe0\xa5\x8d\xe0\xa4\x9f'
p3434
sS'af'
p3435
S'\xe0\xa4\xaa\xe0\xa5\x8b\xe0\xa4\xb8\xe0\xa5\x8d\xe0\xa4\x9f,n,m,sg,3,o,0_\xe0\xa4\xaa\xe0\xa4\xb0,0'
p3436
sS'chunkid'
p3437
S'NP11'
p3438
sS'drel'
p3439
S'nmod:\xe0\xa4\xb2\xe0\xa4\xbe\xe0\xa4\x87\xe0\xa4\xa8\xe0\xa5\x87\xe0\xa4\x82'
p3440
sS'vpos'
p3441
S'vib_3'
p3442
sS'chunktype'
p3443
S'head:NP11'
p3444
ssbsg1566
I00
sg1569
I00
sg1580
Nsg1567
Nsg182
I13
sg168
I1
sg1853
Nsg1578
Nsg1854
S'NNP'
p3445
sg269
(issf_api
FeatureSet
p3446
(dp3447
g272
(dp3448
S'posn'
p3449
S'280'
p3450
sS'name'
p3451
S'\xe0\xa4\xaa\xe0\xa5\x8b\xe0\xa4\xb8\xe0\xa5\x8d\xe0\xa4\x9f'
p3452
sS'af'
p3453
S'\xe0\xa4\xaa\xe0\xa5\x8b\xe0\xa4\xb8\xe0\xa5\x8d\xe0\xa4\x9f,n,m,sg,3,o,0,0'
p3454
ssbsg1587
I00
sba(issf_api
Word
p3455
(dp3456
g1832
I00
sg1833
V\u092a\u0930
p3457
sg1835
(issf_api
FeatureSet
p3458
(dp3459
g272
(dp3460
S'posn'
p3461
S'290'
p3462
sS'name'
p3463
S'\xe0\xa4\xaa\xe0\xa4\xb0'
p3464
sS'drel'
p3465
S'lwg__psp:\xe0\xa4\xaa\xe0\xa5\x8b\xe0\xa4\xb8\xe0\xa5\x8d\xe0\xa4\x9f'
p3466
sS'chunktype'
p3467
S'child:NP11'
p3468
sS'af'
p3469
S'\xe0\xa4\xaa\xe0\xa4\xb0,psp,,,,,,'
p3470
ssbsg1566
I00
sg1569
I00
sg1580
Nsg1567
Nsg182
I13
sg168
I1
sg1853
Nsg1578
Nsg1854
S'PSP'
p3471
sg269
(issf_api
FeatureSet
p3472
(dp3473
g272
(dp3474
S'posn'
p3475
S'290'
p3476
sS'name'
p3477
S'\xe0\xa4\xaa\xe0\xa4\xb0'
p3478
sS'af'
p3479
S'\xe0\xa4\xaa\xe0\xa4\xb0,psp,,,,,,'
p3480
ssbsg1587
I00
sba(issf_api
Word
p3481
(dp3482
g1832
I00
sg1833
V\u0938\u093e\u0924
p3483
sg1835
(issf_api
FeatureSet
p3484
(dp3485
g272
(dp3486
S'posn'
p3487
S'300'
p3488
sS'name'
p3489
S'\xe0\xa4\xb8\xe0\xa4\xbe\xe0\xa4\xa4'
p3490
sS'drel'
p3491
S'nmod__adj:\xe0\xa4\xb2\xe0\xa4\xbe\xe0\xa4\x87\xe0\xa4\xa8\xe0\xa5\x87\xe0\xa4\x82'
p3492
sS'chunktype'
p3493
S'child:NP12'
p3494
sS'af'
p3495
S'\xe0\xa4\xb8\xe0\xa4\xbe\xe0\xa4\xa4,num,any,any,,any,,'
p3496
ssbsg1566
I00
sg1569
I00
sg1580
Nsg1567
Nsg182
I14
sg168
I1
sg1853
Nsg1578
Nsg1854
S'QC'
p3497
sg269
(issf_api
FeatureSet
p3498
(dp3499
g272
(dp3500
S'posn'
p3501
S'300'
p3502
sS'name'
p3503
S'\xe0\xa4\xb8\xe0\xa4\xbe\xe0\xa4\xa4'
p3504
sS'af'
p3505
S'\xe0\xa4\xb8\xe0\xa4\xbe\xe0\xa4\xa4,num,any,any,,any,,'
p3506
ssbsg1587
I00
sba(issf_api
Word
p3507
(dp3508
g1832
I00
sg1833
V\u0932\u093e\u0907\u0928\u0947\u0902
p3509
sg1835
(issf_api
FeatureSet
p3510
(dp3511
g272
(dp3512
S'posn'
p3513
S'310'
p3514
sS'name'
p3515
S'\xe0\xa4\xb2\xe0\xa4\xbe\xe0\xa4\x87\xe0\xa4\xa8\xe0\xa5\x87\xe0\xa4\x82'
p3516
sS'af'
p3517
S'\xe0\xa4\xb2\xe0\xa4\xbe\xe0\xa4\x87\xe0\xa4\xa8,n,f,pl,3,d,0,0'
p3518
sS'chunkid'
p3519
S'NP12'
p3520
sS'drel'
p3521
S'ccof:\xe0\xa4\xb5'
p3522
sS'chunktype'
p3523
S'head:NP12'
p3524
ssbsg1566
I00
sg1569
I00
sg1580
Nsg1567
Nsg182
I14
sg168
I1
sg1853
Nsg1578
Nsg1854
S'NN'
p3525
sg269
(issf_api
FeatureSet
p3526
(dp3527
g272
(dp3528
S'posn'
p3529
S'310'
p3530
sS'name'
p3531
S'\xe0\xa4\xb2\xe0\xa4\xbe\xe0\xa4\x87\xe0\xa4\xa8\xe0\xa5\x87\xe0\xa4\x82'
p3532
sS'af'
p3533
S'\xe0\xa4\xb2\xe0\xa4\xbe\xe0\xa4\x87\xe0\xa4\xa8,n,f,pl,3,d,0,0'
p3534
ssbsg1587
I00
sba(issf_api
Word
p3535
(dp3536
g1832
I00
sg1833
V\u0935
sg1835
(issf_api
FeatureSet
p3537
(dp3538
g272
(dp3539
S'posn'
p3540
S'320'
p3541
sS'name'
p3542
S'\xe0\xa4\xb5'
p3543
sS'af'
p3544
S'\xe0\xa4\xb5,avy,,,,,,'
p3545
sS'chunkid'
p3546
S'CCP3'
p3547
sS'drel'
p3548
S'k2:\xe0\xa4\xac\xe0\xa4\xbf\xe0\xa4\x9b\xe0\xa4\xbe\xe0\xa4\x88'
p3549
sS'chunktype'
p3550
S'head:CCP3'
p3551
ssbsg1566
I00
sg1569
I00
sg1580
Nsg1567
Nsg182
I15
sg168
I1
sg1853
Nsg1578
Nsg1854
S'CC'
p3552
sg269
(issf_api
FeatureSet
p3553
(dp3554
g272
(dp3555
S'posn'
p3556
S'320'
p3557
sS'name'
p3558
S'\xe0\xa4\xb5'
p3559
sS'af'
p3560
S'\xe0\xa4\xb5,avy,,,,,,'
p3561
ssbsg1587
I00
sba(issf_api
Word
p3562
(dp3563
g1832
I00
sg1833
V\u0938\u0932\u093e\u092e\u093e\u092c\u093e\u0926
p3564
sg1835
(issf_api
FeatureSet
p3565
(dp3566
g272
(dp3567
S'posn'
p3568
S'330'
p3569
sS'name'
p3570
S'\xe0\xa4\xb8\xe0\xa4\xb2\xe0\xa4\xbe\xe0\xa4\xae\xe0\xa4\xbe\xe0\xa4\xac\xe0\xa4\xbe\xe0\xa4\xa6'
p3571
sS'af'
p3572
S'\xe0\xa4\xb8\xe0\xa4\xb2\xe0\xa4\xbe\xe0\xa4\xae\xe0\xa4\xbe\xe0\xa4\xac\xe0\xa4\xbe\xe0\xa4\xa6,n,m,sg,3,o,0_\xe0\xa4\xae\xe0\xa5\x87\xe0\xa4\x82,0'
p3573
sS'chunkid'
p3574
S'NP13'
p3575
sS'drel'
p3576
S'nmod:\xe0\xa4\xb2\xe0\xa4\xbe\xe0\xa4\x87\xe0\xa4\xa8\xe0\xa5\x87\xe0\xa4\x822'
p3577
sS'vpos'
p3578
S'vib_2'
p3579
sS'chunktype'
p3580
S'head:NP13'
p3581
ssbsg1566
I00
sg1569
I00
sg1580
Nsg1567
Nsg182
I16
sg168
I1
sg1853
Nsg1578
Nsg1854
S'NNP'
p3582
sg269
(issf_api
FeatureSet
p3583
(dp3584
g272
(dp3585
S'posn'
p3586
S'330'
p3587
sS'name'
p3588
S'\xe0\xa4\xb8\xe0\xa4\xb2\xe0\xa4\xbe\xe0\xa4\xae\xe0\xa4\xbe\xe0\xa4\xac\xe0\xa4\xbe\xe0\xa4\xa6'
p3589
sS'af'
p3590
S'\xe0\xa4\xb8\xe0\xa4\xb2\xe0\xa4\xbe\xe0\xa4\xae\xe0\xa4\xbe\xe0\xa4\xac\xe0\xa4\xbe\xe0\xa4\xa6,n,m,sg,3,o,0,0'
p3591
ssbsg1587
I00
sba(issf_api
Word
p3592
(dp3593
g1832
I00
sg1833
V\u092e\u0947\u0902
p3594
sg1835
(issf_api
FeatureSet
p3595
(dp3596
g272
(dp3597
S'posn'
p3598
S'340'
p3599
sS'name'
p3600
S'\xe0\xa4\xae\xe0\xa5\x87\xe0\xa4\x82'
p3601
sS'drel'
p3602
S'lwg__psp:\xe0\xa4\xb8\xe0\xa4\xb2\xe0\xa4\xbe\xe0\xa4\xae\xe0\xa4\xbe\xe0\xa4\xac\xe0\xa4\xbe\xe0\xa4\xa6'
p3603
sS'chunktype'
p3604
S'child:NP13'
p3605
sS'af'
p3606
S'\xe0\xa4\xae\xe0\xa5\x87\xe0\xa4\x82,psp,,,,,,'
p3607
ssbsg1566
I00
sg1569
I00
sg1580
Nsg1567
Nsg182
I16
sg168
I1
sg1853
Nsg1578
Nsg1854
S'PSP'
p3608
sg269
(issf_api
FeatureSet
p3609
(dp3610
g272
(dp3611
S'posn'
p3612
S'340'
p3613
sS'name'
p3614
S'\xe0\xa4\xae\xe0\xa5\x87\xe0\xa4\x82'
p3615
sS'af'
p3616
S'\xe0\xa4\xae\xe0\xa5\x87\xe0\xa4\x82,psp,,,,,,'
p3617
ssbsg1587
I00
sba(issf_api
Word
p3618
(dp3619
g1832
I00
sg1833
V\u0926\u0938
p3620
sg1835
(issf_api
FeatureSet
p3621
(dp3622
g272
(dp3623
S'posn'
p3624
S'350'
p3625
sS'name'
p3626
S'\xe0\xa4\xa6\xe0\xa4\xb8'
p3627
sS'drel'
p3628
S'nmod__adj:\xe0\xa4\xb2\xe0\xa4\xbe\xe0\xa4\x87\xe0\xa4\xa8\xe0\xa5\x87\xe0\xa4\x822'
p3629
sS'chunktype'
p3630
S'child:NP14'
p3631
sS'af'
p3632
S'\xe0\xa4\xa6\xe0\xa4\xb8,num,any,any,,any,,'
p3633
ssbsg1566
I00
sg1569
I00
sg1580
Nsg1567
Nsg182
I17
sg168
I1
sg1853
Nsg1578
Nsg1854
S'QC'
p3634
sg269
(issf_api
FeatureSet
p3635
(dp3636
g272
(dp3637
S'posn'
p3638
S'350'
p3639
sS'name'
p3640
S'\xe0\xa4\xa6\xe0\xa4\xb8'
p3641
sS'af'
p3642
S'\xe0\xa4\xa6\xe0\xa4\xb8,num,any,any,,any,,'
p3643
ssbsg1587
I00
sba(issf_api
Word
p3644
(dp3645
g1832
I00
sg1833
V\u0932\u093e\u0907\u0928\u0947\u0902
p3646
sg1835
(issf_api
FeatureSet
p3647
(dp3648
g272
(dp3649
S'posn'
p3650
S'360'
p3651
sS'name'
p3652
S'\xe0\xa4\xb2\xe0\xa4\xbe\xe0\xa4\x87\xe0\xa4\xa8\xe0\xa5\x87\xe0\xa4\x822'
p3653
sS'af'
p3654
S'\xe0\xa4\xb2\xe0\xa4\xbe\xe0\xa4\x87\xe0\xa4\xa8,n,f,pl,3,d,0,0'
p3655
sS'chunkid'
p3656
S'NP14'
p3657
sS'drel'
p3658
S'ccof:\xe0\xa4\xb5'
p3659
sS'chunktype'
p3660
S'head:NP14'
p3661
ssbsg1566
I00
sg1569
I00
sg1580
Nsg1567
Nsg182
I17
sg168
I1
sg1853
Nsg1578
Nsg1854
S'NN'
p3662
sg269
(issf_api
FeatureSet
p3663
(dp3664
g272
(dp3665
S'posn'
p3666
S'360'
p3667
sS'name'
p3668
S'\xe0\xa4\xb2\xe0\xa4\xbe\xe0\xa4\x87\xe0\xa4\xa8\xe0\xa5\x87\xe0\xa4\x822'
p3669
sS'af'
p3670
S'\xe0\xa4\xb2\xe0\xa4\xbe\xe0\xa4\x87\xe0\xa4\xa8,n,f,pl,3,d,0,0'
p3671
ssbsg1587
I00
sba(issf_api
Word
p3672
(dp3673
g1832
I00
sg1833
V\u092c\u093f\u091b\u093e\u0908
p3674
sg1835
(issf_api
FeatureSet
p3675
(dp3676
g272
(dp3677
S'posn'
p3678
S'370'
p3679
sS'name'
p3680
S'\xe0\xa4\xac\xe0\xa4\xbf\xe0\xa4\x9b\xe0\xa4\xbe\xe0\xa4\x88'
p3681
sS'af'
p3682
S'\xe0\xa4\xac\xe0\xa4\xbf\xe0\xa4\x9b\xe0\xa4\xbe,v,f,pl,3,,\xe0\xa4\xaf\xe0\xa4\xbe_\xe0\xa4\x9c\xe0\xa4\xbe+\xe0\xa4\xaf\xe0\xa4\xbe\xe0\xa5\xa7_\xe0\xa4\xb9\xe0\xa5\x88,yA'
p3683
sS'chunkid'
p3684
S'VGF2'
p3685
sS'stype'
p3686
S'declarative'
p3687
sS'drel'
p3688
S'ccof:\xe0\xa4\x95\xe0\xa4\xbf'
p3689
sS'voicetype'
p3690
S'active'
p3691
sS'vpos'
p3692
S'tam_2_3'
p3693
sS'chunktype'
p3694
S'head:VGF2'
p3695
ssbsg1566
I00
sg1569
I00
sg1580
Nsg1567
Nsg182
I18
sg168
I1
sg1853
Nsg1578
Nsg1854
S'VM'
p3696
sg269
(issf_api
FeatureSet
p3697
(dp3698
g272
(dp3699
S'posn'
p3700
S'370'
p3701
sS'name'
p3702
S'\xe0\xa4\xac\xe0\xa4\xbf\xe0\xa4\x9b\xe0\xa4\xbe\xe0\xa4\x88'
p3703
sS'af'
p3704
S'\xe0\xa4\xac\xe0\xa4\xbf\xe0\xa4\x9b\xe0\xa4\xbe,v,f,pl,any,,\xe0\xa4\xaf\xe0\xa4\xbe,yA'
p3705
ssbsg1587
I00
sba(issf_api
Word
p3706
(dp3707
g1832
I00
sg1833
V\u0917\u0908
p3708
sg1835
(issf_api
FeatureSet
p3709
(dp3710
g272
(dp3711
S'posn'
p3712
S'380'
p3713
sS'name'
p3714
S'\xe0\xa4\x97\xe0\xa4\x88'
p3715
sS'drel'
p3716
S'lwg__vaux:\xe0\xa4\xac\xe0\xa4\xbf\xe0\xa4\x9b\xe0\xa4\xbe\xe0\xa4\x88'
p3717
sS'chunktype'
p3718
S'child:VGF2'
p3719
sS'af'
p3720
S'\xe0\xa4\x9c\xe0\xa4\xbe,v,f,pl,any,,\xe0\xa4\xaf\xe0\xa4\xbe\xe0\xa5\xa7,yA1'
p3721
ssbsg1566
I00
sg1569
I00
sg1580
Nsg1567
Nsg182
I18
sg168
I1
sg1853
Nsg1578
Nsg1854
S'VAUX'
p3722
sg269
(issf_api
FeatureSet
p3723
(dp3724
g272
(dp3725
S'posn'
p3726
S'380'
p3727
sS'name'
p3728
S'\xe0\xa4\x97\xe0\xa4\x88'
p3729
sS'af'
p3730
S'\xe0\xa4\x9c\xe0\xa4\xbe,v,f,pl,any,,\xe0\xa4\xaf\xe0\xa4\xbe\xe0\xa5\xa7,yA1'
p3731
ssbsg1587
I00
sba(issf_api
Word
p3732
(dp3733
g1832
I00
sg1833
V\u0939\u0948\u0902
p3734
sg1835
(issf_api
FeatureSet
p3735
(dp3736
g272
(dp3737
S'posn'
p3738
S'390'
p3739
sS'name'
p3740
S'\xe0\xa4\xb9\xe0\xa5\x88\xe0\xa4\x82'
p3741
sS'drel'
p3742
S'lwg__vaux:\xe0\xa4\xac\xe0\xa4\xbf\xe0\xa4\x9b\xe0\xa4\xbe\xe0\xa4\x88'
p3743
sS'chunktype'
p3744
S'child:VGF2'
p3745
sS'af'
p3746
S'\xe0\xa4\xb9\xe0\xa5\x88,v,any,pl,3,,\xe0\xa4\xb9\xe0\xa5\x88,hE'
p3747
ssbsg1566
I00
sg1569
I00
sg1580
Nsg1567
Nsg182
I18
sg168
I1
sg1853
Nsg1578
Nsg1854
S'VAUX'
p3748
sg269
(issf_api
FeatureSet
p3749
(dp3750
g272
(dp3751
S'posn'
p3752
S'390'
p3753
sS'name'
p3754
S'\xe0\xa4\xb9\xe0\xa5\x88\xe0\xa4\x82'
p3755
sS'af'
p3756
S'\xe0\xa4\xb9\xe0\xa5\x88,v,any,pl,3,,\xe0\xa4\xb9\xe0\xa5\x88,hE'
p3757
ssbsg1587
I00
sba(issf_api
Word
p3758
(dp3759
g1832
I00
sg1833
V\u0964
sg1835
(issf_api
FeatureSet
p3760
(dp3761
g272
(dp3762
S'posn'
p3763
S'400'
p3764
sS'name'
p3765
S'\xe0\xa5\xa4'
p3766
sS'af'
p3767
S'\xe0\xa5\xa4,punc,,,,,,'
p3768
sS'chunkid'
p3769
S'BLK'
p3770
sS'drel'
p3771
S'rsym:\xe0\xa4\xac\xe0\xa4\xa4\xe0\xa4\xbe\xe0\xa4\xaf\xe0\xa4\xbe'
p3772
sS'chunktype'
p3773
S'head:BLK'
p3774
ssbsg1566
I00
sg1569
I00
sg1580
Nsg1567
Nsg182
I19
sg168
I1
sg1853
Nsg1578
Nsg1854
S'SYM'
p3775
sg269
(issf_api
FeatureSet
p3776
(dp3777
g272
(dp3778
S'posn'
p3779
S'400'
p3780
sS'name'
p3781
S'\xe0\xa5\xa4'
p3782
sS'af'
p3783
S'\xe0\xa5\xa4,punc,,,,,,'
p3784
ssbsg1587
I00
sba(issf_api
Word
p3785
(dp3786
g1832
I00
sg1833
V\u092f\u0939
p3787
sg1835
(issf_api
FeatureSet
p3788
(dp3789
g272
(dp3790
S'posn'
p3791
S'10'
p3792
sS'name'
p3793
S'\xe0\xa4\xaf\xe0\xa4\xb9'
p3794
sS'af'
p3795
S'\xe0\xa4\xaf\xe0\xa4\xb9,pn,any,sg,3,d,0,0'
p3796
sS'chunkid'
p3797
S'NP'
p3798
sS'drel'
p3799
S'k1:\xe0\xa4\xb9\xe0\xa5\x88'
p3800
sS'chunktype'
p3801
S'head:NP'
p3802
ssbsg1566
I00
sg1569
I00
sg1580
Nsg1567
Nsg182
I0
sg168
I2
sg1853
Nsg1578
Nsg1854
S'PRP'
p3803
sg269
(issf_api
FeatureSet
p3804
(dp3805
g272
(dp3806
S'posn'
p3807
S'10'
p3808
sS'name'
p3809
S'\xe0\xa4\xaf\xe0\xa4\xb9'
p3810
sS'af'
p3811
S'\xe0\xa4\xaf\xe0\xa4\xb9,pn,any,sg,3,d,0,0'
p3812
ssbsg1587
I00
sba(issf_api
Word
p3813
(dp3814
g1832
I00
sg1833
V\u092a\u0902\u0926\u094d\u0930\u0939
p3815
sg1835
(issf_api
FeatureSet
p3816
(dp3817
g272
(dp3818
S'posn'
p3819
S'20'
p3820
sS'name'
p3821
S'\xe0\xa4\xaa\xe0\xa4\x82\xe0\xa4\xa6\xe0\xa5\x8d\xe0\xa4\xb0\xe0\xa4\xb9'
p3822
sS'drel'
p3823
S'nmod__adj:\xe0\xa4\xa6\xe0\xa4\xbf\xe0\xa4\xa8\xe0\xa5\x8b\xe0\xa4\x82'
p3824
sS'chunktype'
p3825
S'child:NP2'
p3826
sS'af'
p3827
S'\xe0\xa4\xaa\xe0\xa4\x82\xe0\xa4\xa6\xe0\xa5\x8d\xe0\xa4\xb0\xe0\xa4\xb9,num,any,any,,any,,'
p3828
ssbsg1566
I00
sg1569
I00
sg1580
Nsg1567
Nsg182
I1
sg168
I2
sg1853
Nsg1578
Nsg1854
S'QC'
p3829
sg269
(issf_api
FeatureSet
p3830
(dp3831
g272
(dp3832
S'posn'
p3833
S'20'
p3834
sS'name'
p3835
S'\xe0\xa4\xaa\xe0\xa4\x82\xe0\xa4\xa6\xe0\xa5\x8d\xe0\xa4\xb0\xe0\xa4\xb9'
p3836
sS'af'
p3837
S'\xe0\xa4\xaa\xe0\xa4\x82\xe0\xa4\xa6\xe0\xa5\x8d\xe0\xa4\xb0\xe0\xa4\xb9,num,any,any,,any,,'
p3838
ssbsg1587
I00
sba(issf_api
Word
p3839
(dp3840
g1832
I00
sg1833
V\u0926\u093f\u0928\u094b\u0902
p3841
sg1835
(issf_api
FeatureSet
p3842
(dp3843
g272
(dp3844
S'posn'
p3845
S'30'
p3846
sS'name'
p3847
S'\xe0\xa4\xa6\xe0\xa4\xbf\xe0\xa4\xa8\xe0\xa5\x8b\xe0\xa4\x82'
p3848
sS'af'
p3849
S'\xe0\xa4\xa6\xe0\xa4\xbf\xe0\xa4\xa8,n,m,pl,3,o,0_\xe0\xa4\x95\xe0\xa4\xbe,0'
p3850
sS'chunkid'
p3851
S'NP2'
p3852
sS'drel'
p3853
S'r6:\xe0\xa4\xae\xe0\xa5\x87\xe0\xa4\xb9\xe0\xa4\xa8\xe0\xa4\xa4'
p3854
sS'vpos'
p3855
S'vib_3'
p3856
sS'chunktype'
p3857
S'head:NP2'
p3858
ssbsg1566
I00
sg1569
I00
sg1580
Nsg1567
Nsg182
I1
sg168
I2
sg1853
Nsg1578
Nsg1854
S'NN'
p3859
sg269
(issf_api
FeatureSet
p3860
(dp3861
g272
(dp3862
S'posn'
p3863
S'30'
p3864
sS'name'
p3865
S'\xe0\xa4\xa6\xe0\xa4\xbf\xe0\xa4\xa8\xe0\xa5\x8b\xe0\xa4\x82'
p3866
sS'af'
p3867
S'\xe0\xa4\xa6\xe0\xa4\xbf\xe0\xa4\xa8,n,m,pl,3,o,0,0'
p3868
ssbsg1587
I00
sba(issf_api
Word
p3869
(dp3870
g1832
I00
sg1833
V\u0915\u0940
p3871
sg1835
(issf_api
FeatureSet
p3872
(dp3873
g272
(dp3874
S'posn'
p3875
S'40'
p3876
sS'name'
p3877
S'\xe0\xa4\x95\xe0\xa5\x80'
p3878
sS'drel'
p3879
S'lwg__psp:\xe0\xa4\xa6\xe0\xa4\xbf\xe0\xa4\xa8\xe0\xa5\x8b\xe0\xa4\x82'
p3880
sS'chunktype'
p3881
S'child:NP2'
p3882
sS'af'
p3883
S'\xe0\xa4\x95\xe0\xa4\xbe,psp,f,sg,,o,,'
p3884
ssbsg1566
I00
sg1569
I00
sg1580
Nsg1567
Nsg182
I1
sg168
I2
sg1853
Nsg1578
Nsg1854
S'PSP'
p3885
sg269
(issf_api
FeatureSet
p3886
(dp3887
g272
(dp3888
S'posn'
p3889
S'40'
p3890
sS'name'
p3891
S'\xe0\xa4\x95\xe0\xa5\x80'
p3892
sS'af'
p3893
S'\xe0\xa4\x95\xe0\xa4\xbe,psp,f,sg,,o,,'
p3894
ssbsg1587
I00
sba(issf_api
Word
p3895
(dp3896
g1832
I00
sg1833
V\u0915\u095c\u0940
p3897
sg1835
(issf_api
FeatureSet
p3898
(dp3899
g272
(dp3900
S'posn'
p3901
S'50'
p3902
sS'name'
p3903
S'\xe0\xa4\x95\xe0\xa5\x9c\xe0\xa5\x80'
p3904
sS'drel'
p3905
S'nmod__adj:\xe0\xa4\xae\xe0\xa5\x87\xe0\xa4\xb9\xe0\xa4\xa8\xe0\xa4\xa4'
p3906
sS'chunktype'
p3907
S'child:NP3'
p3908
sS'af'
p3909
S'\xe0\xa4\x95\xe0\xa5\x9c\xe0\xa4\xbe,adj,f,sg,,o,,'
p3910
ssbsg1566
I00
sg1569
I00
sg1580
Nsg1567
Nsg182
I2
sg168
I2
sg1853
Nsg1578
Nsg1854
S'JJ'
p3911
sg269
(issf_api
FeatureSet
p3912
(dp3913
g272
(dp3914
S'posn'
p3915
S'50'
p3916
sS'name'
p3917
S'\xe0\xa4\x95\xe0\xa5\x9c\xe0\xa5\x80'
p3918
sS'af'
p3919
S'\xe0\xa4\x95\xe0\xa5\x9c\xe0\xa4\xbe,adj,f,sg,,o,,'
p3920
ssbsg1587
I00
sba(issf_api
Word
p3921
(dp3922
g1832
I00
sg1833
V\u092e\u0947\u0939\u0928\u0924
p3923
sg1835
(issf_api
FeatureSet
p3924
(dp3925
g272
(dp3926
S'posn'
p3927
S'60'
p3928
sS'name'
p3929
S'\xe0\xa4\xae\xe0\xa5\x87\xe0\xa4\xb9\xe0\xa4\xa8\xe0\xa4\xa4'
p3930
sS'af'
p3931
S'\xe0\xa4\xae\xe0\xa5\x87\xe0\xa4\xb9\xe0\xa4\xa8\xe0\xa4\xa4,n,f,sg,3,o,0_\xe0\xa4\x95\xe0\xa4\xbe,0'
p3932
sS'chunkid'
p3933
S'NP3'
p3934
sS'drel'
p3935
S'r6:\xe0\xa4\xa8\xe0\xa4\xa4\xe0\xa5\x80\xe0\xa4\x9c\xe0\xa4\xbe'
p3936
sS'vpos'
p3937
S'vib_3'
p3938
sS'chunktype'
p3939
S'head:NP3'
p3940
ssbsg1566
I00
sg1569
I00
sg1580
Nsg1567
Nsg182
I2
sg168
I2
sg1853
Nsg1578
Nsg1854
S'NN'
p3941
sg269
(issf_api
FeatureSet
p3942
(dp3943
g272
(dp3944
S'posn'
p3945
S'60'
p3946
sS'name'
p3947
S'\xe0\xa4\xae\xe0\xa5\x87\xe0\xa4\xb9\xe0\xa4\xa8\xe0\xa4\xa4'
p3948
sS'af'
p3949
S'\xe0\xa4\xae\xe0\xa5\x87\xe0\xa4\xb9\xe0\xa4\xa8\xe0\xa4\xa4,n,f,sg,3,o,0,0'
p3950
ssbsg1587
I00
sba(issf_api
Word
p3951
(dp3952
g1832
I00
sg1833
V\u0915\u093e
p3953
sg1835
(issf_api
FeatureSet
p3954
(dp3955
g272
(dp3956
S'posn'
p3957
S'70'
p3958
sS'name'
p3959
S'\xe0\xa4\x95\xe0\xa4\xbe'
p3960
sS'drel'
p3961
S'lwg__psp:\xe0\xa4\xae\xe0\xa5\x87\xe0\xa4\xb9\xe0\xa4\xa8\xe0\xa4\xa4'
p3962
sS'chunktype'
p3963
S'child:NP3'
p3964
sS'af'
p3965
S'\xe0\xa4\x95\xe0\xa4\xbe,psp,m,sg,,d,,'
p3966
ssbsg1566
I00
sg1569
I00
sg1580
Nsg1567
Nsg182
I2
sg168
I2
sg1853
Nsg1578
Nsg1854
S'PSP'
p3967
sg269
(issf_api
FeatureSet
p3968
(dp3969
g272
(dp3970
S'posn'
p3971
S'70'
p3972
sS'name'
p3973
S'\xe0\xa4\x95\xe0\xa4\xbe'
p3974
sS'af'
p3975
S'\xe0\xa4\x95\xe0\xa4\xbe,psp,m,sg,,d,,'
p3976
ssbsg1587
I00
sba(issf_api
Word
p3977
(dp3978
g1832
I00
sg1833
V\u0928\u0924\u0940\u091c\u093e
p3979
sg1835
(issf_api
FeatureSet
p3980
(dp3981
g272
(dp3982
S'posn'
p3983
S'80'
p3984
sS'name'
p3985
S'\xe0\xa4\xa8\xe0\xa4\xa4\xe0\xa5\x80\xe0\xa4\x9c\xe0\xa4\xbe'
p3986
sS'af'
p3987
S'\xe0\xa4\xa8\xe0\xa4\xa4\xe0\xa5\x80\xe0\xa4\x9c\xe0\xa4\xbe,n,m,sg,3,d,0,0'
p3988
sS'chunkid'
p3989
S'NP4'
p3990
sS'drel'
p3991
S'k1s:\xe0\xa4\xb9\xe0\xa5\x88'
p3992
sS'chunktype'
p3993
S'head:NP4'
p3994
ssbsg1566
I00
sg1569
I00
sg1580
Nsg1567
Nsg182
I3
sg168
I2
sg1853
Nsg1578
Nsg1854
S'NN'
p3995
sg269
(issf_api
FeatureSet
p3996
(dp3997
g272
(dp3998
S'posn'
p3999
S'80'
p4000
sS'name'
p4001
S'\xe0\xa4\xa8\xe0\xa4\xa4\xe0\xa5\x80\xe0\xa4\x9c\xe0\xa4\xbe'
p4002
sS'af'
p4003
S'\xe0\xa4\xa8\xe0\xa4\xa4\xe0\xa5\x80\xe0\xa4\x9c\xe0\xa4\xbe,n,m,sg,3,d,0,0'
p4004
ssbsg1587
I00
sba(issf_api
Word
p4005
(dp4006
g1832
I00
sg1833
V\u0939\u0948
p4007
sg1835
(issf_api
FeatureSet
p4008
(dp4009
g272
(dp4010
S'posn'
p4011
S'90'
p4012
sS'name'
p4013
S'\xe0\xa4\xb9\xe0\xa5\x88'
p4014
sS'af'
p4015
S'\xe0\xa4\xb9\xe0\xa5\x88,v,any,sg,3,,\xe0\xa4\xb9\xe0\xa5\x88,hE'
p4016
sS'chunkid'
p4017
S'VGF'
p4018
sS'chunktype'
p4019
S'head:VGF'
p4020
sS'voicetype'
p4021
S'active'
p4022
sS'stype'
p4023
S'declarative'
p4024
ssbsg1566
I00
sg1569
I00
sg1580
Nsg1567
Nsg182
I4
sg168
I2
sg1853
Nsg1578
Nsg1854
S'VM'
p4025
sg269
(issf_api
FeatureSet
p4026
(dp4027
g272
(dp4028
S'posn'
p4029
S'90'
p4030
sS'name'
p4031
S'\xe0\xa4\xb9\xe0\xa5\x88'
p4032
sS'af'
p4033
S'\xe0\xa4\xb9\xe0\xa5\x88,v,any,sg,3,,\xe0\xa4\xb9\xe0\xa5\x88,hE'
p4034
ssbsg1587
I00
sba(issf_api
Word
p4035
(dp4036
g1832
I00
sg1833
V\u0964
sg1835
(issf_api
FeatureSet
p4037
(dp4038
g272
(dp4039
S'posn'
p4040
S'100'
p4041
sS'name'
p4042
S'\xe0\xa5\xa4'
p4043
sS'af'
p4044
S'\xe0\xa5\xa4,punc,,,,,,'
p4045
sS'chunkid'
p4046
S'BLK'
p4047
sS'drel'
p4048
S'rsym:\xe0\xa4\xb9\xe0\xa5\x88'
p4049
sS'chunktype'
p4050
S'head:BLK'
p4051
ssbsg1566
I00
sg1569
I00
sg1580
Nsg1567
Nsg182
I5
sg168
I2
sg1853
Nsg1578
Nsg1854
S'SYM'
p4052
sg269
(issf_api
FeatureSet
p4053
(dp4054
g272
(dp4055
S'posn'
p4056
S'100'
p4057
sS'name'
p4058
S'\xe0\xa5\xa4'
p4059
sS'af'
p4060
S'\xe0\xa5\xa4,punc,,,,,,'
p4061
ssbsg1587
I00
sba(issf_api
Word
p4062
(dp4063
g1832
I00
sg1833
V\u092c\u0940\u090f\u0938\u090f\u0928\u090f\u0932
p4064
sg1835
(issf_api
FeatureSet
p4065
(dp4066
g272
(dp4067
S'posn'
p4068
S'10'
p4069
sS'name'
p4070
S'\xe0\xa4\xac\xe0\xa5\x80\xe0\xa4\x8f\xe0\xa4\xb8\xe0\xa4\x8f\xe0\xa4\xa8\xe0\xa4\x8f\xe0\xa4\xb2'
p4071
sS'drel'
p4072
S'nmod__adj:\xe0\xa4\x85\xe0\xa4\xa7\xe0\xa4\xbf\xe0\xa4\x95\xe0\xa4\xbe\xe0\xa4\xb0\xe0\xa4\xbf\xe0\xa4\xaf\xe0\xa5\x8b\xe0\xa4\x82'
p4073
sS'chunktype'
p4074
S'child:NP'
p4075
sS'af'
p4076
S'\xe0\xa4\xac\xe0\xa5\x80\xe0\xa4\x8f\xe0\xa4\xb8\xe0\xa4\x8f\xe0\xa4\xa8\xe0\xa4\x8f\xe0\xa4\xb2,n,m,sg,3,d,0,0'
p4077
ssbsg1566
I00
sg1569
I00
sg1580
Nsg1567
Nsg182
I0
sg168
I3
sg1853
Nsg1578
Nsg1854
S'NNP'
p4078
sg269
(issf_api
FeatureSet
p4079
(dp4080
g272
(dp4081
S'posn'
p4082
S'10'
p4083
sS'name'
p4084
S'\xe0\xa4\xac\xe0\xa5\x80\xe0\xa4\x8f\xe0\xa4\xb8\xe0\xa4\x8f\xe0\xa4\xa8\xe0\xa4\x8f\xe0\xa4\xb2'
p4085
sS'af'
p4086
S'\xe0\xa4\xac\xe0\xa5\x80\xe0\xa4\x8f\xe0\xa4\xb8\xe0\xa4\x8f\xe0\xa4\xa8\xe0\xa4\x8f\xe0\xa4\xb2,n,m,sg,3,d,0,0'
p4087
ssbsg1587
I00
sba(issf_api
Word
p4088
(dp4089
g1832
I00
sg1833
V\u0905\u0927\u093f\u0915\u093e\u0930\u093f\u092f\u094b\u0902
p4090
sg1835
(issf_api
FeatureSet
p4091
(dp4092
g272
(dp4093
S'posn'
p4094
S'20'
p4095
sS'name'
p4096
S'\xe0\xa4\x85\xe0\xa4\xa7\xe0\xa4\xbf\xe0\xa4\x95\xe0\xa4\xbe\xe0\xa4\xb0\xe0\xa4\xbf\xe0\xa4\xaf\xe0\xa5\x8b\xe0\xa4\x82'
p4097
sS'af'
p4098
S'\xe0\xa4\x85\xe0\xa4\xa7\xe0\xa4\xbf\xe0\xa4\x95\xe0\xa4\xbe\xe0\xa4\xb0\xe0\xa5\x80,n,m,pl,3,o,0_\xe0\xa4\xa8\xe0\xa5\x87,0'
p4099
sS'chunkid'
p4100
S'NP'
p4101
sS'drel'
p4102
S'k1:\xe0\xa4\x95\xe0\xa4\xb9\xe0\xa4\xbe'
p4103
sS'vpos'
p4104
S'vib_vib_3'
p4105
sS'chunktype'
p4106
S'head:NP'
p4107
ssbsg1566
I00
sg1569
I00
sg1580
Nsg1567
Nsg182
I0
sg168
I3
sg1853
Nsg1578
Nsg1854
S'NN'
p4108
sg269
(issf_api
FeatureSet
p4109
(dp4110
g272
(dp4111
S'posn'
p4112
S'20'
p4113
sS'name'
p4114
S'\xe0\xa4\x85\xe0\xa4\xa7\xe0\xa4\xbf\xe0\xa4\x95\xe0\xa4\xbe\xe0\xa4\xb0\xe0\xa4\xbf\xe0\xa4\xaf\xe0\xa5\x8b\xe0\xa4\x82'
p4115
sS'af'
p4116
S'\xe0\xa4\x85\xe0\xa4\xa7\xe0\xa4\xbf\xe0\xa4\x95\xe0\xa4\xbe\xe0\xa4\xb0\xe0\xa5\x80,n,m,pl,3,o,0,0'
p4117
ssbsg1587
I00
sba(issf_api
Word
p4118
(dp4119
g1832
I00
sg1833
V\u0928\u0947
p4120
sg1835
(issf_api
FeatureSet
p4121
(dp4122
g272
(dp4123
S'posn'
p4124
S'30'
p4125
sS'name'
p4126
S'\xe0\xa4\xa8\xe0\xa5\x87'
p4127
sS'drel'
p4128
S'lwg__psp:\xe0\xa4\x85\xe0\xa4\xa7\xe0\xa4\xbf\xe0\xa4\x95\xe0\xa4\xbe\xe0\xa4\xb0\xe0\xa4\xbf\xe0\xa4\xaf\xe0\xa5\x8b\xe0\xa4\x82'
p4129
sS'chunktype'
p4130
S'child:NP'
p4131
sS'af'
p4132
S'\xe0\xa4\xa8\xe0\xa5\x87,psp,,,,,,'
p4133
ssbsg1566
I00
sg1569
I00
sg1580
Nsg1567
Nsg182
I0
sg168
I3
sg1853
Nsg1578
Nsg1854
S'PSP'
p4134
sg269
(issf_api
FeatureSet
p4135
(dp4136
g272
(dp4137
S'posn'
p4138
S'30'
p4139
sS'name'
p4140
S'\xe0\xa4\xa8\xe0\xa5\x87'
p4141
sS'af'
p4142
S'\xe0\xa4\xa8\xe0\xa5\x87,psp,,,,,,'
p4143
ssbsg1587
I00
sba(issf_api
Word
p4144
(dp4145
g1832
I00
sg1833
V\u0915\u0939\u093e
p4146
sg1835
(issf_api
FeatureSet
p4147
(dp4148
g272
(dp4149
S'posn'
p4150
S'40'
p4151
sS'name'
p4152
S'\xe0\xa4\x95\xe0\xa4\xb9\xe0\xa4\xbe'
p4153
sS'af'
p4154
S'\xe0\xa4\x95\xe0\xa4\xb9,v,m,pl,any,,\xe0\xa4\xaf\xe0\xa4\xbe,yA'
p4155
sS'chunkid'
p4156
S'VGF'
p4157
sS'chunktype'
p4158
S'head:VGF'
p4159
sS'voicetype'
p4160
S'active'
p4161
sS'stype'
p4162
S'declarative'
p4163
ssbsg1566
I00
sg1569
I00
sg1580
Nsg1567
Nsg182
I1
sg168
I3
sg1853
Nsg1578
Nsg1854
S'VM'
p4164
sg269
(issf_api
FeatureSet
p4165
(dp4166
g272
(dp4167
S'posn'
p4168
S'40'
p4169
sS'name'
p4170
S'\xe0\xa4\x95\xe0\xa4\xb9\xe0\xa4\xbe'
p4171
sS'af'
p4172
S'\xe0\xa4\x95\xe0\xa4\xb9,v,m,pl,any,,\xe0\xa4\xaf\xe0\xa4\xbe,yA'
p4173
ssbsg1587
I00
sba(issf_api
Word
p4174
(dp4175
g1832
I00
sg1833
V\u0915\u093f
p4176
sg1835
(issf_api
FeatureSet
p4177
(dp4178
g272
(dp4179
S'posn'
p4180
S'50'
p4181
sS'name'
p4182
S'\xe0\xa4\x95\xe0\xa4\xbf'
p4183
sS'af'
p4184
S'\xe0\xa4\x95\xe0\xa4\xbf,avy,,,,,,'
p4185
sS'chunkid'
p4186
S'CCP'
p4187
sS'drel'
p4188
S'k2:\xe0\xa4\x95\xe0\xa4\xb9\xe0\xa4\xbe'
p4189
sS'chunktype'
p4190
S'head:CCP'
p4191
ssbsg1566
I00
sg1569
I00
sg1580
Nsg1567
Nsg182
I2
sg168
I3
sg1853
Nsg1578
Nsg1854
S'CC'
p4192
sg269
(issf_api
FeatureSet
p4193
(dp4194
g272
(dp4195
S'posn'
p4196
S'50'
p4197
sS'name'
p4198
S'\xe0\xa4\x95\xe0\xa4\xbf'
p4199
sS'af'
p4200
S'\xe0\xa4\x95\xe0\xa4\xbf,avy,,,,,,'
p4201
ssbsg1587
I00
sba(issf_api
Word
p4202
(dp4203
g1832
I00
sg1833
V\u0935\u093f\u0936\u094d\u0935
p4204
sg1835
(issf_api
FeatureSet
p4205
(dp4206
g272
(dp4207
S'posn'
p4208
S'60'
p4209
sS'name'
p4210
S'\xe0\xa4\xb5\xe0\xa4\xbf\xe0\xa4\xb6\xe0\xa5\x8d\xe0\xa4\xb5'
p4211
sS'af'
p4212
S'\xe0\xa4\xb5\xe0\xa4\xbf\xe0\xa4\xb6\xe0\xa5\x8d\xe0\xa4\xb5,n,m,sg,3,o,0_\xe0\xa4\xb8\xe0\xa5\x87,0'
p4213
sS'chunkid'
p4214
S'NP2'
p4215
sS'drel'
p4216
S'k2p:\xe0\xa4\x86\xe0\xa4\x8f'
p4217
sS'vpos'
p4218
S'vib_RP_3'
p4219
sS'chunktype'
p4220
S'head:NP2'
p4221
ssbsg1566
I00
sg1569
I00
sg1580
Nsg1567
Nsg182
I3
sg168
I3
sg1853
Nsg1578
Nsg1854
S'NN'
p4222
sg269
(issf_api
FeatureSet
p4223
(dp4224
g272
(dp4225
S'posn'
p4226
S'60'
p4227
sS'name'
p4228
S'\xe0\xa4\xb5\xe0\xa4\xbf\xe0\xa4\xb6\xe0\xa5\x8d\xe0\xa4\xb5'
p4229
sS'af'
p4230
S'\xe0\xa4\xb5\xe0\xa4\xbf\xe0\xa4\xb6\xe0\xa5\x8d\xe0\xa4\xb5,n,m,sg,3,o,0,0'
p4231
ssbsg1587
I00
sba(issf_api
Word
p4232
(dp4233
g1832
I00
sg1833
V\u092d\u0930
p4234
sg1835
(issf_api
FeatureSet
p4235
(dp4236
g272
(dp4237
S'posn'
p4238
S'70'
p4239
sS'name'
p4240
S'\xe0\xa4\xad\xe0\xa4\xb0'
p4241
sS'drel'
p4242
S'lwg__rp:\xe0\xa4\xb5\xe0\xa4\xbf\xe0\xa4\xb6\xe0\xa5\x8d\xe0\xa4\xb5'
p4243
sS'chunktype'
p4244
S'child:NP2'
p4245
sS'af'
p4246
S'\xe0\xa4\xad\xe0\xa4\xb0,avy,,,,,,'
p4247
ssbsg1566
I00
sg1569
I00
sg1580
Nsg1567
Nsg182
I3
sg168
I3
sg1853
Nsg1578
Nsg1854
S'RP'
p4248
sg269
(issf_api
FeatureSet
p4249
(dp4250
g272
(dp4251
S'posn'
p4252
S'70'
p4253
sS'name'
p4254
S'\xe0\xa4\xad\xe0\xa4\xb0'
p4255
sS'af'
p4256
S'\xe0\xa4\xad\xe0\xa4\xb0,avy,,,,,,'
p4257
ssbsg1587
I00
sba(issf_api
Word
p4258
(dp4259
g1832
I00
sg1833
V\u0938\u0947
p4260
sg1835
(issf_api
FeatureSet
p4261
(dp4262
g272
(dp4263
S'posn'
p4264
S'80'
p4265
sS'name'
p4266
S'\xe0\xa4\xb8\xe0\xa5\x87'
p4267
sS'drel'
p4268
S'lwg__psp:\xe0\xa4\xb5\xe0\xa4\xbf\xe0\xa4\xb6\xe0\xa5\x8d\xe0\xa4\xb5'
p4269
sS'chunktype'
p4270
S'child:NP2'
p4271
sS'af'
p4272
S'\xe0\xa4\xb8\xe0\xa5\x87,psp,,,,,,'
p4273
ssbsg1566
I00
sg1569
I00
sg1580
Nsg1567
Nsg182
I3
sg168
I3
sg1853
Nsg1578
Nsg1854
S'PSP'
p4274
sg269
(issf_api
FeatureSet
p4275
(dp4276
g272
(dp4277
S'posn'
p4278
S'80'
p4279
sS'name'
p4280
S'\xe0\xa4\xb8\xe0\xa5\x87'
p4281
sS'af'
p4282
S'\xe0\xa4\xb8\xe0\xa5\x87,psp,,,,,,'
p4283
ssbsg1587
I00
sba(issf_api
Word
p4284
(dp4285
g1832
I00
sg1833
V\u0906\u090f
p4286
sg1835
(issf_api
FeatureSet
p4287
(dp4288
g272
(dp4289
S'posn'
p4290
S'90'
p4291
sS'name'
p4292
S'\xe0\xa4\x86\xe0\xa4\x8f'
p4293
sS'af'
p4294
S'\xe0\xa4\x86,v,m,pl,any,,\xe0\xa4\xaf\xe0\xa4\xbe,yA'
p4295
sS'chunkid'
p4296
S'VGNF'
p4297
sS'drel'
p4298
S'nmod__k1inv:\xe0\xa4\xb2\xe0\xa5\x8b\xe0\xa4\x97\xe0\xa5\x8b\xe0\xa4\x82'
p4299
sS'chunktype'
p4300
S'head:VGNF'
p4301
ssbsg1566
I00
sg1569
I00
sg1580
Nsg1567
Nsg182
I4
sg168
I3
sg1853
Nsg1578
Nsg1854
S'VM'
p4302
sg269
(issf_api
FeatureSet
p4303
(dp4304
g272
(dp4305
S'posn'
p4306
S'90'
p4307
sS'name'
p4308
S'\xe0\xa4\x86\xe0\xa4\x8f'
p4309
sS'af'
p4310
S'\xe0\xa4\x86,v,m,pl,any,,\xe0\xa4\xaf\xe0\xa4\xbe,yA'
p4311
ssbsg1587
I00
sba(issf_api
Word
p4312
(dp4313
g1832
I00
sg1833
V\u092e\u0940\u0921\u093f\u092f\u093e
p4314
sg1835
(issf_api
FeatureSet
p4315
(dp4316
g272
(dp4317
S'posn'
p4318
S'100'
p4319
sS'name'
p4320
S'\xe0\xa4\xae\xe0\xa5\x80\xe0\xa4\xa1\xe0\xa4\xbf\xe0\xa4\xaf\xe0\xa4\xbe'
p4321
sS'af'
p4322
S'\xe0\xa4\xae\xe0\xa5\x80\xe0\xa4\xa1\xe0\xa4\xbf\xe0\xa4\xaf\xe0\xa4\xbe,n,m,sg,3,o,0_\xe0\xa4\x95\xe0\xa4\xbe,0'
p4323
sS'chunkid'
p4324
S'NP3'
p4325
sS'drel'
p4326
S'r6:\xe0\xa4\xb2\xe0\xa5\x8b\xe0\xa4\x97\xe0\xa5\x8b\xe0\xa4\x82'
p4327
sS'vpos'
p4328
S'vib_2'
p4329
sS'chunktype'
p4330
S'head:NP3'
p4331
ssbsg1566
I00
sg1569
I00
sg1580
Nsg1567
Nsg182
I5
sg168
I3
sg1853
Nsg1578
Nsg1854
S'NN'
p4332
sg269
(issf_api
FeatureSet
p4333
(dp4334
g272
(dp4335
S'posn'
p4336
S'100'
p4337
sS'name'
p4338
S'\xe0\xa4\xae\xe0\xa5\x80\xe0\xa4\xa1\xe0\xa4\xbf\xe0\xa4\xaf\xe0\xa4\xbe'
p4339
sS'af'
p4340
S'\xe0\xa4\xae\xe0\xa5\x80\xe0\xa4\xa1\xe0\xa4\xbf\xe0\xa4\xaf\xe0\xa4\xbe,n,m,sg,3,o,0,0'
p4341
ssbsg1587
I00
sba(issf_api
Word
p4342
(dp4343
g1832
I00
sg1833
V\u0915\u0947
p4344
sg1835
(issf_api
FeatureSet
p4345
(dp4346
g272
(dp4347
S'posn'
p4348
S'110'
p4349
sS'name'
p4350
S'\xe0\xa4\x95\xe0\xa5\x87'
p4351
sS'drel'
p4352
S'lwg__psp:\xe0\xa4\xae\xe0\xa5\x80\xe0\xa4\xa1\xe0\xa4\xbf\xe0\xa4\xaf\xe0\xa4\xbe'
p4353
sS'chunktype'
p4354
S'child:NP3'
p4355
sS'af'
p4356
S'\xe0\xa4\x95\xe0\xa4\xbe,psp,m,pl,,o,,'
p4357
ssbsg1566
I00
sg1569
I00
sg1580
Nsg1567
Nsg182
I5
sg168
I3
sg1853
Nsg1578
Nsg1854
S'PSP'
p4358
sg269
(issf_api
FeatureSet
p4359
(dp4360
g272
(dp4361
S'posn'
p4362
S'110'
p4363
sS'name'
p4364
S'\xe0\xa4\x95\xe0\xa5\x87'
p4365
sS'af'
p4366
S'\xe0\xa4\x95\xe0\xa4\xbe,psp,m,pl,,o,,'
p4367
ssbsg1587
I00
sba(issf_api
Word
p4368
(dp4369
g1832
I00
sg1833
V\u0932\u094b\u0917\u094b\u0902
p4370
sg1835
(issf_api
FeatureSet
p4371
(dp4372
g272
(dp4373
S'posn'
p4374
S'120'
p4375
sS'name'
p4376
S'\xe0\xa4\xb2\xe0\xa5\x8b\xe0\xa4\x97\xe0\xa5\x8b\xe0\xa4\x82'
p4377
sS'af'
p4378
S'\xe0\xa4\xb2\xe0\xa5\x8b\xe0\xa4\x97,n,m,pl,3,o,0_\xe0\xa4\xa8\xe0\xa5\x87,0'
p4379
sS'chunkid'
p4380
S'NP4'
p4381
sS'drel'
p4382
S'k1:\xe0\xa4\x95\xe0\xa4\xbf\xe0\xa4\xaf\xe0\xa4\xbe'
p4383
sS'vpos'
p4384
S'vib_2_RP'
p4385
sS'chunktype'
p4386
S'head:NP4'
p4387
ssbsg1566
I00
sg1569
I00
sg1580
Nsg1567
Nsg182
I6
sg168
I3
sg1853
Nsg1578
Nsg1854
S'NN'
p4388
sg269
(issf_api
FeatureSet
p4389
(dp4390
g272
(dp4391
S'posn'
p4392
S'120'
p4393
sS'name'
p4394
S'\xe0\xa4\xb2\xe0\xa5\x8b\xe0\xa4\x97\xe0\xa5\x8b\xe0\xa4\x82'
p4395
sS'af'
p4396
S'\xe0\xa4\xb2\xe0\xa5\x8b\xe0\xa4\x97,n,m,pl,3,o,0,0'
p4397
ssbsg1587
I00
sba(issf_api
Word
p4398
(dp4399
g1832
I00
sg1833
V\u0928\u0947
p4400
sg1835
(issf_api
FeatureSet
p4401
(dp4402
g272
(dp4403
S'posn'
p4404
S'130'
p4405
sS'name'
p4406
S'\xe0\xa4\xa8\xe0\xa5\x872'
p4407
sS'drel'
p4408
S'lwg__psp:\xe0\xa4\xb2\xe0\xa5\x8b\xe0\xa4\x97\xe0\xa5\x8b\xe0\xa4\x82'
p4409
sS'chunktype'
p4410
S'child:NP4'
p4411
sS'af'
p4412
S'\xe0\xa4\xa8\xe0\xa5\x87,psp,,,,,,'
p4413
ssbsg1566
I00
sg1569
I00
sg1580
Nsg1567
Nsg182
I6
sg168
I3
sg1853
Nsg1578
Nsg1854
S'PSP'
p4414
sg269
(issf_api
FeatureSet
p4415
(dp4416
g272
(dp4417
S'posn'
p4418
S'130'
p4419
sS'name'
p4420
S'\xe0\xa4\xa8\xe0\xa5\x872'
p4421
sS'af'
p4422
S'\xe0\xa4\xa8\xe0\xa5\x87,psp,,,,,,'
p4423
ssbsg1587
I00
sba(issf_api
Word
p4424
(dp4425
g1832
I00
sg1833
V\u092d\u0940
p4426
sg1835
(issf_api
FeatureSet
p4427
(dp4428
g272
(dp4429
S'posn'
p4430
S'140'
p4431
sS'name'
p4432
S'\xe0\xa4\xad\xe0\xa5\x80'
p4433
sS'drel'
p4434
S'lwg__rp:\xe0\xa4\xb2\xe0\xa5\x8b\xe0\xa4\x97\xe0\xa5\x8b\xe0\xa4\x82'
p4435
sS'chunktype'
p4436
S'child:NP4'
p4437
sS'af'
p4438
S'\xe0\xa4\xad\xe0\xa5\x80,avy,,,,,,'
p4439
ssbsg1566
I00
sg1569
I00
sg1580
Nsg1567
Nsg182
I6
sg168
I3
sg1853
Nsg1578
Nsg1854
S'RP'
p4440
sg269
(issf_api
FeatureSet
p4441
(dp4442
g272
(dp4443
S'posn'
p4444
S'140'
p4445
sS'name'
p4446
S'\xe0\xa4\xad\xe0\xa5\x80'
p4447
sS'af'
p4448
S'\xe0\xa4\xad\xe0\xa5\x80,avy,,,,,,'
p4449
ssbsg1587
I00
sba(issf_api
Word
p4450
(dp4451
g1832
I00
sg1833
V\u0905\u092a\u0928\u0940
p4452
sg1835
(issf_api
FeatureSet
p4453
(dp4454
g272
(dp4455
S'posn'
p4456
S'150'
p4457
sS'name'
p4458
S'\xe0\xa4\x85\xe0\xa4\xaa\xe0\xa4\xa8\xe0\xa5\x80'
p4459
sS'af'
p4460
S'\xe0\xa4\x85\xe0\xa4\xaa\xe0\xa4\xa8\xe0\xa4\xbe,pn,f,any,any,d,0,0'
p4461
sS'chunkid'
p4462
S'NP5'
p4463
sS'drel'
p4464
S'r6:\xe0\xa4\x96\xe0\xa4\xac\xe0\xa4\xb0\xe0\xa5\x87\xe0\xa4\x82'
p4465
sS'chunktype'
p4466
S'head:NP5'
p4467
ssbsg1566
I00
sg1569
I00
sg1580
Nsg1567
Nsg182
I7
sg168
I3
sg1853
Nsg1578
Nsg1854
S'PRP'
p4468
sg269
(issf_api
FeatureSet
p4469
(dp4470
g272
(dp4471
S'posn'
p4472
S'150'
p4473
sS'name'
p4474
S'\xe0\xa4\x85\xe0\xa4\xaa\xe0\xa4\xa8\xe0\xa5\x80'
p4475
sS'af'
p4476
S'\xe0\xa4\x85\xe0\xa4\xaa\xe0\xa4\xa8\xe0\xa4\xbe,pn,f,any,any,d,0,0'
p4477
ssbsg1587
I00
sba(issf_api
Word
p4478
(dp4479
g1832
I00
sg1833
V\u0916\u092c\u0930\u0947\u0902
p4480
sg1835
(issf_api
FeatureSet
p4481
(dp4482
g272
(dp4483
S'posn'
p4484
S'160'
p4485
sS'name'
p4486
S'\xe0\xa4\x96\xe0\xa4\xac\xe0\xa4\xb0\xe0\xa5\x87\xe0\xa4\x82'
p4487
sS'af'
p4488
S'\xe0\xa4\x96\xe0\xa4\xac\xe0\xa4\xb0,n,f,pl,3,d,0,0'
p4489
sS'chunkid'
p4490
S'NP6'
p4491
sS'drel'
p4492
S'k2:\xe0\xa4\xad\xe0\xa5\x87\xe0\xa4\x9c\xe0\xa4\xa8\xe0\xa5\x87'
p4493
sS'chunktype'
p4494
S'head:NP6'
p4495
ssbsg1566
I00
sg1569
I00
sg1580
Nsg1567
Nsg182
I8
sg168
I3
sg1853
Nsg1578
Nsg1854
S'NN'
p4496
sg269
(issf_api
FeatureSet
p4497
(dp4498
g272
(dp4499
S'posn'
p4500
S'160'
p4501
sS'name'
p4502
S'\xe0\xa4\x96\xe0\xa4\xac\xe0\xa4\xb0\xe0\xa5\x87\xe0\xa4\x82'
p4503
sS'af'
p4504
S'\xe0\xa4\x96\xe0\xa4\xac\xe0\xa4\xb0,n,f,pl,3,d,0,0'
p4505
ssbsg1587
I00
sba(issf_api
Word
p4506
(dp4507
g1832
I00
sg1833
V\u092d\u0947\u091c\u0928\u0947
p4508
sg1835
(issf_api
FeatureSet
p4509
(dp4510
g272
(dp4511
S'posn'
p4512
S'170'
p4513
sS'name'
p4514
S'\xe0\xa4\xad\xe0\xa5\x87\xe0\xa4\x9c\xe0\xa4\xa8\xe0\xa5\x87'
p4515
sS'af'
p4516
S'\xe0\xa4\xad\xe0\xa5\x87\xe0\xa4\x9c,v,any,any,any,o,\xe0\xa4\xa8\xe0\xa4\xbe_\xe0\xa4\x95\xe0\xa5\x87_\xe0\xa4\xb2\xe0\xa4\xbf\xe0\xa4\x8f,nA'
p4517
sS'chunkid'
p4518
S'VGNN'
p4519
sS'drel'
p4520
S'rt:\xe0\xa4\x95\xe0\xa4\xbf\xe0\xa4\xaf\xe0\xa4\xbe'
p4521
sS'vpos'
p4522
S'tam_2_3'
p4523
sS'chunktype'
p4524
S'head:VGNN'
p4525
ssbsg1566
I00
sg1569
I00
sg1580
Nsg1567
Nsg182
I9
sg168
I3
sg1853
Nsg1578
Nsg1854
S'VM'
p4526
sg269
(issf_api
FeatureSet
p4527
(dp4528
g272
(dp4529
S'posn'
p4530
S'170'
p4531
sS'name'
p4532
S'\xe0\xa4\xad\xe0\xa5\x87\xe0\xa4\x9c\xe0\xa4\xa8\xe0\xa5\x87'
p4533
sS'af'
p4534
S'\xe0\xa4\xad\xe0\xa5\x87\xe0\xa4\x9c,v,any,any,any,o,\xe0\xa4\xa8\xe0\xa4\xbe,nA'
p4535
ssbsg1587
I00
sba(issf_api
Word
p4536
(dp4537
g1832
I00
sg1833
V\u0915\u0947
p4538
sg1835
(issf_api
FeatureSet
p4539
(dp4540
g272
(dp4541
S'posn'
p4542
S'180'
p4543
sS'name'
p4544
S'\xe0\xa4\x95\xe0\xa5\x872'
p4545
sS'drel'
p4546
S'lwg__psp:\xe0\xa4\xad\xe0\xa5\x87\xe0\xa4\x9c\xe0\xa4\xa8\xe0\xa5\x87'
p4547
sS'chunktype'
p4548
S'child:VGNN'
p4549
sS'af'
p4550
S'\xe0\xa4\x95\xe0\xa5\x87,psp,,,,,,'
p4551
ssbsg1566
I00
sg1569
I00
sg1580
Nsg1567
Nsg182
I9
sg168
I3
sg1853
Nsg1578
Nsg1854
S'PSP'
p4552
sg269
(issf_api
FeatureSet
p4553
(dp4554
g272
(dp4555
S'posn'
p4556
S'180'
p4557
sS'name'
p4558
S'\xe0\xa4\x95\xe0\xa5\x872'
p4559
sS'af'
p4560
S'\xe0\xa4\x95\xe0\xa5\x87,psp,,,,,,'
p4561
ssbsg1587
I00
sba(issf_api
Word
p4562
(dp4563
g1832
I00
sg1833
V\u0932\u093f\u090f
p4564
sg1835
(issf_api
FeatureSet
p4565
(dp4566
g272
(dp4567
S'posn'
p4568
S'190'
p4569
sS'name'
p4570
S'\xe0\xa4\xb2\xe0\xa4\xbf\xe0\xa4\x8f'
p4571
sS'drel'
p4572
S'lwg__psp:\xe0\xa4\xad\xe0\xa5\x87\xe0\xa4\x9c\xe0\xa4\xa8\xe0\xa5\x87'
p4573
sS'chunktype'
p4574
S'child:VGNN'
p4575
sS'af'
p4576
S'\xe0\xa4\xb2\xe0\xa4\xbf\xe0\xa4\x8f,psp,,,,,,'
p4577
ssbsg1566
I00
sg1569
I00
sg1580
Nsg1567
Nsg182
I9
sg168
I3
sg1853
Nsg1578
Nsg1854
S'PSP'
p4578
sg269
(issf_api
FeatureSet
p4579
(dp4580
g272
(dp4581
S'posn'
p4582
S'190'
p4583
sS'name'
p4584
S'\xe0\xa4\xb2\xe0\xa4\xbf\xe0\xa4\x8f'
p4585
sS'af'
p4586
S'\xe0\xa4\xb2\xe0\xa4\xbf\xe0\xa4\x8f,psp,,,,,,'
p4587
ssbsg1587
I00
sba(issf_api
Word
p4588
(dp4589
g1832
I00
sg1833
V\u0907\u0928\u094d\u0939\u0940\u0902
p4590
sg1835
(issf_api
FeatureSet
p4591
(dp4592
g272
(dp4593
S'posn'
p4594
S'200'
p4595
sS'name'
p4596
S'\xe0\xa4\x87\xe0\xa4\xa8\xe0\xa5\x8d\xe0\xa4\xb9\xe0\xa5\x80\xe0\xa4\x82'
p4597
sS'drel'
p4598
S'nmod__adj:\xe0\xa4\xb2\xe0\xa4\xbe\xe0\xa4\x87\xe0\xa4\xa8\xe0\xa5\x8b\xe0\xa4\x82'
p4599
sS'chunktype'
p4600
S'child:NP7'
p4601
sS'af'
p4602
S'\xe0\xa4\xaf\xe0\xa4\xb9,pn,any,pl,3,o,,'
p4603
ssbsg1566
I00
sg1569
I00
sg1580
Nsg1567
Nsg182
I10
sg168
I3
sg1853
Nsg1578
Nsg1854
S'DEM'
p4604
sg269
(issf_api
FeatureSet
p4605
(dp4606
g272
(dp4607
S'posn'
p4608
S'200'
p4609
sS'name'
p4610
S'\xe0\xa4\x87\xe0\xa4\xa8\xe0\xa5\x8d\xe0\xa4\xb9\xe0\xa5\x80\xe0\xa4\x82'
p4611
sS'af'
p4612
S'\xe0\xa4\xaf\xe0\xa4\xb9,pn,any,pl,3,o,,'
p4613
ssbsg1587
I00
sba(issf_api
Word
p4614
(dp4615
g1832
I00
sg1833
V\u091f\u0947\u0932\u0940\u092b\u094b\u0928
p4616
sg1835
(issf_api
FeatureSet
p4617
(dp4618
g272
(dp4619
S'posn'
p4620
S'210'
p4621
sS'name'
p4622
S'\xe0\xa4\x9f\xe0\xa5\x87\xe0\xa4\xb2\xe0\xa5\x80\xe0\xa4\xab\xe0\xa5\x8b\xe0\xa4\xa8'
p4623
sS'drel'
p4624
S'pof__cn:\xe0\xa4\xb2\xe0\xa4\xbe\xe0\xa4\x87\xe0\xa4\xa8\xe0\xa5\x8b\xe0\xa4\x82'
p4625
sS'chunktype'
p4626
S'child:NP7'
p4627
sS'af'
p4628
S'\xe0\xa4\x9f\xe0\xa5\x87\xe0\xa4\xb2\xe0\xa5\x80\xe0\xa4\xab\xe0\xa5\x8b\xe0\xa4\xa8,n,m,sg,3,d,0,0'
p4629
ssbsg1566
I00
sg1569
I00
sg1580
Nsg1567
Nsg182
I10
sg168
I3
sg1853
Nsg1578
Nsg1854
S'NNC'
p4630
sg269
(issf_api
FeatureSet
p4631
(dp4632
g272
(dp4633
S'posn'
p4634
S'210'
p4635
sS'name'
p4636
S'\xe0\xa4\x9f\xe0\xa5\x87\xe0\xa4\xb2\xe0\xa5\x80\xe0\xa4\xab\xe0\xa5\x8b\xe0\xa4\xa8'
p4637
sS'af'
p4638
S'\xe0\xa4\x9f\xe0\xa5\x87\xe0\xa4\xb2\xe0\xa5\x80\xe0\xa4\xab\xe0\xa5\x8b\xe0\xa4\xa8,n,m,sg,3,d,0,0'
p4639
ssbsg1587
I00
sba(issf_api
Word
p4640
(dp4641
g1832
I00
sg1833
V\u0932\u093e\u0907\u0928\u094b\u0902
p4642
sg1835
(issf_api
FeatureSet
p4643
(dp4644
g272
(dp4645
S'posn'
p4646
S'220'
p4647
sS'name'
p4648
S'\xe0\xa4\xb2\xe0\xa4\xbe\xe0\xa4\x87\xe0\xa4\xa8\xe0\xa5\x8b\xe0\xa4\x82'
p4649
sS'af'
p4650
S'\xe0\xa4\xb2\xe0\xa4\xbe\xe0\xa4\x87\xe0\xa4\xa8,n,f,pl,3,o,0_\xe0\xa4\x95\xe0\xa4\xbe,0'
p4651
sS'chunkid'
p4652
S'NP7'
p4653
sS'drel'
p4654
S'r6-k2:\xe0\xa4\x87\xe0\xa4\xb8\xe0\xa5\x8d\xe0\xa4\xa4\xe0\xa5\x87\xe0\xa4\xae\xe0\xa4\xbe\xe0\xa4\xb2'
p4655
sS'vpos'
p4656
S'vib_4'
p4657
sS'chunktype'
p4658
S'head:NP7'
p4659
ssbsg1566
I00
sg1569
I00
sg1580
Nsg1567
Nsg182
I10
sg168
I3
sg1853
Nsg1578
Nsg1854
S'NN'
p4660
sg269
(issf_api
FeatureSet
p4661
(dp4662
g272
(dp4663
S'posn'
p4664
S'220'
p4665
sS'name'
p4666
S'\xe0\xa4\xb2\xe0\xa4\xbe\xe0\xa4\x87\xe0\xa4\xa8\xe0\xa5\x8b\xe0\xa4\x82'
p4667
sS'af'
p4668
S'\xe0\xa4\xb2\xe0\xa4\xbe\xe0\xa4\x87\xe0\xa4\xa8,n,f,pl,3,o,0,0'
p4669
ssbsg1587
I00
sba(issf_api
Word
p4670
(dp4671
g1832
I00
sg1833
V\u0915\u093e
p4672
sg1835
(issf_api
FeatureSet
p4673
(dp4674
g272
(dp4675
S'posn'
p4676
S'230'
p4677
sS'name'
p4678
S'\xe0\xa4\x95\xe0\xa4\xbe'
p4679
sS'drel'
p4680
S'lwg__psp:\xe0\xa4\xb2\xe0\xa4\xbe\xe0\xa4\x87\xe0\xa4\xa8\xe0\xa5\x8b\xe0\xa4\x82'
p4681
sS'chunktype'
p4682
S'child:NP7'
p4683
sS'af'
p4684
S'\xe0\xa4\x95\xe0\xa4\xbe,psp,m,sg,,d,,'
p4685
ssbsg1566
I00
sg1569
I00
sg1580
Nsg1567
Nsg182
I10
sg168
I3
sg1853
Nsg1578
Nsg1854
S'PSP'
p4686
sg269
(issf_api
FeatureSet
p4687
(dp4688
g272
(dp4689
S'posn'
p4690
S'230'
p4691
sS'name'
p4692
S'\xe0\xa4\x95\xe0\xa4\xbe'
p4693
sS'af'
p4694
S'\xe0\xa4\x95\xe0\xa4\xbe,psp,m,sg,,d,,'
p4695
ssbsg1587
I00
sba(issf_api
Word
p4696
(dp4697
g1832
I00
sg1833
V\u0907\u0938\u094d\u0924\u0947\u092e\u093e\u0932
p4698
sg1835
(issf_api
FeatureSet
p4699
(dp4700
g272
(dp4701
S'posn'
p4702
S'240'
p4703
sS'name'
p4704
S'\xe0\xa4\x87\xe0\xa4\xb8\xe0\xa5\x8d\xe0\xa4\xa4\xe0\xa5\x87\xe0\xa4\xae\xe0\xa4\xbe\xe0\xa4\xb2'
p4705
sS'af'
p4706
S'\xe0\xa4\x87\xe0\xa4\xb8\xe0\xa5\x8d\xe0\xa4\xa4\xe0\xa5\x87\xe0\xa4\xae\xe0\xa4\xbe\xe0\xa4\xb2,n,m,sg,3,d,0,0'
p4707
sS'chunkid'
p4708
S'NP8'
p4709
sS'drel'
p4710
S'pof:\xe0\xa4\x95\xe0\xa4\xbf\xe0\xa4\xaf\xe0\xa4\xbe'
p4711
sS'chunktype'
p4712
S'head:NP8'
p4713
ssbsg1566
I00
sg1569
I00
sg1580
Nsg1567
Nsg182
I11
sg168
I3
sg1853
Nsg1578
Nsg1854
S'NN'
p4714
sg269
(issf_api
FeatureSet
p4715
(dp4716
g272
(dp4717
S'posn'
p4718
S'240'
p4719
sS'name'
p4720
S'\xe0\xa4\x87\xe0\xa4\xb8\xe0\xa5\x8d\xe0\xa4\xa4\xe0\xa5\x87\xe0\xa4\xae\xe0\xa4\xbe\xe0\xa4\xb2'
p4721
sS'af'
p4722
S'\xe0\xa4\x87\xe0\xa4\xb8\xe0\xa5\x8d\xe0\xa4\xa4\xe0\xa5\x87\xe0\xa4\xae\xe0\xa4\xbe\xe0\xa4\xb2,n,m,sg,3,d,0,0'
p4723
ssbsg1587
I00
sba(issf_api
Word
p4724
(dp4725
g1832
I00
sg1833
V\u0915\u093f\u092f\u093e
p4726
sg1835
(issf_api
FeatureSet
p4727
(dp4728
g272
(dp4729
S'posn'
p4730
S'250'
p4731
sS'name'
p4732
S'\xe0\xa4\x95\xe0\xa4\xbf\xe0\xa4\xaf\xe0\xa4\xbe'
p4733
sS'af'
p4734
S'\xe0\xa4\x95\xe0\xa4\xb0,v,m,sg,any,,\xe0\xa4\xaf\xe0\xa4\xbe,yA'
p4735
sS'chunkid'
p4736
S'VGF2'
p4737
sS'stype'
p4738
S'declarative'
p4739
sS'drel'
p4740
S'ccof:\xe0\xa4\x95\xe0\xa4\xbf'
p4741
sS'voicetype'
p4742
S'active'
p4743
sS'chunktype'
p4744
S'head:VGF2'
p4745
ssbsg1566
I00
sg1569
I00
sg1580
Nsg1567
Nsg182
I12
sg168
I3
sg1853
Nsg1578
Nsg1854
S'VM'
p4746
sg269
(issf_api
FeatureSet
p4747
(dp4748
g272
(dp4749
S'posn'
p4750
S'250'
p4751
sS'name'
p4752
S'\xe0\xa4\x95\xe0\xa4\xbf\xe0\xa4\xaf\xe0\xa4\xbe'
p4753
sS'af'
p4754
S'\xe0\xa4\x95\xe0\xa4\xb0,v,m,sg,any,,\xe0\xa4\xaf\xe0\xa4\xbe,yA'
p4755
ssbsg1587
I00
sba(issf_api
Word
p4756
(dp4757
g1832
I00
sg1833
V\u0964
sg1835
(issf_api
FeatureSet
p4758
(dp4759
g272
(dp4760
S'posn'
p4761
S'260'
p4762
sS'name'
p4763
S'\xe0\xa5\xa4'
p4764
sS'af'
p4765
S'\xe0\xa5\xa4,punc,,,,,,'
p4766
sS'chunkid'
p4767
S'BLK'
p4768
sS'drel'
p4769
S'rsym:\xe0\xa4\x95\xe0\xa4\xb9\xe0\xa4\xbe'
p4770
sS'chunktype'
p4771
S'head:BLK'
p4772
ssbsg1566
I00
sg1569
I00
sg1580
Nsg1567
Nsg182
I13
sg168
I3
sg1853
Nsg1578
Nsg1854
S'SYM'
p4773
sg269
(issf_api
FeatureSet
p4774
(dp4775
g272
(dp4776
S'posn'
p4777
S'260'
p4778
sS'name'
p4779
S'\xe0\xa5\xa4'
p4780
sS'af'
p4781
S'\xe0\xa5\xa4,punc,,,,,,'
p4782
ssbsg1587
I00
sba(issf_api
Word
p4783
(dp4784
g1832
I00
sg1833
V\u0909\u0928\u094d\u0939\u094b\u0902\u0928\u0947
p4785
sg1835
(issf_api
FeatureSet
p4786
(dp4787
g272
(dp4788
S'posn'
p4789
S'10'
p4790
sS'name'
p4791
S'\xe0\xa4\x89\xe0\xa4\xa8\xe0\xa5\x8d\xe0\xa4\xb9\xe0\xa5\x8b\xe0\xa4\x82\xe0\xa4\xa8\xe0\xa5\x87'
p4792
sS'af'
p4793
S'\xe0\xa4\xb5\xe0\xa4\xb9,pn,any,sg,3h,o,\xe0\xa4\xa8\xe0\xa5\x87,ne'
p4794
sS'chunkid'
p4795
S'NP'
p4796
sS'drel'
p4797
S'k1:\xe0\xa4\x95\xe0\xa4\xb9\xe0\xa4\xbe'
p4798
sS'chunktype'
p4799
S'head:NP'
p4800
ssbsg1566
I00
sg1569
I00
sg1580
Nsg1567
Nsg182
I0
sg168
I4
sg1853
Nsg1578
Nsg1854
S'PRP'
p4801
sg269
(issf_api
FeatureSet
p4802
(dp4803
g272
(dp4804
S'posn'
p4805
S'10'
p4806
sS'name'
p4807
S'\xe0\xa4\x89\xe0\xa4\xa8\xe0\xa5\x8d\xe0\xa4\xb9\xe0\xa5\x8b\xe0\xa4\x82\xe0\xa4\xa8\xe0\xa5\x87'
p4808
sS'af'
p4809
S'\xe0\xa4\xb5\xe0\xa4\xb9,pn,any,sg,3h,o,\xe0\xa4\xa8\xe0\xa5\x87,ne'
p4810
ssbsg1587
I00
sba(issf_api
Word
p4811
(dp4812
g1832
I00
sg1833
V\u0915\u0939\u093e
p4813
sg1835
(issf_api
FeatureSet
p4814
(dp4815
g272
(dp4816
S'posn'
p4817
S'20'
p4818
sS'name'
p4819
S'\xe0\xa4\x95\xe0\xa4\xb9\xe0\xa4\xbe'
p4820
sS'af'
p4821
S'\xe0\xa4\x95\xe0\xa4\xb9,v,m,sg,any,,\xe0\xa4\xaf\xe0\xa4\xbe,yA'
p4822
sS'chunkid'
p4823
S'VGF'
p4824
sS'chunktype'
p4825
S'head:VGF'
p4826
sS'voicetype'
p4827
S'active'
p4828
sS'stype'
p4829
S'declarative'
p4830
ssbsg1566
I00
sg1569
I00
sg1580
Nsg1567
Nsg182
I1
sg168
I4
sg1853
Nsg1578
Nsg1854
S'VM'
p4831
sg269
(issf_api
FeatureSet
p4832
(dp4833
g272
(dp4834
S'posn'
p4835
S'20'
p4836
sS'name'
p4837
S'\xe0\xa4\x95\xe0\xa4\xb9\xe0\xa4\xbe'
p4838
sS'af'
p4839
S'\xe0\xa4\x95\xe0\xa4\xb9,v,m,sg,any,,\xe0\xa4\xaf\xe0\xa4\xbe,yA'
p4840
ssbsg1587
I00
sba(issf_api
Word
p4841
(dp4842
g1832
I00
sg1833
V\u0915\u093f
p4843
sg1835
(issf_api
FeatureSet
p4844
(dp4845
g272
(dp4846
S'posn'
p4847
S'30'
p4848
sS'name'
p4849
S'\xe0\xa4\x95\xe0\xa4\xbf'
p4850
sS'af'
p4851
S'\xe0\xa4\x95\xe0\xa4\xbf,avy,,,,,,'
p4852
sS'chunkid'
p4853
S'CCP'
p4854
sS'drel'
p4855
S'k2:\xe0\xa4\x95\xe0\xa4\xb9\xe0\xa4\xbe'
p4856
sS'chunktype'
p4857
S'head:CCP'
p4858
ssbsg1566
I00
sg1569
I00
sg1580
Nsg1567
Nsg182
I2
sg168
I4
sg1853
Nsg1578
Nsg1854
S'CC'
p4859
sg269
(issf_api
FeatureSet
p4860
(dp4861
g272
(dp4862
S'posn'
p4863
S'30'
p4864
sS'name'
p4865
S'\xe0\xa4\x95\xe0\xa4\xbf'
p4866
sS'af'
p4867
S'\xe0\xa4\x95\xe0\xa4\xbf,avy,,,,,,'
p4868
ssbsg1587
I00
sba(issf_api
Word
p4869
(dp4870
g1832
I00
sg1833
V\u092c\u0940\u090f\u0938\u090f\u0928\u090f\u0932
p4871
sg1835
(issf_api
FeatureSet
p4872
(dp4873
g272
(dp4874
S'posn'
p4875
S'40'
p4876
sS'name'
p4877
S'\xe0\xa4\xac\xe0\xa5\x80\xe0\xa4\x8f\xe0\xa4\xb8\xe0\xa4\x8f\xe0\xa4\xa8\xe0\xa4\x8f\xe0\xa4\xb2'
p4878
sS'af'
p4879
S'\xe0\xa4\xac\xe0\xa5\x80\xe0\xa4\x8f\xe0\xa4\xb8\xe0\xa4\x8f\xe0\xa4\xa8\xe0\xa4\x8f\xe0\xa4\xb2,n,m,sg,3,o,0_\xe0\xa4\xa8\xe0\xa5\x87,0'
p4880
sS'chunkid'
p4881
S'NP2'
p4882
sS'drel'
p4883
S'k1:\xe0\xa4\x95\xe0\xa5\x80'
p4884
sS'vpos'
p4885
S'vib_2'
p4886
sS'chunktype'
p4887
S'head:NP2'
p4888
ssbsg1566
I01
sg1569
I00
sg1580
Nsg1567
Nsg182
I3
sg168
I4
sg1853
I0
sg1578
Nsg1854
S'NNP'
p4889
sg269
(issf_api
FeatureSet
p4890
(dp4891
g272
(dp4892
S'posn'
p4893
S'40'
p4894
sS'name'
p4895
S'\xe0\xa4\xac\xe0\xa5\x80\xe0\xa4\x8f\xe0\xa4\xb8\xe0\xa4\x8f\xe0\xa4\xa8\xe0\xa4\x8f\xe0\xa4\xb2'
p4896
sS'af'
p4897
S'\xe0\xa4\xac\xe0\xa5\x80\xe0\xa4\x8f\xe0\xa4\xb8\xe0\xa4\x8f\xe0\xa4\xa8\xe0\xa4\x8f\xe0\xa4\xb2,n,m,sg,3,o,0,0'
p4898
ssbsg1587
I00
sba(issf_api
Word
p4899
(dp4900
g1832
I00
sg1833
V\u0928\u0947
p4901
sg1835
(issf_api
FeatureSet
p4902
(dp4903
g272
(dp4904
S'posn'
p4905
S'50'
p4906
sS'name'
p4907
S'\xe0\xa4\xa8\xe0\xa5\x87'
p4908
sS'drel'
p4909
S'lwg__psp:\xe0\xa4\xac\xe0\xa5\x80\xe0\xa4\x8f\xe0\xa4\xb8\xe0\xa4\x8f\xe0\xa4\xa8\xe0\xa4\x8f\xe0\xa4\xb2'
p4910
sS'chunktype'
p4911
S'child:NP2'
p4912
sS'af'
p4913
S'\xe0\xa4\xa8\xe0\xa5\x87,psp,,,,,,'
p4914
ssbsg1566
I01
sg1569
I00
sg1580
Nsg1567
Nsg182
I3
sg168
I4
sg1853
I0
sg1578
Nsg1854
S'PSP'
p4915
sg269
(issf_api
FeatureSet
p4916
(dp4917
g272
(dp4918
S'posn'
p4919
S'50'
p4920
sS'name'
p4921
S'\xe0\xa4\xa8\xe0\xa5\x87'
p4922
sS'af'
p4923
S'\xe0\xa4\xa8\xe0\xa5\x87,psp,,,,,,'
p4924
ssbsg1587
I00
sba(issf_api
Word
p4925
(dp4926
g1832
I00
sg1833
V\u0909\u0930\u0940
p4927
sg1835
(issf_api
FeatureSet
p4928
(dp4929
g272
(dp4930
S'posn'
p4931
S'60'
p4932
sS'name'
p4933
S'\xe0\xa4\x89\xe0\xa4\xb0\xe0\xa5\x80'
p4934
sS'drel'
p4935
S'nmod__adj:\xe0\xa4\xb6\xe0\xa4\xb9\xe0\xa4\xb0'
p4936
sS'chunktype'
p4937
S'child:NP3'
p4938
sS'af'
p4939
S'\xe0\xa4\x89\xe0\xa4\xb0\xe0\xa5\x80,n,m,sg,3,d,0,0'
p4940
ssbsg1566
I01
sg1569
I00
sg1580
Nsg1567
Nsg182
I4
sg168
I4
sg1853
I0
sg1578
Nsg1854
S'NNP'
p4941
sg269
(issf_api
FeatureSet
p4942
(dp4943
g272
(dp4944
S'posn'
p4945
S'60'
p4946
sS'name'
p4947
S'\xe0\xa4\x89\xe0\xa4\xb0\xe0\xa5\x80'
p4948
sS'af'
p4949
S'\xe0\xa4\x89\xe0\xa4\xb0\xe0\xa5\x80,n,m,sg,3,d,0,0'
p4950
ssbsg1587
I00
sba(issf_api
Word
p4951
(dp4952
g1832
I00
sg1833
V\u0936\u0939\u0930
p4953
sg1835
(issf_api
FeatureSet
p4954
(dp4955
g272
(dp4956
S'posn'
p4957
S'70'
p4958
sS'name'
p4959
S'\xe0\xa4\xb6\xe0\xa4\xb9\xe0\xa4\xb0'
p4960
sS'af'
p4961
S'\xe0\xa4\xb6\xe0\xa4\xb9\xe0\xa4\xb0,n,m,sg,3,o,0,0'
p4962
sS'chunkid'
p4963
S'NP3'
p4964
sS'drel'
p4965
S'ccof:\xe0\xa4\xb5'
p4966
sS'chunktype'
p4967
S'head:NP3'
p4968
ssbsg1566
I01
sg1569
I00
sg1580
Nsg1567
Nsg182
I4
sg168
I4
sg1853
I0
sg1578
Nsg1854
S'NN'
p4969
sg269
(issf_api
FeatureSet
p4970
(dp4971
g272
(dp4972
S'posn'
p4973
S'70'
p4974
sS'name'
p4975
S'\xe0\xa4\xb6\xe0\xa4\xb9\xe0\xa4\xb0'
p4976
sS'af'
p4977
S'\xe0\xa4\xb6\xe0\xa4\xb9\xe0\xa4\xb0,n,m,sg,3,o,0,0'
p4978
ssbsg1587
I00
sba(issf_api
Word
p4979
(dp4980
g1832
I00
sg1833
V,
sg1835
(issf_api
FeatureSet
p4981
(dp4982
g272
(dp4983
S'posn'
p4984
S'80'
p4985
sS'name'
p4986
S','
sS'drel'
p4987
S'rsym:\xe0\xa4\xb6\xe0\xa4\xb9\xe0\xa4\xb0'
p4988
sS'chunktype'
p4989
S'child:NP3'
p4990
sS'af'
p4991
S'COMMA,punc,,,,,,'
p4992
ssbsg1566
I01
sg1569
I00
sg1580
Nsg1567
Nsg182
I4
sg168
I4
sg1853
I0
sg1578
Nsg1854
S'SYM'
p4993
sg269
(issf_api
FeatureSet
p4994
(dp4995
g272
(dp4996
S'posn'
p4997
S'80'
p4998
sS'name'
p4999
S','
sS'af'
p5000
S'COMMA,punc,,,,,,'
p5001
ssbsg1587
I00
sba(issf_api
Word
p5002
(dp5003
g1832
I00
sg1833
V\u0915\u092e\u093e\u0928
p5004
sg1835
(issf_api
FeatureSet
p5005
(dp5006
g272
(dp5007
S'posn'
p5008
S'90'
p5009
sS'name'
p5010
S'\xe0\xa4\x95\xe0\xa4\xae\xe0\xa4\xbe\xe0\xa4\xa8'
p5011
sS'drel'
p5012
S'pof__cn:\xe0\xa4\xaa\xe0\xa5\x8b\xe0\xa4\xb8\xe0\xa5\x8d\xe0\xa4\x9f'
p5013
sS'chunktype'
p5014
S'child:NP4'
p5015
sS'af'
p5016
S'\xe0\xa4\x95\xe0\xa4\xae\xe0\xa4\xbe\xe0\xa4\xa8,n,f,sg,3,d,0,0'
p5017
ssbsg1566
I01
sg1569
I00
sg1580
Nsg1567
Nsg182
I5
sg168
I4
sg1853
I0
sg1578
Nsg1854
S'NNPC'
p5018
sg269
(issf_api
FeatureSet
p5019
(dp5020
g272
(dp5021
S'posn'
p5022
S'90'
p5023
sS'name'
p5024
S'\xe0\xa4\x95\xe0\xa4\xae\xe0\xa4\xbe\xe0\xa4\xa8'
p5025
sS'af'
p5026
S'\xe0\xa4\x95\xe0\xa4\xae\xe0\xa4\xbe\xe0\xa4\xa8,n,f,sg,3,d,0,0'
p5027
ssbsg1587
I00
sba(issf_api
Word
p5028
(dp5029
g1832
I00
sg1833
V\u092a\u094b\u0938\u094d\u091f
p5030
sg1835
(issf_api
FeatureSet
p5031
(dp5032
g272
(dp5033
S'posn'
p5034
S'100'
p5035
sS'name'
p5036
S'\xe0\xa4\xaa\xe0\xa5\x8b\xe0\xa4\xb8\xe0\xa5\x8d\xe0\xa4\x9f'
p5037
sS'af'
p5038
S'\xe0\xa4\xaa\xe0\xa5\x8b\xe0\xa4\xb8\xe0\xa5\x8d\xe0\xa4\x9f,n,m,sg,3,o,0,0'
p5039
sS'chunkid'
p5040
S'NP4'
p5041
sS'drel'
p5042
S'ccof:\xe0\xa4\xb5'
p5043
sS'chunktype'
p5044
S'head:NP4'
p5045
ssbsg1566
I01
sg1569
I00
sg1580
Nsg1567
Nsg182
I5
sg168
I4
sg1853
I0
sg1578
Nsg1854
S'NNP'
p5046
sg269
(issf_api
FeatureSet
p5047
(dp5048
g272
(dp5049
S'posn'
p5050
S'100'
p5051
sS'name'
p5052
S'\xe0\xa4\xaa\xe0\xa5\x8b\xe0\xa4\xb8\xe0\xa5\x8d\xe0\xa4\x9f'
p5053
sS'af'
p5054
S'\xe0\xa4\xaa\xe0\xa5\x8b\xe0\xa4\xb8\xe0\xa5\x8d\xe0\xa4\x9f,n,m,sg,3,o,0,0'
p5055
ssbsg1587
I00
sba(issf_api
Word
p5056
(dp5057
g1832
I00
sg1833
V\u0935
sg1835
(issf_api
FeatureSet
p5058
(dp5059
g272
(dp5060
S'posn'
p5061
S'110'
p5062
sS'name'
p5063
S'\xe0\xa4\xb5'
p5064
sS'af'
p5065
S'\xe0\xa4\xb5,avy,,,,,,'
p5066
sS'chunkid'
p5067
S'CCP2'
p5068
sS'drel'
p5069
S'k7p:\xe0\xa4\x95\xe0\xa4\xb0\xe0\xa4\xa8\xe0\xa5\x87'
p5070
sS'chunktype'
p5071
S'head:CCP2'
p5072
ssbsg1566
I01
sg1569
I00
sg1580
Nsg1567
Nsg182
I6
sg168
I4
sg1853
I0
sg1578
Nsg1854
S'CC'
p5073
sg269
(issf_api
FeatureSet
p5074
(dp5075
g272
(dp5076
S'posn'
p5077
S'110'
p5078
sS'name'
p5079
S'\xe0\xa4\xb5'
p5080
sS'af'
p5081
S'\xe0\xa4\xb5,avy,,,,,,'
p5082
ssbsg1587
I00
sba(issf_api
Word
p5083
(dp5084
g1832
I00
sg1833
V\u0938\u0932\u093e\u092e\u093e\u092c\u093e\u0926
p5085
sg1835
(issf_api
FeatureSet
p5086
(dp5087
g272
(dp5088
S'posn'
p5089
S'120'
p5090
sS'name'
p5091
S'\xe0\xa4\xb8\xe0\xa4\xb2\xe0\xa4\xbe\xe0\xa4\xae\xe0\xa4\xbe\xe0\xa4\xac\xe0\xa4\xbe\xe0\xa4\xa6'
p5092
sS'af'
p5093
S'\xe0\xa4\xb8\xe0\xa4\xb2\xe0\xa4\xbe\xe0\xa4\xae\xe0\xa4\xbe\xe0\xa4\xac\xe0\xa4\xbe\xe0\xa4\xa6,n,m,sg,3,o,0_\xe0\xa4\xae\xe0\xa5\x87\xe0\xa4\x82,0'
p5094
sS'chunkid'
p5095
S'NP5'
p5096
sS'drel'
p5097
S'ccof:\xe0\xa4\xb5'
p5098
sS'vpos'
p5099
S'vib_2'
p5100
sS'chunktype'
p5101
S'head:NP5'
p5102
ssbsg1566
I01
sg1569
I00
sg1580
Nsg1567
Nsg182
I7
sg168
I4
sg1853
I0
sg1578
Nsg1854
S'NNP'
p5103
sg269
(issf_api
FeatureSet
p5104
(dp5105
g272
(dp5106
S'posn'
p5107
S'120'
p5108
sS'name'
p5109
S'\xe0\xa4\xb8\xe0\xa4\xb2\xe0\xa4\xbe\xe0\xa4\xae\xe0\xa4\xbe\xe0\xa4\xac\xe0\xa4\xbe\xe0\xa4\xa6'
p5110
sS'af'
p5111
S'\xe0\xa4\xb8\xe0\xa4\xb2\xe0\xa4\xbe\xe0\xa4\xae\xe0\xa4\xbe\xe0\xa4\xac\xe0\xa4\xbe\xe0\xa4\xa6,n,m,sg,3,o,0,0'
p5112
ssbsg1587
I00
sba(issf_api
Word
p5113
(dp5114
g1832
I00
sg1833
V\u092e\u0947\u0902
p5115
sg1835
(issf_api
FeatureSet
p5116
(dp5117
g272
(dp5118
S'posn'
p5119
S'130'
p5120
sS'name'
p5121
S'\xe0\xa4\xae\xe0\xa5\x87\xe0\xa4\x82'
p5122
sS'drel'
p5123
S'lwg__psp:\xe0\xa4\xb8\xe0\xa4\xb2\xe0\xa4\xbe\xe0\xa4\xae\xe0\xa4\xbe\xe0\xa4\xac\xe0\xa4\xbe\xe0\xa4\xa6'
p5124
sS'chunktype'
p5125
S'child:NP5'
p5126
sS'af'
p5127
S'\xe0\xa4\xae\xe0\xa5\x87\xe0\xa4\x82,psp,,,,,,'
p5128
ssbsg1566
I01
sg1569
I00
sg1580
Nsg1567
Nsg182
I7
sg168
I4
sg1853
I0
sg1578
Nsg1854
S'PSP'
p5129
sg269
(issf_api
FeatureSet
p5130
(dp5131
g272
(dp5132
S'posn'
p5133
S'130'
p5134
sS'name'
p5135
S'\xe0\xa4\xae\xe0\xa5\x87\xe0\xa4\x82'
p5136
sS'af'
p5137
S'\xe0\xa4\xae\xe0\xa5\x87\xe0\xa4\x82,psp,,,,,,'
p5138
ssbsg1587
I00
sba(issf_api
Word
p5139
(dp5140
g1832
I00
sg1833
V\u092e\u094b\u092c\u093e\u0907\u0932
p5141
sg1835
(issf_api
FeatureSet
p5142
(dp5143
g272
(dp5144
S'posn'
p5145
S'140'
p5146
sS'name'
p5147
S'\xe0\xa4\xae\xe0\xa5\x8b\xe0\xa4\xac\xe0\xa4\xbe\xe0\xa4\x87\xe0\xa4\xb2'
p5148
sS'drel'
p5149
S'pof__cn:\xe0\xa4\xb8\xe0\xa5\x87\xe0\xa4\xb5\xe0\xa4\xbe'
p5150
sS'chunktype'
p5151
S'child:NP6'
p5152
sS'af'
p5153
S'\xe0\xa4\xae\xe0\xa5\x8b\xe0\xa4\xac\xe0\xa4\xbe\xe0\xa4\x87\xe0\xa4\xb2,n,m,sg,3,d,0,0'
p5154
ssbsg1566
I01
sg1569
I00
sg1580
Nsg1567
Nsg182
I8
sg168
I4
sg1853
I0
sg1578
Nsg1854
S'NNC'
p5155
sg269
(issf_api
FeatureSet
p5156
(dp5157
g272
(dp5158
S'posn'
p5159
S'140'
p5160
sS'name'
p5161
S'\xe0\xa4\xae\xe0\xa5\x8b\xe0\xa4\xac\xe0\xa4\xbe\xe0\xa4\x87\xe0\xa4\xb2'
p5162
sS'af'
p5163
S'\xe0\xa4\xae\xe0\xa5\x8b\xe0\xa4\xac\xe0\xa4\xbe\xe0\xa4\x87\xe0\xa4\xb2,n,m,sg,3,d,0,0'
p5164
ssbsg1587
I00
sba(issf_api
Word
p5165
(dp5166
g1832
I00
sg1833
V\u0938\u0947\u0935\u093e
p5167
sg1835
(issf_api
FeatureSet
p5168
(dp5169
g272
(dp5170
S'posn'
p5171
S'150'
p5172
sS'name'
p5173
S'\xe0\xa4\xb8\xe0\xa5\x87\xe0\xa4\xb5\xe0\xa4\xbe'
p5174
sS'af'
p5175
S'\xe0\xa4\xb8\xe0\xa5\x87\xe0\xa4\xb5\xe0\xa4\xbe,n,f,sg,3,d,0,0'
p5176
sS'chunkid'
p5177
S'NP6'
p5178
sS'drel'
p5179
S'k2:\xe0\xa4\x95\xe0\xa4\xb0\xe0\xa4\xa8\xe0\xa5\x87'
p5180
sS'chunktype'
p5181
S'head:NP6'
p5182
ssbsg1566
I01
sg1569
I00
sg1580
Nsg1567
Nsg182
I8
sg168
I4
sg1853
I0
sg1578
Nsg1854
S'NN'
p5183
sg269
(issf_api
FeatureSet
p5184
(dp5185
g272
(dp5186
S'posn'
p5187
S'150'
p5188
sS'name'
p5189
S'\xe0\xa4\xb8\xe0\xa5\x87\xe0\xa4\xb5\xe0\xa4\xbe'
p5190
sS'af'
p5191
S'\xe0\xa4\xb8\xe0\xa5\x87\xe0\xa4\xb5\xe0\xa4\xbe,n,f,sg,3,d,0,0'
p5192
ssbsg1587
I00
sba(issf_api
Word
p5193
(dp5194
g1832
I00
sg1833
V\u0936\u0941\u0930\u0942
p5195
sg1835
(issf_api
FeatureSet
p5196
(dp5197
g272
(dp5198
S'posn'
p5199
S'160'
p5200
sS'name'
p5201
S'\xe0\xa4\xb6\xe0\xa5\x81\xe0\xa4\xb0\xe0\xa5\x82'
p5202
sS'af'
p5203
S'\xe0\xa4\xb6\xe0\xa5\x81\xe0\xa4\xb0\xe0\xa5\x82,n,m,sg,3,d,0,0'
p5204
sS'chunkid'
p5205
S'NP7'
p5206
sS'drel'
p5207
S'pof:\xe0\xa4\x95\xe0\xa4\xb0\xe0\xa4\xa8\xe0\xa5\x87'
p5208
sS'chunktype'
p5209
S'head:NP7'
p5210
ssbsg1566
I01
sg1569
I00
sg1580
Nsg1567
Nsg182
I9
sg168
I4
sg1853
I0
sg1578
Nsg1854
S'NN'
p5211
sg269
(issf_api
FeatureSet
p5212
(dp5213
g272
(dp5214
S'posn'
p5215
S'160'
p5216
sS'name'
p5217
S'\xe0\xa4\xb6\xe0\xa5\x81\xe0\xa4\xb0\xe0\xa5\x82'
p5218
sS'af'
p5219
S'\xe0\xa4\xb6\xe0\xa5\x81\xe0\xa4\xb0\xe0\xa5\x82,n,m,sg,3,d,0,0'
p5220
ssbsg1587
I00
sba(issf_api
Word
p5221
(dp5222
g1832
I00
sg1833
V\u0915\u0930\u0928\u0947
p5223
sg1835
(issf_api
FeatureSet
p5224
(dp5225
g272
(dp5226
S'posn'
p5227
S'170'
p5228
sS'name'
p5229
S'\xe0\xa4\x95\xe0\xa4\xb0\xe0\xa4\xa8\xe0\xa5\x87'
p5230
sS'af'
p5231
S'\xe0\xa4\x95\xe0\xa4\xb0,v,any,any,any,o,\xe0\xa4\xa8\xe0\xa4\xbe_\xe0\xa4\x95\xe0\xa5\x87_\xe0\xa4\xb2\xe0\xa4\xbf\xe0\xa4\x8f,nA'
p5232
sS'chunkid'
p5233
S'VGNN'
p5234
sS'drel'
p5235
S'rt:\xe0\xa4\x95\xe0\xa5\x80'
p5236
sS'vpos'
p5237
S'tam_2_3'
p5238
sS'chunktype'
p5239
S'head:VGNN'
p5240
ssbsg1566
I01
sg1569
I00
sg1580
Nsg1567
Nsg182
I10
sg168
I4
sg1853
I0
sg1578
Nsg1854
S'VM'
p5241
sg269
(issf_api
FeatureSet
p5242
(dp5243
g272
(dp5244
S'posn'
p5245
S'170'
p5246
sS'name'
p5247
S'\xe0\xa4\x95\xe0\xa4\xb0\xe0\xa4\xa8\xe0\xa5\x87'
p5248
sS'af'
p5249
S'\xe0\xa4\x95\xe0\xa4\xb0,v,any,any,any,o,\xe0\xa4\xa8\xe0\xa4\xbe,nA'
p5250
ssbsg1587
I00
sba(issf_api
Word
p5251
(dp5252
g1832
I00
sg1833
V\u0915\u0947
p5253
sg1835
(issf_api
FeatureSet
p5254
(dp5255
g272
(dp5256
S'posn'
p5257
S'180'
p5258
sS'name'
p5259
S'\xe0\xa4\x95\xe0\xa5\x87'
p5260
sS'drel'
p5261
S'lwg__psp:\xe0\xa4\x95\xe0\xa4\xb0\xe0\xa4\xa8\xe0\xa5\x87'
p5262
sS'chunktype'
p5263
S'child:VGNN'
p5264
sS'af'
p5265
S'\xe0\xa4\x95\xe0\xa5\x87,psp,,,,,,'
p5266
ssbsg1566
I01
sg1569
I00
sg1580
Nsg1567
Nsg182
I10
sg168
I4
sg1853
I0
sg1578
Nsg1854
S'PSP'
p5267
sg269
(issf_api
FeatureSet
p5268
(dp5269
g272
(dp5270
S'posn'
p5271
S'180'
p5272
sS'name'
p5273
S'\xe0\xa4\x95\xe0\xa5\x87'
p5274
sS'af'
p5275
S'\xe0\xa4\x95\xe0\xa5\x87,psp,,,,,,'
p5276
ssbsg1587
I00
sba(issf_api
Word
p5277
(dp5278
g1832
I00
sg1833
V\u0932\u093f\u090f
p5279
sg1835
(issf_api
FeatureSet
p5280
(dp5281
g272
(dp5282
S'posn'
p5283
S'190'
p5284
sS'name'
p5285
S'\xe0\xa4\xb2\xe0\xa4\xbf\xe0\xa4\x8f'
p5286
sS'drel'
p5287
S'lwg__psp:\xe0\xa4\x95\xe0\xa4\xb0\xe0\xa4\xa8\xe0\xa5\x87'
p5288
sS'chunktype'
p5289
S'child:VGNN'
p5290
sS'af'
p5291
S'\xe0\xa4\xb2\xe0\xa4\xbf\xe0\xa4\x8f,psp,,,,,,'
p5292
ssbsg1566
I01
sg1569
I00
sg1580
Nsg1567
Nsg182
I10
sg168
I4
sg1853
I0
sg1578
Nsg1854
S'PSP'
p5293
sg269
(issf_api
FeatureSet
p5294
(dp5295
g272
(dp5296
S'posn'
p5297
S'190'
p5298
sS'name'
p5299
S'\xe0\xa4\xb2\xe0\xa4\xbf\xe0\xa4\x8f'
p5300
sS'af'
p5301
S'\xe0\xa4\xb2\xe0\xa4\xbf\xe0\xa4\x8f,psp,,,,,,'
p5302
ssbsg1587
I00
sba(issf_api
Word
p5303
(dp5304
g1832
I00
sg1833
V\u092d\u0930\u0938\u0915
p5305
sg1835
(issf_api
FeatureSet
p5306
(dp5307
g272
(dp5308
S'posn'
p5309
S'200'
p5310
sS'name'
p5311
S'\xe0\xa4\xad\xe0\xa4\xb0\xe0\xa4\xb8\xe0\xa4\x95'
p5312
sS'drel'
p5313
S'nmod__adj:\xe0\xa4\x95\xe0\xa5\x8b\xe0\xa4\xb6\xe0\xa4\xbf\xe0\xa4\xb6'
p5314
sS'chunktype'
p5315
S'child:NP8'
p5316
sS'af'
p5317
S'\xe0\xa4\xad\xe0\xa4\xb0\xe0\xa4\xb8\xe0\xa4\x95,adj,any,any,,d,,'
p5318
ssbsg1566
I01
sg1569
I00
sg1580
Nsg1567
Nsg182
I11
sg168
I4
sg1853
I0
sg1578
Nsg1854
S'JJ'
p5319
sg269
(issf_api
FeatureSet
p5320
(dp5321
g272
(dp5322
S'posn'
p5323
S'200'
p5324
sS'name'
p5325
S'\xe0\xa4\xad\xe0\xa4\xb0\xe0\xa4\xb8\xe0\xa4\x95'
p5326
sS'af'
p5327
S'\xe0\xa4\xad\xe0\xa4\xb0\xe0\xa4\xb8\xe0\xa4\x95,adj,any,any,,d,,'
p5328
ssbsg1587
I00
sba(issf_api
Word
p5329
(dp5330
g1832
I00
sg1833
V\u0915\u094b\u0936\u093f\u0936
p5331
sg1835
(issf_api
FeatureSet
p5332
(dp5333
g272
(dp5334
S'posn'
p5335
S'210'
p5336
sS'name'
p5337
S'\xe0\xa4\x95\xe0\xa5\x8b\xe0\xa4\xb6\xe0\xa4\xbf\xe0\xa4\xb6'
p5338
sS'af'
p5339
S'\xe0\xa4\x95\xe0\xa5\x8b\xe0\xa4\xb6\xe0\xa4\xbf\xe0\xa4\xb6,n,f,sg,3,d,0,0'
p5340
sS'chunkid'
p5341
S'NP8'
p5342
sS'drel'
p5343
S'pof:\xe0\xa4\x95\xe0\xa5\x80'
p5344
sS'chunktype'
p5345
S'head:NP8'
p5346
ssbsg1566
I01
sg1569
I00
sg1580
Nsg1567
Nsg182
I11
sg168
I4
sg1853
I0
sg1578
Nsg1854
S'NN'
p5347
sg269
(issf_api
FeatureSet
p5348
(dp5349
g272
(dp5350
S'posn'
p5351
S'210'
p5352
sS'name'
p5353
S'\xe0\xa4\x95\xe0\xa5\x8b\xe0\xa4\xb6\xe0\xa4\xbf\xe0\xa4\xb6'
p5354
sS'af'
p5355
S'\xe0\xa4\x95\xe0\xa5\x8b\xe0\xa4\xb6\xe0\xa4\xbf\xe0\xa4\xb6,n,f,sg,3,d,0,0'
p5356
ssbsg1587
I00
sba(issf_api
Word
p5357
(dp5358
g1832
I00
sg1833
V\u0915\u0940
p5359
sg1835
(issf_api
FeatureSet
p5360
(dp5361
g272
(dp5362
S'posn'
p5363
S'220'
p5364
sS'name'
p5365
S'\xe0\xa4\x95\xe0\xa5\x80'
p5366
sS'af'
p5367
S'\xe0\xa4\x95\xe0\xa4\xb0,v,f,sg,any,,\xe0\xa4\xaf\xe0\xa4\xbe,yA'
p5368
sS'chunkid'
p5369
S'VGF2'
p5370
sS'stype'
p5371
S'declarative'
p5372
sS'drel'
p5373
S'ccof:\xe0\xa4\xb2\xe0\xa5\x87\xe0\xa4\x95\xe0\xa4\xbf\xe0\xa4\xa8'
p5374
sS'voicetype'
p5375
S'active'
p5376
sS'chunktype'
p5377
S'head:VGF2'
p5378
ssbsg1566
I01
sg1569
I00
sg1580
Nsg1567
Nsg182
I12
sg168
I4
sg1853
I0
sg1578
Nsg1854
S'VM'
p5379
sg269
(issf_api
FeatureSet
p5380
(dp5381
g272
(dp5382
S'posn'
p5383
S'220'
p5384
sS'name'
p5385
S'\xe0\xa4\x95\xe0\xa5\x80'
p5386
sS'af'
p5387
S'\xe0\xa4\x95\xe0\xa4\xb0,v,f,sg,any,,\xe0\xa4\xaf\xe0\xa4\xbe,yA'
p5388
ssbsg1587
I00
sba(issf_api
Word
p5389
(dp5390
g1832
I00
sg1833
V\u0932\u0947\u0915\u093f\u0928
p5391
sg1835
(issf_api
FeatureSet
p5392
(dp5393
g272
(dp5394
S'posn'
p5395
S'230'
p5396
sS'name'
p5397
S'\xe0\xa4\xb2\xe0\xa5\x87\xe0\xa4\x95\xe0\xa4\xbf\xe0\xa4\xa8'
p5398
sS'af'
p5399
S'\xe0\xa4\xb2\xe0\xa5\x87\xe0\xa4\x95\xe0\xa4\xbf\xe0\xa4\xa8,avy,,,,,,'
p5400
sS'chunkid'
p5401
S'CCP3'
p5402
sS'drel'
p5403
S'ccof:\xe0\xa4\x95\xe0\xa4\xbf'
p5404
sS'chunktype'
p5405
S'head:CCP3'
p5406
ssbsg1566
I00
sg1569
I00
sg1580
g1645
sg1567
(lp5407
I110
aI111
aI112
aI113
aI114
aI115
aI116
aI117
aI118
aI119
aI120
aI121
aI122
aI123
aI124
aI125
aI126
aI127
aI128
asg182
I13
sg168
I4
sg1853
I0
sg1578
(lp5408
I130
aI131
aI132
aI133
aI134
aI135
aI136
aI137
aI138
asg1854
S'CC'
p5409
sg269
(issf_api
FeatureSet
p5410
(dp5411
g272
(dp5412
S'posn'
p5413
S'230'
p5414
sS'name'
p5415
S'\xe0\xa4\xb2\xe0\xa5\x87\xe0\xa4\x95\xe0\xa4\xbf\xe0\xa4\xa8'
p5416
sS'af'
p5417
S'\xe0\xa4\xb2\xe0\xa5\x87\xe0\xa4\x95\xe0\xa4\xbf\xe0\xa4\xa8,avy,,,,,,'
p5418
ssbsg1587
I01
sba(issf_api
Word
p5419
(dp5420
g1832
I00
sg1833
V\u0916\u0930\u093e\u092c
p5421
sg1835
(issf_api
FeatureSet
p5422
(dp5423
g272
(dp5424
S'posn'
p5425
S'240'
p5426
sS'name'
p5427
S'\xe0\xa4\x96\xe0\xa4\xb0\xe0\xa4\xbe\xe0\xa4\xac'
p5428
sS'drel'
p5429
S'nmod__adj:\xe0\xa4\xae\xe0\xa5\x8c\xe0\xa4\xb8\xe0\xa4\xae'
p5430
sS'chunktype'
p5431
S'child:NP9'
p5432
sS'af'
p5433
S'\xe0\xa4\x96\xe0\xa4\xb0\xe0\xa4\xbe\xe0\xa4\xac,adj,any,any,,o,,'
p5434
ssbsg1566
I00
sg1569
I01
sg1580
Nsg1567
Nsg182
I14
sg168
I4
sg1853
I0
sg1578
Nsg1854
S'JJ'
p5435
sg269
(issf_api
FeatureSet
p5436
(dp5437
g272
(dp5438
S'posn'
p5439
S'240'
p5440
sS'name'
p5441
S'\xe0\xa4\x96\xe0\xa4\xb0\xe0\xa4\xbe\xe0\xa4\xac'
p5442
sS'af'
p5443
S'\xe0\xa4\x96\xe0\xa4\xb0\xe0\xa4\xbe\xe0\xa4\xac,adj,any,any,,o,,'
p5444
ssbsg1587
I00
sba(issf_api
Word
p5445
(dp5446
g1832
I00
sg1833
V\u092e\u094c\u0938\u092e
p5447
sg1835
(issf_api
FeatureSet
p5448
(dp5449
g272
(dp5450
S'posn'
p5451
S'250'
p5452
sS'name'
p5453
S'\xe0\xa4\xae\xe0\xa5\x8c\xe0\xa4\xb8\xe0\xa4\xae'
p5454
sS'af'
p5455
S'\xe0\xa4\xae\xe0\xa5\x8c\xe0\xa4\xb8\xe0\xa4\xae,n,m,sg,3,o,0_\xe0\xa4\x95\xe0\xa5\x87_\xe0\xa4\x95\xe0\xa4\xbe\xe0\xa4\xb0\xe0\xa4\xa3,0'
p5456
sS'chunkid'
p5457
S'NP9'
p5458
sS'drel'
p5459
S'rh:\xe0\xa4\x95\xe0\xa4\xb0\xe0\xa4\xa8\xe0\xa5\x80'
p5460
sS'vpos'
p5461
S'vib_3_4'
p5462
sS'chunktype'
p5463
S'head:NP9'
p5464
ssbsg1566
I00
sg1569
I01
sg1580
Nsg1567
Nsg182
I14
sg168
I4
sg1853
I0
sg1578
Nsg1854
S'NN'
p5465
sg269
(issf_api
FeatureSet
p5466
(dp5467
g272
(dp5468
S'posn'
p5469
S'250'
p5470
sS'name'
p5471
S'\xe0\xa4\xae\xe0\xa5\x8c\xe0\xa4\xb8\xe0\xa4\xae'
p5472
sS'af'
p5473
S'\xe0\xa4\xae\xe0\xa5\x8c\xe0\xa4\xb8\xe0\xa4\xae,n,m,sg,3,o,0,0'
p5474
ssbsg1587
I00
sba(issf_api
Word
p5475
(dp5476
g1832
I00
sg1833
V\u0915\u0947
p5477
sg1835
(issf_api
FeatureSet
p5478
(dp5479
g272
(dp5480
S'posn'
p5481
S'260'
p5482
sS'name'
p5483
S'\xe0\xa4\x95\xe0\xa5\x872'
p5484
sS'drel'
p5485
S'lwg__psp:\xe0\xa4\xae\xe0\xa5\x8c\xe0\xa4\xb8\xe0\xa4\xae'
p5486
sS'chunktype'
p5487
S'child:NP9'
p5488
sS'af'
p5489
S'\xe0\xa4\x95\xe0\xa5\x87,psp,m,,,o,,'
p5490
ssbsg1566
I00
sg1569
I01
sg1580
Nsg1567
Nsg182
I14
sg168
I4
sg1853
I0
sg1578
Nsg1854
S'PSP'
p5491
sg269
(issf_api
FeatureSet
p5492
(dp5493
g272
(dp5494
S'posn'
p5495
S'260'
p5496
sS'name'
p5497
S'\xe0\xa4\x95\xe0\xa5\x872'
p5498
sS'af'
p5499
S'\xe0\xa4\x95\xe0\xa5\x87,psp,m,,,o,,'
p5500
ssbsg1587
I00
sba(issf_api
Word
p5501
(dp5502
g1832
I00
sg1833
V\u0915\u093e\u0930\u0923
p5503
sg1835
(issf_api
FeatureSet
p5504
(dp5505
g272
(dp5506
S'posn'
p5507
S'270'
p5508
sS'name'
p5509
S'\xe0\xa4\x95\xe0\xa4\xbe\xe0\xa4\xb0\xe0\xa4\xa3'
p5510
sS'drel'
p5511
S'lwg__psp:\xe0\xa4\xae\xe0\xa5\x8c\xe0\xa4\xb8\xe0\xa4\xae'
p5512
sS'chunktype'
p5513
S'child:NP9'
p5514
sS'af'
p5515
S'\xe0\xa4\x95\xe0\xa4\xbe\xe0\xa4\xb0\xe0\xa4\xa3,n,m,,,o,,'
p5516
ssbsg1566
I00
sg1569
I01
sg1580
Nsg1567
Nsg182
I14
sg168
I4
sg1853
I0
sg1578
Nsg1854
S'PSP'
p5517
sg269
(issf_api
FeatureSet
p5518
(dp5519
g272
(dp5520
S'posn'
p5521
S'270'
p5522
sS'name'
p5523
S'\xe0\xa4\x95\xe0\xa4\xbe\xe0\xa4\xb0\xe0\xa4\xa3'
p5524
sS'af'
p5525
S'\xe0\xa4\x95\xe0\xa4\xbe\xe0\xa4\xb0\xe0\xa4\xa3,n,m,,,o,,'
p5526
ssbsg1587
I00
sba(issf_api
Word
p5527
(dp5528
g1832
I00
sg1833
V\u092f\u0939
p5529
sg1835
(issf_api
FeatureSet
p5530
(dp5531
g272
(dp5532
S'posn'
p5533
S'280'
p5534
sS'name'
p5535
S'\xe0\xa4\xaf\xe0\xa4\xb9'
p5536
sS'drel'
p5537
S'nmod__adj:\xe0\xa4\xaf\xe0\xa5\x8b\xe0\xa4\x9c\xe0\xa4\xa8\xe0\xa4\xbe'
p5538
sS'chunktype'
p5539
S'child:NP10'
p5540
sS'af'
p5541
S'\xe0\xa4\xaf\xe0\xa4\xb9,pn,any,sg,3,d,,'
p5542
ssbsg1566
I00
sg1569
I01
sg1580
Nsg1567
Nsg182
I15
sg168
I4
sg1853
I0
sg1578
Nsg1854
S'DEM'
p5543
sg269
(issf_api
FeatureSet
p5544
(dp5545
g272
(dp5546
S'posn'
p5547
S'280'
p5548
sS'name'
p5549
S'\xe0\xa4\xaf\xe0\xa4\xb9'
p5550
sS'af'
p5551
S'\xe0\xa4\xaf\xe0\xa4\xb9,pn,any,sg,3,d,,'
p5552
ssbsg1587
I00
sba(issf_api
Word
p5553
(dp5554
g1832
I00
sg1833
V\u092f\u094b\u091c\u0928\u093e
p5555
sg1835
(issf_api
FeatureSet
p5556
(dp5557
g272
(dp5558
S'posn'
p5559
S'290'
p5560
sS'name'
p5561
S'\xe0\xa4\xaf\xe0\xa5\x8b\xe0\xa4\x9c\xe0\xa4\xa8\xe0\xa4\xbe'
p5562
sS'af'
p5563
S'\xe0\xa4\xaf\xe0\xa5\x8b\xe0\xa4\x9c\xe0\xa4\xa8\xe0\xa4\xbe,n,f,sg,3,d,0,0'
p5564
sS'chunkid'
p5565
S'NP10'
p5566
sS'drel'
p5567
S'k2:\xe0\xa4\x95\xe0\xa4\xb0\xe0\xa4\xa8\xe0\xa5\x80'
p5568
sS'chunktype'
p5569
S'head:NP10'
p5570
ssbsg1566
I00
sg1569
I01
sg1580
Nsg1567
Nsg182
I15
sg168
I4
sg1853
I0
sg1578
Nsg1854
S'NN'
p5571
sg269
(issf_api
FeatureSet
p5572
(dp5573
g272
(dp5574
S'posn'
p5575
S'290'
p5576
sS'name'
p5577
S'\xe0\xa4\xaf\xe0\xa5\x8b\xe0\xa4\x9c\xe0\xa4\xa8\xe0\xa4\xbe'
p5578
sS'af'
p5579
S'\xe0\xa4\xaf\xe0\xa5\x8b\xe0\xa4\x9c\xe0\xa4\xa8\xe0\xa4\xbe,n,f,sg,3,d,0,0'
p5580
ssbsg1587
I00
sba(issf_api
Word
p5581
(dp5582
g1832
I00
sg1833
V\u0930\u0926\u094d\u0926
p5583
sg1835
(issf_api
FeatureSet
p5584
(dp5585
g272
(dp5586
S'posn'
p5587
S'300'
p5588
sS'name'
p5589
S'\xe0\xa4\xb0\xe0\xa4\xa6\xe0\xa5\x8d\xe0\xa4\xa6'
p5590
sS'af'
p5591
S'\xe0\xa4\xb0\xe0\xa4\xa6\xe0\xa5\x8d\xe0\xa4\xa6,adj,any,any,,,,'
p5592
sS'chunkid'
p5593
S'JJP'
p5594
sS'drel'
p5595
S'pof:\xe0\xa4\x95\xe0\xa4\xb0\xe0\xa4\xa8\xe0\xa5\x80'
p5596
sS'chunktype'
p5597
S'head:JJP'
p5598
ssbsg1566
I00
sg1569
I01
sg1580
Nsg1567
Nsg182
I16
sg168
I4
sg1853
I0
sg1578
Nsg1854
S'JJ'
p5599
sg269
(issf_api
FeatureSet
p5600
(dp5601
g272
(dp5602
S'posn'
p5603
S'300'
p5604
sS'name'
p5605
S'\xe0\xa4\xb0\xe0\xa4\xa6\xe0\xa5\x8d\xe0\xa4\xa6'
p5606
sS'af'
p5607
S'\xe0\xa4\xb0\xe0\xa4\xa6\xe0\xa5\x8d\xe0\xa4\xa6,adj,any,any,,,,'
p5608
ssbsg1587
I00
sba(issf_api
Word
p5609
(dp5610
g1832
I00
sg1833
V\u0915\u0930\u0928\u0940
p5611
sg1835
(issf_api
FeatureSet
p5612
(dp5613
g272
(dp5614
S'posn'
p5615
S'310'
p5616
sS'name'
p5617
S'\xe0\xa4\x95\xe0\xa4\xb0\xe0\xa4\xa8\xe0\xa5\x80'
p5618
sS'af'
p5619
S'\xe0\xa4\x95\xe0\xa4\xb0,v,f,sg,any,,\xe0\xa4\xa8\xe0\xa4\xbe_\xe0\xa4\xaa\xe0\xa5\x9c+\xe0\xa4\xaf\xe0\xa4\xbe,nA'
p5620
sS'chunkid'
p5621
S'VGF3'
p5622
sS'stype'
p5623
S'declarative'
p5624
sS'drel'
p5625
S'ccof:\xe0\xa4\xb2\xe0\xa5\x87\xe0\xa4\x95\xe0\xa4\xbf\xe0\xa4\xa8'
p5626
sS'voicetype'
p5627
S'active'
p5628
sS'vpos'
p5629
S'tam_2'
p5630
sS'chunktype'
p5631
S'head:VGF3'
p5632
ssbsg1566
I00
sg1569
I01
sg1580
Nsg1567
Nsg182
I17
sg168
I4
sg1853
I0
sg1578
Nsg1854
S'VM'
p5633
sg269
(issf_api
FeatureSet
p5634
(dp5635
g272
(dp5636
S'posn'
p5637
S'310'
p5638
sS'name'
p5639
S'\xe0\xa4\x95\xe0\xa4\xb0\xe0\xa4\xa8\xe0\xa5\x80'
p5640
sS'af'
p5641
S'\xe0\xa4\x95\xe0\xa4\xb0,v,f,sg,any,,\xe0\xa4\xa8\xe0\xa4\xbe,nA'
p5642
ssbsg1587
I00
sba(issf_api
Word
p5643
(dp5644
g1832
I00
sg1833
V\u092a\u095c\u0940
p5645
sg1835
(issf_api
FeatureSet
p5646
(dp5647
g272
(dp5648
S'posn'
p5649
S'320'
p5650
sS'name'
p5651
S'\xe0\xa4\xaa\xe0\xa5\x9c\xe0\xa5\x80'
p5652
sS'drel'
p5653
S'lwg__vaux:\xe0\xa4\x95\xe0\xa4\xb0\xe0\xa4\xa8\xe0\xa5\x80'
p5654
sS'chunktype'
p5655
S'child:VGF3'
p5656
sS'af'
p5657
S'\xe0\xa4\xaa\xe0\xa5\x9c,v,f,sg,any,,\xe0\xa4\xaf\xe0\xa4\xbe,yA'
p5658
ssbsg1566
I00
sg1569
I01
sg1580
Nsg1567
Nsg182
I17
sg168
I4
sg1853
I0
sg1578
Nsg1854
S'VAUX'
p5659
sg269
(issf_api
FeatureSet
p5660
(dp5661
g272
(dp5662
S'posn'
p5663
S'320'
p5664
sS'name'
p5665
S'\xe0\xa4\xaa\xe0\xa5\x9c\xe0\xa5\x80'
p5666
sS'af'
p5667
S'\xe0\xa4\xaa\xe0\xa5\x9c,v,f,sg,any,,\xe0\xa4\xaf\xe0\xa4\xbe,yA'
p5668
ssbsg1587
I00
sba(issf_api
Word
p5669
(dp5670
g1832
I00
sg1833
V\u0964
sg1835
(issf_api
FeatureSet
p5671
(dp5672
g272
(dp5673
S'posn'
p5674
S'330'
p5675
sS'name'
p5676
S'\xe0\xa5\xa4'
p5677
sS'af'
p5678
S'\xe0\xa5\xa4,punc,,,,,,'
p5679
sS'chunkid'
p5680
S'BLK'
p5681
sS'drel'
p5682
S'rsym:\xe0\xa4\x95\xe0\xa4\xb9\xe0\xa4\xbe'
p5683
sS'chunktype'
p5684
S'head:BLK'
p5685
ssbsg1566
I00
sg1569
I00
sg1580
Nsg1567
Nsg182
I18
sg168
I4
sg1853
Nsg1578
Nsg1854
S'SYM'
p5686
sg269
(issf_api
FeatureSet
p5687
(dp5688
g272
(dp5689
S'posn'
p5690
S'330'
p5691
sS'name'
p5692
S'\xe0\xa5\xa4'
p5693
sS'af'
p5694
S'\xe0\xa5\xa4,punc,,,,,,'
p5695
ssbsg1587
I00
sba(issf_api
Word
p5696
(dp5697
g1832
I00
sg1833
V\u0909\u0928\u094d\u0939\u094b\u0902\u0928\u0947
p5698
sg1835
(issf_api
FeatureSet
p5699
(dp5700
g272
(dp5701
S'posn'
p5702
S'10'
p5703
sS'name'
p5704
S'\xe0\xa4\x89\xe0\xa4\xa8\xe0\xa5\x8d\xe0\xa4\xb9\xe0\xa5\x8b\xe0\xa4\x82\xe0\xa4\xa8\xe0\xa5\x87'
p5705
sS'af'
p5706
S'\xe0\xa4\xb5\xe0\xa4\xb9,pn,any,sg,3h,o,\xe0\xa4\xa8\xe0\xa5\x87,ne'
p5707
sS'chunkid'
p5708
S'NP'
p5709
sS'drel'
p5710
S'k1:\xe0\xa4\x95\xe0\xa4\xb9\xe0\xa4\xbe'
p5711
sS'chunktype'
p5712
S'head:NP'
p5713
ssbsg1566
I00
sg1569
I00
sg1580
Nsg1567
Nsg182
I0
sg168
I5
sg1853
Nsg1578
Nsg1854
S'PRP'
p5714
sg269
(issf_api
FeatureSet
p5715
(dp5716
g272
(dp5717
S'posn'
p5718
S'10'
p5719
sS'name'
p5720
S'\xe0\xa4\x89\xe0\xa4\xa8\xe0\xa5\x8d\xe0\xa4\xb9\xe0\xa5\x8b\xe0\xa4\x82\xe0\xa4\xa8\xe0\xa5\x87'
p5721
sS'af'
p5722
S'\xe0\xa4\xb5\xe0\xa4\xb9,pn,any,sg,3h,o,\xe0\xa4\xa8\xe0\xa5\x87,ne'
p5723
ssbsg1587
I00
sba(issf_api
Word
p5724
(dp5725
g1832
I00
sg1833
V\u0915\u0939\u093e
p5726
sg1835
(issf_api
FeatureSet
p5727
(dp5728
g272
(dp5729
S'posn'
p5730
S'20'
p5731
sS'name'
p5732
S'\xe0\xa4\x95\xe0\xa4\xb9\xe0\xa4\xbe'
p5733
sS'af'
p5734
S'\xe0\xa4\x95\xe0\xa4\xb9,v,m,sg,any,,\xe0\xa4\xaf\xe0\xa4\xbe,yA'
p5735
sS'chunkid'
p5736
S'VGF'
p5737
sS'chunktype'
p5738
S'head:VGF'
p5739
sS'voicetype'
p5740
S'active'
p5741
sS'stype'
p5742
S'declarative'
p5743
ssbsg1566
I00
sg1569
I00
sg1580
Nsg1567
Nsg182
I1
sg168
I5
sg1853
Nsg1578
Nsg1854
S'VM'
p5744
sg269
(issf_api
FeatureSet
p5745
(dp5746
g272
(dp5747
S'posn'
p5748
S'20'
p5749
sS'name'
p5750
S'\xe0\xa4\x95\xe0\xa4\xb9\xe0\xa4\xbe'
p5751
sS'af'
p5752
S'\xe0\xa4\x95\xe0\xa4\xb9,v,m,sg,any,,\xe0\xa4\xaf\xe0\xa4\xbe,yA'
p5753
ssbsg1587
I00
sba(issf_api
Word
p5754
(dp5755
g1832
I00
sg1833
V\u0915\u093f
p5756
sg1835
(issf_api
FeatureSet
p5757
(dp5758
g272
(dp5759
S'posn'
p5760
S'30'
p5761
sS'name'
p5762
S'\xe0\xa4\x95\xe0\xa4\xbf'
p5763
sS'af'
p5764
S'\xe0\xa4\x95\xe0\xa4\xbf,avy,,,,,,'
p5765
sS'chunkid'
p5766
S'CCP'
p5767
sS'drel'
p5768
S'k2:\xe0\xa4\x95\xe0\xa4\xb9\xe0\xa4\xbe'
p5769
sS'chunktype'
p5770
S'head:CCP'
p5771
ssbsg1566
I00
sg1569
I00
sg1580
Nsg1567
Nsg182
I2
sg168
I5
sg1853
Nsg1578
Nsg1854
S'CC'
p5772
sg269
(issf_api
FeatureSet
p5773
(dp5774
g272
(dp5775
S'posn'
p5776
S'30'
p5777
sS'name'
p5778
S'\xe0\xa4\x95\xe0\xa4\xbf'
p5779
sS'af'
p5780
S'\xe0\xa4\x95\xe0\xa4\xbf,avy,,,,,,'
p5781
ssbsg1587
I00
sba(issf_api
Word
p5782
(dp5783
g1832
I00
sg1833
V\u0905\u092a\u094d\u0930\u0948\u0932
p5784
sg1835
(issf_api
FeatureSet
p5785
(dp5786
g272
(dp5787
S'posn'
p5788
S'40'
p5789
sS'name'
p5790
S'\xe0\xa4\x85\xe0\xa4\xaa\xe0\xa5\x8d\xe0\xa4\xb0\xe0\xa5\x88\xe0\xa4\xb2'
p5791
sS'drel'
p5792
S'nmod__adj:\xe0\xa4\xae\xe0\xa4\xbe\xe0\xa4\xb9'
p5793
sS'chunktype'
p5794
S'child:NP2'
p5795
sS'af'
p5796
S'\xe0\xa4\x85\xe0\xa4\xaa\xe0\xa5\x8d\xe0\xa4\xb0\xe0\xa5\x88\xe0\xa4\xb2,n,m,sg,3,d,0,0'
p5797
ssbsg1566
I00
sg1569
I00
sg1580
Nsg1567
Nsg182
I3
sg168
I5
sg1853
Nsg1578
Nsg1854
S'NNP'
p5798
sg269
(issf_api
FeatureSet
p5799
(dp5800
g272
(dp5801
S'posn'
p5802
S'40'
p5803
sS'name'
p5804
S'\xe0\xa4\x85\xe0\xa4\xaa\xe0\xa5\x8d\xe0\xa4\xb0\xe0\xa5\x88\xe0\xa4\xb2'
p5805
sS'af'
p5806
S'\xe0\xa4\x85\xe0\xa4\xaa\xe0\xa5\x8d\xe0\xa4\xb0\xe0\xa5\x88\xe0\xa4\xb2,n,m,sg,3,d,0,0'
p5807
ssbsg1587
I00
sba(issf_api
Word
p5808
(dp5809
g1832
I00
sg1833
V\u092e\u093e\u0939
p5810
sg1835
(issf_api
FeatureSet
p5811
(dp5812
g272
(dp5813
S'posn'
p5814
S'50'
p5815
sS'name'
p5816
S'\xe0\xa4\xae\xe0\xa4\xbe\xe0\xa4\xb9'
p5817
sS'af'
p5818
S'\xe0\xa4\xae\xe0\xa4\xbe\xe0\xa4\xb9,n,m,sg,3,o,0_\xe0\xa4\x95\xe0\xa4\xbe,0'
p5819
sS'chunkid'
p5820
S'NP2'
p5821
sS'drel'
p5822
S'r6:\xe0\xa4\x85\xe0\xa4\x82\xe0\xa4\xa4'
p5823
sS'vpos'
p5824
S'vib_vib_3'
p5825
sS'chunktype'
p5826
S'head:NP2'
p5827
ssbsg1566
I00
sg1569
I00
sg1580
Nsg1567
Nsg182
I3
sg168
I5
sg1853
Nsg1578
Nsg1854
S'NN'
p5828
sg269
(issf_api
FeatureSet
p5829
(dp5830
g272
(dp5831
S'posn'
p5832
S'50'
p5833
sS'name'
p5834
S'\xe0\xa4\xae\xe0\xa4\xbe\xe0\xa4\xb9'
p5835
sS'af'
p5836
S'\xe0\xa4\xae\xe0\xa4\xbe\xe0\xa4\xb9,n,m,sg,3,o,0,0'
p5837
ssbsg1587
I00
sba(issf_api
Word
p5838
(dp5839
g1832
I00
sg1833
V\u0915\u0947
p5840
sg1835
(issf_api
FeatureSet
p5841
(dp5842
g272
(dp5843
S'posn'
p5844
S'60'
p5845
sS'name'
p5846
S'\xe0\xa4\x95\xe0\xa5\x87'
p5847
sS'drel'
p5848
S'lwg__psp:\xe0\xa4\xae\xe0\xa4\xbe\xe0\xa4\xb9'
p5849
sS'chunktype'
p5850
S'child:NP2'
p5851
sS'af'
p5852
S'\xe0\xa4\x95\xe0\xa4\xbe,psp,m,sg,,o,,'
p5853
ssbsg1566
I00
sg1569
I00
sg1580
Nsg1567
Nsg182
I3
sg168
I5
sg1853
Nsg1578
Nsg1854
S'PSP'
p5854
sg269
(issf_api
FeatureSet
p5855
(dp5856
g272
(dp5857
S'posn'
p5858
S'60'
p5859
sS'name'
p5860
S'\xe0\xa4\x95\xe0\xa5\x87'
p5861
sS'af'
p5862
S'\xe0\xa4\x95\xe0\xa4\xbe,psp,m,sg,,o,,'
p5863
ssbsg1587
I00
sba(issf_api
Word
p5864
(dp5865
g1832
I00
sg1833
V\u0905\u0902\u0924
p5866
sg1835
(issf_api
FeatureSet
p5867
(dp5868
g272
(dp5869
S'posn'
p5870
S'70'
p5871
sS'name'
p5872
S'\xe0\xa4\x85\xe0\xa4\x82\xe0\xa4\xa4'
p5873
sS'af'
p5874
S'\xe0\xa4\x85\xe0\xa4\x82\xe0\xa4\xa4,n,m,sg,3,o,0_\xe0\xa4\xa4\xe0\xa4\x95,0'
p5875
sS'chunkid'
p5876
S'NP3'
p5877
sS'drel'
p5878
S'k7t:\xe0\xa4\xb9\xe0\xa5\x8b'
p5879
sS'vpos'
p5880
S'vib_2'
p5881
sS'chunktype'
p5882
S'head:NP3'
p5883
ssbsg1566
I00
sg1569
I00
sg1580
Nsg1567
Nsg182
I4
sg168
I5
sg1853
Nsg1578
Nsg1854
S'NN'
p5884
sg269
(issf_api
FeatureSet
p5885
(dp5886
g272
(dp5887
S'posn'
p5888
S'70'
p5889
sS'name'
p5890
S'\xe0\xa4\x85\xe0\xa4\x82\xe0\xa4\xa4'
p5891
sS'af'
p5892
S'\xe0\xa4\x85\xe0\xa4\x82\xe0\xa4\xa4,n,m,sg,3,o,0,0'
p5893
ssbsg1587
I00
sba(issf_api
Word
p5894
(dp5895
g1832
I00
sg1833
V\u0924\u0915
p5896
sg1835
(issf_api
FeatureSet
p5897
(dp5898
g272
(dp5899
S'posn'
p5900
S'80'
p5901
sS'name'
p5902
S'\xe0\xa4\xa4\xe0\xa4\x95'
p5903
sS'drel'
p5904
S'lwg__psp:\xe0\xa4\x85\xe0\xa4\x82\xe0\xa4\xa4'
p5905
sS'chunktype'
p5906
S'child:NP3'
p5907
sS'af'
p5908
S'\xe0\xa4\xa4\xe0\xa4\x95,psp,,,,,,'
p5909
ssbsg1566
I00
sg1569
I00
sg1580
Nsg1567
Nsg182
I4
sg168
I5
sg1853
Nsg1578
Nsg1854
S'PSP'
p5910
sg269
(issf_api
FeatureSet
p5911
(dp5912
g272
(dp5913
S'posn'
p5914
S'80'
p5915
sS'name'
p5916
S'\xe0\xa4\xa4\xe0\xa4\x95'
p5917
sS'af'
p5918
S'\xe0\xa4\xa4\xe0\xa4\x95,psp,,,,,,'
p5919
ssbsg1587
I00
sba(issf_api
Word
p5920
(dp5921
g1832
I00
sg1833
V\u0907\u0928
p5922
sg1835
(issf_api
FeatureSet
p5923
(dp5924
g272
(dp5925
S'posn'
p5926
S'90'
p5927
sS'name'
p5928
S'\xe0\xa4\x87\xe0\xa4\xa8'
p5929
sS'drel'
p5930
S'nmod__adj:\xe0\xa4\x9c\xe0\xa4\x97\xe0\xa4\xb9\xe0\xa5\x8b\xe0\xa4\x82'
p5931
sS'chunktype'
p5932
S'child:NP4'
p5933
sS'af'
p5934
S'\xe0\xa4\xaf\xe0\xa4\xb9,pn,any,pl,3,o,,'
p5935
ssbsg1566
I00
sg1569
I00
sg1580
Nsg1567
Nsg182
I5
sg168
I5
sg1853
Nsg1578
Nsg1854
S'DEM'
p5936
sg269
(issf_api
FeatureSet
p5937
(dp5938
g272
(dp5939
S'posn'
p5940
S'90'
p5941
sS'name'
p5942
S'\xe0\xa4\x87\xe0\xa4\xa8'
p5943
sS'af'
p5944
S'\xe0\xa4\xaf\xe0\xa4\xb9,pn,any,pl,3,o,,'
p5945
ssbsg1587
I00
sba(issf_api
Word
p5946
(dp5947
g1832
I00
sg1833
V\u091c\u0917\u0939\u094b\u0902
p5948
sg1835
(issf_api
FeatureSet
p5949
(dp5950
g272
(dp5951
S'posn'
p5952
S'100'
p5953
sS'name'
p5954
S'\xe0\xa4\x9c\xe0\xa4\x97\xe0\xa4\xb9\xe0\xa5\x8b\xe0\xa4\x82'
p5955
sS'af'
p5956
S'\xe0\xa4\x9c\xe0\xa4\x97\xe0\xa4\xb9,n,f,pl,3,o,0_\xe0\xa4\xaa\xe0\xa4\xb0,0'
p5957
sS'chunkid'
p5958
S'NP4'
p5959
sS'drel'
p5960
S'k7p:\xe0\xa4\xb9\xe0\xa5\x8b'
p5961
sS'vpos'
p5962
S'vib_3'
p5963
sS'chunktype'
p5964
S'head:NP4'
p5965
ssbsg1566
I00
sg1569
I00
sg1580
Nsg1567
Nsg182
I5
sg168
I5
sg1853
Nsg1578
Nsg1854
S'NN'
p5966
sg269
(issf_api
FeatureSet
p5967
(dp5968
g272
(dp5969
S'posn'
p5970
S'100'
p5971
sS'name'
p5972
S'\xe0\xa4\x9c\xe0\xa4\x97\xe0\xa4\xb9\xe0\xa5\x8b\xe0\xa4\x82'
p5973
sS'af'
p5974
S'\xe0\xa4\x9c\xe0\xa4\x97\xe0\xa4\xb9,n,f,pl,3,o,0,0'
p5975
ssbsg1587
I00
sba(issf_api
Word
p5976
(dp5977
g1832
I00
sg1833
V\u092a\u0930
p5978
sg1835
(issf_api
FeatureSet
p5979
(dp5980
g272
(dp5981
S'posn'
p5982
S'110'
p5983
sS'name'
p5984
S'\xe0\xa4\xaa\xe0\xa4\xb0'
p5985
sS'drel'
p5986
S'lwg__psp:\xe0\xa4\x9c\xe0\xa4\x97\xe0\xa4\xb9\xe0\xa5\x8b\xe0\xa4\x82'
p5987
sS'chunktype'
p5988
S'child:NP4'
p5989
sS'af'
p5990
S'\xe0\xa4\xaa\xe0\xa4\xb0,psp,,,,,,'
p5991
ssbsg1566
I00
sg1569
I00
sg1580
Nsg1567
Nsg182
I5
sg168
I5
sg1853
Nsg1578
Nsg1854
S'PSP'
p5992
sg269
(issf_api
FeatureSet
p5993
(dp5994
g272
(dp5995
S'posn'
p5996
S'110'
p5997
sS'name'
p5998
S'\xe0\xa4\xaa\xe0\xa4\xb0'
p5999
sS'af'
p6000
S'\xe0\xa4\xaa\xe0\xa4\xb0,psp,,,,,,'
p6001
ssbsg1587
I00
sba(issf_api
Word
p6002
(dp6003
g1832
I00
sg1833
V\u092e\u094b\u092c\u093e\u0907\u0932
p6004
sg1835
(issf_api
FeatureSet
p6005
(dp6006
g272
(dp6007
S'posn'
p6008
S'120'
p6009
sS'name'
p6010
S'\xe0\xa4\xae\xe0\xa5\x8b\xe0\xa4\xac\xe0\xa4\xbe\xe0\xa4\x87\xe0\xa4\xb2'
p6011
sS'drel'
p6012
S'pof__cn:\xe0\xa4\xb8\xe0\xa5\x87\xe0\xa4\xb5\xe0\xa4\xbe'
p6013
sS'chunktype'
p6014
S'child:NP5'
p6015
sS'af'
p6016
S'\xe0\xa4\xae\xe0\xa5\x8b\xe0\xa4\xac\xe0\xa4\xbe\xe0\xa4\x87\xe0\xa4\xb2,n,m,sg,3,d,0,0'
p6017
ssbsg1566
I00
sg1569
I00
sg1580
Nsg1567
Nsg182
I6
sg168
I5
sg1853
Nsg1578
Nsg1854
S'NNC'
p6018
sg269
(issf_api
FeatureSet
p6019
(dp6020
g272
(dp6021
S'posn'
p6022
S'120'
p6023
sS'name'
p6024
S'\xe0\xa4\xae\xe0\xa5\x8b\xe0\xa4\xac\xe0\xa4\xbe\xe0\xa4\x87\xe0\xa4\xb2'
p6025
sS'af'
p6026
S'\xe0\xa4\xae\xe0\xa5\x8b\xe0\xa4\xac\xe0\xa4\xbe\xe0\xa4\x87\xe0\xa4\xb2,n,m,sg,3,d,0,0'
p6027
ssbsg1587
I00
sba(issf_api
Word
p6028
(dp6029
g1832
I00
sg1833
V\u0938\u0947\u0935\u093e
p6030
sg1835
(issf_api
FeatureSet
p6031
(dp6032
g272
(dp6033
S'posn'
p6034
S'130'
p6035
sS'name'
p6036
S'\xe0\xa4\xb8\xe0\xa5\x87\xe0\xa4\xb5\xe0\xa4\xbe'
p6037
sS'af'
p6038
S'\xe0\xa4\xb8\xe0\xa5\x87\xe0\xa4\xb5\xe0\xa4\xbe,n,f,sg,3,d,0,0'
p6039
sS'chunkid'
p6040
S'NP5'
p6041
sS'drel'
p6042
S'k1:\xe0\xa4\xb9\xe0\xa5\x8b'
p6043
sS'chunktype'
p6044
S'head:NP5'
p6045
ssbsg1566
I00
sg1569
I00
sg1580
Nsg1567
Nsg182
I6
sg168
I5
sg1853
Nsg1578
Nsg1854
S'NN'
p6046
sg269
(issf_api
FeatureSet
p6047
(dp6048
g272
(dp6049
S'posn'
p6050
S'130'
p6051
sS'name'
p6052
S'\xe0\xa4\xb8\xe0\xa5\x87\xe0\xa4\xb5\xe0\xa4\xbe'
p6053
sS'af'
p6054
S'\xe0\xa4\xb8\xe0\xa5\x87\xe0\xa4\xb5\xe0\xa4\xbe,n,f,sg,3,d,0,0'
p6055
ssbsg1587
I00
sba(issf_api
Word
p6056
(dp6057
g1832
I00
sg1833
V\u0936\u0941\u0930\u0942
p6058
sg1835
(issf_api
FeatureSet
p6059
(dp6060
g272
(dp6061
S'posn'
p6062
S'140'
p6063
sS'name'
p6064
S'\xe0\xa4\xb6\xe0\xa5\x81\xe0\xa4\xb0\xe0\xa5\x82'
p6065
sS'af'
p6066
S'\xe0\xa4\xb6\xe0\xa5\x81\xe0\xa4\xb0\xe0\xa5\x82,n,m,sg,3,d,0,0'
p6067
sS'chunkid'
p6068
S'NP6'
p6069
sS'drel'
p6070
S'pof:\xe0\xa4\xb9\xe0\xa5\x8b'
p6071
sS'chunktype'
p6072
S'head:NP6'
p6073
ssbsg1566
I00
sg1569
I00
sg1580
Nsg1567
Nsg182
I7
sg168
I5
sg1853
Nsg1578
Nsg1854
S'NN'
p6074
sg269
(issf_api
FeatureSet
p6075
(dp6076
g272
(dp6077
S'posn'
p6078
S'140'
p6079
sS'name'
p6080
S'\xe0\xa4\xb6\xe0\xa5\x81\xe0\xa4\xb0\xe0\xa5\x82'
p6081
sS'af'
p6082
S'\xe0\xa4\xb6\xe0\xa5\x81\xe0\xa4\xb0\xe0\xa5\x82,n,m,sg,3,d,0,0'
p6083
ssbsg1587
I00
sba(issf_api
Word
p6084
(dp6085
g1832
I00
sg1833
V\u0939\u094b
p6086
sg1835
(issf_api
FeatureSet
p6087
(dp6088
g272
(dp6089
S'posn'
p6090
S'150'
p6091
sS'name'
p6092
S'\xe0\xa4\xb9\xe0\xa5\x8b'
p6093
sS'af'
p6094
S'\xe0\xa4\xb9\xe0\xa5\x8b,v,any,sg,3,,0_\xe0\xa4\x9c\xe0\xa4\xbe+\xe0\xa4\x97\xe0\xa4\xbe,0'
p6095
sS'chunkid'
p6096
S'VGF2'
p6097
sS'stype'
p6098
S'declarative'
p6099
sS'drel'
p6100
S'ccof:\xe0\xa4\x95\xe0\xa4\xbf'
p6101
sS'voicetype'
p6102
S'active'
p6103
sS'vpos'
p6104
S'tam_2'
p6105
sS'chunktype'
p6106
S'head:VGF2'
p6107
ssbsg1566
I00
sg1569
I00
sg1580
Nsg1567
Nsg182
I8
sg168
I5
sg1853
Nsg1578
Nsg1854
S'VM'
p6108
sg269
(issf_api
FeatureSet
p6109
(dp6110
g272
(dp6111
S'posn'
p6112
S'150'
p6113
sS'name'
p6114
S'\xe0\xa4\xb9\xe0\xa5\x8b'
p6115
sS'af'
p6116
S'\xe0\xa4\xb9\xe0\xa5\x8b,v,any,any,any,,0,0'
p6117
ssbsg1587
I00
sba(issf_api
Word
p6118
(dp6119
g1832
I00
sg1833
V\u091c\u093e\u090f\u0917\u0940
p6120
sg1835
(issf_api
FeatureSet
p6121
(dp6122
g272
(dp6123
S'posn'
p6124
S'160'
p6125
sS'name'
p6126
S'\xe0\xa4\x9c\xe0\xa4\xbe\xe0\xa4\x8f\xe0\xa4\x97\xe0\xa5\x80'
p6127
sS'drel'
p6128
S'lwg__vaux:\xe0\xa4\xb9\xe0\xa5\x8b'
p6129
sS'chunktype'
p6130
S'child:VGF2'
p6131
sS'af'
p6132
S'\xe0\xa4\x9c\xe0\xa4\xbe,v,f,sg,3,,\xe0\xa4\x97\xe0\xa4\xbe,gA'
p6133
ssbsg1566
I00
sg1569
I00
sg1580
Nsg1567
Nsg182
I8
sg168
I5
sg1853
Nsg1578
Nsg1854
S'VAUX'
p6134
sg269
(issf_api
FeatureSet
p6135
(dp6136
g272
(dp6137
S'posn'
p6138
S'160'
p6139
sS'name'
p6140
S'\xe0\xa4\x9c\xe0\xa4\xbe\xe0\xa4\x8f\xe0\xa4\x97\xe0\xa5\x80'
p6141
sS'af'
p6142
S'\xe0\xa4\x9c\xe0\xa4\xbe,v,f,sg,3,,\xe0\xa4\x97\xe0\xa4\xbe,gA'
p6143
ssbsg1587
I00
sba(issf_api
Word
p6144
(dp6145
g1832
I00
sg1833
V\u0964
sg1835
(issf_api
FeatureSet
p6146
(dp6147
g272
(dp6148
S'posn'
p6149
S'170'
p6150
sS'name'
p6151
S'\xe0\xa5\xa4'
p6152
sS'af'
p6153
S'\xe0\xa5\xa4,punc,,,,,,'
p6154
sS'chunkid'
p6155
S'BLK'
p6156
sS'drel'
p6157
S'rsym:\xe0\xa4\x95\xe0\xa4\xb9\xe0\xa4\xbe'
p6158
sS'chunktype'
p6159
S'head:BLK'
p6160
ssbsg1566
I00
sg1569
I00
sg1580
Nsg1567
Nsg182
I9
sg168
I5
sg1853
Nsg1578
Nsg1854
S'SYM'
p6161
sg269
(issf_api
FeatureSet
p6162
(dp6163
g272
(dp6164
S'posn'
p6165
S'170'
p6166
sS'name'
p6167
S'\xe0\xa5\xa4'
p6168
sS'af'
p6169
S'\xe0\xa5\xa4,punc,,,,,,'
p6170
ssbsg1587
I00
sbasb.