(iannotated_data
discourseFile
p1
(dp2
S'annToRawMapping'
p3
(dp4
I0
(I0
tp5
sI1
(I1
tp6
sI2
(I2
tp7
sI3
(I3
tp8
sI4
(I4
tp9
sI5
(I5
tp10
sI6
(I6
tp11
sI7
(I7
tp12
sI8
(I8
tp13
sI9
(I9
tp14
sI10
(I10
tp15
sI11
(I11
tp16
sI12
(I12
tp17
sI13
(I13
tp18
sI14
(I14
tp19
sI15
(I15
tp20
sI16
(I16
tp21
sI17
(I17
tp22
sI18
(I18
tp23
sI19
(I19
tp24
sI20
(I20
tp25
sI21
(I21
tp26
sI22
(I22
tp27
sI23
(I23
tp28
sI24
(I24
tp29
sI25
(I25
tp30
sI26
(I26
tp31
sI27
(I27
tp32
sI28
(I28
tp33
sI29
(I29
tp34
sI30
(I30
tp35
sI31
(I31
tp36
sI32
(I32
tp37
sI33
(I33
tp38
sI34
(I34
tp39
sI35
(I35
I36
I37
tp40
sI36
(I38
tp41
sI37
(I39
tp42
sI38
(I40
tp43
sI39
(I41
tp44
sI40
(I42
tp45
sI41
(I43
tp46
sI42
(I44
tp47
sI43
(I45
tp48
sI44
(I46
tp49
sI45
(I47
tp50
sI46
(I48
tp51
sI47
(I49
tp52
sI48
(I50
tp53
sI49
(I51
tp54
sI50
(I52
tp55
sI51
(I53
tp56
sI52
(I54
tp57
sI53
(I55
tp58
sI54
(I56
tp59
sI55
(I57
tp60
sI56
(I58
tp61
sI57
(I59
tp62
sI58
(I60
tp63
sI59
(I61
tp64
sI60
(I62
tp65
sI61
(I63
tp66
sI62
(I64
tp67
sI63
(I65
tp68
sI64
(I66
tp69
sI65
(I67
tp70
sI66
(I68
tp71
sI67
(I69
tp72
sI68
(I70
tp73
sI69
(I71
tp74
sI70
(I72
tp75
sI71
(I73
tp76
sI72
(I74
tp77
sI73
(I75
tp78
sI74
(I76
tp79
sI75
(I77
tp80
sI76
(I78
tp81
sI77
(I79
tp82
sI78
(I80
tp83
sI79
(I81
tp84
sI80
(I82
tp85
sI81
(I83
tp86
sI82
(I84
tp87
sI83
(I85
tp88
sI84
(I86
tp89
sI85
(I87
tp90
sI86
(I88
tp91
sI87
(I89
tp92
sI88
(I90
tp93
sI89
(I91
tp94
sI90
(I92
tp95
sI91
(I93
tp96
sI92
(I94
tp97
sI93
(I95
tp98
sI94
(I96
tp99
sI95
(I97
tp100
sI96
(I98
tp101
sI97
(I99
tp102
sI98
(I100
tp103
sI99
(I101
tp104
sI100
(I102
tp105
sI101
(I103
tp106
sI102
(I104
tp107
sI103
(I105
tp108
sI104
(I106
tp109
sI105
(I107
tp110
sI106
(I108
tp111
sI107
(I109
tp112
sI108
(I110
tp113
sI109
(I111
tp114
sI110
(I112
tp115
sI111
(I113
tp116
sI112
(I114
tp117
sI113
(I115
tp118
sI114
(I116
tp119
sI115
(I117
tp120
sI116
(I118
tp121
sI117
(I119
tp122
sI118
(I120
tp123
sI119
(I121
tp124
sI120
(I122
tp125
sI121
(I123
tp126
sI122
(I124
tp127
sI123
(I125
tp128
sI124
(I126
tp129
sI125
(I127
tp130
sI126
(I128
tp131
sI127
(I129
tp132
sI128
(I130
tp133
sI129
(I131
tp134
sI130
(I132
tp135
sI131
(I133
tp136
sI132
(I134
tp137
sI133
(I135
tp138
sI134
(I136
tp139
sI135
(I137
tp140
sI136
(I138
tp141
sI137
(I139
tp142
sI138
(I140
tp143
sI139
(I141
tp144
sI140
(I142
tp145
sI141
(I143
tp146
sI142
(I144
tp147
sI143
(I145
tp148
sI144
(I146
tp149
sI145
(I147
tp150
sI146
(I148
tp151
ssS'sentenceList'
p152
(lp153
(issf_api
Sentence
p154
(dp155
S'rootNode'
p156
(lp157
sS'sentenceNum'
p158
I0
sS'wordNumList'
p159
(lp160
I0
aI1
aI2
aI3
aI4
aI5
aI6
aI7
aI8
aI9
aI10
aI11
aI12
aI13
aI14
aI15
aI16
aI17
aI18
aI19
aI20
aI21
aI22
aI23
aI24
asS'nodeDict'
p161
(dp162
S'VGNF'
p163
(issf_api
Node
p164
(dp165
S'nodeRelation'
p166
S'nmod__k1inv'
p167
sS'nodeName'
p168
g163
sS'nodeParent'
p169
S'NP4'
p170
sS'nodeLevel'
p171
I-1
sS'chunkNum'
p172
I3
sS'childList'
p173
(lp174
sbsS'VGNN'
p175
(issf_api
Node
p176
(dp177
g166
S'k7t'
p178
sg168
g175
sg169
S'VGF'
p179
sg171
I-1
sg172
I7
sg173
(lp180
sbsS'VGF'
p181
(issf_api
Node
p182
(dp183
g166
S'None'
p184
sg168
g181
sg169
g184
sg171
I-1
sg172
I10
sg173
(lp185
sbsS'JJP'
p186
(issf_api
Node
p187
(dp188
g166
S'pof'
p189
sg168
g186
sg169
S'VGF'
p190
sg171
I-1
sg172
I9
sg173
(lp191
sbsS'NP5'
p192
(issf_api
Node
p193
(dp194
g166
S'k7'
p195
sg168
g192
sg169
S'VGNN'
p196
sg171
I-1
sg172
I5
sg173
(lp197
sbsS'BLK'
p198
(issf_api
Node
p199
(dp200
g166
S'rsym'
p201
sg168
g198
sg169
S'VGF'
p202
sg171
I-1
sg172
I11
sg173
(lp203
sbsS'NP'
p204
(issf_api
Node
p205
(dp206
g166
S'k7p'
p207
sg168
g204
sg169
S'VGF'
p208
sg171
I-1
sg172
I0
sg173
(lp209
sbsS'NP4'
p210
(issf_api
Node
p211
(dp212
g166
S'r6'
p213
sg168
g210
sg169
S'NP5'
p214
sg171
I-1
sg172
I4
sg173
(lp215
sbsS'NP7'
p216
(issf_api
Node
p217
(dp218
g166
S'k2'
p219
sg168
g216
sg169
S'VGF'
p220
sg171
I-1
sg172
I8
sg173
(lp221
sbsS'NP6'
p222
(issf_api
Node
p223
(dp224
g166
S'pof'
p225
sg168
g222
sg169
S'VGNN'
p226
sg171
I-1
sg172
I6
sg173
(lp227
sbsS'NP3'
p228
(issf_api
Node
p229
(dp230
g166
S'k7'
p231
sg168
g228
sg169
S'VGNF'
p232
sg171
I-1
sg172
I2
sg173
(lp233
sbsS'NP2'
p234
(issf_api
Node
p235
(dp236
g166
S'rh'
p237
sg168
g234
sg169
S'VGF'
p238
sg171
I-1
sg172
I1
sg173
(lp239
sbssS'chunkList'
p240
(lp241
(issf_api
Chunk
p242
(dp243
g168
g204
sg172
I0
sS'chunkTag'
p244
S'NP'
p245
sg158
I0
sg159
(lp246
I0
aI1
asS'featureSet'
p247
(issf_api
FeatureSet
p248
(dp249
S'featureDict'
p250
(dp251
S'drel'
p252
S'k7p:VGF'
p253
sS'name'
p254
g204
ssbsba(issf_api
Chunk
p255
(dp256
g168
g234
sg172
I1
sg244
S'NP'
p257
sg158
I0
sg159
(lp258
I2
aI3
aI4
asg247
(issf_api
FeatureSet
p259
(dp260
g250
(dp261
S'drel'
p262
S'rh:VGF'
p263
sS'name'
p264
g234
ssbsba(issf_api
Chunk
p265
(dp266
g168
g228
sg172
I2
sg244
S'NP'
p267
sg158
I0
sg159
(lp268
I5
aI6
asg247
(issf_api
FeatureSet
p269
(dp270
g250
(dp271
S'drel'
p272
S'k7:VGNF'
p273
sS'name'
p274
g228
ssbsba(issf_api
Chunk
p275
(dp276
g168
g163
sg172
I3
sg244
S'VGNF'
p277
sg158
I0
sg159
(lp278
I7
asg247
(issf_api
FeatureSet
p279
(dp280
g250
(dp281
S'drel'
p282
S'nmod__k1inv:NP4'
p283
sS'name'
p284
g163
ssbsba(issf_api
Chunk
p285
(dp286
g168
g210
sg172
I4
sg244
S'NP'
p287
sg158
I0
sg159
(lp288
I8
aI9
aI10
asg247
(issf_api
FeatureSet
p289
(dp290
g250
(dp291
S'drel'
p292
S'r6:NP5'
p293
sS'name'
p294
g210
ssbsba(issf_api
Chunk
p295
(dp296
g168
g192
sg172
I5
sg244
S'NP'
p297
sg158
I0
sg159
(lp298
I11
aI12
asg247
(issf_api
FeatureSet
p299
(dp300
g250
(dp301
S'drel'
p302
S'k7:VGNN'
p303
sS'name'
p304
g192
ssbsba(issf_api
Chunk
p305
(dp306
g168
g222
sg172
I6
sg244
S'NP'
p307
sg158
I0
sg159
(lp308
I13
asg247
(issf_api
FeatureSet
p309
(dp310
g250
(dp311
S'drel'
p312
S'pof:VGNN'
p313
sS'name'
p314
g222
ssbsba(issf_api
Chunk
p315
(dp316
g168
g175
sg172
I7
sg244
S'VGNN'
p317
sg158
I0
sg159
(lp318
I14
aI15
aI16
aI17
asg247
(issf_api
FeatureSet
p319
(dp320
g250
(dp321
S'drel'
p322
S'k7t:VGF'
p323
sS'name'
p324
g175
ssbsba(issf_api
Chunk
p325
(dp326
g168
g216
sg172
I8
sg244
S'NP'
p327
sg158
I0
sg159
(lp328
I18
asg247
(issf_api
FeatureSet
p329
(dp330
g250
(dp331
S'drel'
p332
S'k2:VGF'
p333
sS'name'
p334
g216
ssbsba(issf_api
Chunk
p335
(dp336
g168
g186
sg172
I9
sg244
S'JJP'
p337
sg158
I0
sg159
(lp338
I19
asg247
(issf_api
FeatureSet
p339
(dp340
g250
(dp341
S'drel'
p342
S'pof:VGF'
p343
sS'name'
p344
g186
ssbsba(issf_api
Chunk
p345
(dp346
g168
g181
sg172
I10
sg244
S'VGF'
p347
sg158
I0
sg159
(lp348
I20
aI21
aI22
aI23
asg247
(issf_api
FeatureSet
p349
(dp350
g250
(dp351
S'name'
p352
g181
sS'stype'
p353
S'declarative'
p354
sS'voicetype'
p355
S'passive'
p356
ssbsba(issf_api
Chunk
p357
(dp358
g168
g198
sg172
I11
sg244
S'BLK'
p359
sg158
I0
sg159
(lp360
I24
asg247
(issf_api
FeatureSet
p361
(dp362
g250
(dp363
S'drel'
p364
S'rsym:VGF'
p365
sS'name'
p366
g198
ssbsbasba(issf_api
Sentence
p367
(dp368
g156
(lp369
sg158
I1
sg159
(lp370
I25
aI26
aI27
aI28
aI29
aI30
aI31
aI32
asg161
(dp371
S'NP'
p372
(issf_api
Node
p373
(dp374
g166
S'k1'
p375
sg168
g372
sg169
S'VGF'
p376
sg171
I-1
sg172
I0
sg173
(lp377
sbsS'VGF'
p378
(issf_api
Node
p379
(dp380
g166
g184
sg168
g378
sg169
g184
sg171
I-1
sg172
I3
sg173
(lp381
sbsS'JJP'
p382
(issf_api
Node
p383
(dp384
g166
S'k1s'
p385
sg168
g382
sg169
S'VGF'
p386
sg171
I-1
sg172
I2
sg173
(lp387
sbsS'BLK'
p388
(issf_api
Node
p389
(dp390
g166
S'rsym'
p391
sg168
g388
sg169
S'VGF'
p392
sg171
I-1
sg172
I4
sg173
(lp393
sbsS'NP2'
p394
(issf_api
Node
p395
(dp396
g166
S'jjmod'
p397
sg168
g394
sg169
S'JJP'
p398
sg171
I-1
sg172
I1
sg173
(lp399
sbssg240
(lp400
(issf_api
Chunk
p401
(dp402
g168
g372
sg172
I0
sg244
S'NP'
p403
sg158
I1
sg159
(lp404
I25
aI26
asg247
(issf_api
FeatureSet
p405
(dp406
g250
(dp407
S'drel'
p408
S'k1:VGF'
p409
sS'name'
p410
g372
ssbsba(issf_api
Chunk
p411
(dp412
g168
g394
sg172
I1
sg244
S'NP'
p413
sg158
I1
sg159
(lp414
I27
aI28
aI29
asg247
(issf_api
FeatureSet
p415
(dp416
g250
(dp417
S'drel'
p418
S'jjmod:JJP'
p419
sS'name'
p420
g394
ssbsba(issf_api
Chunk
p421
(dp422
g168
g382
sg172
I2
sg244
S'JJP'
p423
sg158
I1
sg159
(lp424
I30
asg247
(issf_api
FeatureSet
p425
(dp426
g250
(dp427
S'drel'
p428
S'k1s:VGF'
p429
sS'name'
p430
g382
ssbsba(issf_api
Chunk
p431
(dp432
g168
g378
sg172
I3
sg244
S'VGF'
p433
sg158
I1
sg159
(lp434
I31
asg247
(issf_api
FeatureSet
p435
(dp436
g250
(dp437
S'name'
p438
g378
sS'stype'
p439
S'declarative'
p440
sS'voicetype'
p441
S'active'
p442
ssbsba(issf_api
Chunk
p443
(dp444
g168
g388
sg172
I4
sg244
S'BLK'
p445
sg158
I1
sg159
(lp446
I32
asg247
(issf_api
FeatureSet
p447
(dp448
g250
(dp449
S'drel'
p450
S'rsym:VGF'
p451
sS'name'
p452
g388
ssbsbasba(issf_api
Sentence
p453
(dp454
g156
(lp455
sg158
I2
sg159
(lp456
I33
aI34
aI35
aI36
aI37
aI38
aI39
asg161
(dp457
S'NP'
p458
(issf_api
Node
p459
(dp460
g166
S'r6'
p461
sg168
g458
sg169
S'NP2'
p462
sg171
I-1
sg172
I0
sg173
(lp463
sbsS'VGF'
p464
(issf_api
Node
p465
(dp466
g166
g184
sg168
g464
sg169
g184
sg171
I-1
sg172
I3
sg173
(lp467
sbsS'BLK'
p468
(issf_api
Node
p469
(dp470
g166
S'rsym'
p471
sg168
g468
sg169
S'VGF'
p472
sg171
I-1
sg172
I4
sg173
(lp473
sbsS'NP3'
p474
(issf_api
Node
p475
(dp476
g166
S'k2s'
p477
sg168
g474
sg169
S'VGF'
p478
sg171
I-1
sg172
I2
sg173
(lp479
sbsS'NP2'
p480
(issf_api
Node
p481
(dp482
g166
S'k2'
p483
sg168
g480
sg169
S'VGF'
p484
sg171
I-1
sg172
I1
sg173
(lp485
sbssg240
(lp486
(issf_api
Chunk
p487
(dp488
g168
g458
sg172
I0
sg244
S'NP'
p489
sg158
I2
sg159
(lp490
I33
asg247
(issf_api
FeatureSet
p491
(dp492
g250
(dp493
S'drel'
p494
S'r6:NP2'
p495
sS'name'
p496
g458
ssbsba(issf_api
Chunk
p497
(dp498
g168
g480
sg172
I1
sg244
S'NP'
p499
sg158
I2
sg159
(lp500
I34
asg247
(issf_api
FeatureSet
p501
(dp502
g250
(dp503
S'drel'
p504
S'k2:VGF'
p505
sS'name'
p506
g480
ssbsba(issf_api
Chunk
p507
(dp508
g168
g474
sg172
I2
sg244
S'NP'
p509
sg158
I2
sg159
(lp510
I35
asg247
(issf_api
FeatureSet
p511
(dp512
g250
(dp513
S'drel'
p514
S'k2s:VGF'
p515
sS'name'
p516
g474
ssbsba(issf_api
Chunk
p517
(dp518
g168
g464
sg172
I3
sg244
S'VGF'
p519
sg158
I2
sg159
(lp520
I36
aI37
aI38
asg247
(issf_api
FeatureSet
p521
(dp522
g250
(dp523
S'name'
p524
g464
sS'stype'
p525
S'declarative'
p526
sS'voicetype'
p527
S'passive'
p528
ssbsba(issf_api
Chunk
p529
(dp530
g168
g468
sg172
I4
sg244
S'BLK'
p531
sg158
I2
sg159
(lp532
I39
asg247
(issf_api
FeatureSet
p533
(dp534
g250
(dp535
S'drel'
p536
S'rsym:VGF'
p537
sS'name'
p538
g468
ssbsbasba(issf_api
Sentence
p539
(dp540
g156
(lp541
sg158
I3
sg159
(lp542
I40
aI41
aI42
aI43
aI44
aI45
aI46
aI47
aI48
aI49
asg161
(dp543
S'VGF'
p544
(issf_api
Node
p545
(dp546
g166
g184
sg168
g544
sg169
g184
sg171
I-1
sg172
I4
sg173
(lp547
sbsS'BLK'
p548
(issf_api
Node
p549
(dp550
g166
S'rsym'
p551
sg168
g548
sg169
S'VGF'
p552
sg171
I-1
sg172
I5
sg173
(lp553
sbsS'NP'
p554
(issf_api
Node
p555
(dp556
g166
S'k7a'
p557
sg168
g554
sg169
S'VGF'
p558
sg171
I-1
sg172
I0
sg173
(lp559
sbsS'NP4'
p560
(issf_api
Node
p561
(dp562
g166
S'k7'
p563
sg168
g560
sg169
S'VGF'
p564
sg171
I-1
sg172
I3
sg173
(lp565
sbsS'NP3'
p566
(issf_api
Node
p567
(dp568
g166
S'k1'
p569
sg168
g566
sg169
S'VGF'
p570
sg171
I-1
sg172
I2
sg173
(lp571
sbsS'NP2'
p572
(issf_api
Node
p573
(dp574
g166
S'r6'
p575
sg168
g572
sg169
S'NP3'
p576
sg171
I-1
sg172
I1
sg173
(lp577
sbssg240
(lp578
(issf_api
Chunk
p579
(dp580
g168
g554
sg172
I0
sg244
S'NP'
p581
sg158
I3
sg159
(lp582
I40
aI41
aI42
aI43
asg247
(issf_api
FeatureSet
p583
(dp584
g250
(dp585
S'drel'
p586
S'k7a:VGF'
p587
sS'name'
p588
g554
ssbsba(issf_api
Chunk
p589
(dp590
g168
g572
sg172
I1
sg244
S'NP'
p591
sg158
I3
sg159
(lp592
I44
asg247
(issf_api
FeatureSet
p593
(dp594
g250
(dp595
S'drel'
p596
S'r6:NP3'
p597
sS'name'
p598
g572
ssbsba(issf_api
Chunk
p599
(dp600
g168
g566
sg172
I2
sg244
S'NP'
p601
sg158
I3
sg159
(lp602
I45
asg247
(issf_api
FeatureSet
p603
(dp604
g250
(dp605
S'drel'
p606
S'k1:VGF'
p607
sS'name'
p608
g566
ssbsba(issf_api
Chunk
p609
(dp610
g168
g560
sg172
I3
sg244
S'NP'
p611
sg158
I3
sg159
(lp612
I46
aI47
asg247
(issf_api
FeatureSet
p613
(dp614
g250
(dp615
S'drel'
p616
S'k7:VGF'
p617
sS'name'
p618
g560
ssbsba(issf_api
Chunk
p619
(dp620
g168
g544
sg172
I4
sg244
S'VGF'
p621
sg158
I3
sg159
(lp622
I48
asg247
(issf_api
FeatureSet
p623
(dp624
g250
(dp625
S'name'
p626
g544
sS'stype'
p627
S'declarative'
p628
sS'voicetype'
p629
S'active'
p630
ssbsba(issf_api
Chunk
p631
(dp632
g168
g548
sg172
I5
sg244
S'BLK'
p633
sg158
I3
sg159
(lp634
I49
asg247
(issf_api
FeatureSet
p635
(dp636
g250
(dp637
S'drel'
p638
S'rsym:VGF'
p639
sS'name'
p640
g548
ssbsbasba(issf_api
Sentence
p641
(dp642
g156
(lp643
sg158
I4
sg159
(lp644
I50
aI51
aI52
aI53
aI54
aI55
aI56
aI57
aI58
aI59
aI60
aI61
asg161
(dp645
S'VGNF'
p646
(issf_api
Node
p647
(dp648
g166
S'nmod__k1inv'
p649
sg168
g646
sg169
S'NP4'
p650
sg171
I-1
sg172
I2
sg173
(lp651
sbsS'VGF'
p652
(issf_api
Node
p653
(dp654
g166
g184
sg168
g652
sg169
g184
sg171
I-1
sg172
I5
sg173
(lp655
sbsS'BLK'
p656
(issf_api
Node
p657
(dp658
g166
S'rsym'
p659
sg168
g656
sg169
S'VGF'
p660
sg171
I-1
sg172
I6
sg173
(lp661
sbsS'NP'
p662
(issf_api
Node
p663
(dp664
g166
S'k1'
p665
sg168
g662
sg169
S'VGF'
p666
sg171
I-1
sg172
I0
sg173
(lp667
sbsS'NP4'
p668
(issf_api
Node
p669
(dp670
g166
S'k7p'
p671
sg168
g668
sg169
S'VGF'
p672
sg171
I-1
sg172
I4
sg173
(lp673
sbsS'NP3'
p674
(issf_api
Node
p675
(dp676
g166
S'r6'
p677
sg168
g674
sg169
S'NP4'
p678
sg171
I-1
sg172
I3
sg173
(lp679
sbsS'NP2'
p680
(issf_api
Node
p681
(dp682
g166
S'k2'
p683
sg168
g680
sg169
S'VGNF'
p684
sg171
I-1
sg172
I1
sg173
(lp685
sbssg240
(lp686
(issf_api
Chunk
p687
(dp688
g168
g662
sg172
I0
sg244
S'NP'
p689
sg158
I4
sg159
(lp690
I50
aI51
asg247
(issf_api
FeatureSet
p691
(dp692
g250
(dp693
S'drel'
p694
S'k1:VGF'
p695
sS'name'
p696
g662
ssbsba(issf_api
Chunk
p697
(dp698
g168
g680
sg172
I1
sg244
S'NP'
p699
sg158
I4
sg159
(lp700
I52
aI53
asg247
(issf_api
FeatureSet
p701
(dp702
g250
(dp703
S'drel'
p704
S'k2:VGNF'
p705
sS'name'
p706
g680
ssbsba(issf_api
Chunk
p707
(dp708
g168
g646
sg172
I2
sg244
S'VGNF'
p709
sg158
I4
sg159
(lp710
I54
asg247
(issf_api
FeatureSet
p711
(dp712
g250
(dp713
S'drel'
p714
S'nmod__k1inv:NP4'
p715
sS'name'
p716
g646
ssbsba(issf_api
Chunk
p717
(dp718
g168
g674
sg172
I3
sg244
S'NP'
p719
sg158
I4
sg159
(lp720
I55
aI56
asg247
(issf_api
FeatureSet
p721
(dp722
g250
(dp723
S'drel'
p724
S'r6:NP4'
p725
sS'name'
p726
g674
ssbsba(issf_api
Chunk
p727
(dp728
g168
g668
sg172
I4
sg244
S'NP'
p729
sg158
I4
sg159
(lp730
I57
aI58
asg247
(issf_api
FeatureSet
p731
(dp732
g250
(dp733
S'drel'
p734
S'k7p:VGF'
p735
sS'name'
p736
g668
ssbsba(issf_api
Chunk
p737
(dp738
g168
g652
sg172
I5
sg244
S'VGF'
p739
sg158
I4
sg159
(lp740
I59
aI60
asg247
(issf_api
FeatureSet
p741
(dp742
g250
(dp743
S'name'
p744
g652
sS'stype'
p745
S'declarative'
p746
sS'voicetype'
p747
S'active'
p748
ssbsba(issf_api
Chunk
p749
(dp750
g168
g656
sg172
I6
sg244
S'BLK'
p751
sg158
I4
sg159
(lp752
I61
asg247
(issf_api
FeatureSet
p753
(dp754
g250
(dp755
S'drel'
p756
S'rsym:VGF'
p757
sS'name'
p758
g656
ssbsbasba(issf_api
Sentence
p759
(dp760
g156
(lp761
sg158
I5
sg159
(lp762
I62
aI63
aI64
aI65
aI66
aI67
aI68
aI69
aI70
aI71
aI72
aI73
aI74
asg161
(dp763
S'NP'
p764
(issf_api
Node
p765
(dp766
g166
S'k1'
p767
sg168
g764
sg169
S'VGF'
p768
sg171
I-1
sg172
I0
sg173
(lp769
sbsS'VGF'
p770
(issf_api
Node
p771
(dp772
g166
g184
sg168
g770
sg169
g184
sg171
I-1
sg172
I3
sg173
(lp773
sbsS'BLK'
p774
(issf_api
Node
p775
(dp776
g166
S'rsym'
p777
sg168
g774
sg169
S'VGF'
p778
sg171
I-1
sg172
I4
sg173
(lp779
sbsS'NP3'
p780
(issf_api
Node
p781
(dp782
g166
S'k7p'
p783
sg168
g780
sg169
S'VGF'
p784
sg171
I-1
sg172
I2
sg173
(lp785
sbsS'NP2'
p786
(issf_api
Node
p787
(dp788
g166
S'r6'
p789
sg168
g786
sg169
S'NP3'
p790
sg171
I-1
sg172
I1
sg173
(lp791
sbssg240
(lp792
(issf_api
Chunk
p793
(dp794
g168
g764
sg172
I0
sg244
S'NP'
p795
sg158
I5
sg159
(lp796
I62
aI63
asg247
(issf_api
FeatureSet
p797
(dp798
g250
(dp799
S'drel'
p800
S'k1:VGF'
p801
sS'name'
p802
g764
ssbsba(issf_api
Chunk
p803
(dp804
g168
g786
sg172
I1
sg244
S'NP'
p805
sg158
I5
sg159
(lp806
I64
aI65
aI66
aI67
aI68
asg247
(issf_api
FeatureSet
p807
(dp808
g250
(dp809
S'drel'
p810
S'r6:NP3'
p811
sS'name'
p812
g786
ssbsba(issf_api
Chunk
p813
(dp814
g168
g780
sg172
I2
sg244
S'NP'
p815
sg158
I5
sg159
(lp816
I69
aI70
asg247
(issf_api
FeatureSet
p817
(dp818
g250
(dp819
S'drel'
p820
S'k7p:VGF'
p821
sS'name'
p822
g780
ssbsba(issf_api
Chunk
p823
(dp824
g168
g770
sg172
I3
sg244
S'VGF'
p825
sg158
I5
sg159
(lp826
I71
aI72
aI73
asg247
(issf_api
FeatureSet
p827
(dp828
g250
(dp829
S'name'
p830
g770
sS'stype'
p831
S'declarative'
p832
sS'voicetype'
p833
S'active'
p834
ssbsba(issf_api
Chunk
p835
(dp836
g168
g774
sg172
I4
sg244
S'BLK'
p837
sg158
I5
sg159
(lp838
I74
asg247
(issf_api
FeatureSet
p839
(dp840
g250
(dp841
S'drel'
p842
S'rsym:VGF'
p843
sS'name'
p844
g774
ssbsbasba(issf_api
Sentence
p845
(dp846
g156
(lp847
sg158
I6
sg159
(lp848
I75
aI76
aI77
aI78
aI79
aI80
aI81
aI82
aI83
aI84
aI85
asg161
(dp849
S'NP'
p850
(issf_api
Node
p851
(dp852
g166
S'k7'
p853
sg168
g850
sg169
S'VGF'
p854
sg171
I-1
sg172
I0
sg173
(lp855
sbsS'VGF'
p856
(issf_api
Node
p857
(dp858
g166
g184
sg168
g856
sg169
g184
sg171
I-1
sg172
I3
sg173
(lp859
sbsS'BLK'
p860
(issf_api
Node
p861
(dp862
g166
S'rsym'
p863
sg168
g860
sg169
S'VGF'
p864
sg171
I-1
sg172
I4
sg173
(lp865
sbsS'NP3'
p866
(issf_api
Node
p867
(dp868
g166
S'k2p'
p869
sg168
g866
sg169
S'VGF'
p870
sg171
I-1
sg172
I2
sg173
(lp871
sbsS'NP2'
p872
(issf_api
Node
p873
(dp874
g166
S'k7t'
p875
sg168
g872
sg169
S'VGF'
p876
sg171
I-1
sg172
I1
sg173
(lp877
sbssg240
(lp878
(issf_api
Chunk
p879
(dp880
g168
g850
sg172
I0
sg244
S'NP'
p881
sg158
I6
sg159
(lp882
I75
aI76
aI77
asg247
(issf_api
FeatureSet
p883
(dp884
g250
(dp885
S'drel'
p886
S'k7:VGF'
p887
sS'name'
p888
g850
ssbsba(issf_api
Chunk
p889
(dp890
g168
g872
sg172
I1
sg244
S'NP'
p891
sg158
I6
sg159
(lp892
I78
asg247
(issf_api
FeatureSet
p893
(dp894
g250
(dp895
S'drel'
p896
S'k7t:VGF'
p897
sS'name'
p898
g872
ssbsba(issf_api
Chunk
p899
(dp900
g168
g866
sg172
I2
sg244
S'NP'
p901
sg158
I6
sg159
(lp902
I79
aI80
asg247
(issf_api
FeatureSet
p903
(dp904
g250
(dp905
S'drel'
p906
S'k2p:VGF'
p907
sS'name'
p908
g866
ssbsba(issf_api
Chunk
p909
(dp910
g168
g856
sg172
I3
sg244
S'VGF'
p911
sg158
I6
sg159
(lp912
I81
aI82
aI83
aI84
asg247
(issf_api
FeatureSet
p913
(dp914
g250
(dp915
S'name'
p916
g856
sS'stype'
p917
S'declarative'
p918
sS'voicetype'
p919
S'active'
p920
ssbsba(issf_api
Chunk
p921
(dp922
g168
g860
sg172
I4
sg244
S'BLK'
p923
sg158
I6
sg159
(lp924
I85
asg247
(issf_api
FeatureSet
p925
(dp926
g250
(dp927
S'drel'
p928
S'rsym:VGF'
p929
sS'name'
p930
g860
ssbsbasba(issf_api
Sentence
p931
(dp932
g156
(lp933
sg158
I7
sg159
(lp934
I86
aI87
aI88
aI89
aI90
aI91
aI92
aI93
aI94
aI95
aI96
aI97
asg161
(dp935
S'VGF'
p936
(issf_api
Node
p937
(dp938
g166
g184
sg168
g936
sg169
g184
sg171
I-1
sg172
I4
sg173
(lp939
sbsS'BLK'
p940
(issf_api
Node
p941
(dp942
g166
S'rsym'
p943
sg168
g940
sg169
S'VGF'
p944
sg171
I-1
sg172
I5
sg173
(lp945
sbsS'NP'
p946
(issf_api
Node
p947
(dp948
g166
S'k1'
p949
sg168
g946
sg169
S'VGF'
p950
sg171
I-1
sg172
I0
sg173
(lp951
sbsS'NP4'
p952
(issf_api
Node
p953
(dp954
g166
S'k1s'
p955
sg168
g952
sg169
S'VGF'
p956
sg171
I-1
sg172
I3
sg173
(lp957
sbsS'NP3'
p958
(issf_api
Node
p959
(dp960
g166
S'r6'
p961
sg168
g958
sg169
S'NP4'
p962
sg171
I-1
sg172
I2
sg173
(lp963
sbsS'NP2'
p964
(issf_api
Node
p965
(dp966
g166
S'k7t'
p967
sg168
g964
sg169
S'VGF'
p968
sg171
I-1
sg172
I1
sg173
(lp969
sbssg240
(lp970
(issf_api
Chunk
p971
(dp972
g168
g946
sg172
I0
sg244
S'NP'
p973
sg158
I7
sg159
(lp974
I86
aI87
asg247
(issf_api
FeatureSet
p975
(dp976
g250
(dp977
S'drel'
p978
S'k1:VGF'
p979
sS'name'
p980
g946
ssbsba(issf_api
Chunk
p981
(dp982
g168
g964
sg172
I1
sg244
S'NP'
p983
sg158
I7
sg159
(lp984
I88
asg247
(issf_api
FeatureSet
p985
(dp986
g250
(dp987
S'drel'
p988
S'k7t:VGF'
p989
sS'name'
p990
g964
ssbsba(issf_api
Chunk
p991
(dp992
g168
g958
sg172
I2
sg244
S'NP'
p993
sg158
I7
sg159
(lp994
I89
aI90
asg247
(issf_api
FeatureSet
p995
(dp996
g250
(dp997
S'drel'
p998
S'r6:NP4'
p999
sS'name'
p1000
g958
ssbsba(issf_api
Chunk
p1001
(dp1002
g168
g952
sg172
I3
sg244
S'NP'
p1003
sg158
I7
sg159
(lp1004
I91
aI92
aI93
asg247
(issf_api
FeatureSet
p1005
(dp1006
g250
(dp1007
S'drel'
p1008
S'k1s:VGF'
p1009
sS'name'
p1010
g952
ssbsba(issf_api
Chunk
p1011
(dp1012
g168
g936
sg172
I4
sg244
S'VGF'
p1013
sg158
I7
sg159
(lp1014
I94
aI95
aI96
asg247
(issf_api
FeatureSet
p1015
(dp1016
g250
(dp1017
S'name'
p1018
g936
sS'stype'
p1019
S'declarative'
p1020
sS'voicetype'
p1021
S'active'
p1022
ssbsba(issf_api
Chunk
p1023
(dp1024
g168
g940
sg172
I5
sg244
S'BLK'
p1025
sg158
I7
sg159
(lp1026
I97
asg247
(issf_api
FeatureSet
p1027
(dp1028
g250
(dp1029
S'drel'
p1030
S'rsym:VGF'
p1031
sS'name'
p1032
g940
ssbsbasba(issf_api
Sentence
p1033
(dp1034
g156
(lp1035
sg158
I8
sg159
(lp1036
I98
aI99
aI100
aI101
aI102
aI103
aI104
aI105
asg161
(dp1037
S'NP'
p1038
(issf_api
Node
p1039
(dp1040
g166
S'r6'
p1041
sg168
g1038
sg169
S'NP2'
p1042
sg171
I-1
sg172
I0
sg173
(lp1043
sbsS'VGF'
p1044
(issf_api
Node
p1045
(dp1046
g166
g184
sg168
g1044
sg169
g184
sg171
I-1
sg172
I3
sg173
(lp1047
sbsS'BLK'
p1048
(issf_api
Node
p1049
(dp1050
g166
S'rsym'
p1051
sg168
g1048
sg169
S'VGF'
p1052
sg171
I-1
sg172
I4
sg173
(lp1053
sbsS'NP3'
p1054
(issf_api
Node
p1055
(dp1056
g166
S'k1'
p1057
sg168
g1054
sg169
S'VGF'
p1058
sg171
I-1
sg172
I2
sg173
(lp1059
sbsS'NP2'
p1060
(issf_api
Node
p1061
(dp1062
g166
S'k7p'
p1063
sg168
g1060
sg169
S'VGF'
p1064
sg171
I-1
sg172
I1
sg173
(lp1065
sbssg240
(lp1066
(issf_api
Chunk
p1067
(dp1068
g168
g1038
sg172
I0
sg244
S'NP'
p1069
sg158
I8
sg159
(lp1070
I98
aI99
asg247
(issf_api
FeatureSet
p1071
(dp1072
g250
(dp1073
S'drel'
p1074
S'r6:NP2'
p1075
sS'name'
p1076
g1038
ssbsba(issf_api
Chunk
p1077
(dp1078
g168
g1060
sg172
I1
sg244
S'NP'
p1079
sg158
I8
sg159
(lp1080
I100
asg247
(issf_api
FeatureSet
p1081
(dp1082
g250
(dp1083
S'drel'
p1084
S'k7p:VGF'
p1085
sS'name'
p1086
g1060
ssbsba(issf_api
Chunk
p1087
(dp1088
g168
g1054
sg172
I2
sg244
S'NP'
p1089
sg158
I8
sg159
(lp1090
I101
aI102
aI103
asg247
(issf_api
FeatureSet
p1091
(dp1092
g250
(dp1093
S'drel'
p1094
S'k1:VGF'
p1095
sS'name'
p1096
g1054
ssbsba(issf_api
Chunk
p1097
(dp1098
g168
g1044
sg172
I3
sg244
S'VGF'
p1099
sg158
I8
sg159
(lp1100
I104
asg247
(issf_api
FeatureSet
p1101
(dp1102
g250
(dp1103
S'name'
p1104
g1044
sS'stype'
p1105
S'declarative'
p1106
sS'voicetype'
p1107
S'active'
p1108
ssbsba(issf_api
Chunk
p1109
(dp1110
g168
g1048
sg172
I4
sg244
S'BLK'
p1111
sg158
I8
sg159
(lp1112
I105
asg247
(issf_api
FeatureSet
p1113
(dp1114
g250
(dp1115
S'drel'
p1116
S'rsym:VGF'
p1117
sS'name'
p1118
g1048
ssbsbasba(issf_api
Sentence
p1119
(dp1120
g156
(lp1121
sg158
I9
sg159
(lp1122
I106
aI107
aI108
aI109
aI110
aI111
aI112
aI113
aI114
aI115
aI116
aI117
aI118
aI119
aI120
aI121
aI122
aI123
aI124
aI125
aI126
aI127
aI128
aI129
aI130
aI131
aI132
aI133
aI134
aI135
aI136
aI137
aI138
aI139
aI140
aI141
aI142
aI143
aI144
aI145
aI146
asg161
(dp1123
S'VGF2'
p1124
(issf_api
Node
p1125
(dp1126
g166
S'ccof'
p1127
sg168
g1124
sg169
S'CCP'
p1128
sg171
I-1
sg172
I11
sg173
(lp1129
sbsS'VGNN'
p1130
(issf_api
Node
p1131
(dp1132
g166
S'k7'
p1133
sg168
g1130
sg169
S'VGF2'
p1134
sg171
I-1
sg172
I9
sg173
(lp1135
sbsS'VGF'
p1136
(issf_api
Node
p1137
(dp1138
g166
g184
sg168
g1136
sg169
g184
sg171
I-1
sg172
I3
sg173
(lp1139
sbsS'VGF3'
p1140
(issf_api
Node
p1141
(dp1142
g166
S'ccof'
p1143
sg168
g1140
sg169
S'CCP2'
p1144
sg171
I-1
sg172
I17
sg173
(lp1145
sbsS'CCP'
p1146
(issf_api
Node
p1147
(dp1148
g166
S'k2'
p1149
sg168
g1146
sg169
S'VGF'
p1150
sg171
I-1
sg172
I4
sg173
(lp1151
sbsS'JJP'
p1152
(issf_api
Node
p1153
(dp1154
g166
S'pof'
p1155
sg168
g1152
sg169
S'VGNN'
p1156
sg171
I-1
sg172
I8
sg173
(lp1157
sbsS'NP5'
p1158
(issf_api
Node
p1159
(dp1160
g166
S'k2'
p1161
sg168
g1158
sg169
S'VGF2'
p1162
sg171
I-1
sg172
I6
sg173
(lp1163
sbsS'JJP2'
p1164
(issf_api
Node
p1165
(dp1166
g166
S'pof'
p1167
sg168
g1164
sg169
S'VGF2'
p1168
sg171
I-1
sg172
I10
sg173
(lp1169
sbsS'NP9'
p1170
(issf_api
Node
p1171
(dp1172
g166
S'k7t'
p1173
sg168
g1170
sg169
S'VGF3'
p1174
sg171
I-1
sg172
I15
sg173
(lp1175
sbsS'NP8'
p1176
(issf_api
Node
p1177
(dp1178
g166
S'k2'
p1179
sg168
g1176
sg169
S'VGF3'
p1180
sg171
I-1
sg172
I14
sg173
(lp1181
sbsS'BLK'
p1182
(issf_api
Node
p1183
(dp1184
g166
S'rsym'
p1185
sg168
g1182
sg169
S'VGF'
p1186
sg171
I-1
sg172
I18
sg173
(lp1187
sbsS'NP10'
p1188
(issf_api
Node
p1189
(dp1190
g166
S'pof'
p1191
sg168
g1188
sg169
S'VGF3'
p1192
sg171
I-1
sg172
I16
sg173
(lp1193
sbsS'NP'
p1194
(issf_api
Node
p1195
(dp1196
g166
S'r6'
p1197
sg168
g1194
sg169
S'NP2'
p1198
sg171
I-1
sg172
I0
sg173
(lp1199
sbsS'NP4'
p1200
(issf_api
Node
p1201
(dp1202
g166
S'k7t'
p1203
sg168
g1200
sg169
S'VGF2'
p1204
sg171
I-1
sg172
I5
sg173
(lp1205
sbsS'NP7'
p1206
(issf_api
Node
p1207
(dp1208
g166
S'rd'
p1209
sg168
g1206
sg169
S'VGF3'
p1210
sg171
I-1
sg172
I13
sg173
(lp1211
sbsS'NP6'
p1212
(issf_api
Node
p1213
(dp1214
g166
S'k2'
p1215
sg168
g1212
sg169
S'VGNN'
p1216
sg171
I-1
sg172
I7
sg173
(lp1217
sbsS'CCP2'
p1218
(issf_api
Node
p1219
(dp1220
g166
S'rh'
p1221
sg168
g1218
sg169
S'VGF2'
p1222
sg171
I-1
sg172
I12
sg173
(lp1223
sbsS'NP3'
p1224
(issf_api
Node
p1225
(dp1226
g166
S'k1'
p1227
sg168
g1224
sg169
S'VGF'
p1228
sg171
I-1
sg172
I2
sg173
(lp1229
sbsS'NP2'
p1230
(issf_api
Node
p1231
(dp1232
g166
S'nmod'
p1233
sg168
g1230
sg169
S'NP3'
p1234
sg171
I-1
sg172
I1
sg173
(lp1235
sbssg240
(lp1236
(issf_api
Chunk
p1237
(dp1238
g168
g1194
sg172
I0
sg244
S'NP'
p1239
sg158
I9
sg159
(lp1240
I106
aI107
aI108
aI109
aI110
aI111
asg247
(issf_api
FeatureSet
p1241
(dp1242
g250
(dp1243
S'drel'
p1244
S'r6:NP2'
p1245
sS'name'
p1246
g1194
ssbsba(issf_api
Chunk
p1247
(dp1248
g168
g1230
sg172
I1
sg244
S'NP'
p1249
sg158
I9
sg159
(lp1250
I112
aI113
asg247
(issf_api
FeatureSet
p1251
(dp1252
g250
(dp1253
S'drel'
p1254
S'nmod:NP3'
p1255
sS'name'
p1256
g1230
ssbsba(issf_api
Chunk
p1257
(dp1258
g168
g1224
sg172
I2
sg244
S'NP'
p1259
sg158
I9
sg159
(lp1260
I114
aI115
aI116
aI117
asg247
(issf_api
FeatureSet
p1261
(dp1262
g250
(dp1263
S'drel'
p1264
S'k1:VGF'
p1265
sS'name'
p1266
g1224
ssbsba(issf_api
Chunk
p1267
(dp1268
g168
g1136
sg172
I3
sg244
S'VGF'
p1269
sg158
I9
sg159
(lp1270
I118
asg247
(issf_api
FeatureSet
p1271
(dp1272
g250
(dp1273
S'name'
p1274
g1136
sS'stype'
p1275
S'declarative'
p1276
sS'voicetype'
p1277
S'active'
p1278
ssbsba(issf_api
Chunk
p1279
(dp1280
g168
g1146
sg172
I4
sg244
S'CCP'
p1281
sg158
I9
sg159
(lp1282
I119
asg247
(issf_api
FeatureSet
p1283
(dp1284
g250
(dp1285
S'drel'
p1286
S'k2:VGF'
p1287
sS'name'
p1288
g1146
ssbsba(issf_api
Chunk
p1289
(dp1290
g168
g1200
sg172
I5
sg244
S'NP'
p1291
sg158
I9
sg159
(lp1292
I120
aI121
asg247
(issf_api
FeatureSet
p1293
(dp1294
g250
(dp1295
S'drel'
p1296
S'k7t:VGF2'
p1297
sS'name'
p1298
g1200
ssbsba(issf_api
Chunk
p1299
(dp1300
g168
g1158
sg172
I6
sg244
S'NP'
p1301
sg158
I9
sg159
(lp1302
I122
aI123
aI124
asg247
(issf_api
FeatureSet
p1303
(dp1304
g250
(dp1305
S'drel'
p1306
S'k2:VGF2'
p1307
sS'name'
p1308
g1158
ssbsba(issf_api
Chunk
p1309
(dp1310
g168
g1212
sg172
I7
sg244
S'NP'
p1311
sg158
I9
sg159
(lp1312
I125
asg247
(issf_api
FeatureSet
p1313
(dp1314
g250
(dp1315
S'drel'
p1316
S'k2:VGNN'
p1317
sS'name'
p1318
g1212
ssbsba(issf_api
Chunk
p1319
(dp1320
g168
g1152
sg172
I8
sg244
S'JJP'
p1321
sg158
I9
sg159
(lp1322
I126
asg247
(issf_api
FeatureSet
p1323
(dp1324
g250
(dp1325
S'drel'
p1326
S'pof:VGNN'
p1327
sS'name'
p1328
g1152
ssbsba(issf_api
Chunk
p1329
(dp1330
g168
g1130
sg172
I9
sg244
S'VGNN'
p1331
sg158
I9
sg159
(lp1332
I127
aI128
asg247
(issf_api
FeatureSet
p1333
(dp1334
g250
(dp1335
S'drel'
p1336
S'k7:VGF2'
p1337
sS'name'
p1338
g1130
ssbsba(issf_api
Chunk
p1339
(dp1340
g168
g1164
sg172
I10
sg244
S'JJP'
p1341
sg158
I9
sg159
(lp1342
I129
asg247
(issf_api
FeatureSet
p1343
(dp1344
g250
(dp1345
S'drel'
p1346
S'pof:VGF2'
p1347
sS'name'
p1348
g1164
ssbsba(issf_api
Chunk
p1349
(dp1350
g168
g1124
sg172
I11
sg244
S'VGF'
p1351
sg158
I9
sg159
(lp1352
I130
aI131
aI132
aI133
asg247
(issf_api
FeatureSet
p1353
(dp1354
g250
(dp1355
S'voicetype'
p1356
S'active'
p1357
sS'drel'
p1358
S'ccof:CCP'
p1359
sS'stype'
p1360
S'declarative'
p1361
sS'name'
p1362
g1124
ssbsba(issf_api
Chunk
p1363
(dp1364
g168
g1218
sg172
I12
sg244
S'CCP'
p1365
sg158
I9
sg159
(lp1366
I134
asg247
(issf_api
FeatureSet
p1367
(dp1368
g250
(dp1369
S'drel'
p1370
S'rh:VGF2'
p1371
sS'name'
p1372
g1218
ssbsba(issf_api
Chunk
p1373
(dp1374
g168
g1206
sg172
I13
sg244
S'NP'
p1375
sg158
I9
sg159
(lp1376
I135
aI136
aI137
aI138
asg247
(issf_api
FeatureSet
p1377
(dp1378
g250
(dp1379
S'drel'
p1380
S'rd:VGF3'
p1381
sS'name'
p1382
g1206
ssbsba(issf_api
Chunk
p1383
(dp1384
g168
g1176
sg172
I14
sg244
S'NP'
p1385
sg158
I9
sg159
(lp1386
I139
asg247
(issf_api
FeatureSet
p1387
(dp1388
g250
(dp1389
S'drel'
p1390
S'k2:VGF3'
p1391
sS'name'
p1392
g1176
ssbsba(issf_api
Chunk
p1393
(dp1394
g168
g1170
sg172
I15
sg244
S'NP'
p1395
sg158
I9
sg159
(lp1396
I140
aI141
asg247
(issf_api
FeatureSet
p1397
(dp1398
g250
(dp1399
S'drel'
p1400
S'k7t:VGF3'
p1401
sS'name'
p1402
g1170
ssbsba(issf_api
Chunk
p1403
(dp1404
g168
g1188
sg172
I16
sg244
S'NP'
p1405
sg158
I9
sg159
(lp1406
I142
asg247
(issf_api
FeatureSet
p1407
(dp1408
g250
(dp1409
S'drel'
p1410
S'pof:VGF3'
p1411
sS'name'
p1412
g1188
ssbsba(issf_api
Chunk
p1413
(dp1414
g168
g1140
sg172
I17
sg244
S'VGF'
p1415
sg158
I9
sg159
(lp1416
I143
aI144
aI145
asg247
(issf_api
FeatureSet
p1417
(dp1418
g250
(dp1419
S'voicetype'
p1420
S'active'
p1421
sS'drel'
p1422
S'ccof:CCP2'
p1423
sS'stype'
p1424
S'declarative'
p1425
sS'name'
p1426
g1140
ssbsba(issf_api
Chunk
p1427
(dp1428
g168
g1182
sg172
I18
sg244
S'BLK'
p1429
sg158
I9
sg159
(lp1430
I146
asg247
(issf_api
FeatureSet
p1431
(dp1432
g250
(dp1433
S'drel'
p1434
S'rsym:VGF'
p1435
sS'name'
p1436
g1182
ssbsbasbasS'relationList'
p1437
(lp1438
(iextract_relations
discourseRelation
p1439
(dp1440
S'arg1Trees'
p1441
(lp1442
sS'arg2Sentence'
p1443
(lp1444
sS'arg1Sentence'
p1445
(lp1446
sS'connList'
p1447
(lp1448
I16
aI17
asS'isPaired'
p1449
I00
sS'arg1'
p1450
NsS'arg1Span'
p1451
V112..202
p1452
sS'arg2'
p1453
NsS'arg2Trees'
p1454
(lp1455
sS'fileName'
p1456
S'../data/raw/Section_16/fullnews_id_2583219_date_9_7_2004.utf8'
p1457
sS'connTrees'
p1458
(lp1459
sS'arg2List'
p1460
(lp1461
I18
aI19
aI20
aI21
aI22
aI23
asS'arg2Span'
p1462
V211..232
p1463
sS'sense'
p1464
VTemporal.Asynchronous.Succession
p1465
sS'relationType'
p1466
VExplicit
p1467
sS'connSpan'
p1468
V203..209
p1469
sS'arg1List'
p1470
(lp1471
I0
aI1
aI2
aI3
aI4
aI5
aI6
aI7
aI8
aI9
aI10
aI11
aI12
aI13
aI14
aI15
asS'conn'
p1472
V\u0915\u0947 \u092c\u093e\u0926
p1473
sba(iextract_relations
discourseRelation
p1474
(dp1475
g1441
(lp1476
sg1443
(lp1477
sg1445
(lp1478
sg1447
(lp1479
sg1449
I00
sg1450
Nsg1451
V112..232
p1480
sg1453
Nsg1454
(lp1481
sg1456
g1457
sg1458
(lp1482
sg1460
(lp1483
sg1462
V234..277
p1484
sg1464
S'_Without_sense'
p1485
sg1466
VEntRel
p1486
sg1468
V
sg1470
(lp1487
sg1472
Nsba(iextract_relations
discourseRelation
p1488
(dp1489
g1441
(lp1490
sg1443
(lp1491
sg1445
(lp1492
sg1447
(lp1493
sg1449
I00
sg1450
Nsg1451
V234..277
p1494
sg1453
Nsg1454
(lp1495
sg1456
g1457
sg1458
(lp1496
sg1460
(lp1497
sg1462
V279..310
p1498
sg1464
VExpansion.Conjunction
p1499
sg1466
VImplicit
p1500
sg1468
V
sg1470
(lp1501
sg1472
VevaM
p1502
sba(iextract_relations
discourseRelation
p1503
(dp1504
g1441
(lp1505
sg1443
(lp1506
sg1445
(lp1507
sg1447
(lp1508
sg1449
I00
sg1450
Nsg1451
V112..232
p1509
sg1453
Nsg1454
(lp1510
sg1456
g1457
sg1458
(lp1511
sg1460
(lp1512
sg1462
V312..361
p1513
sg1464
VComparison.Concession.Expectation
p1514
sg1466
VImplicit
p1515
sg1468
V
sg1470
(lp1516
sg1472
Vyaxyapi
p1517
sba(iextract_relations
discourseRelation
p1518
(dp1519
g1441
(lp1520
sg1443
(lp1521
sg1445
(lp1522
sg1447
(lp1523
sg1449
I00
sg1450
Nsg1451
V312..361
p1524
sg1453
Nsg1454
(lp1525
sg1456
g1457
sg1458
(lp1526
sg1460
(lp1527
sg1462
V363..423
p1528
sg1464
g1485
sg1466
VEntRel
p1529
sg1468
V
sg1470
(lp1530
sg1472
Nsba(iextract_relations
discourseRelation
p1531
(dp1532
g1441
(lp1533
sg1443
(lp1534
sg1445
(lp1535
sg1447
(lp1536
sg1449
I00
sg1450
Nsg1451
V234..277
p1537
sg1453
Nsg1454
(lp1538
sg1456
g1457
sg1458
(lp1539
sg1460
(lp1540
sg1462
V425..483
p1541
sg1464
g1485
sg1466
VEntRel
p1542
sg1468
V
sg1470
(lp1543
sg1472
Nsba(iextract_relations
discourseRelation
p1544
(dp1545
g1441
(lp1546
sg1443
(lp1547
sg1445
(lp1548
sg1447
(lp1549
sg1449
I00
sg1450
Nsg1451
V363..423
p1550
sg1453
Nsg1454
(lp1551
sg1456
g1457
sg1458
(lp1552
sg1460
(lp1553
sg1462
V425..483
p1554
sg1464
g1485
sg1466
VEntRel
p1555
sg1468
V
sg1470
(lp1556
sg1472
Nsba(iextract_relations
discourseRelation
p1557
(dp1558
g1441
(lp1559
sg1443
(lp1560
sg1445
(lp1561
sg1447
(lp1562
sg1449
I00
sg1450
Nsg1451
V363..423
p1563
sg1453
Nsg1454
(lp1564
sg1456
g1457
sg1458
(lp1565
sg1460
(lp1566
sg1462
V485..534
p1567
sg1464
g1485
sg1466
VEntRel
p1568
sg1468
V
sg1470
(lp1569
sg1472
Nsba(iextract_relations
discourseRelation
p1570
(dp1571
g1441
(lp1572
sg1443
(lp1573
sg1445
(lp1574
sg1447
(lp1575
sg1449
I00
sg1450
Nsg1451
V485..534
p1576
sg1453
Nsg1454
(lp1577
sg1456
g1457
sg1458
(lp1578
sg1460
(lp1579
sg1462
V536..586
p1580
sg1464
VComparison.Contrast.Opposition
p1581
sg1466
VImplicit
p1582
sg1468
V
sg1470
(lp1583
sg1472
VparaMwu
p1584
sba(iextract_relations
discourseRelation
p1585
(dp1586
g1441
(lp1587
sg1443
(lp1588
sg1445
(lp1589
sg1447
(lp1590
sg1449
I00
sg1450
Nsg1451
V536..586
p1591
sg1453
Nsg1454
(lp1592
sg1456
g1457
sg1458
(lp1593
sg1460
(lp1594
sg1462
V588..631
p1595
sg1464
VExpansion.Conjunction
p1596
sg1466
VImplicit
p1597
sg1468
V
sg1470
(lp1598
sg1472
VOra
p1599
sba(iextract_relations
discourseRelation
p1600
(dp1601
g1441
(lp1602
sg1443
(lp1603
sg1445
(lp1604
sg1447
(lp1605
sg1449
I00
sg1450
Nsg1451
V588..631
p1606
sg1453
Nsg1454
(lp1607
sg1456
g1457
sg1458
(lp1608
sg1460
(lp1609
sg1462
V709..823
p1610
sg1464
VContingency.Cause.Result
p1611
sg1466
VImplicit
p1612
sg1468
V
sg1470
(lp1613
sg1472
Visaliye
p1614
sba(iextract_relations
discourseRelation
p1615
(dp1616
g1441
(lp1617
sg1443
(lp1618
sg1445
(lp1619
sg1447
(lp1620
I134
asg1449
I00
sg1450
Nsg1451
V709..768
p1621
sg1453
Nsg1454
(lp1622
sg1456
g1457
sg1458
(lp1623
sg1460
(lp1624
I135
aI136
aI137
aI138
aI139
aI140
aI141
aI142
aI143
aI144
aI145
asg1462
V778..823
p1625
sg1464
VContingency.Cause.Reason
p1626
sg1466
VExplicit
p1627
sg1468
V770..777
p1628
sg1470
(lp1629
I120
aI121
aI122
aI123
aI124
aI125
aI126
aI127
aI128
aI129
aI130
aI131
aI132
asg1472
V\u0915\u094d\u092f\u094b\u0902\u0915\u093f
p1630
sbasS'rawData'
p1631
V<DOC>\u000a<DOCNO>fullnews_id_2583219_date_9_7_2004.utf8</DOCNO>\u000a<TEXT>\u000a\u000a\u000a\u0906\u0926\u093f\u0935\u093e\u0938\u093f\u092f\u094b\u0902 \u0915\u093e \u0938\u0930\u094d\u0935\u0947 \u092c\u0902\u0926 \u0939\u0941\u0906\u000a\u000a\u000a\u000a\u000a\u000a\u0930\u093e\u092f\u092a\u0941\u0930\u0964  \u000a\u091b\u0924\u094d\u0924\u0940\u0938\u0917\u095d \u092e\u0947\u0902 \u092e\u093e\u0913\u0935\u093e\u0926\u093f\u092f\u094b\u0902 \u0915\u0947 \u0915\u093e\u0930\u0923 \u0916\u0924\u0930\u0947 \u092e\u0947\u0902 \u092a\u095c\u0947 \u0906\u0926\u093f\u0935\u093e\u0938\u0940 \u0938\u092e\u0942\u0939\u094b\u0902 \u0915\u0947 \u0938\u0930\u094d\u0935\u0947 \u092a\u0930 \u092a\u094d\u0930\u0924\u093f\u092c\u0902\u0927 \u0932\u0917\u093e\u090f \u091c\u093e\u0928\u0947 \u0915\u0947 \u092c\u093e\u0926  \u0907\u0938\u0947 \u0930\u0926 \u0915\u0930 \u0926\u093f\u092f\u093e \u0917\u092f\u093e \u0939\u0948\u0964 \u092f\u0947 \u0906\u0926\u093f\u0935\u093e\u0938\u0940 \u0905\u092c\u0941\u091d\u092e\u093e\u0926\u093f\u092f\u093e \u0938\u092e\u0941\u0926\u093e\u092f \u0938\u0947 \u0938\u0902\u092c\u0902\u0927\u093f\u0924 \u0939\u0948\u0902\u0964 \u0907\u0928\u0915\u0940 \u0938\u0902\u0916\u094d\u092f\u093e \u0967\u096f,\u096a\u0966\u0967 \u092c\u0924\u093e\u0908 \u091c\u093e\u0924\u0940 \u0939\u0948\u0964 \u0938\u0930\u0915\u093e\u0930\u0940 \u0906\u0902\u0915\u095c\u094b\u0902 \u0915\u0947 \u0905\u0928\u0941\u0938\u093e\u0930 \u0907\u0928\u0915\u093e \u0905\u0938\u094d\u0924\u093f\u0924\u094d\u0935 \u0916\u0924\u0930\u0947 \u092e\u0947\u0902 \u0939\u0948\u0964 \u092f\u0947 \u0906\u0926\u093f\u0935\u093e\u0938\u0940 \u092e\u0939\u093e\u0930\u093e\u0937\u094d\u091f\u094d\u0930 \u0938\u0947 \u0938\u091f\u0947 \u091b\u0924\u094d\u0924\u0940\u0938\u0917\u095d \u0915\u0947 \u091c\u0902\u0917\u0932\u094b\u0902 \u092e\u0947\u0902 \u0930\u0939\u0924\u0947 \u0939\u0948\u0902\u0964 \u0905\u092c\u0941\u091d\u092e\u093e\u0926 \u0935\u0928 \u096c \u0939\u091c\u093e\u0930 \u0935\u0930\u094d\u0917 \u0915\u093f\u0932\u094b\u092e\u0940\u091f\u0930 \u0915\u0947 \u0915\u094d\u0937\u0947\u0924\u094d\u0930 \u092e\u0947\u0902 \u092b\u0948\u0932\u093e \u0939\u0941\u0906 \u0939\u0948\u0964 \u0907\u0928 \u0906\u0926\u093f\u0935\u093e\u0938\u093f\u092f\u094b\u0902 \u0924\u0915 \u0915\u092d\u0940 \u092c\u094d\u0930\u093f\u091f\u093f\u0936 \u092d\u0940 \u0928\u0939\u0940\u0902 \u092a\u0939\u0941\u0902\u091a \u092a\u093e\u090f \u0925\u0947\u0964 \u092f\u0939 \u091c\u0902\u0917\u0932 \u0905\u092c \u092e\u093e\u0913\u0935\u093e\u0926\u093f\u092f\u094b\u0902 \u0915\u093e \u090f\u0915 \u092e\u0939\u0924\u094d\u0935\u092a\u0942\u0923 \u0917\u095d \u092c\u0928 \u0917\u092f\u093e \u0939\u0948\u0902\u0964 \u092e\u093e\u0913\u0935\u093e\u0926\u093f\u092f\u094b\u0902 \u0915\u0947  \u092f\u0939\u093e\u0902 \u0915\u0908 \u092a\u094d\u0930\u0936\u093f\u0915\u094d\u0937\u0923 \u0915\u0947\u0902\u0926\u094d\u0930 \u0939\u0948\u0902\u0964 \u0906\u0926\u093f\u0935\u093e\u0938\u0940 \u0936\u094b\u0927 \u0914\u0930 \u092a\u094d\u0930\u0936\u093f\u0915\u094d\u0937\u0923 \u0938\u0902\u0938\u094d\u0925\u093e\u0928 \u0915\u0947 \u0938\u0902\u092f\u0941\u0915\u094d\u0924 \u0928\u093f\u0926\u0947\u0936\u0915 \u091f\u0940. \u0906\u0930. \u0935\u0948\u0937\u094d\u0923\u0935 \u0928\u0947 \u0915\u0939\u093e \u0915\u093f \u092a\u093f\u091b\u0932\u0947 \u092e\u0939\u0940\u0928\u0947 \u0939\u092e \u0932\u094b\u0917\u094b\u0902 \u0915\u094b \u0938\u0930\u094d\u0935\u0947 \u092c\u0902\u0926 \u0915\u0930\u0928\u0947 \u092a\u0930 \u092e\u091c\u092c\u0942\u0930 \u0915\u0930 \u0926\u093f\u092f\u093e \u0917\u092f\u093e, \u0915\u094d\u092f\u094b\u0902\u0915\u093f \u092e\u093e\u0913\u0935\u093e\u0926\u093f\u092f\u094b\u0902 \u0915\u0940 \u0913\u0930 \u0938\u0947 \u0939\u092e\u0947 \u0915\u0908 \u092c\u093e\u0930 \u0927\u092e\u0915\u0940 \u0926\u0940 \u0917\u0908 \u0939\u0948\u0902\u0964\u000a\u000a\u000a\u000a\u000a\u000a\u000a\u000a\u000a</TEXT>\u000a</DOC>
p1632
sS'rawFileName'
p1633
g1457
sS'rawToAnnMapping'
p1634
(dp1635
I0
(I0
tp1636
sI1
(I1
tp1637
sI2
(I2
tp1638
sI3
(I3
tp1639
sI4
(I4
tp1640
sI5
(I5
tp1641
sI6
(I6
tp1642
sI7
(I7
tp1643
sI8
(I8
tp1644
sI9
(I9
tp1645
sI10
(I10
tp1646
sI11
(I11
tp1647
sI12
(I12
tp1648
sI13
(I13
tp1649
sI14
(I14
tp1650
sI15
(I15
tp1651
sI16
(I16
tp1652
sI17
(I17
tp1653
sI18
(I18
tp1654
sI19
(I19
tp1655
sI20
(I20
tp1656
sI21
(I21
tp1657
sI22
(I22
tp1658
sI23
(I23
tp1659
sI24
(I24
tp1660
sI25
(I25
tp1661
sI26
(I26
tp1662
sI27
(I27
tp1663
sI28
(I28
tp1664
sI29
(I29
tp1665
sI30
(I30
tp1666
sI31
(I31
tp1667
sI32
(I32
tp1668
sI33
(I33
tp1669
sI34
(I34
tp1670
sI35
(I35
tp1671
sI36
(I35
tp1672
sI37
(I35
tp1673
sI38
(I36
tp1674
sI39
(I37
tp1675
sI40
(I38
tp1676
sI41
(I39
tp1677
sI42
(I40
tp1678
sI43
(I41
tp1679
sI44
(I42
tp1680
sI45
(I43
tp1681
sI46
(I44
tp1682
sI47
(I45
tp1683
sI48
(I46
tp1684
sI49
(I47
tp1685
sI50
(I48
tp1686
sI51
(I49
tp1687
sI52
(I50
tp1688
sI53
(I51
tp1689
sI54
(I52
tp1690
sI55
(I53
tp1691
sI56
(I54
tp1692
sI57
(I55
tp1693
sI58
(I56
tp1694
sI59
(I57
tp1695
sI60
(I58
tp1696
sI61
(I59
tp1697
sI62
(I60
tp1698
sI63
(I61
tp1699
sI64
(I62
tp1700
sI65
(I63
tp1701
sI66
(I64
tp1702
sI67
(I65
tp1703
sI68
(I66
tp1704
sI69
(I67
tp1705
sI70
(I68
tp1706
sI71
(I69
tp1707
sI72
(I70
tp1708
sI73
(I71
tp1709
sI74
(I72
tp1710
sI75
(I73
tp1711
sI76
(I74
tp1712
sI77
(I75
tp1713
sI78
(I76
tp1714
sI79
(I77
tp1715
sI80
(I78
tp1716
sI81
(I79
tp1717
sI82
(I80
tp1718
sI83
(I81
tp1719
sI84
(I82
tp1720
sI85
(I83
tp1721
sI86
(I84
tp1722
sI87
(I85
tp1723
sI88
(I86
tp1724
sI89
(I87
tp1725
sI90
(I88
tp1726
sI91
(I89
tp1727
sI92
(I90
tp1728
sI93
(I91
tp1729
sI94
(I92
tp1730
sI95
(I93
tp1731
sI96
(I94
tp1732
sI97
(I95
tp1733
sI98
(I96
tp1734
sI99
(I97
tp1735
sI100
(I98
tp1736
sI101
(I99
tp1737
sI102
(I100
tp1738
sI103
(I101
tp1739
sI104
(I102
tp1740
sI105
(I103
tp1741
sI106
(I104
tp1742
sI107
(I105
tp1743
sI108
(I106
tp1744
sI109
(I107
tp1745
sI110
(I108
tp1746
sI111
(I109
tp1747
sI112
(I110
tp1748
sI113
(I111
tp1749
sI114
(I112
tp1750
sI115
(I113
tp1751
sI116
(I114
tp1752
sI117
(I115
tp1753
sI118
(I116
tp1754
sI119
(I117
tp1755
sI120
(I118
tp1756
sI121
(I119
tp1757
sI122
(I120
tp1758
sI123
(I121
tp1759
sI124
(I122
tp1760
sI125
(I123
tp1761
sI126
(I124
tp1762
sI127
(I125
tp1763
sI128
(I126
tp1764
sI129
(I127
tp1765
sI130
(I128
tp1766
sI131
(I129
tp1767
sI132
(I130
tp1768
sI133
(I131
tp1769
sI134
(I132
tp1770
sI135
(I133
tp1771
sI136
(I134
tp1772
sI137
(I135
tp1773
sI138
(I136
tp1774
sI139
(I137
tp1775
sI140
(I138
tp1776
sI141
(I139
tp1777
sI142
(I140
tp1778
sI143
(I141
tp1779
sI144
(I142
tp1780
sI145
(I143
tp1781
sI146
(I144
tp1782
sI147
(I145
tp1783
sI148
(I146
tp1784
ssS'globalWordList'
p1785
(lp1786
(issf_api
Word
p1787
(dp1788
S'splitConn'
p1789
I00
sS'word'
p1790
V\u091b\u0924\u094d\u0924\u0940\u0938\u0917\u095d
p1791
sS'extraFeatureSet'
p1792
(issf_api
FeatureSet
p1793
(dp1794
g250
(dp1795
S'posn'
p1796
S'10'
p1797
sS'name'
p1798
S'\xe0\xa4\x9b\xe0\xa4\xa4\xe0\xa5\x8d\xe0\xa4\xa4\xe0\xa5\x80\xe0\xa4\xb8\xe0\xa4\x97\xe0\xa5\x9d'
p1799
sS'af'
p1800
S'\xe0\xa4\x9b\xe0\xa4\xa4\xe0\xa5\x8d\xe0\xa4\xa4\xe0\xa5\x80\xe0\xa4\xb8\xe0\xa4\x97\xe0\xa5\x9d,n,m,sg,3,o,0_\xe0\xa4\xae\xe0\xa5\x87\xe0\xa4\x82,0'
p1801
sS'chunkid'
p1802
S'NP'
p1803
sS'drel'
p1804
S'k7p:\xe0\xa4\x95\xe0\xa4\xb0'
p1805
sS'vpos'
p1806
S'vib_2'
p1807
sS'chunktype'
p1808
S'head:NP'
p1809
ssbsg1450
I01
sg1453
I00
sg1464
Nsg1451
Nsg172
I0
sg158
I0
sS'relationNum'
p1810
I0
sg1462
NsS'wordTag'
p1811
S'NNP'
p1812
sg247
(issf_api
FeatureSet
p1813
(dp1814
g250
(dp1815
S'posn'
p1816
S'10'
p1817
sS'name'
p1818
S'\xe0\xa4\x9b\xe0\xa4\xa4\xe0\xa5\x8d\xe0\xa4\xa4\xe0\xa5\x80\xe0\xa4\xb8\xe0\xa4\x97\xe0\xa5\x9d'
p1819
sS'af'
p1820
S'\xe0\xa4\x9b\xe0\xa4\xa4\xe0\xa5\x8d\xe0\xa4\xa4\xe0\xa5\x80\xe0\xa4\xb8\xe0\xa4\x97\xe0\xa5\x9d,n,m,sg,3,o,0,0'
p1821
ssbsg1472
I00
sba(issf_api
Word
p1822
(dp1823
g1789
I00
sg1790
V\u092e\u0947\u0902
p1824
sg1792
(issf_api
FeatureSet
p1825
(dp1826
g250
(dp1827
S'posn'
p1828
S'20'
p1829
sS'name'
p1830
S'\xe0\xa4\xae\xe0\xa5\x87\xe0\xa4\x82'
p1831
sS'drel'
p1832
S'lwg__psp:\xe0\xa4\x9b\xe0\xa4\xa4\xe0\xa5\x8d\xe0\xa4\xa4\xe0\xa5\x80\xe0\xa4\xb8\xe0\xa4\x97\xe0\xa5\x9d'
p1833
sS'chunktype'
p1834
S'child:NP'
p1835
sS'af'
p1836
S'\xe0\xa4\xae\xe0\xa5\x87\xe0\xa4\x82,psp,,,,,,'
p1837
ssbsg1450
I01
sg1453
I00
sg1464
Nsg1451
Nsg172
I0
sg158
I0
sg1810
I0
sg1462
Nsg1811
S'PSP'
p1838
sg247
(issf_api
FeatureSet
p1839
(dp1840
g250
(dp1841
S'posn'
p1842
S'20'
p1843
sS'name'
p1844
S'\xe0\xa4\xae\xe0\xa5\x87\xe0\xa4\x82'
p1845
sS'af'
p1846
S'\xe0\xa4\xae\xe0\xa5\x87\xe0\xa4\x82,psp,,,,,,'
p1847
ssbsg1472
I00
sba(issf_api
Word
p1848
(dp1849
g1789
I00
sg1790
V\u092e\u093e\u0913\u0935\u093e\u0926\u093f\u092f\u094b\u0902
p1850
sg1792
(issf_api
FeatureSet
p1851
(dp1852
g250
(dp1853
S'posn'
p1854
S'30'
p1855
sS'name'
p1856
S'\xe0\xa4\xae\xe0\xa4\xbe\xe0\xa4\x93\xe0\xa4\xb5\xe0\xa4\xbe\xe0\xa4\xa6\xe0\xa4\xbf\xe0\xa4\xaf\xe0\xa5\x8b\xe0\xa4\x82'
p1857
sS'af'
p1858
S'\xe0\xa4\xae\xe0\xa4\xbe\xe0\xa4\x93\xe0\xa4\xb5\xe0\xa4\xbe\xe0\xa4\xa6\xe0\xa5\x80,n,m,pl,3,o,0_\xe0\xa4\x95\xe0\xa5\x87_\xe0\xa4\x95\xe0\xa4\xbe\xe0\xa4\xb0\xe0\xa4\xa3,0'
p1859
sS'chunkid'
p1860
S'NP2'
p1861
sS'drel'
p1862
S'rh:\xe0\xa4\x95\xe0\xa4\xb0'
p1863
sS'vpos'
p1864
S'vib_2_3'
p1865
sS'chunktype'
p1866
S'head:NP2'
p1867
ssbsg1450
I01
sg1453
I00
sg1464
Nsg1451
Nsg172
I1
sg158
I0
sg1810
I0
sg1462
Nsg1811
S'NN'
p1868
sg247
(issf_api
FeatureSet
p1869
(dp1870
g250
(dp1871
S'posn'
p1872
S'30'
p1873
sS'name'
p1874
S'\xe0\xa4\xae\xe0\xa4\xbe\xe0\xa4\x93\xe0\xa4\xb5\xe0\xa4\xbe\xe0\xa4\xa6\xe0\xa4\xbf\xe0\xa4\xaf\xe0\xa5\x8b\xe0\xa4\x82'
p1875
sS'af'
p1876
S'\xe0\xa4\xae\xe0\xa4\xbe\xe0\xa4\x93\xe0\xa4\xb5\xe0\xa4\xbe\xe0\xa4\xa6\xe0\xa5\x80,n,m,pl,3,o,0,0'
p1877
ssbsg1472
I00
sba(issf_api
Word
p1878
(dp1879
g1789
I00
sg1790
V\u0915\u0947
p1880
sg1792
(issf_api
FeatureSet
p1881
(dp1882
g250
(dp1883
S'posn'
p1884
S'40'
p1885
sS'name'
p1886
S'\xe0\xa4\x95\xe0\xa5\x87'
p1887
sS'drel'
p1888
S'lwg__psp:\xe0\xa4\xae\xe0\xa4\xbe\xe0\xa4\x93\xe0\xa4\xb5\xe0\xa4\xbe\xe0\xa4\xa6\xe0\xa4\xbf\xe0\xa4\xaf\xe0\xa5\x8b\xe0\xa4\x82'
p1889
sS'chunktype'
p1890
S'child:NP2'
p1891
sS'af'
p1892
S'\xe0\xa4\x95\xe0\xa5\x87,psp,m,,,o,,'
p1893
ssbsg1450
I01
sg1453
I00
sg1464
Nsg1451
Nsg172
I1
sg158
I0
sg1810
I0
sg1462
Nsg1811
S'PSP'
p1894
sg247
(issf_api
FeatureSet
p1895
(dp1896
g250
(dp1897
S'posn'
p1898
S'40'
p1899
sS'name'
p1900
S'\xe0\xa4\x95\xe0\xa5\x87'
p1901
sS'af'
p1902
S'\xe0\xa4\x95\xe0\xa5\x87,psp,m,,,o,,'
p1903
ssbsg1472
I00
sba(issf_api
Word
p1904
(dp1905
g1789
I00
sg1790
V\u0915\u093e\u0930\u0923
p1906
sg1792
(issf_api
FeatureSet
p1907
(dp1908
g250
(dp1909
S'posn'
p1910
S'50'
p1911
sS'name'
p1912
S'\xe0\xa4\x95\xe0\xa4\xbe\xe0\xa4\xb0\xe0\xa4\xa3'
p1913
sS'drel'
p1914
S'lwg__psp:\xe0\xa4\xae\xe0\xa4\xbe\xe0\xa4\x93\xe0\xa4\xb5\xe0\xa4\xbe\xe0\xa4\xa6\xe0\xa4\xbf\xe0\xa4\xaf\xe0\xa5\x8b\xe0\xa4\x82'
p1915
sS'chunktype'
p1916
S'child:NP2'
p1917
sS'af'
p1918
S'\xe0\xa4\x95\xe0\xa4\xbe\xe0\xa4\xb0\xe0\xa4\xa3,n,m,,,o,,'
p1919
ssbsg1450
I01
sg1453
I00
sg1464
Nsg1451
Nsg172
I1
sg158
I0
sg1810
I0
sg1462
Nsg1811
S'PSP'
p1920
sg247
(issf_api
FeatureSet
p1921
(dp1922
g250
(dp1923
S'posn'
p1924
S'50'
p1925
sS'name'
p1926
S'\xe0\xa4\x95\xe0\xa4\xbe\xe0\xa4\xb0\xe0\xa4\xa3'
p1927
sS'af'
p1928
S'\xe0\xa4\x95\xe0\xa4\xbe\xe0\xa4\xb0\xe0\xa4\xa3,n,m,,,o,,'
p1929
ssbsg1472
I00
sba(issf_api
Word
p1930
(dp1931
g1789
I00
sg1790
V\u0916\u0924\u0930\u0947
p1932
sg1792
(issf_api
FeatureSet
p1933
(dp1934
g250
(dp1935
S'posn'
p1936
S'60'
p1937
sS'name'
p1938
S'\xe0\xa4\x96\xe0\xa4\xa4\xe0\xa4\xb0\xe0\xa5\x87'
p1939
sS'af'
p1940
S'\xe0\xa4\x96\xe0\xa4\xa4\xe0\xa4\xb0\xe0\xa4\xbe,n,m,sg,3,o,0_\xe0\xa4\xae\xe0\xa5\x87\xe0\xa4\x82,0'
p1941
sS'chunkid'
p1942
S'NP3'
p1943
sS'drel'
p1944
S'k7:\xe0\xa4\xaa\xe0\xa5\x9c\xe0\xa5\x87'
p1945
sS'vpos'
p1946
S'vib_2'
p1947
sS'chunktype'
p1948
S'head:NP3'
p1949
ssbsg1450
I01
sg1453
I00
sg1464
Nsg1451
Nsg172
I2
sg158
I0
sg1810
I0
sg1462
Nsg1811
S'NN'
p1950
sg247
(issf_api
FeatureSet
p1951
(dp1952
g250
(dp1953
S'posn'
p1954
S'60'
p1955
sS'name'
p1956
S'\xe0\xa4\x96\xe0\xa4\xa4\xe0\xa4\xb0\xe0\xa5\x87'
p1957
sS'af'
p1958
S'\xe0\xa4\x96\xe0\xa4\xa4\xe0\xa4\xb0\xe0\xa4\xbe,n,m,sg,3,o,0,0'
p1959
ssbsg1472
I00
sba(issf_api
Word
p1960
(dp1961
g1789
I00
sg1790
V\u092e\u0947\u0902
p1962
sg1792
(issf_api
FeatureSet
p1963
(dp1964
g250
(dp1965
S'posn'
p1966
S'70'
p1967
sS'name'
p1968
S'\xe0\xa4\xae\xe0\xa5\x87\xe0\xa4\x822'
p1969
sS'drel'
p1970
S'lwg__psp:\xe0\xa4\x96\xe0\xa4\xa4\xe0\xa4\xb0\xe0\xa5\x87'
p1971
sS'chunktype'
p1972
S'child:NP3'
p1973
sS'af'
p1974
S'\xe0\xa4\xae\xe0\xa5\x87\xe0\xa4\x82,psp,,,,,,'
p1975
ssbsg1450
I01
sg1453
I00
sg1464
Nsg1451
Nsg172
I2
sg158
I0
sg1810
I0
sg1462
Nsg1811
S'PSP'
p1976
sg247
(issf_api
FeatureSet
p1977
(dp1978
g250
(dp1979
S'posn'
p1980
S'70'
p1981
sS'name'
p1982
S'\xe0\xa4\xae\xe0\xa5\x87\xe0\xa4\x822'
p1983
sS'af'
p1984
S'\xe0\xa4\xae\xe0\xa5\x87\xe0\xa4\x82,psp,,,,,,'
p1985
ssbsg1472
I00
sba(issf_api
Word
p1986
(dp1987
g1789
I00
sg1790
V\u092a\u095c\u0947
p1988
sg1792
(issf_api
FeatureSet
p1989
(dp1990
g250
(dp1991
S'posn'
p1992
S'80'
p1993
sS'name'
p1994
S'\xe0\xa4\xaa\xe0\xa5\x9c\xe0\xa5\x87'
p1995
sS'af'
p1996
S'\xe0\xa4\xaa\xe0\xa4\xa1,v,m,pl,any,,\xe0\xa4\xaf\xe0\xa4\xbe,yA'
p1997
sS'chunkid'
p1998
S'VGNF'
p1999
sS'drel'
p2000
S'nmod__k1inv:\xe0\xa4\xb8\xe0\xa4\xae\xe0\xa5\x82\xe0\xa4\xb9\xe0\xa5\x8b\xe0\xa4\x82'
p2001
sS'chunktype'
p2002
S'head:VGNF'
p2003
ssbsg1450
I01
sg1453
I00
sg1464
Nsg1451
Nsg172
I3
sg158
I0
sg1810
I0
sg1462
Nsg1811
S'VM'
p2004
sg247
(issf_api
FeatureSet
p2005
(dp2006
g250
(dp2007
S'posn'
p2008
S'80'
p2009
sS'name'
p2010
S'\xe0\xa4\xaa\xe0\xa5\x9c\xe0\xa5\x87'
p2011
sS'af'
p2012
S'\xe0\xa4\xaa\xe0\xa4\xa1,v,m,pl,any,,\xe0\xa4\xaf\xe0\xa4\xbe,yA'
p2013
ssbsg1472
I00
sba(issf_api
Word
p2014
(dp2015
g1789
I00
sg1790
V\u0906\u0926\u093f\u0935\u093e\u0938\u0940
p2016
sg1792
(issf_api
FeatureSet
p2017
(dp2018
g250
(dp2019
S'posn'
p2020
S'90'
p2021
sS'name'
p2022
S'\xe0\xa4\x86\xe0\xa4\xa6\xe0\xa4\xbf\xe0\xa4\xb5\xe0\xa4\xbe\xe0\xa4\xb8\xe0\xa5\x80'
p2023
sS'drel'
p2024
S'pof__cn:\xe0\xa4\xb8\xe0\xa4\xae\xe0\xa5\x82\xe0\xa4\xb9\xe0\xa5\x8b\xe0\xa4\x82'
p2025
sS'chunktype'
p2026
S'child:NP4'
p2027
sS'af'
p2028
S'\xe0\xa4\x86\xe0\xa4\xa6\xe0\xa4\xbf\xe0\xa4\xb5\xe0\xa4\xbe\xe0\xa4\xb8\xe0\xa5\x80,n,m,sg,3,d,0,0'
p2029
ssbsg1450
I01
sg1453
I00
sg1464
Nsg1451
Nsg172
I4
sg158
I0
sg1810
I0
sg1462
Nsg1811
S'NNC'
p2030
sg247
(issf_api
FeatureSet
p2031
(dp2032
g250
(dp2033
S'posn'
p2034
S'90'
p2035
sS'name'
p2036
S'\xe0\xa4\x86\xe0\xa4\xa6\xe0\xa4\xbf\xe0\xa4\xb5\xe0\xa4\xbe\xe0\xa4\xb8\xe0\xa5\x80'
p2037
sS'af'
p2038
S'\xe0\xa4\x86\xe0\xa4\xa6\xe0\xa4\xbf\xe0\xa4\xb5\xe0\xa4\xbe\xe0\xa4\xb8\xe0\xa5\x80,n,m,sg,3,d,0,0'
p2039
ssbsg1472
I00
sba(issf_api
Word
p2040
(dp2041
g1789
I00
sg1790
V\u0938\u092e\u0942\u0939\u094b\u0902
p2042
sg1792
(issf_api
FeatureSet
p2043
(dp2044
g250
(dp2045
S'posn'
p2046
S'100'
p2047
sS'name'
p2048
S'\xe0\xa4\xb8\xe0\xa4\xae\xe0\xa5\x82\xe0\xa4\xb9\xe0\xa5\x8b\xe0\xa4\x82'
p2049
sS'af'
p2050
S'\xe0\xa4\xb8\xe0\xa4\xae\xe0\xa5\x82\xe0\xa4\xb9,n,m,pl,3,o,0_\xe0\xa4\x95\xe0\xa4\xbe,0'
p2051
sS'chunkid'
p2052
S'NP4'
p2053
sS'drel'
p2054
S'r6:\xe0\xa4\xb8\xe0\xa4\xb0\xe0\xa5\x8d\xe0\xa4\xb5\xe0\xa5\x87'
p2055
sS'vpos'
p2056
S'vib_3'
p2057
sS'chunktype'
p2058
S'head:NP4'
p2059
ssbsg1450
I01
sg1453
I00
sg1464
Nsg1451
Nsg172
I4
sg158
I0
sg1810
I0
sg1462
Nsg1811
S'NN'
p2060
sg247
(issf_api
FeatureSet
p2061
(dp2062
g250
(dp2063
S'posn'
p2064
S'100'
p2065
sS'name'
p2066
S'\xe0\xa4\xb8\xe0\xa4\xae\xe0\xa5\x82\xe0\xa4\xb9\xe0\xa5\x8b\xe0\xa4\x82'
p2067
sS'af'
p2068
S'\xe0\xa4\xb8\xe0\xa4\xae\xe0\xa5\x82\xe0\xa4\xb9,n,m,pl,3,o,0,0'
p2069
ssbsg1472
I00
sba(issf_api
Word
p2070
(dp2071
g1789
I00
sg1790
V\u0915\u0947
p2072
sg1792
(issf_api
FeatureSet
p2073
(dp2074
g250
(dp2075
S'posn'
p2076
S'110'
p2077
sS'name'
p2078
S'\xe0\xa4\x95\xe0\xa5\x872'
p2079
sS'drel'
p2080
S'lwg__psp:\xe0\xa4\xb8\xe0\xa4\xae\xe0\xa5\x82\xe0\xa4\xb9\xe0\xa5\x8b\xe0\xa4\x82'
p2081
sS'chunktype'
p2082
S'child:NP4'
p2083
sS'af'
p2084
S'\xe0\xa4\x95\xe0\xa4\xbe,psp,m,sg,,o,,'
p2085
ssbsg1450
I01
sg1453
I00
sg1464
Nsg1451
Nsg172
I4
sg158
I0
sg1810
I0
sg1462
Nsg1811
S'PSP'
p2086
sg247
(issf_api
FeatureSet
p2087
(dp2088
g250
(dp2089
S'posn'
p2090
S'110'
p2091
sS'name'
p2092
S'\xe0\xa4\x95\xe0\xa5\x872'
p2093
sS'af'
p2094
S'\xe0\xa4\x95\xe0\xa4\xbe,psp,m,sg,,o,,'
p2095
ssbsg1472
I00
sba(issf_api
Word
p2096
(dp2097
g1789
I00
sg1790
V\u0938\u0930\u094d\u0935\u0947
p2098
sg1792
(issf_api
FeatureSet
p2099
(dp2100
g250
(dp2101
S'posn'
p2102
S'120'
p2103
sS'name'
p2104
S'\xe0\xa4\xb8\xe0\xa4\xb0\xe0\xa5\x8d\xe0\xa4\xb5\xe0\xa5\x87'
p2105
sS'af'
p2106
S'\xe0\xa4\xb8\xe0\xa4\xb0\xe0\xa5\x8d\xe0\xa4\xb5\xe0\xa5\x87,n,m,sg,3,o,0_\xe0\xa4\xaa\xe0\xa4\xb0,0'
p2107
sS'chunkid'
p2108
S'NP5'
p2109
sS'drel'
p2110
S'k7:\xe0\xa4\xb2\xe0\xa4\x97\xe0\xa4\xbe\xe0\xa4\x8f'
p2111
sS'vpos'
p2112
S'vib_2'
p2113
sS'chunktype'
p2114
S'head:NP5'
p2115
ssbsg1450
I01
sg1453
I00
sg1464
Nsg1451
Nsg172
I5
sg158
I0
sg1810
I0
sg1462
Nsg1811
S'NN'
p2116
sg247
(issf_api
FeatureSet
p2117
(dp2118
g250
(dp2119
S'posn'
p2120
S'120'
p2121
sS'name'
p2122
S'\xe0\xa4\xb8\xe0\xa4\xb0\xe0\xa5\x8d\xe0\xa4\xb5\xe0\xa5\x87'
p2123
sS'af'
p2124
S'\xe0\xa4\xb8\xe0\xa4\xb0\xe0\xa5\x8d\xe0\xa4\xb5\xe0\xa5\x87,n,m,sg,3,o,0,0'
p2125
ssbsg1472
I00
sba(issf_api
Word
p2126
(dp2127
g1789
I00
sg1790
V\u092a\u0930
p2128
sg1792
(issf_api
FeatureSet
p2129
(dp2130
g250
(dp2131
S'posn'
p2132
S'130'
p2133
sS'name'
p2134
S'\xe0\xa4\xaa\xe0\xa4\xb0'
p2135
sS'drel'
p2136
S'lwg__psp:\xe0\xa4\xb8\xe0\xa4\xb0\xe0\xa5\x8d\xe0\xa4\xb5\xe0\xa5\x87'
p2137
sS'chunktype'
p2138
S'child:NP5'
p2139
sS'af'
p2140
S'\xe0\xa4\xaa\xe0\xa4\xb0,psp,,,,,,'
p2141
ssbsg1450
I01
sg1453
I00
sg1464
Nsg1451
Nsg172
I5
sg158
I0
sg1810
I0
sg1462
Nsg1811
S'PSP'
p2142
sg247
(issf_api
FeatureSet
p2143
(dp2144
g250
(dp2145
S'posn'
p2146
S'130'
p2147
sS'name'
p2148
S'\xe0\xa4\xaa\xe0\xa4\xb0'
p2149
sS'af'
p2150
S'\xe0\xa4\xaa\xe0\xa4\xb0,psp,,,,,,'
p2151
ssbsg1472
I00
sba(issf_api
Word
p2152
(dp2153
g1789
I00
sg1790
V\u092a\u094d\u0930\u0924\u093f\u092c\u0902\u0927
p2154
sg1792
(issf_api
FeatureSet
p2155
(dp2156
g250
(dp2157
S'posn'
p2158
S'140'
p2159
sS'name'
p2160
S'\xe0\xa4\xaa\xe0\xa5\x8d\xe0\xa4\xb0\xe0\xa4\xa4\xe0\xa4\xbf\xe0\xa4\xac\xe0\xa4\x82\xe0\xa4\xa7'
p2161
sS'af'
p2162
S'\xe0\xa4\xaa\xe0\xa5\x8d\xe0\xa4\xb0\xe0\xa4\xa4\xe0\xa4\xbf\xe0\xa4\xac\xe0\xa4\x82\xe0\xa4\xa7,n,m,pl,3,d,0,0'
p2163
sS'chunkid'
p2164
S'NP6'
p2165
sS'drel'
p2166
S'pof:\xe0\xa4\xb2\xe0\xa4\x97\xe0\xa4\xbe\xe0\xa4\x8f'
p2167
sS'chunktype'
p2168
S'head:NP6'
p2169
ssbsg1450
I01
sg1453
I00
sg1464
Nsg1451
Nsg172
I6
sg158
I0
sg1810
I0
sg1462
Nsg1811
S'NN'
p2170
sg247
(issf_api
FeatureSet
p2171
(dp2172
g250
(dp2173
S'posn'
p2174
S'140'
p2175
sS'name'
p2176
S'\xe0\xa4\xaa\xe0\xa5\x8d\xe0\xa4\xb0\xe0\xa4\xa4\xe0\xa4\xbf\xe0\xa4\xac\xe0\xa4\x82\xe0\xa4\xa7'
p2177
sS'af'
p2178
S'\xe0\xa4\xaa\xe0\xa5\x8d\xe0\xa4\xb0\xe0\xa4\xa4\xe0\xa4\xbf\xe0\xa4\xac\xe0\xa4\x82\xe0\xa4\xa7,n,m,pl,3,d,0,0'
p2179
ssbsg1472
I00
sba(issf_api
Word
p2180
(dp2181
g1789
I00
sg1790
V\u0932\u0917\u093e\u090f
p2182
sg1792
(issf_api
FeatureSet
p2183
(dp2184
g250
(dp2185
S'posn'
p2186
S'150'
p2187
sS'name'
p2188
S'\xe0\xa4\xb2\xe0\xa4\x97\xe0\xa4\xbe\xe0\xa4\x8f'
p2189
sS'af'
p2190
S'\xe0\xa4\xb2\xe0\xa4\x97\xe0\xa4\xbe,v,m,sg,3,,\xe0\xa4\xaf\xe0\xa4\xbe_\xe0\xa4\x9c\xe0\xa4\xbe+\xe0\xa4\xa8\xe0\xa4\xbe_\xe0\xa4\x95\xe0\xa5\x87_\xe0\xa4\xac\xe0\xa4\xbe\xe0\xa4\xa6,yA'
p2191
sS'chunkid'
p2192
S'VGNN'
p2193
sS'drel'
p2194
S'k7t:\xe0\xa4\x95\xe0\xa4\xb0'
p2195
sS'vpos'
p2196
S'tam_2_3_4'
p2197
sS'chunktype'
p2198
S'head:VGNN'
p2199
ssbsg1450
I01
sg1453
I00
sg1464
Nsg1451
Nsg172
I7
sg158
I0
sg1810
I0
sg1462
Nsg1811
S'VM'
p2200
sg247
(issf_api
FeatureSet
p2201
(dp2202
g250
(dp2203
S'posn'
p2204
S'150'
p2205
sS'name'
p2206
S'\xe0\xa4\xb2\xe0\xa4\x97\xe0\xa4\xbe\xe0\xa4\x8f'
p2207
sS'af'
p2208
S'\xe0\xa4\xb2\xe0\xa4\x97\xe0\xa4\xbe,v,m,pl,any,,\xe0\xa4\xaf\xe0\xa4\xbe,yA'
p2209
ssbsg1472
I00
sba(issf_api
Word
p2210
(dp2211
g1789
I00
sg1790
V\u091c\u093e\u0928\u0947
p2212
sg1792
(issf_api
FeatureSet
p2213
(dp2214
g250
(dp2215
S'posn'
p2216
S'160'
p2217
sS'name'
p2218
S'\xe0\xa4\x9c\xe0\xa4\xbe\xe0\xa4\xa8\xe0\xa5\x87'
p2219
sS'drel'
p2220
S'lwg__vaux:\xe0\xa4\xb2\xe0\xa4\x97\xe0\xa4\xbe\xe0\xa4\x8f'
p2221
sS'chunktype'
p2222
S'child:VGNN'
p2223
sS'af'
p2224
S'\xe0\xa4\x9c\xe0\xa4\xbe,v,any,any,any,o,\xe0\xa4\xa8\xe0\xa4\xbe,nA'
p2225
ssbsg1450
I01
sg1453
I00
sg1464
Nsg1451
Nsg172
I7
sg158
I0
sg1810
I0
sg1462
Nsg1811
S'VAUX'
p2226
sg247
(issf_api
FeatureSet
p2227
(dp2228
g250
(dp2229
S'posn'
p2230
S'160'
p2231
sS'name'
p2232
S'\xe0\xa4\x9c\xe0\xa4\xbe\xe0\xa4\xa8\xe0\xa5\x87'
p2233
sS'af'
p2234
S'\xe0\xa4\x9c\xe0\xa4\xbe,v,any,any,any,o,\xe0\xa4\xa8\xe0\xa4\xbe,nA'
p2235
ssbsg1472
I00
sba(issf_api
Word
p2236
(dp2237
g1789
I00
sg1790
V\u0915\u0947
p2238
sg1792
(issf_api
FeatureSet
p2239
(dp2240
g250
(dp2241
S'posn'
p2242
S'170'
p2243
sS'name'
p2244
S'\xe0\xa4\x95\xe0\xa5\x873'
p2245
sS'drel'
p2246
S'lwg__psp:\xe0\xa4\xb2\xe0\xa4\x97\xe0\xa4\xbe\xe0\xa4\x8f'
p2247
sS'chunktype'
p2248
S'child:VGNN'
p2249
sS'af'
p2250
S'\xe0\xa4\x95\xe0\xa5\x87,psp,,,,,,'
p2251
ssbsg1450
I00
sg1453
I00
sg1464
g1465
sg1451
(lp2252
I0
aI1
aI2
aI3
aI4
aI5
aI6
aI7
aI8
aI9
aI10
aI11
aI12
aI13
aI14
aI15
asg172
I7
sg158
I0
sg1810
I0
sg1462
(lp2253
I18
aI19
aI20
aI21
aI22
aI23
asg1811
S'PSP'
p2254
sg247
(issf_api
FeatureSet
p2255
(dp2256
g250
(dp2257
S'posn'
p2258
S'170'
p2259
sS'name'
p2260
S'\xe0\xa4\x95\xe0\xa5\x873'
p2261
sS'af'
p2262
S'\xe0\xa4\x95\xe0\xa5\x87,psp,,,,,,'
p2263
ssbsg1472
I01
sba(issf_api
Word
p2264
(dp2265
g1789
I00
sg1790
V\u092c\u093e\u0926
p2266
sg1792
(issf_api
FeatureSet
p2267
(dp2268
g250
(dp2269
S'posn'
p2270
S'180'
p2271
sS'name'
p2272
S'\xe0\xa4\xac\xe0\xa4\xbe\xe0\xa4\xa6'
p2273
sS'drel'
p2274
S'lwg__nst:\xe0\xa4\xb2\xe0\xa4\x97\xe0\xa4\xbe\xe0\xa4\x8f'
p2275
sS'chunktype'
p2276
S'child:VGNN'
p2277
sS'af'
p2278
S'\xe0\xa4\xac\xe0\xa4\xbe\xe0\xa4\xa6,nst,m,sg,3,d,,'
p2279
ssbsg1450
I00
sg1453
I00
sg1464
g1465
sg1451
g2252
sg172
I7
sg158
I0
sg1810
I0
sg1462
g2253
sg1811
S'NST'
p2280
sg247
(issf_api
FeatureSet
p2281
(dp2282
g250
(dp2283
S'posn'
p2284
S'180'
p2285
sS'name'
p2286
S'\xe0\xa4\xac\xe0\xa4\xbe\xe0\xa4\xa6'
p2287
sS'af'
p2288
S'\xe0\xa4\xac\xe0\xa4\xbe\xe0\xa4\xa6,nst,m,sg,3,d,,'
p2289
ssbsg1472
I01
sba(issf_api
Word
p2290
(dp2291
g1789
I00
sg1790
V\u0907\u0938\u0947
p2292
sg1792
(issf_api
FeatureSet
p2293
(dp2294
g250
(dp2295
S'posn'
p2296
S'190'
p2297
sS'name'
p2298
S'\xe0\xa4\x87\xe0\xa4\xb8\xe0\xa5\x87'
p2299
sS'af'
p2300
S'\xe0\xa4\xaf\xe0\xa4\xb9,pn,any,sg,3,o,\xe0\xa4\x95\xe0\xa5\x8b,ko'
p2301
sS'chunkid'
p2302
S'NP7'
p2303
sS'drel'
p2304
S'k2:\xe0\xa4\x95\xe0\xa4\xb0'
p2305
sS'chunktype'
p2306
S'head:NP7'
p2307
ssbsg1450
I00
sg1453
I01
sg1464
Nsg1451
Nsg172
I8
sg158
I0
sg1810
I0
sg1462
Nsg1811
S'PRP'
p2308
sg247
(issf_api
FeatureSet
p2309
(dp2310
g250
(dp2311
S'posn'
p2312
S'190'
p2313
sS'name'
p2314
S'\xe0\xa4\x87\xe0\xa4\xb8\xe0\xa5\x87'
p2315
sS'af'
p2316
S'\xe0\xa4\xaf\xe0\xa4\xb9,pn,any,sg,3,o,\xe0\xa4\x95\xe0\xa5\x8b,ko'
p2317
ssbsg1472
I00
sba(issf_api
Word
p2318
(dp2319
g1789
I00
sg1790
V\u0930\u0926\u094d\u0926
p2320
sg1792
(issf_api
FeatureSet
p2321
(dp2322
g250
(dp2323
S'posn'
p2324
S'200'
p2325
sS'name'
p2326
S'\xe0\xa4\xb0\xe0\xa4\xa6\xe0\xa5\x8d\xe0\xa4\xa6'
p2327
sS'af'
p2328
S'\xe0\xa4\xb0\xe0\xa4\xa6\xe0\xa5\x8d\xe0\xa4\xa6,adj,any,any,,,,'
p2329
sS'chunkid'
p2330
S'JJP'
p2331
sS'drel'
p2332
S'pof:\xe0\xa4\x95\xe0\xa4\xb0'
p2333
sS'chunktype'
p2334
S'head:JJP'
p2335
ssbsg1450
I00
sg1453
I01
sg1464
Nsg1451
Nsg172
I9
sg158
I0
sg1810
I0
sg1462
Nsg1811
S'JJ'
p2336
sg247
(issf_api
FeatureSet
p2337
(dp2338
g250
(dp2339
S'posn'
p2340
S'200'
p2341
sS'name'
p2342
S'\xe0\xa4\xb0\xe0\xa4\xa6\xe0\xa5\x8d\xe0\xa4\xa6'
p2343
sS'af'
p2344
S'\xe0\xa4\xb0\xe0\xa4\xa6\xe0\xa5\x8d\xe0\xa4\xa6,adj,any,any,,,,'
p2345
ssbsg1472
I00
sba(issf_api
Word
p2346
(dp2347
g1789
I00
sg1790
V\u0915\u0930
p2348
sg1792
(issf_api
FeatureSet
p2349
(dp2350
g250
(dp2351
S'posn'
p2352
S'210'
p2353
sS'name'
p2354
S'\xe0\xa4\x95\xe0\xa4\xb0'
p2355
sS'af'
p2356
S'\xe0\xa4\x95\xe0\xa4\xb0,v,m,sg,3,,0_\xe0\xa4\xa6\xe0\xa5\x87+\xe0\xa4\xaf\xe0\xa4\xbe_\xe0\xa4\x9c\xe0\xa4\xbe+\xe0\xa4\xaf\xe0\xa4\xbe1_\xe0\xa4\xb9\xe0\xa5\x88,0'
p2357
sS'chunkid'
p2358
S'VGF'
p2359
sS'chunktype'
p2360
S'head:VGF'
p2361
sS'voicetype'
p2362
S'passive'
p2363
sS'vpos'
p2364
S'tam_2_3_4'
p2365
sS'stype'
p2366
S'declarative'
p2367
ssbsg1450
I00
sg1453
I01
sg1464
Nsg1451
Nsg172
I10
sg158
I0
sg1810
I0
sg1462
Nsg1811
S'VM'
p2368
sg247
(issf_api
FeatureSet
p2369
(dp2370
g250
(dp2371
S'posn'
p2372
S'210'
p2373
sS'name'
p2374
S'\xe0\xa4\x95\xe0\xa4\xb0'
p2375
sS'af'
p2376
S'\xe0\xa4\x95\xe0\xa4\xb0,v,any,any,any,,0,0'
p2377
ssbsg1472
I00
sba(issf_api
Word
p2378
(dp2379
g1789
I00
sg1790
V\u0926\u093f\u092f\u093e
p2380
sg1792
(issf_api
FeatureSet
p2381
(dp2382
g250
(dp2383
S'posn'
p2384
S'220'
p2385
sS'name'
p2386
S'\xe0\xa4\xa6\xe0\xa4\xbf\xe0\xa4\xaf\xe0\xa4\xbe'
p2387
sS'drel'
p2388
S'lwg__vaux:\xe0\xa4\x95\xe0\xa4\xb0'
p2389
sS'chunktype'
p2390
S'child:VGF'
p2391
sS'af'
p2392
S'\xe0\xa4\xa6\xe0\xa5\x87,v,m,sg,any,,\xe0\xa4\xaf\xe0\xa4\xbe,yA'
p2393
ssbsg1450
I00
sg1453
I01
sg1464
Nsg1451
Nsg172
I10
sg158
I0
sg1810
I0
sg1462
Nsg1811
S'VAUX'
p2394
sg247
(issf_api
FeatureSet
p2395
(dp2396
g250
(dp2397
S'posn'
p2398
S'220'
p2399
sS'name'
p2400
S'\xe0\xa4\xa6\xe0\xa4\xbf\xe0\xa4\xaf\xe0\xa4\xbe'
p2401
sS'af'
p2402
S'\xe0\xa4\xa6\xe0\xa5\x87,v,m,sg,any,,\xe0\xa4\xaf\xe0\xa4\xbe,yA'
p2403
ssbsg1472
I00
sba(issf_api
Word
p2404
(dp2405
g1789
I00
sg1790
V\u0917\u092f\u093e
p2406
sg1792
(issf_api
FeatureSet
p2407
(dp2408
g250
(dp2409
S'posn'
p2410
S'230'
p2411
sS'name'
p2412
S'\xe0\xa4\x97\xe0\xa4\xaf\xe0\xa4\xbe'
p2413
sS'drel'
p2414
S'lwg__vaux:\xe0\xa4\x95\xe0\xa4\xb0'
p2415
sS'chunktype'
p2416
S'child:VGF'
p2417
sS'af'
p2418
S'\xe0\xa4\x9c\xe0\xa4\xbe,v,m,sg,any,,\xe0\xa4\xaf\xe0\xa4\xbe1,yA1'
p2419
ssbsg1450
I00
sg1453
I01
sg1464
Nsg1451
Nsg172
I10
sg158
I0
sg1810
I0
sg1462
Nsg1811
S'VAUX'
p2420
sg247
(issf_api
FeatureSet
p2421
(dp2422
g250
(dp2423
S'posn'
p2424
S'230'
p2425
sS'name'
p2426
S'\xe0\xa4\x97\xe0\xa4\xaf\xe0\xa4\xbe'
p2427
sS'af'
p2428
S'\xe0\xa4\x9c\xe0\xa4\xbe,v,m,sg,any,,\xe0\xa4\xaf\xe0\xa4\xbe1,yA1'
p2429
ssbsg1472
I00
sba(issf_api
Word
p2430
(dp2431
g1789
I00
sg1790
V\u0939\u0948
p2432
sg1792
(issf_api
FeatureSet
p2433
(dp2434
g250
(dp2435
S'posn'
p2436
S'240'
p2437
sS'name'
p2438
S'\xe0\xa4\xb9\xe0\xa5\x88'
p2439
sS'drel'
p2440
S'lwg__vaux:\xe0\xa4\x95\xe0\xa4\xb0'
p2441
sS'chunktype'
p2442
S'child:VGF'
p2443
sS'af'
p2444
S'\xe0\xa4\xb9\xe0\xa5\x88,v,any,sg,3,,\xe0\xa4\xb9\xe0\xa5\x88,hE'
p2445
ssbsg1450
I00
sg1453
I01
sg1464
Nsg1451
Nsg172
I10
sg158
I0
sg1810
I0
sg1462
Nsg1811
S'VAUX'
p2446
sg247
(issf_api
FeatureSet
p2447
(dp2448
g250
(dp2449
S'posn'
p2450
S'240'
p2451
sS'name'
p2452
S'\xe0\xa4\xb9\xe0\xa5\x88'
p2453
sS'af'
p2454
S'\xe0\xa4\xb9\xe0\xa5\x88,v,any,sg,3,,\xe0\xa4\xb9\xe0\xa5\x88,hE'
p2455
ssbsg1472
I00
sba(issf_api
Word
p2456
(dp2457
g1789
I00
sg1790
V\u0964
sg1792
(issf_api
FeatureSet
p2458
(dp2459
g250
(dp2460
S'posn'
p2461
S'250'
p2462
sS'name'
p2463
S'\xe0\xa5\xa4'
p2464
sS'af'
p2465
S'\xe0\xa5\xa4,punc,,,,,,'
p2466
sS'chunkid'
p2467
S'BLK'
p2468
sS'drel'
p2469
S'rsym:\xe0\xa4\x95\xe0\xa4\xb0'
p2470
sS'chunktype'
p2471
S'head:BLK'
p2472
ssbsg1450
I00
sg1453
I00
sg1464
Nsg1451
Nsg172
I11
sg158
I0
sg1810
Nsg1462
Nsg1811
S'SYM'
p2473
sg247
(issf_api
FeatureSet
p2474
(dp2475
g250
(dp2476
S'posn'
p2477
S'250'
p2478
sS'name'
p2479
S'\xe0\xa5\xa4'
p2480
sS'af'
p2481
S'\xe0\xa5\xa4,punc,,,,,,'
p2482
ssbsg1472
I00
sba(issf_api
Word
p2483
(dp2484
g1789
I00
sg1790
V\u092f\u0947
p2485
sg1792
(issf_api
FeatureSet
p2486
(dp2487
g250
(dp2488
S'posn'
p2489
S'10'
p2490
sS'name'
p2491
S'\xe0\xa4\xaf\xe0\xa5\x87'
p2492
sS'drel'
p2493
S'nmod__adj:\xe0\xa4\x86\xe0\xa4\xa6\xe0\xa4\xbf\xe0\xa4\xb5\xe0\xa4\xbe\xe0\xa4\xb8\xe0\xa5\x80'
p2494
sS'chunktype'
p2495
S'child:NP'
p2496
sS'af'
p2497
S'\xe0\xa4\xaf\xe0\xa4\xb9,pn,any,pl,3,d,,'
p2498
ssbsg1450
I00
sg1453
I00
sg1464
Nsg1451
Nsg172
I0
sg158
I1
sg1810
Nsg1462
Nsg1811
S'DEM'
p2499
sg247
(issf_api
FeatureSet
p2500
(dp2501
g250
(dp2502
S'posn'
p2503
S'10'
p2504
sS'name'
p2505
S'\xe0\xa4\xaf\xe0\xa5\x87'
p2506
sS'af'
p2507
S'\xe0\xa4\xaf\xe0\xa4\xb9,pn,any,pl,3,d,,'
p2508
ssbsg1472
I00
sba(issf_api
Word
p2509
(dp2510
g1789
I00
sg1790
V\u0906\u0926\u093f\u0935\u093e\u0938\u0940
p2511
sg1792
(issf_api
FeatureSet
p2512
(dp2513
g250
(dp2514
S'posn'
p2515
S'20'
p2516
sS'name'
p2517
S'\xe0\xa4\x86\xe0\xa4\xa6\xe0\xa4\xbf\xe0\xa4\xb5\xe0\xa4\xbe\xe0\xa4\xb8\xe0\xa5\x80'
p2518
sS'af'
p2519
S'\xe0\xa4\x86\xe0\xa4\xa6\xe0\xa4\xbf\xe0\xa4\xb5\xe0\xa4\xbe\xe0\xa4\xb8\xe0\xa5\x80,n,m,pl,3,d,0,0'
p2520
sS'chunkid'
p2521
S'NP'
p2522
sS'drel'
p2523
S'k1:\xe0\xa4\xb9\xe0\xa5\x88\xe0\xa4\x82'
p2524
sS'chunktype'
p2525
S'head:NP'
p2526
ssbsg1450
I00
sg1453
I00
sg1464
Nsg1451
Nsg172
I0
sg158
I1
sg1810
Nsg1462
Nsg1811
S'NN'
p2527
sg247
(issf_api
FeatureSet
p2528
(dp2529
g250
(dp2530
S'posn'
p2531
S'20'
p2532
sS'name'
p2533
S'\xe0\xa4\x86\xe0\xa4\xa6\xe0\xa4\xbf\xe0\xa4\xb5\xe0\xa4\xbe\xe0\xa4\xb8\xe0\xa5\x80'
p2534
sS'af'
p2535
S'\xe0\xa4\x86\xe0\xa4\xa6\xe0\xa4\xbf\xe0\xa4\xb5\xe0\xa4\xbe\xe0\xa4\xb8\xe0\xa5\x80,n,m,pl,3,d,0,0'
p2536
ssbsg1472
I00
sba(issf_api
Word
p2537
(dp2538
g1789
I00
sg1790
V\u0905\u092c\u0941\u091d\u092e\u093e\u0926\u093f\u092f\u093e
p2539
sg1792
(issf_api
FeatureSet
p2540
(dp2541
g250
(dp2542
S'posn'
p2543
S'30'
p2544
sS'name'
p2545
S'\xe0\xa4\x85\xe0\xa4\xac\xe0\xa5\x81\xe0\xa4\x9d\xe0\xa4\xae\xe0\xa4\xbe\xe0\xa4\xa6\xe0\xa4\xbf\xe0\xa4\xaf\xe0\xa4\xbe'
p2546
sS'drel'
p2547
S'pof__cn:\xe0\xa4\xb8\xe0\xa4\xae\xe0\xa5\x81\xe0\xa4\xa6\xe0\xa4\xbe\xe0\xa4\xaf'
p2548
sS'chunktype'
p2549
S'child:NP2'
p2550
sS'af'
p2551
S'\xe0\xa4\x85\xe0\xa4\xac\xe0\xa5\x81\xe0\xa4\x9d\xe0\xa4\xae\xe0\xa4\xbe\xe0\xa4\xa6\xe0\xa4\xbf\xe0\xa4\xaf\xe0\xa4\xbe,n,m,sg,3,d,0,0'
p2552
ssbsg1450
I00
sg1453
I00
sg1464
Nsg1451
Nsg172
I1
sg158
I1
sg1810
Nsg1462
Nsg1811
S'NNPC'
p2553
sg247
(issf_api
FeatureSet
p2554
(dp2555
g250
(dp2556
S'posn'
p2557
S'30'
p2558
sS'name'
p2559
S'\xe0\xa4\x85\xe0\xa4\xac\xe0\xa5\x81\xe0\xa4\x9d\xe0\xa4\xae\xe0\xa4\xbe\xe0\xa4\xa6\xe0\xa4\xbf\xe0\xa4\xaf\xe0\xa4\xbe'
p2560
sS'af'
p2561
S'\xe0\xa4\x85\xe0\xa4\xac\xe0\xa5\x81\xe0\xa4\x9d\xe0\xa4\xae\xe0\xa4\xbe\xe0\xa4\xa6\xe0\xa4\xbf\xe0\xa4\xaf\xe0\xa4\xbe,n,m,sg,3,d,0,0'
p2562
ssbsg1472
I00
sba(issf_api
Word
p2563
(dp2564
g1789
I00
sg1790
V\u0938\u092e\u0941\u0926\u093e\u092f
p2565
sg1792
(issf_api
FeatureSet
p2566
(dp2567
g250
(dp2568
S'posn'
p2569
S'40'
p2570
sS'name'
p2571
S'\xe0\xa4\xb8\xe0\xa4\xae\xe0\xa5\x81\xe0\xa4\xa6\xe0\xa4\xbe\xe0\xa4\xaf'
p2572
sS'af'
p2573
S'\xe0\xa4\xb8\xe0\xa4\xae\xe0\xa5\x81\xe0\xa4\xa6\xe0\xa4\xbe\xe0\xa4\xaf,n,m,sg,3,o,0_\xe0\xa4\xb8\xe0\xa5\x87,0'
p2574
sS'chunkid'
p2575
S'NP2'
p2576
sS'drel'
p2577
S'jjmod:\xe0\xa4\xb8\xe0\xa4\x82\xe0\xa4\xac\xe0\xa4\x82\xe0\xa4\xa7\xe0\xa4\xbf\xe0\xa4\xa4'
p2578
sS'vpos'
p2579
S'vib_3'
p2580
sS'chunktype'
p2581
S'head:NP2'
p2582
ssbsg1450
I00
sg1453
I00
sg1464
Nsg1451
Nsg172
I1
sg158
I1
sg1810
Nsg1462
Nsg1811
S'NNP'
p2583
sg247
(issf_api
FeatureSet
p2584
(dp2585
g250
(dp2586
S'posn'
p2587
S'40'
p2588
sS'name'
p2589
S'\xe0\xa4\xb8\xe0\xa4\xae\xe0\xa5\x81\xe0\xa4\xa6\xe0\xa4\xbe\xe0\xa4\xaf'
p2590
sS'af'
p2591
S'\xe0\xa4\xb8\xe0\xa4\xae\xe0\xa5\x81\xe0\xa4\xa6\xe0\xa4\xbe\xe0\xa4\xaf,n,m,sg,3,o,0,0'
p2592
ssbsg1472
I00
sba(issf_api
Word
p2593
(dp2594
g1789
I00
sg1790
V\u0938\u0947
p2595
sg1792
(issf_api
FeatureSet
p2596
(dp2597
g250
(dp2598
S'posn'
p2599
S'50'
p2600
sS'name'
p2601
S'\xe0\xa4\xb8\xe0\xa5\x87'
p2602
sS'drel'
p2603
S'lwg__psp:\xe0\xa4\xb8\xe0\xa4\xae\xe0\xa5\x81\xe0\xa4\xa6\xe0\xa4\xbe\xe0\xa4\xaf'
p2604
sS'chunktype'
p2605
S'child:NP2'
p2606
sS'af'
p2607
S'\xe0\xa4\xb8\xe0\xa5\x87,psp,,,,,,'
p2608
ssbsg1450
I00
sg1453
I00
sg1464
Nsg1451
Nsg172
I1
sg158
I1
sg1810
Nsg1462
Nsg1811
S'PSP'
p2609
sg247
(issf_api
FeatureSet
p2610
(dp2611
g250
(dp2612
S'posn'
p2613
S'50'
p2614
sS'name'
p2615
S'\xe0\xa4\xb8\xe0\xa5\x87'
p2616
sS'af'
p2617
S'\xe0\xa4\xb8\xe0\xa5\x87,psp,,,,,,'
p2618
ssbsg1472
I00
sba(issf_api
Word
p2619
(dp2620
g1789
I00
sg1790
V\u0938\u0902\u092c\u0902\u0927\u093f\u0924
p2621
sg1792
(issf_api
FeatureSet
p2622
(dp2623
g250
(dp2624
S'posn'
p2625
S'60'
p2626
sS'name'
p2627
S'\xe0\xa4\xb8\xe0\xa4\x82\xe0\xa4\xac\xe0\xa4\x82\xe0\xa4\xa7\xe0\xa4\xbf\xe0\xa4\xa4'
p2628
sS'af'
p2629
S'\xe0\xa4\xb8\xe0\xa4\x82\xe0\xa4\xac\xe0\xa4\x82\xe0\xa4\xa7\xe0\xa4\xbf\xe0\xa4\xa4,adj,any,any,,,,'
p2630
sS'chunkid'
p2631
S'JJP'
p2632
sS'drel'
p2633
S'k1s:\xe0\xa4\xb9\xe0\xa5\x88\xe0\xa4\x82'
p2634
sS'chunktype'
p2635
S'head:JJP'
p2636
ssbsg1450
I00
sg1453
I00
sg1464
Nsg1451
Nsg172
I2
sg158
I1
sg1810
Nsg1462
Nsg1811
S'JJ'
p2637
sg247
(issf_api
FeatureSet
p2638
(dp2639
g250
(dp2640
S'posn'
p2641
S'60'
p2642
sS'name'
p2643
S'\xe0\xa4\xb8\xe0\xa4\x82\xe0\xa4\xac\xe0\xa4\x82\xe0\xa4\xa7\xe0\xa4\xbf\xe0\xa4\xa4'
p2644
sS'af'
p2645
S'\xe0\xa4\xb8\xe0\xa4\x82\xe0\xa4\xac\xe0\xa4\x82\xe0\xa4\xa7\xe0\xa4\xbf\xe0\xa4\xa4,adj,any,any,,,,'
p2646
ssbsg1472
I00
sba(issf_api
Word
p2647
(dp2648
g1789
I00
sg1790
V\u0939\u0948\u0902
p2649
sg1792
(issf_api
FeatureSet
p2650
(dp2651
g250
(dp2652
S'posn'
p2653
S'70'
p2654
sS'name'
p2655
S'\xe0\xa4\xb9\xe0\xa5\x88\xe0\xa4\x82'
p2656
sS'af'
p2657
S'\xe0\xa4\xb9\xe0\xa5\x88,v,any,pl,3,,\xe0\xa4\xb9\xe0\xa5\x88,hE'
p2658
sS'chunkid'
p2659
S'VGF'
p2660
sS'chunktype'
p2661
S'head:VGF'
p2662
sS'voicetype'
p2663
S'active'
p2664
sS'stype'
p2665
S'declarative'
p2666
ssbsg1450
I00
sg1453
I00
sg1464
Nsg1451
Nsg172
I3
sg158
I1
sg1810
Nsg1462
Nsg1811
S'VM'
p2667
sg247
(issf_api
FeatureSet
p2668
(dp2669
g250
(dp2670
S'posn'
p2671
S'70'
p2672
sS'name'
p2673
S'\xe0\xa4\xb9\xe0\xa5\x88\xe0\xa4\x82'
p2674
sS'af'
p2675
S'\xe0\xa4\xb9\xe0\xa5\x88,v,any,pl,3,,\xe0\xa4\xb9\xe0\xa5\x88,hE'
p2676
ssbsg1472
I00
sba(issf_api
Word
p2677
(dp2678
g1789
I00
sg1790
V\u0964
sg1792
(issf_api
FeatureSet
p2679
(dp2680
g250
(dp2681
S'posn'
p2682
S'80'
p2683
sS'name'
p2684
S'\xe0\xa5\xa4'
p2685
sS'af'
p2686
S'\xe0\xa5\xa4,punc,,,,,,'
p2687
sS'chunkid'
p2688
S'BLK'
p2689
sS'drel'
p2690
S'rsym:\xe0\xa4\xb9\xe0\xa5\x88\xe0\xa4\x82'
p2691
sS'chunktype'
p2692
S'head:BLK'
p2693
ssbsg1450
I00
sg1453
I00
sg1464
Nsg1451
Nsg172
I4
sg158
I1
sg1810
Nsg1462
Nsg1811
S'SYM'
p2694
sg247
(issf_api
FeatureSet
p2695
(dp2696
g250
(dp2697
S'posn'
p2698
S'80'
p2699
sS'name'
p2700
S'\xe0\xa5\xa4'
p2701
sS'af'
p2702
S'\xe0\xa5\xa4,punc,,,,,,'
p2703
ssbsg1472
I00
sba(issf_api
Word
p2704
(dp2705
g1789
I00
sg1790
V\u0907\u0928\u0915\u0940
p2706
sg1792
(issf_api
FeatureSet
p2707
(dp2708
g250
(dp2709
S'posn'
p2710
S'10'
p2711
sS'name'
p2712
S'\xe0\xa4\x87\xe0\xa4\xa8\xe0\xa4\x95\xe0\xa5\x80'
p2713
sS'af'
p2714
S'\xe0\xa4\xaf\xe0\xa4\xb9,pn,f,pl,3,o,\xe0\xa4\x95\xe0\xa4\xbe,kA'
p2715
sS'chunkid'
p2716
S'NP'
p2717
sS'drel'
p2718
S'r6:\xe0\xa4\xb8\xe0\xa4\x82\xe0\xa4\x96\xe0\xa5\x8d\xe0\xa4\xaf\xe0\xa4\xbe'
p2719
sS'chunktype'
p2720
S'head:NP'
p2721
ssbsg1450
I00
sg1453
I00
sg1464
Nsg1451
Nsg172
I0
sg158
I2
sg1810
Nsg1462
Nsg1811
S'PRP'
p2722
sg247
(issf_api
FeatureSet
p2723
(dp2724
g250
(dp2725
S'posn'
p2726
S'10'
p2727
sS'name'
p2728
S'\xe0\xa4\x87\xe0\xa4\xa8\xe0\xa4\x95\xe0\xa5\x80'
p2729
sS'af'
p2730
S'\xe0\xa4\xaf\xe0\xa4\xb9,pn,f,pl,3,o,\xe0\xa4\x95\xe0\xa4\xbe,kA'
p2731
ssbsg1472
I00
sba(issf_api
Word
p2732
(dp2733
g1789
I00
sg1790
V\u0938\u0902\u0916\u094d\u092f\u093e
p2734
sg1792
(issf_api
FeatureSet
p2735
(dp2736
g250
(dp2737
S'posn'
p2738
S'20'
p2739
sS'name'
p2740
S'\xe0\xa4\xb8\xe0\xa4\x82\xe0\xa4\x96\xe0\xa5\x8d\xe0\xa4\xaf\xe0\xa4\xbe'
p2741
sS'af'
p2742
S'\xe0\xa4\xb8\xe0\xa4\x82\xe0\xa4\x96\xe0\xa5\x8d\xe0\xa4\xaf\xe0\xa4\xbe,n,f,sg,3,d,0,0'
p2743
sS'chunkid'
p2744
S'NP2'
p2745
sS'drel'
p2746
S'k2:\xe0\xa4\xac\xe0\xa4\xa4\xe0\xa4\xbe\xe0\xa4\x88'
p2747
sS'chunktype'
p2748
S'head:NP2'
p2749
ssbsg1450
I00
sg1453
I00
sg1464
Nsg1451
Nsg172
I1
sg158
I2
sg1810
Nsg1462
Nsg1811
S'NN'
p2750
sg247
(issf_api
FeatureSet
p2751
(dp2752
g250
(dp2753
S'posn'
p2754
S'20'
p2755
sS'name'
p2756
S'\xe0\xa4\xb8\xe0\xa4\x82\xe0\xa4\x96\xe0\xa5\x8d\xe0\xa4\xaf\xe0\xa4\xbe'
p2757
sS'af'
p2758
S'\xe0\xa4\xb8\xe0\xa4\x82\xe0\xa4\x96\xe0\xa5\x8d\xe0\xa4\xaf\xe0\xa4\xbe,n,f,sg,3,d,0,0'
p2759
ssbsg1472
I00
sba(issf_api
Word
p2760
(dp2761
g1789
I00
sg1790
V19,401
p2762
sg1792
(issf_api
FeatureSet
p2763
(dp2764
g250
(dp2765
S'posn'
p2766
S'30'
p2767
sS'name'
p2768
S'19,401'
p2769
sS'af'
p2770
S'19401,num,any,any,,any,,'
p2771
sS'chunkid'
p2772
S'NP3'
p2773
sS'drel'
p2774
S'k2s:\xe0\xa4\xac\xe0\xa4\xa4\xe0\xa4\xbe\xe0\xa4\x88'
p2775
sS'chunktype'
p2776
S'head:NP3'
p2777
ssbsg1450
I00
sg1453
I00
sg1464
Nsg1451
Nsg172
I2
sg158
I2
sg1810
Nsg1462
Nsg1811
S'QC'
p2778
sg247
(issf_api
FeatureSet
p2779
(dp2780
g250
(dp2781
S'posn'
p2782
S'30'
p2783
sS'name'
p2784
S'19,401'
p2785
sS'af'
p2786
S'19401,num,any,any,,any,,'
p2787
ssbsg1472
I00
sba(issf_api
Word
p2788
(dp2789
g1789
I00
sg1790
V\u092c\u0924\u093e\u0908
p2790
sg1792
(issf_api
FeatureSet
p2791
(dp2792
g250
(dp2793
S'posn'
p2794
S'40'
p2795
sS'name'
p2796
S'\xe0\xa4\xac\xe0\xa4\xa4\xe0\xa4\xbe\xe0\xa4\x88'
p2797
sS'af'
p2798
S'\xe0\xa4\xac\xe0\xa4\xa4\xe0\xa4\xbe,v,f,sg,3,,\xe0\xa4\xaf\xe0\xa4\xbe_\xe0\xa4\x9c\xe0\xa4\xbe+\xe0\xa4\xa4\xe0\xa4\xbe_\xe0\xa4\xb9\xe0\xa5\x88,yA'
p2799
sS'chunkid'
p2800
S'VGF'
p2801
sS'chunktype'
p2802
S'head:VGF'
p2803
sS'voicetype'
p2804
S'passive'
p2805
sS'vpos'
p2806
S'tam_2_3'
p2807
sS'stype'
p2808
S'declarative'
p2809
ssbsg1450
I00
sg1453
I00
sg1464
Nsg1451
Nsg172
I3
sg158
I2
sg1810
Nsg1462
Nsg1811
S'VM'
p2810
sg247
(issf_api
FeatureSet
p2811
(dp2812
g250
(dp2813
S'posn'
p2814
S'40'
p2815
sS'name'
p2816
S'\xe0\xa4\xac\xe0\xa4\xa4\xe0\xa4\xbe\xe0\xa4\x88'
p2817
sS'af'
p2818
S'\xe0\xa4\xac\xe0\xa4\xa4\xe0\xa4\xbe,v,f,sg,any,,\xe0\xa4\xaf\xe0\xa4\xbe,yA'
p2819
ssbsg1472
I00
sba(issf_api
Word
p2820
(dp2821
g1789
I00
sg1790
V\u091c\u093e\u0924\u0940
p2822
sg1792
(issf_api
FeatureSet
p2823
(dp2824
g250
(dp2825
S'posn'
p2826
S'50'
p2827
sS'name'
p2828
S'\xe0\xa4\x9c\xe0\xa4\xbe\xe0\xa4\xa4\xe0\xa5\x80'
p2829
sS'drel'
p2830
S'lwg__vaux:\xe0\xa4\xac\xe0\xa4\xa4\xe0\xa4\xbe\xe0\xa4\x88'
p2831
sS'chunktype'
p2832
S'child:VGF'
p2833
sS'af'
p2834
S'\xe0\xa4\x9c\xe0\xa4\xbe,v,f,sg,any,,\xe0\xa4\xa4\xe0\xa4\xbe,wA'
p2835
ssbsg1450
I00
sg1453
I00
sg1464
Nsg1451
Nsg172
I3
sg158
I2
sg1810
Nsg1462
Nsg1811
S'VAUX'
p2836
sg247
(issf_api
FeatureSet
p2837
(dp2838
g250
(dp2839
S'posn'
p2840
S'50'
p2841
sS'name'
p2842
S'\xe0\xa4\x9c\xe0\xa4\xbe\xe0\xa4\xa4\xe0\xa5\x80'
p2843
sS'af'
p2844
S'\xe0\xa4\x9c\xe0\xa4\xbe,v,f,sg,any,,\xe0\xa4\xa4\xe0\xa4\xbe,wA'
p2845
ssbsg1472
I00
sba(issf_api
Word
p2846
(dp2847
g1789
I00
sg1790
V\u0939\u0948
p2848
sg1792
(issf_api
FeatureSet
p2849
(dp2850
g250
(dp2851
S'posn'
p2852
S'60'
p2853
sS'name'
p2854
S'\xe0\xa4\xb9\xe0\xa5\x88'
p2855
sS'drel'
p2856
S'lwg__vaux:\xe0\xa4\xac\xe0\xa4\xa4\xe0\xa4\xbe\xe0\xa4\x88'
p2857
sS'chunktype'
p2858
S'child:VGF'
p2859
sS'af'
p2860
S'\xe0\xa4\xb9\xe0\xa5\x88,v,any,sg,3,,\xe0\xa4\xb9\xe0\xa5\x88,hE'
p2861
ssbsg1450
I00
sg1453
I00
sg1464
Nsg1451
Nsg172
I3
sg158
I2
sg1810
Nsg1462
Nsg1811
S'VAUX'
p2862
sg247
(issf_api
FeatureSet
p2863
(dp2864
g250
(dp2865
S'posn'
p2866
S'60'
p2867
sS'name'
p2868
S'\xe0\xa4\xb9\xe0\xa5\x88'
p2869
sS'af'
p2870
S'\xe0\xa4\xb9\xe0\xa5\x88,v,any,sg,3,,\xe0\xa4\xb9\xe0\xa5\x88,hE'
p2871
ssbsg1472
I00
sba(issf_api
Word
p2872
(dp2873
g1789
I00
sg1790
V\u0964
sg1792
(issf_api
FeatureSet
p2874
(dp2875
g250
(dp2876
S'posn'
p2877
S'70'
p2878
sS'name'
p2879
S'\xe0\xa5\xa4'
p2880
sS'af'
p2881
S'\xe0\xa5\xa4,punc,,,,,,'
p2882
sS'chunkid'
p2883
S'BLK'
p2884
sS'drel'
p2885
S'rsym:\xe0\xa4\xac\xe0\xa4\xa4\xe0\xa4\xbe\xe0\xa4\x88'
p2886
sS'chunktype'
p2887
S'head:BLK'
p2888
ssbsg1450
I00
sg1453
I00
sg1464
Nsg1451
Nsg172
I4
sg158
I2
sg1810
Nsg1462
Nsg1811
S'SYM'
p2889
sg247
(issf_api
FeatureSet
p2890
(dp2891
g250
(dp2892
S'posn'
p2893
S'70'
p2894
sS'name'
p2895
S'\xe0\xa5\xa4'
p2896
sS'af'
p2897
S'\xe0\xa5\xa4,punc,,,,,,'
p2898
ssbsg1472
I00
sba(issf_api
Word
p2899
(dp2900
g1789
I00
sg1790
V\u0938\u0930\u0915\u093e\u0930\u0940
p2901
sg1792
(issf_api
FeatureSet
p2902
(dp2903
g250
(dp2904
S'posn'
p2905
S'10'
p2906
sS'name'
p2907
S'\xe0\xa4\xb8\xe0\xa4\xb0\xe0\xa4\x95\xe0\xa4\xbe\xe0\xa4\xb0\xe0\xa5\x80'
p2908
sS'drel'
p2909
S'nmod__adj:\xe0\xa4\x86\xe0\xa4\x82\xe0\xa4\x95\xe0\xa5\x9c\xe0\xa5\x8b\xe0\xa4\x82'
p2910
sS'chunktype'
p2911
S'child:NP'
p2912
sS'af'
p2913
S'\xe0\xa4\xb8\xe0\xa4\xb0\xe0\xa4\x95\xe0\xa4\xbe\xe0\xa4\xb0\xe0\xa5\x80,adj,any,any,,o,,'
p2914
ssbsg1450
I00
sg1453
I00
sg1464
Nsg1451
Nsg172
I0
sg158
I3
sg1810
Nsg1462
Nsg1811
S'JJ'
p2915
sg247
(issf_api
FeatureSet
p2916
(dp2917
g250
(dp2918
S'posn'
p2919
S'10'
p2920
sS'name'
p2921
S'\xe0\xa4\xb8\xe0\xa4\xb0\xe0\xa4\x95\xe0\xa4\xbe\xe0\xa4\xb0\xe0\xa5\x80'
p2922
sS'af'
p2923
S'\xe0\xa4\xb8\xe0\xa4\xb0\xe0\xa4\x95\xe0\xa4\xbe\xe0\xa4\xb0\xe0\xa5\x80,adj,any,any,,o,,'
p2924
ssbsg1472
I00
sba(issf_api
Word
p2925
(dp2926
g1789
I00
sg1790
V\u0906\u0902\u0915\u095c\u094b\u0902
p2927
sg1792
(issf_api
FeatureSet
p2928
(dp2929
g250
(dp2930
S'posn'
p2931
S'20'
p2932
sS'name'
p2933
S'\xe0\xa4\x86\xe0\xa4\x82\xe0\xa4\x95\xe0\xa5\x9c\xe0\xa5\x8b\xe0\xa4\x82'
p2934
sS'af'
p2935
S'\xe0\xa4\x86\xe0\xa4\x82\xe0\xa4\x95\xe0\xa5\x9c\xe0\xa4\xbe,n,m,pl,3,o,0_\xe0\xa4\x95\xe0\xa5\x87_\xe0\xa4\x85\xe0\xa4\xa8\xe0\xa5\x81\xe0\xa4\xb8\xe0\xa4\xbe\xe0\xa4\xb0,0'
p2936
sS'chunkid'
p2937
S'NP'
p2938
sS'drel'
p2939
S'k7a:\xe0\xa4\xb9\xe0\xa5\x88'
p2940
sS'vpos'
p2941
S'vib_3_4'
p2942
sS'chunktype'
p2943
S'head:NP'
p2944
ssbsg1450
I00
sg1453
I00
sg1464
Nsg1451
Nsg172
I0
sg158
I3
sg1810
Nsg1462
Nsg1811
S'NN'
p2945
sg247
(issf_api
FeatureSet
p2946
(dp2947
g250
(dp2948
S'posn'
p2949
S'20'
p2950
sS'name'
p2951
S'\xe0\xa4\x86\xe0\xa4\x82\xe0\xa4\x95\xe0\xa5\x9c\xe0\xa5\x8b\xe0\xa4\x82'
p2952
sS'af'
p2953
S'\xe0\xa4\x86\xe0\xa4\x82\xe0\xa4\x95\xe0\xa5\x9c\xe0\xa4\xbe,n,m,pl,3,o,0,0'
p2954
ssbsg1472
I00
sba(issf_api
Word
p2955
(dp2956
g1789
I00
sg1790
V\u0915\u0947
p2957
sg1792
(issf_api
FeatureSet
p2958
(dp2959
g250
(dp2960
S'posn'
p2961
S'30'
p2962
sS'name'
p2963
S'\xe0\xa4\x95\xe0\xa5\x87'
p2964
sS'drel'
p2965
S'lwg__psp:\xe0\xa4\x86\xe0\xa4\x82\xe0\xa4\x95\xe0\xa5\x9c\xe0\xa5\x8b\xe0\xa4\x82'
p2966
sS'chunktype'
p2967
S'child:NP'
p2968
sS'af'
p2969
S'\xe0\xa4\x95\xe0\xa5\x87,psp,,,,,,'
p2970
ssbsg1450
I00
sg1453
I00
sg1464
Nsg1451
Nsg172
I0
sg158
I3
sg1810
Nsg1462
Nsg1811
S'PSP'
p2971
sg247
(issf_api
FeatureSet
p2972
(dp2973
g250
(dp2974
S'posn'
p2975
S'30'
p2976
sS'name'
p2977
S'\xe0\xa4\x95\xe0\xa5\x87'
p2978
sS'af'
p2979
S'\xe0\xa4\x95\xe0\xa5\x87,psp,,,,,,'
p2980
ssbsg1472
I00
sba(issf_api
Word
p2981
(dp2982
g1789
I00
sg1790
V\u0905\u0928\u0941\u0938\u093e\u0930
p2983
sg1792
(issf_api
FeatureSet
p2984
(dp2985
g250
(dp2986
S'posn'
p2987
S'40'
p2988
sS'name'
p2989
S'\xe0\xa4\x85\xe0\xa4\xa8\xe0\xa5\x81\xe0\xa4\xb8\xe0\xa4\xbe\xe0\xa4\xb0'
p2990
sS'drel'
p2991
S'lwg__psp:\xe0\xa4\x86\xe0\xa4\x82\xe0\xa4\x95\xe0\xa5\x9c\xe0\xa5\x8b\xe0\xa4\x82'
p2992
sS'chunktype'
p2993
S'child:NP'
p2994
sS'af'
p2995
S'\xe0\xa4\x85\xe0\xa4\xa8\xe0\xa5\x81\xe0\xa4\xb8\xe0\xa4\xbe\xe0\xa4\xb0,psp,,,,,,'
p2996
ssbsg1450
I00
sg1453
I00
sg1464
Nsg1451
Nsg172
I0
sg158
I3
sg1810
Nsg1462
Nsg1811
S'PSP'
p2997
sg247
(issf_api
FeatureSet
p2998
(dp2999
g250
(dp3000
S'posn'
p3001
S'40'
p3002
sS'name'
p3003
S'\xe0\xa4\x85\xe0\xa4\xa8\xe0\xa5\x81\xe0\xa4\xb8\xe0\xa4\xbe\xe0\xa4\xb0'
p3004
sS'af'
p3005
S'\xe0\xa4\x85\xe0\xa4\xa8\xe0\xa5\x81\xe0\xa4\xb8\xe0\xa4\xbe\xe0\xa4\xb0,psp,,,,,,'
p3006
ssbsg1472
I00
sba(issf_api
Word
p3007
(dp3008
g1789
I00
sg1790
V\u0907\u0928\u0915\u093e
p3009
sg1792
(issf_api
FeatureSet
p3010
(dp3011
g250
(dp3012
S'posn'
p3013
S'50'
p3014
sS'name'
p3015
S'\xe0\xa4\x87\xe0\xa4\xa8\xe0\xa4\x95\xe0\xa4\xbe'
p3016
sS'af'
p3017
S'\xe0\xa4\xaf\xe0\xa4\xb9,pn,m,pl,3,o,\xe0\xa4\x95\xe0\xa4\xbe,kA'
p3018
sS'chunkid'
p3019
S'NP2'
p3020
sS'drel'
p3021
S'r6:\xe0\xa4\x85\xe0\xa4\xb8\xe0\xa5\x8d\xe0\xa4\xa4\xe0\xa4\xbf\xe0\xa4\xa4\xe0\xa5\x8d\xe0\xa4\xb5'
p3022
sS'chunktype'
p3023
S'head:NP2'
p3024
ssbsg1450
I00
sg1453
I00
sg1464
Nsg1451
Nsg172
I1
sg158
I3
sg1810
Nsg1462
Nsg1811
S'PRP'
p3025
sg247
(issf_api
FeatureSet
p3026
(dp3027
g250
(dp3028
S'posn'
p3029
S'50'
p3030
sS'name'
p3031
S'\xe0\xa4\x87\xe0\xa4\xa8\xe0\xa4\x95\xe0\xa4\xbe'
p3032
sS'af'
p3033
S'\xe0\xa4\xaf\xe0\xa4\xb9,pn,m,pl,3,o,\xe0\xa4\x95\xe0\xa4\xbe,kA'
p3034
ssbsg1472
I00
sba(issf_api
Word
p3035
(dp3036
g1789
I00
sg1790
V\u0905\u0938\u094d\u0924\u093f\u0924\u094d\u0935
p3037
sg1792
(issf_api
FeatureSet
p3038
(dp3039
g250
(dp3040
S'posn'
p3041
S'60'
p3042
sS'name'
p3043
S'\xe0\xa4\x85\xe0\xa4\xb8\xe0\xa5\x8d\xe0\xa4\xa4\xe0\xa4\xbf\xe0\xa4\xa4\xe0\xa5\x8d\xe0\xa4\xb5'
p3044
sS'af'
p3045
S'\xe0\xa4\x85\xe0\xa4\xb8\xe0\xa5\x8d\xe0\xa4\xa4\xe0\xa4\xbf\xe0\xa4\xa4\xe0\xa5\x8d\xe0\xa4\xb5,n,m,sg,3,d,0,0'
p3046
sS'chunkid'
p3047
S'NP3'
p3048
sS'drel'
p3049
S'k1:\xe0\xa4\xb9\xe0\xa5\x88'
p3050
sS'chunktype'
p3051
S'head:NP3'
p3052
ssbsg1450
I00
sg1453
I00
sg1464
Nsg1451
Nsg172
I2
sg158
I3
sg1810
Nsg1462
Nsg1811
S'NN'
p3053
sg247
(issf_api
FeatureSet
p3054
(dp3055
g250
(dp3056
S'posn'
p3057
S'60'
p3058
sS'name'
p3059
S'\xe0\xa4\x85\xe0\xa4\xb8\xe0\xa5\x8d\xe0\xa4\xa4\xe0\xa4\xbf\xe0\xa4\xa4\xe0\xa5\x8d\xe0\xa4\xb5'
p3060
sS'af'
p3061
S'\xe0\xa4\x85\xe0\xa4\xb8\xe0\xa5\x8d\xe0\xa4\xa4\xe0\xa4\xbf\xe0\xa4\xa4\xe0\xa5\x8d\xe0\xa4\xb5,n,m,sg,3,d,0,0'
p3062
ssbsg1472
I00
sba(issf_api
Word
p3063
(dp3064
g1789
I00
sg1790
V\u0916\u0924\u0930\u0947
p3065
sg1792
(issf_api
FeatureSet
p3066
(dp3067
g250
(dp3068
S'posn'
p3069
S'70'
p3070
sS'name'
p3071
S'\xe0\xa4\x96\xe0\xa4\xa4\xe0\xa4\xb0\xe0\xa5\x87'
p3072
sS'af'
p3073
S'\xe0\xa4\x96\xe0\xa4\xa4\xe0\xa4\xb0\xe0\xa4\xbe,n,m,sg,3,o,0_\xe0\xa4\xae\xe0\xa5\x87\xe0\xa4\x82,0'
p3074
sS'chunkid'
p3075
S'NP4'
p3076
sS'drel'
p3077
S'k7:\xe0\xa4\xb9\xe0\xa5\x88'
p3078
sS'vpos'
p3079
S'vib_2'
p3080
sS'chunktype'
p3081
S'head:NP4'
p3082
ssbsg1450
I00
sg1453
I00
sg1464
Nsg1451
Nsg172
I3
sg158
I3
sg1810
Nsg1462
Nsg1811
S'NN'
p3083
sg247
(issf_api
FeatureSet
p3084
(dp3085
g250
(dp3086
S'posn'
p3087
S'70'
p3088
sS'name'
p3089
S'\xe0\xa4\x96\xe0\xa4\xa4\xe0\xa4\xb0\xe0\xa5\x87'
p3090
sS'af'
p3091
S'\xe0\xa4\x96\xe0\xa4\xa4\xe0\xa4\xb0\xe0\xa4\xbe,n,m,sg,3,o,0,0'
p3092
ssbsg1472
I00
sba(issf_api
Word
p3093
(dp3094
g1789
I00
sg1790
V\u092e\u0947\u0902
p3095
sg1792
(issf_api
FeatureSet
p3096
(dp3097
g250
(dp3098
S'posn'
p3099
S'80'
p3100
sS'name'
p3101
S'\xe0\xa4\xae\xe0\xa5\x87\xe0\xa4\x82'
p3102
sS'drel'
p3103
S'lwg__psp:\xe0\xa4\x96\xe0\xa4\xa4\xe0\xa4\xb0\xe0\xa5\x87'
p3104
sS'chunktype'
p3105
S'child:NP4'
p3106
sS'af'
p3107
S'\xe0\xa4\xae\xe0\xa5\x87\xe0\xa4\x82,psp,,,,,,'
p3108
ssbsg1450
I00
sg1453
I00
sg1464
Nsg1451
Nsg172
I3
sg158
I3
sg1810
Nsg1462
Nsg1811
S'PSP'
p3109
sg247
(issf_api
FeatureSet
p3110
(dp3111
g250
(dp3112
S'posn'
p3113
S'80'
p3114
sS'name'
p3115
S'\xe0\xa4\xae\xe0\xa5\x87\xe0\xa4\x82'
p3116
sS'af'
p3117
S'\xe0\xa4\xae\xe0\xa5\x87\xe0\xa4\x82,psp,,,,,,'
p3118
ssbsg1472
I00
sba(issf_api
Word
p3119
(dp3120
g1789
I00
sg1790
V\u0939\u0948
p3121
sg1792
(issf_api
FeatureSet
p3122
(dp3123
g250
(dp3124
S'posn'
p3125
S'90'
p3126
sS'name'
p3127
S'\xe0\xa4\xb9\xe0\xa5\x88'
p3128
sS'af'
p3129
S'\xe0\xa4\xb9\xe0\xa5\x88,v,any,sg,3,,\xe0\xa4\xb9\xe0\xa5\x88,hE'
p3130
sS'chunkid'
p3131
S'VGF'
p3132
sS'chunktype'
p3133
S'head:VGF'
p3134
sS'voicetype'
p3135
S'active'
p3136
sS'stype'
p3137
S'declarative'
p3138
ssbsg1450
I00
sg1453
I00
sg1464
Nsg1451
Nsg172
I4
sg158
I3
sg1810
Nsg1462
Nsg1811
S'VM'
p3139
sg247
(issf_api
FeatureSet
p3140
(dp3141
g250
(dp3142
S'posn'
p3143
S'90'
p3144
sS'name'
p3145
S'\xe0\xa4\xb9\xe0\xa5\x88'
p3146
sS'af'
p3147
S'\xe0\xa4\xb9\xe0\xa5\x88,v,any,sg,3,,\xe0\xa4\xb9\xe0\xa5\x88,hE'
p3148
ssbsg1472
I00
sba(issf_api
Word
p3149
(dp3150
g1789
I00
sg1790
V\u0964
sg1792
(issf_api
FeatureSet
p3151
(dp3152
g250
(dp3153
S'posn'
p3154
S'100'
p3155
sS'name'
p3156
S'\xe0\xa5\xa4'
p3157
sS'af'
p3158
S'\xe0\xa5\xa4,punc,,,,,,'
p3159
sS'chunkid'
p3160
S'BLK'
p3161
sS'drel'
p3162
S'rsym:\xe0\xa4\xb9\xe0\xa5\x88'
p3163
sS'chunktype'
p3164
S'head:BLK'
p3165
ssbsg1450
I00
sg1453
I00
sg1464
Nsg1451
Nsg172
I5
sg158
I3
sg1810
Nsg1462
Nsg1811
S'SYM'
p3166
sg247
(issf_api
FeatureSet
p3167
(dp3168
g250
(dp3169
S'posn'
p3170
S'100'
p3171
sS'name'
p3172
S'\xe0\xa5\xa4'
p3173
sS'af'
p3174
S'\xe0\xa5\xa4,punc,,,,,,'
p3175
ssbsg1472
I00
sba(issf_api
Word
p3176
(dp3177
g1789
I00
sg1790
V\u092f\u0947
p3178
sg1792
(issf_api
FeatureSet
p3179
(dp3180
g250
(dp3181
S'posn'
p3182
S'10'
p3183
sS'name'
p3184
S'\xe0\xa4\xaf\xe0\xa5\x87'
p3185
sS'drel'
p3186
S'nmod__adj:\xe0\xa4\x86\xe0\xa4\xa6\xe0\xa4\xbf\xe0\xa4\xb5\xe0\xa4\xbe\xe0\xa4\xb8\xe0\xa5\x80'
p3187
sS'chunktype'
p3188
S'child:NP'
p3189
sS'af'
p3190
S'\xe0\xa4\xaf\xe0\xa4\xb9,pn,any,pl,3,d,,'
p3191
ssbsg1450
I00
sg1453
I00
sg1464
Nsg1451
Nsg172
I0
sg158
I4
sg1810
Nsg1462
Nsg1811
S'DEM'
p3192
sg247
(issf_api
FeatureSet
p3193
(dp3194
g250
(dp3195
S'posn'
p3196
S'10'
p3197
sS'name'
p3198
S'\xe0\xa4\xaf\xe0\xa5\x87'
p3199
sS'af'
p3200
S'\xe0\xa4\xaf\xe0\xa4\xb9,pn,any,pl,3,d,,'
p3201
ssbsg1472
I00
sba(issf_api
Word
p3202
(dp3203
g1789
I00
sg1790
V\u0906\u0926\u093f\u0935\u093e\u0938\u0940
p3204
sg1792
(issf_api
FeatureSet
p3205
(dp3206
g250
(dp3207
S'posn'
p3208
S'20'
p3209
sS'name'
p3210
S'\xe0\xa4\x86\xe0\xa4\xa6\xe0\xa4\xbf\xe0\xa4\xb5\xe0\xa4\xbe\xe0\xa4\xb8\xe0\xa5\x80'
p3211
sS'af'
p3212
S'\xe0\xa4\x86\xe0\xa4\xa6\xe0\xa4\xbf\xe0\xa4\xb5\xe0\xa4\xbe\xe0\xa4\xb8\xe0\xa5\x80,n,m,pl,3,d,0,0'
p3213
sS'chunkid'
p3214
S'NP'
p3215
sS'drel'
p3216
S'k1:\xe0\xa4\xb0\xe0\xa4\xb9\xe0\xa4\xa4\xe0\xa5\x87'
p3217
sS'chunktype'
p3218
S'head:NP'
p3219
ssbsg1450
I00
sg1453
I00
sg1464
Nsg1451
Nsg172
I0
sg158
I4
sg1810
Nsg1462
Nsg1811
S'NN'
p3220
sg247
(issf_api
FeatureSet
p3221
(dp3222
g250
(dp3223
S'posn'
p3224
S'20'
p3225
sS'name'
p3226
S'\xe0\xa4\x86\xe0\xa4\xa6\xe0\xa4\xbf\xe0\xa4\xb5\xe0\xa4\xbe\xe0\xa4\xb8\xe0\xa5\x80'
p3227
sS'af'
p3228
S'\xe0\xa4\x86\xe0\xa4\xa6\xe0\xa4\xbf\xe0\xa4\xb5\xe0\xa4\xbe\xe0\xa4\xb8\xe0\xa5\x80,n,m,pl,3,d,0,0'
p3229
ssbsg1472
I00
sba(issf_api
Word
p3230
(dp3231
g1789
I00
sg1790
V\u092e\u0939\u093e\u0930\u093e\u0937\u094d\u091f\u094d\u0930
p3232
sg1792
(issf_api
FeatureSet
p3233
(dp3234
g250
(dp3235
S'posn'
p3236
S'30'
p3237
sS'name'
p3238
S'\xe0\xa4\xae\xe0\xa4\xb9\xe0\xa4\xbe\xe0\xa4\xb0\xe0\xa4\xbe\xe0\xa4\xb7\xe0\xa5\x8d\xe0\xa4\x9f\xe0\xa5\x8d\xe0\xa4\xb0'
p3239
sS'af'
p3240
S'\xe0\xa4\xae\xe0\xa4\xb9\xe0\xa4\xbe\xe0\xa4\xb0\xe0\xa4\xbe\xe0\xa4\xb7\xe0\xa5\x8d\xe0\xa4\x9f\xe0\xa5\x8d\xe0\xa4\xb0,n,m,sg,3,o,0_\xe0\xa4\xb8\xe0\xa5\x87,0'
p3241
sS'chunkid'
p3242
S'NP2'
p3243
sS'drel'
p3244
S'k2:\xe0\xa4\xb8\xe0\xa4\x9f\xe0\xa5\x87'
p3245
sS'vpos'
p3246
S'vib_2'
p3247
sS'chunktype'
p3248
S'head:NP2'
p3249
ssbsg1450
I00
sg1453
I00
sg1464
Nsg1451
Nsg172
I1
sg158
I4
sg1810
Nsg1462
Nsg1811
S'NNP'
p3250
sg247
(issf_api
FeatureSet
p3251
(dp3252
g250
(dp3253
S'posn'
p3254
S'30'
p3255
sS'name'
p3256
S'\xe0\xa4\xae\xe0\xa4\xb9\xe0\xa4\xbe\xe0\xa4\xb0\xe0\xa4\xbe\xe0\xa4\xb7\xe0\xa5\x8d\xe0\xa4\x9f\xe0\xa5\x8d\xe0\xa4\xb0'
p3257
sS'af'
p3258
S'\xe0\xa4\xae\xe0\xa4\xb9\xe0\xa4\xbe\xe0\xa4\xb0\xe0\xa4\xbe\xe0\xa4\xb7\xe0\xa5\x8d\xe0\xa4\x9f\xe0\xa5\x8d\xe0\xa4\xb0,n,m,sg,3,o,0,0'
p3259
ssbsg1472
I00
sba(issf_api
Word
p3260
(dp3261
g1789
I00
sg1790
V\u0938\u0947
p3262
sg1792
(issf_api
FeatureSet
p3263
(dp3264
g250
(dp3265
S'posn'
p3266
S'40'
p3267
sS'name'
p3268
S'\xe0\xa4\xb8\xe0\xa5\x87'
p3269
sS'drel'
p3270
S'lwg__psp:\xe0\xa4\xae\xe0\xa4\xb9\xe0\xa4\xbe\xe0\xa4\xb0\xe0\xa4\xbe\xe0\xa4\xb7\xe0\xa5\x8d\xe0\xa4\x9f\xe0\xa5\x8d\xe0\xa4\xb0'
p3271
sS'chunktype'
p3272
S'child:NP2'
p3273
sS'af'
p3274
S'\xe0\xa4\xb8\xe0\xa5\x87,psp,,,,,,'
p3275
ssbsg1450
I00
sg1453
I00
sg1464
Nsg1451
Nsg172
I1
sg158
I4
sg1810
Nsg1462
Nsg1811
S'PSP'
p3276
sg247
(issf_api
FeatureSet
p3277
(dp3278
g250
(dp3279
S'posn'
p3280
S'40'
p3281
sS'name'
p3282
S'\xe0\xa4\xb8\xe0\xa5\x87'
p3283
sS'af'
p3284
S'\xe0\xa4\xb8\xe0\xa5\x87,psp,,,,,,'
p3285
ssbsg1472
I00
sba(issf_api
Word
p3286
(dp3287
g1789
I00
sg1790
V\u0938\u091f\u0947
p3288
sg1792
(issf_api
FeatureSet
p3289
(dp3290
g250
(dp3291
S'posn'
p3292
S'50'
p3293
sS'name'
p3294
S'\xe0\xa4\xb8\xe0\xa4\x9f\xe0\xa5\x87'
p3295
sS'af'
p3296
S'\xe0\xa4\xb8\xe0\xa4\x9f,v,m,sg,3,,\xe0\xa4\xaf\xe0\xa4\xbe,yA'
p3297
sS'chunkid'
p3298
S'VGNF'
p3299
sS'drel'
p3300
S'nmod__k1inv:\xe0\xa4\x9c\xe0\xa4\x82\xe0\xa4\x97\xe0\xa4\xb2\xe0\xa5\x8b\xe0\xa4\x82'
p3301
sS'chunktype'
p3302
S'head:VGNF'
p3303
ssbsg1450
I00
sg1453
I00
sg1464
Nsg1451
Nsg172
I2
sg158
I4
sg1810
Nsg1462
Nsg1811
S'VM'
p3304
sg247
(issf_api
FeatureSet
p3305
(dp3306
g250
(dp3307
S'posn'
p3308
S'50'
p3309
sS'name'
p3310
S'\xe0\xa4\xb8\xe0\xa4\x9f\xe0\xa5\x87'
p3311
sS'af'
p3312
S'\xe0\xa4\xb8\xe0\xa4\x9f,v,m,sg,3,,\xe0\xa4\xaf\xe0\xa4\xbe,yA'
p3313
ssbsg1472
I00
sba(issf_api
Word
p3314
(dp3315
g1789
I00
sg1790
V\u091b\u0924\u094d\u0924\u0940\u0938\u0917\u095d
p3316
sg1792
(issf_api
FeatureSet
p3317
(dp3318
g250
(dp3319
S'posn'
p3320
S'60'
p3321
sS'name'
p3322
S'\xe0\xa4\x9b\xe0\xa4\xa4\xe0\xa5\x8d\xe0\xa4\xa4\xe0\xa5\x80\xe0\xa4\xb8\xe0\xa4\x97\xe0\xa5\x9d'
p3323
sS'af'
p3324
S'\xe0\xa4\x9b\xe0\xa4\xa4\xe0\xa5\x8d\xe0\xa4\xa4\xe0\xa5\x80\xe0\xa4\xb8\xe0\xa4\x97\xe0\xa5\x9d,n,m,sg,3,o,0_\xe0\xa4\x95\xe0\xa4\xbe,0'
p3325
sS'chunkid'
p3326
S'NP3'
p3327
sS'drel'
p3328
S'r6:\xe0\xa4\x9c\xe0\xa4\x82\xe0\xa4\x97\xe0\xa4\xb2\xe0\xa5\x8b\xe0\xa4\x82'
p3329
sS'vpos'
p3330
S'vib_2'
p3331
sS'chunktype'
p3332
S'head:NP3'
p3333
ssbsg1450
I00
sg1453
I00
sg1464
Nsg1451
Nsg172
I3
sg158
I4
sg1810
Nsg1462
Nsg1811
S'NNP'
p3334
sg247
(issf_api
FeatureSet
p3335
(dp3336
g250
(dp3337
S'posn'
p3338
S'60'
p3339
sS'name'
p3340
S'\xe0\xa4\x9b\xe0\xa4\xa4\xe0\xa5\x8d\xe0\xa4\xa4\xe0\xa5\x80\xe0\xa4\xb8\xe0\xa4\x97\xe0\xa5\x9d'
p3341
sS'af'
p3342
S'\xe0\xa4\x9b\xe0\xa4\xa4\xe0\xa5\x8d\xe0\xa4\xa4\xe0\xa5\x80\xe0\xa4\xb8\xe0\xa4\x97\xe0\xa5\x9d,n,m,sg,3,o,0,0'
p3343
ssbsg1472
I00
sba(issf_api
Word
p3344
(dp3345
g1789
I00
sg1790
V\u0915\u0947
p3346
sg1792
(issf_api
FeatureSet
p3347
(dp3348
g250
(dp3349
S'posn'
p3350
S'70'
p3351
sS'name'
p3352
S'\xe0\xa4\x95\xe0\xa5\x87'
p3353
sS'drel'
p3354
S'lwg__psp:\xe0\xa4\x9b\xe0\xa4\xa4\xe0\xa5\x8d\xe0\xa4\xa4\xe0\xa5\x80\xe0\xa4\xb8\xe0\xa4\x97\xe0\xa5\x9d'
p3355
sS'chunktype'
p3356
S'child:NP3'
p3357
sS'af'
p3358
S'\xe0\xa4\x95\xe0\xa4\xbe,psp,m,pl,,o,,'
p3359
ssbsg1450
I00
sg1453
I00
sg1464
Nsg1451
Nsg172
I3
sg158
I4
sg1810
Nsg1462
Nsg1811
S'PSP'
p3360
sg247
(issf_api
FeatureSet
p3361
(dp3362
g250
(dp3363
S'posn'
p3364
S'70'
p3365
sS'name'
p3366
S'\xe0\xa4\x95\xe0\xa5\x87'
p3367
sS'af'
p3368
S'\xe0\xa4\x95\xe0\xa4\xbe,psp,m,pl,,o,,'
p3369
ssbsg1472
I00
sba(issf_api
Word
p3370
(dp3371
g1789
I00
sg1790
V\u091c\u0902\u0917\u0932\u094b\u0902
p3372
sg1792
(issf_api
FeatureSet
p3373
(dp3374
g250
(dp3375
S'posn'
p3376
S'80'
p3377
sS'name'
p3378
S'\xe0\xa4\x9c\xe0\xa4\x82\xe0\xa4\x97\xe0\xa4\xb2\xe0\xa5\x8b\xe0\xa4\x82'
p3379
sS'af'
p3380
S'\xe0\xa4\x9c\xe0\xa4\x82\xe0\xa4\x97\xe0\xa4\xb2,n,m,pl,3,o,0_\xe0\xa4\xae\xe0\xa5\x87\xe0\xa4\x82,0'
p3381
sS'chunkid'
p3382
S'NP4'
p3383
sS'drel'
p3384
S'k7p:\xe0\xa4\xb0\xe0\xa4\xb9\xe0\xa4\xa4\xe0\xa5\x87'
p3385
sS'vpos'
p3386
S'vib_2'
p3387
sS'chunktype'
p3388
S'head:NP4'
p3389
ssbsg1450
I00
sg1453
I00
sg1464
Nsg1451
Nsg172
I4
sg158
I4
sg1810
Nsg1462
Nsg1811
S'NN'
p3390
sg247
(issf_api
FeatureSet
p3391
(dp3392
g250
(dp3393
S'posn'
p3394
S'80'
p3395
sS'name'
p3396
S'\xe0\xa4\x9c\xe0\xa4\x82\xe0\xa4\x97\xe0\xa4\xb2\xe0\xa5\x8b\xe0\xa4\x82'
p3397
sS'af'
p3398
S'\xe0\xa4\x9c\xe0\xa4\x82\xe0\xa4\x97\xe0\xa4\xb2,n,m,pl,3,o,0,0'
p3399
ssbsg1472
I00
sba(issf_api
Word
p3400
(dp3401
g1789
I00
sg1790
V\u092e\u0947\u0902
p3402
sg1792
(issf_api
FeatureSet
p3403
(dp3404
g250
(dp3405
S'posn'
p3406
S'90'
p3407
sS'name'
p3408
S'\xe0\xa4\xae\xe0\xa5\x87\xe0\xa4\x82'
p3409
sS'drel'
p3410
S'lwg__psp:\xe0\xa4\x9c\xe0\xa4\x82\xe0\xa4\x97\xe0\xa4\xb2\xe0\xa5\x8b\xe0\xa4\x82'
p3411
sS'chunktype'
p3412
S'child:NP4'
p3413
sS'af'
p3414
S'\xe0\xa4\xae\xe0\xa5\x87\xe0\xa4\x82,psp,,,,,,'
p3415
ssbsg1450
I00
sg1453
I00
sg1464
Nsg1451
Nsg172
I4
sg158
I4
sg1810
Nsg1462
Nsg1811
S'PSP'
p3416
sg247
(issf_api
FeatureSet
p3417
(dp3418
g250
(dp3419
S'posn'
p3420
S'90'
p3421
sS'name'
p3422
S'\xe0\xa4\xae\xe0\xa5\x87\xe0\xa4\x82'
p3423
sS'af'
p3424
S'\xe0\xa4\xae\xe0\xa5\x87\xe0\xa4\x82,psp,,,,,,'
p3425
ssbsg1472
I00
sba(issf_api
Word
p3426
(dp3427
g1789
I00
sg1790
V\u0930\u0939\u0924\u0947
p3428
sg1792
(issf_api
FeatureSet
p3429
(dp3430
g250
(dp3431
S'posn'
p3432
S'100'
p3433
sS'name'
p3434
S'\xe0\xa4\xb0\xe0\xa4\xb9\xe0\xa4\xa4\xe0\xa5\x87'
p3435
sS'af'
p3436
S'\xe0\xa4\xb0\xe0\xa4\xb9,v,m,pl,3,,\xe0\xa4\xa4\xe0\xa4\xbe_\xe0\xa4\xb9\xe0\xa5\x88,wA'
p3437
sS'chunkid'
p3438
S'VGF'
p3439
sS'chunktype'
p3440
S'head:VGF'
p3441
sS'voicetype'
p3442
S'active'
p3443
sS'vpos'
p3444
S'tam_2'
p3445
sS'stype'
p3446
S'declarative'
p3447
ssbsg1450
I00
sg1453
I00
sg1464
Nsg1451
Nsg172
I5
sg158
I4
sg1810
Nsg1462
Nsg1811
S'VM'
p3448
sg247
(issf_api
FeatureSet
p3449
(dp3450
g250
(dp3451
S'posn'
p3452
S'100'
p3453
sS'name'
p3454
S'\xe0\xa4\xb0\xe0\xa4\xb9\xe0\xa4\xa4\xe0\xa5\x87'
p3455
sS'af'
p3456
S'\xe0\xa4\xb0\xe0\xa4\xb9,v,m,pl,any,,\xe0\xa4\xa4\xe0\xa4\xbe,wA'
p3457
ssbsg1472
I00
sba(issf_api
Word
p3458
(dp3459
g1789
I00
sg1790
V\u0939\u0948\u0902
p3460
sg1792
(issf_api
FeatureSet
p3461
(dp3462
g250
(dp3463
S'posn'
p3464
S'110'
p3465
sS'name'
p3466
S'\xe0\xa4\xb9\xe0\xa5\x88\xe0\xa4\x82'
p3467
sS'drel'
p3468
S'lwg__vaux:\xe0\xa4\xb0\xe0\xa4\xb9\xe0\xa4\xa4\xe0\xa5\x87'
p3469
sS'chunktype'
p3470
S'child:VGF'
p3471
sS'af'
p3472
S'\xe0\xa4\xb9\xe0\xa5\x88,v,any,pl,3,,\xe0\xa4\xb9\xe0\xa5\x88,hE'
p3473
ssbsg1450
I00
sg1453
I00
sg1464
Nsg1451
Nsg172
I5
sg158
I4
sg1810
Nsg1462
Nsg1811
S'VAUX'
p3474
sg247
(issf_api
FeatureSet
p3475
(dp3476
g250
(dp3477
S'posn'
p3478
S'110'
p3479
sS'name'
p3480
S'\xe0\xa4\xb9\xe0\xa5\x88\xe0\xa4\x82'
p3481
sS'af'
p3482
S'\xe0\xa4\xb9\xe0\xa5\x88,v,any,pl,3,,\xe0\xa4\xb9\xe0\xa5\x88,hE'
p3483
ssbsg1472
I00
sba(issf_api
Word
p3484
(dp3485
g1789
I00
sg1790
V\u0964
sg1792
(issf_api
FeatureSet
p3486
(dp3487
g250
(dp3488
S'posn'
p3489
S'120'
p3490
sS'name'
p3491
S'\xe0\xa5\xa4'
p3492
sS'af'
p3493
S'\xe0\xa5\xa4,punc,,,,,,'
p3494
sS'chunkid'
p3495
S'BLK'
p3496
sS'drel'
p3497
S'rsym:\xe0\xa4\xb0\xe0\xa4\xb9\xe0\xa4\xa4\xe0\xa5\x87'
p3498
sS'chunktype'
p3499
S'head:BLK'
p3500
ssbsg1450
I00
sg1453
I00
sg1464
Nsg1451
Nsg172
I6
sg158
I4
sg1810
Nsg1462
Nsg1811
S'SYM'
p3501
sg247
(issf_api
FeatureSet
p3502
(dp3503
g250
(dp3504
S'posn'
p3505
S'120'
p3506
sS'name'
p3507
S'\xe0\xa5\xa4'
p3508
sS'af'
p3509
S'\xe0\xa5\xa4,punc,,,,,,'
p3510
ssbsg1472
I00
sba(issf_api
Word
p3511
(dp3512
g1789
I00
sg1790
V\u0905\u092c\u0941\u091d\u092e\u093e\u0926
p3513
sg1792
(issf_api
FeatureSet
p3514
(dp3515
g250
(dp3516
S'posn'
p3517
S'10'
p3518
sS'name'
p3519
S'\xe0\xa4\x85\xe0\xa4\xac\xe0\xa5\x81\xe0\xa4\x9d\xe0\xa4\xae\xe0\xa4\xbe\xe0\xa4\xa6'
p3520
sS'drel'
p3521
S'pof__cn:\xe0\xa4\xb5\xe0\xa4\xa8'
p3522
sS'chunktype'
p3523
S'child:NP'
p3524
sS'af'
p3525
S'\xe0\xa4\x85\xe0\xa4\xac\xe0\xa5\x81\xe0\xa4\x9d\xe0\xa4\xae\xe0\xa4\xbe\xe0\xa4\xa6,n,m,sg,3,d,0,0'
p3526
ssbsg1450
I00
sg1453
I00
sg1464
Nsg1451
Nsg172
I0
sg158
I5
sg1810
Nsg1462
Nsg1811
S'NNPC'
p3527
sg247
(issf_api
FeatureSet
p3528
(dp3529
g250
(dp3530
S'posn'
p3531
S'10'
p3532
sS'name'
p3533
S'\xe0\xa4\x85\xe0\xa4\xac\xe0\xa5\x81\xe0\xa4\x9d\xe0\xa4\xae\xe0\xa4\xbe\xe0\xa4\xa6'
p3534
sS'af'
p3535
S'\xe0\xa4\x85\xe0\xa4\xac\xe0\xa5\x81\xe0\xa4\x9d\xe0\xa4\xae\xe0\xa4\xbe\xe0\xa4\xa6,n,m,sg,3,d,0,0'
p3536
ssbsg1472
I00
sba(issf_api
Word
p3537
(dp3538
g1789
I00
sg1790
V\u0935\u0928
p3539
sg1792
(issf_api
FeatureSet
p3540
(dp3541
g250
(dp3542
S'posn'
p3543
S'20'
p3544
sS'name'
p3545
S'\xe0\xa4\xb5\xe0\xa4\xa8'
p3546
sS'af'
p3547
S'\xe0\xa4\xb5\xe0\xa4\xa8,n,m,sg,3,d,0,0'
p3548
sS'chunkid'
p3549
S'NP'
p3550
sS'drel'
p3551
S'k1:\xe0\xa4\xab\xe0\xa5\x88\xe0\xa4\xb2\xe0\xa4\xbe'
p3552
sS'chunktype'
p3553
S'head:NP'
p3554
ssbsg1450
I00
sg1453
I00
sg1464
Nsg1451
Nsg172
I0
sg158
I5
sg1810
Nsg1462
Nsg1811
S'NNP'
p3555
sg247
(issf_api
FeatureSet
p3556
(dp3557
g250
(dp3558
S'posn'
p3559
S'20'
p3560
sS'name'
p3561
S'\xe0\xa4\xb5\xe0\xa4\xa8'
p3562
sS'af'
p3563
S'\xe0\xa4\xb5\xe0\xa4\xa8,n,m,sg,3,d,0,0'
p3564
ssbsg1472
I00
sba(issf_api
Word
p3565
(dp3566
g1789
I00
sg1790
V6
sg1792
(issf_api
FeatureSet
p3567
(dp3568
g250
(dp3569
S'posn'
p3570
S'30'
p3571
sS'name'
p3572
S'6'
sS'drel'
p3573
S'mod:\xe0\xa4\x95\xe0\xa4\xbf\xe0\xa4\xb2\xe0\xa5\x8b\xe0\xa4\xae\xe0\xa5\x80\xe0\xa4\x9f\xe0\xa4\xb0'
p3574
sS'chunktype'
p3575
S'child:NP2'
p3576
sS'af'
p3577
S'6,num,any,any,,any,,'
p3578
ssbsg1450
I00
sg1453
I00
sg1464
Nsg1451
Nsg172
I1
sg158
I5
sg1810
Nsg1462
Nsg1811
S'QCC'
p3579
sg247
(issf_api
FeatureSet
p3580
(dp3581
g250
(dp3582
S'posn'
p3583
S'30'
p3584
sS'name'
p3585
S'6'
sS'af'
p3586
S'6,num,any,any,,any,,'
p3587
ssbsg1472
I00
sba(issf_api
Word
p3588
(dp3589
g1789
I00
sg1790
V\u0939\u091c\u093e\u0930
p3590
sg1792
(issf_api
FeatureSet
p3591
(dp3592
g250
(dp3593
S'posn'
p3594
S'40'
p3595
sS'name'
p3596
S'\xe0\xa4\xb9\xe0\xa4\x9c\xe0\xa4\xbe\xe0\xa4\xb0'
p3597
sS'drel'
p3598
S'nmod__adj:\xe0\xa4\x95\xe0\xa4\xbf\xe0\xa4\xb2\xe0\xa5\x8b\xe0\xa4\xae\xe0\xa5\x80\xe0\xa4\x9f\xe0\xa4\xb0'
p3599
sS'chunktype'
p3600
S'child:NP2'
p3601
sS'af'
p3602
S'\xe0\xa4\xb9\xe0\xa4\x9c\xe0\xa4\xbe\xe0\xa4\xb0,num,any,any,,any,,'
p3603
ssbsg1450
I00
sg1453
I00
sg1464
Nsg1451
Nsg172
I1
sg158
I5
sg1810
Nsg1462
Nsg1811
S'QC'
p3604
sg247
(issf_api
FeatureSet
p3605
(dp3606
g250
(dp3607
S'posn'
p3608
S'40'
p3609
sS'name'
p3610
S'\xe0\xa4\xb9\xe0\xa4\x9c\xe0\xa4\xbe\xe0\xa4\xb0'
p3611
sS'af'
p3612
S'\xe0\xa4\xb9\xe0\xa4\x9c\xe0\xa4\xbe\xe0\xa4\xb0,num,any,any,,any,,'
p3613
ssbsg1472
I00
sba(issf_api
Word
p3614
(dp3615
g1789
I00
sg1790
V\u0935\u0930\u094d\u0917
p3616
sg1792
(issf_api
FeatureSet
p3617
(dp3618
g250
(dp3619
S'posn'
p3620
S'50'
p3621
sS'name'
p3622
S'\xe0\xa4\xb5\xe0\xa4\xb0\xe0\xa5\x8d\xe0\xa4\x97'
p3623
sS'drel'
p3624
S'pof__cn:\xe0\xa4\x95\xe0\xa4\xbf\xe0\xa4\xb2\xe0\xa5\x8b\xe0\xa4\xae\xe0\xa5\x80\xe0\xa4\x9f\xe0\xa4\xb0'
p3625
sS'chunktype'
p3626
S'child:NP2'
p3627
sS'af'
p3628
S'\xe0\xa4\xb5\xe0\xa4\xb0\xe0\xa5\x8d\xe0\xa4\x97,n,m,sg,3,d,0,0'
p3629
ssbsg1450
I00
sg1453
I00
sg1464
Nsg1451
Nsg172
I1
sg158
I5
sg1810
Nsg1462
Nsg1811
S'NNC'
p3630
sg247
(issf_api
FeatureSet
p3631
(dp3632
g250
(dp3633
S'posn'
p3634
S'50'
p3635
sS'name'
p3636
S'\xe0\xa4\xb5\xe0\xa4\xb0\xe0\xa5\x8d\xe0\xa4\x97'
p3637
sS'af'
p3638
S'\xe0\xa4\xb5\xe0\xa4\xb0\xe0\xa5\x8d\xe0\xa4\x97,n,m,sg,3,d,0,0'
p3639
ssbsg1472
I00
sba(issf_api
Word
p3640
(dp3641
g1789
I00
sg1790
V\u0915\u093f\u0932\u094b\u092e\u0940\u091f\u0930
p3642
sg1792
(issf_api
FeatureSet
p3643
(dp3644
g250
(dp3645
S'posn'
p3646
S'60'
p3647
sS'name'
p3648
S'\xe0\xa4\x95\xe0\xa4\xbf\xe0\xa4\xb2\xe0\xa5\x8b\xe0\xa4\xae\xe0\xa5\x80\xe0\xa4\x9f\xe0\xa4\xb0'
p3649
sS'af'
p3650
S'\xe0\xa4\x95\xe0\xa4\xbf\xe0\xa4\xb2\xe0\xa5\x8b\xe0\xa4\xae\xe0\xa5\x80\xe0\xa4\x9f\xe0\xa4\xb0,n,m,sg,3,o,0_\xe0\xa4\x95\xe0\xa4\xbe,0'
p3651
sS'chunkid'
p3652
S'NP2'
p3653
sS'drel'
p3654
S'r6:\xe0\xa4\x95\xe0\xa5\x8d\xe0\xa4\xb7\xe0\xa5\x87\xe0\xa4\xa4\xe0\xa5\x8d\xe0\xa4\xb0'
p3655
sS'vpos'
p3656
S'vib_5'
p3657
sS'chunktype'
p3658
S'head:NP2'
p3659
ssbsg1450
I00
sg1453
I00
sg1464
Nsg1451
Nsg172
I1
sg158
I5
sg1810
Nsg1462
Nsg1811
S'NN'
p3660
sg247
(issf_api
FeatureSet
p3661
(dp3662
g250
(dp3663
S'posn'
p3664
S'60'
p3665
sS'name'
p3666
S'\xe0\xa4\x95\xe0\xa4\xbf\xe0\xa4\xb2\xe0\xa5\x8b\xe0\xa4\xae\xe0\xa5\x80\xe0\xa4\x9f\xe0\xa4\xb0'
p3667
sS'af'
p3668
S'\xe0\xa4\x95\xe0\xa4\xbf\xe0\xa4\xb2\xe0\xa5\x8b\xe0\xa4\xae\xe0\xa5\x80\xe0\xa4\x9f\xe0\xa4\xb0,n,m,sg,3,o,0,0'
p3669
ssbsg1472
I00
sba(issf_api
Word
p3670
(dp3671
g1789
I00
sg1790
V\u0915\u0947
p3672
sg1792
(issf_api
FeatureSet
p3673
(dp3674
g250
(dp3675
S'posn'
p3676
S'70'
p3677
sS'name'
p3678
S'\xe0\xa4\x95\xe0\xa5\x87'
p3679
sS'drel'
p3680
S'lwg__psp:\xe0\xa4\x95\xe0\xa4\xbf\xe0\xa4\xb2\xe0\xa5\x8b\xe0\xa4\xae\xe0\xa5\x80\xe0\xa4\x9f\xe0\xa4\xb0'
p3681
sS'chunktype'
p3682
S'child:NP2'
p3683
sS'af'
p3684
S'\xe0\xa4\x95\xe0\xa4\xbe,psp,m,sg,,o,,'
p3685
ssbsg1450
I00
sg1453
I00
sg1464
Nsg1451
Nsg172
I1
sg158
I5
sg1810
Nsg1462
Nsg1811
S'PSP'
p3686
sg247
(issf_api
FeatureSet
p3687
(dp3688
g250
(dp3689
S'posn'
p3690
S'70'
p3691
sS'name'
p3692
S'\xe0\xa4\x95\xe0\xa5\x87'
p3693
sS'af'
p3694
S'\xe0\xa4\x95\xe0\xa4\xbe,psp,m,sg,,o,,'
p3695
ssbsg1472
I00
sba(issf_api
Word
p3696
(dp3697
g1789
I00
sg1790
V\u0915\u094d\u0937\u0947\u0924\u094d\u0930
p3698
sg1792
(issf_api
FeatureSet
p3699
(dp3700
g250
(dp3701
S'posn'
p3702
S'80'
p3703
sS'name'
p3704
S'\xe0\xa4\x95\xe0\xa5\x8d\xe0\xa4\xb7\xe0\xa5\x87\xe0\xa4\xa4\xe0\xa5\x8d\xe0\xa4\xb0'
p3705
sS'af'
p3706
S'\xe0\xa4\x95\xe0\xa5\x8d\xe0\xa4\xb7\xe0\xa5\x87\xe0\xa4\xa4\xe0\xa5\x8d\xe0\xa4\xb0,n,m,sg,3,o,0_\xe0\xa4\xae\xe0\xa5\x87\xe0\xa4\x82,0'
p3707
sS'chunkid'
p3708
S'NP3'
p3709
sS'drel'
p3710
S'k7p:\xe0\xa4\xab\xe0\xa5\x88\xe0\xa4\xb2\xe0\xa4\xbe'
p3711
sS'vpos'
p3712
S'vib_2'
p3713
sS'chunktype'
p3714
S'head:NP3'
p3715
ssbsg1450
I00
sg1453
I00
sg1464
Nsg1451
Nsg172
I2
sg158
I5
sg1810
Nsg1462
Nsg1811
S'NN'
p3716
sg247
(issf_api
FeatureSet
p3717
(dp3718
g250
(dp3719
S'posn'
p3720
S'80'
p3721
sS'name'
p3722
S'\xe0\xa4\x95\xe0\xa5\x8d\xe0\xa4\xb7\xe0\xa5\x87\xe0\xa4\xa4\xe0\xa5\x8d\xe0\xa4\xb0'
p3723
sS'af'
p3724
S'\xe0\xa4\x95\xe0\xa5\x8d\xe0\xa4\xb7\xe0\xa5\x87\xe0\xa4\xa4\xe0\xa5\x8d\xe0\xa4\xb0,n,m,sg,3,o,0,0'
p3725
ssbsg1472
I00
sba(issf_api
Word
p3726
(dp3727
g1789
I00
sg1790
V\u092e\u0947\u0902
p3728
sg1792
(issf_api
FeatureSet
p3729
(dp3730
g250
(dp3731
S'posn'
p3732
S'90'
p3733
sS'name'
p3734
S'\xe0\xa4\xae\xe0\xa5\x87\xe0\xa4\x82'
p3735
sS'drel'
p3736
S'lwg__psp:\xe0\xa4\x95\xe0\xa5\x8d\xe0\xa4\xb7\xe0\xa5\x87\xe0\xa4\xa4\xe0\xa5\x8d\xe0\xa4\xb0'
p3737
sS'chunktype'
p3738
S'child:NP3'
p3739
sS'af'
p3740
S'\xe0\xa4\xae\xe0\xa5\x87\xe0\xa4\x82,psp,,,,,,'
p3741
ssbsg1450
I00
sg1453
I00
sg1464
Nsg1451
Nsg172
I2
sg158
I5
sg1810
Nsg1462
Nsg1811
S'PSP'
p3742
sg247
(issf_api
FeatureSet
p3743
(dp3744
g250
(dp3745
S'posn'
p3746
S'90'
p3747
sS'name'
p3748
S'\xe0\xa4\xae\xe0\xa5\x87\xe0\xa4\x82'
p3749
sS'af'
p3750
S'\xe0\xa4\xae\xe0\xa5\x87\xe0\xa4\x82,psp,,,,,,'
p3751
ssbsg1472
I00
sba(issf_api
Word
p3752
(dp3753
g1789
I00
sg1790
V\u092b\u0948\u0932\u093e
p3754
sg1792
(issf_api
FeatureSet
p3755
(dp3756
g250
(dp3757
S'posn'
p3758
S'100'
p3759
sS'name'
p3760
S'\xe0\xa4\xab\xe0\xa5\x88\xe0\xa4\xb2\xe0\xa4\xbe'
p3761
sS'af'
p3762
S'\xe0\xa4\xab\xe0\xa5\x88\xe0\xa4\xb2,v,m,sg,3,,\xe0\xa4\xaf\xe0\xa4\xbe_\xe0\xa4\xb9\xe0\xa5\x8b+\xe0\xa4\xaf\xe0\xa4\xbe_\xe0\xa4\xb9\xe0\xa5\x88,yA'
p3763
sS'chunkid'
p3764
S'VGF'
p3765
sS'chunktype'
p3766
S'head:VGF'
p3767
sS'voicetype'
p3768
S'active'
p3769
sS'vpos'
p3770
S'tam_2_3'
p3771
sS'stype'
p3772
S'declarative'
p3773
ssbsg1450
I00
sg1453
I00
sg1464
Nsg1451
Nsg172
I3
sg158
I5
sg1810
Nsg1462
Nsg1811
S'VM'
p3774
sg247
(issf_api
FeatureSet
p3775
(dp3776
g250
(dp3777
S'posn'
p3778
S'100'
p3779
sS'name'
p3780
S'\xe0\xa4\xab\xe0\xa5\x88\xe0\xa4\xb2\xe0\xa4\xbe'
p3781
sS'af'
p3782
S'\xe0\xa4\xab\xe0\xa5\x88\xe0\xa4\xb2,v,m,sg,any,,\xe0\xa4\xaf\xe0\xa4\xbe,yA'
p3783
ssbsg1472
I00
sba(issf_api
Word
p3784
(dp3785
g1789
I00
sg1790
V\u0939\u0941\u0906
p3786
sg1792
(issf_api
FeatureSet
p3787
(dp3788
g250
(dp3789
S'posn'
p3790
S'110'
p3791
sS'name'
p3792
S'\xe0\xa4\xb9\xe0\xa5\x81\xe0\xa4\x86'
p3793
sS'drel'
p3794
S'lwg__vaux:\xe0\xa4\xab\xe0\xa5\x88\xe0\xa4\xb2\xe0\xa4\xbe'
p3795
sS'chunktype'
p3796
S'child:VGF'
p3797
sS'af'
p3798
S'\xe0\xa4\xb9\xe0\xa5\x8b,v,m,sg,any,,\xe0\xa4\xaf\xe0\xa4\xbe,yA'
p3799
ssbsg1450
I00
sg1453
I00
sg1464
Nsg1451
Nsg172
I3
sg158
I5
sg1810
Nsg1462
Nsg1811
S'VAUX'
p3800
sg247
(issf_api
FeatureSet
p3801
(dp3802
g250
(dp3803
S'posn'
p3804
S'110'
p3805
sS'name'
p3806
S'\xe0\xa4\xb9\xe0\xa5\x81\xe0\xa4\x86'
p3807
sS'af'
p3808
S'\xe0\xa4\xb9\xe0\xa5\x8b,v,m,sg,any,,\xe0\xa4\xaf\xe0\xa4\xbe,yA'
p3809
ssbsg1472
I00
sba(issf_api
Word
p3810
(dp3811
g1789
I00
sg1790
V\u0939\u0948
p3812
sg1792
(issf_api
FeatureSet
p3813
(dp3814
g250
(dp3815
S'posn'
p3816
S'120'
p3817
sS'name'
p3818
S'\xe0\xa4\xb9\xe0\xa5\x88'
p3819
sS'drel'
p3820
S'lwg__vaux:\xe0\xa4\xab\xe0\xa5\x88\xe0\xa4\xb2\xe0\xa4\xbe'
p3821
sS'chunktype'
p3822
S'child:VGF'
p3823
sS'af'
p3824
S'\xe0\xa4\xb9\xe0\xa5\x88,v,any,sg,3,,\xe0\xa4\xb9\xe0\xa5\x88,hE'
p3825
ssbsg1450
I00
sg1453
I00
sg1464
Nsg1451
Nsg172
I3
sg158
I5
sg1810
Nsg1462
Nsg1811
S'VAUX'
p3826
sg247
(issf_api
FeatureSet
p3827
(dp3828
g250
(dp3829
S'posn'
p3830
S'120'
p3831
sS'name'
p3832
S'\xe0\xa4\xb9\xe0\xa5\x88'
p3833
sS'af'
p3834
S'\xe0\xa4\xb9\xe0\xa5\x88,v,any,sg,3,,\xe0\xa4\xb9\xe0\xa5\x88,hE'
p3835
ssbsg1472
I00
sba(issf_api
Word
p3836
(dp3837
g1789
I00
sg1790
V\u0964
sg1792
(issf_api
FeatureSet
p3838
(dp3839
g250
(dp3840
S'posn'
p3841
S'130'
p3842
sS'name'
p3843
S'\xe0\xa5\xa4'
p3844
sS'af'
p3845
S'\xe0\xa5\xa4,punc,,,,,,'
p3846
sS'chunkid'
p3847
S'BLK'
p3848
sS'drel'
p3849
S'rsym:\xe0\xa4\xab\xe0\xa5\x88\xe0\xa4\xb2\xe0\xa4\xbe'
p3850
sS'chunktype'
p3851
S'head:BLK'
p3852
ssbsg1450
I00
sg1453
I00
sg1464
Nsg1451
Nsg172
I4
sg158
I5
sg1810
Nsg1462
Nsg1811
S'SYM'
p3853
sg247
(issf_api
FeatureSet
p3854
(dp3855
g250
(dp3856
S'posn'
p3857
S'130'
p3858
sS'name'
p3859
S'\xe0\xa5\xa4'
p3860
sS'af'
p3861
S'\xe0\xa5\xa4,punc,,,,,,'
p3862
ssbsg1472
I00
sba(issf_api
Word
p3863
(dp3864
g1789
I00
sg1790
V\u0907\u0928
p3865
sg1792
(issf_api
FeatureSet
p3866
(dp3867
g250
(dp3868
S'posn'
p3869
S'10'
p3870
sS'name'
p3871
S'\xe0\xa4\x87\xe0\xa4\xa8'
p3872
sS'drel'
p3873
S'nmod__adj:\xe0\xa4\x86\xe0\xa4\xa6\xe0\xa4\xbf\xe0\xa4\xb5\xe0\xa4\xbe\xe0\xa4\xb8\xe0\xa4\xbf\xe0\xa4\xaf\xe0\xa5\x8b\xe0\xa4\x82'
p3874
sS'chunktype'
p3875
S'child:NP'
p3876
sS'af'
p3877
S'\xe0\xa4\xaf\xe0\xa4\xb9,pn,any,pl,3,o,,'
p3878
ssbsg1450
I00
sg1453
I00
sg1464
Nsg1451
Nsg172
I0
sg158
I6
sg1810
Nsg1462
Nsg1811
S'DEM'
p3879
sg247
(issf_api
FeatureSet
p3880
(dp3881
g250
(dp3882
S'posn'
p3883
S'10'
p3884
sS'name'
p3885
S'\xe0\xa4\x87\xe0\xa4\xa8'
p3886
sS'af'
p3887
S'\xe0\xa4\xaf\xe0\xa4\xb9,pn,any,pl,3,o,,'
p3888
ssbsg1472
I00
sba(issf_api
Word
p3889
(dp3890
g1789
I00
sg1790
V\u0906\u0926\u093f\u0935\u093e\u0938\u093f\u092f\u094b\u0902
p3891
sg1792
(issf_api
FeatureSet
p3892
(dp3893
g250
(dp3894
S'posn'
p3895
S'20'
p3896
sS'name'
p3897
S'\xe0\xa4\x86\xe0\xa4\xa6\xe0\xa4\xbf\xe0\xa4\xb5\xe0\xa4\xbe\xe0\xa4\xb8\xe0\xa4\xbf\xe0\xa4\xaf\xe0\xa5\x8b\xe0\xa4\x82'
p3898
sS'af'
p3899
S'\xe0\xa4\x86\xe0\xa4\xa6\xe0\xa4\xbf\xe0\xa4\xb5\xe0\xa4\xbe\xe0\xa4\xb8\xe0\xa5\x80,n,m,pl,3,o,0_\xe0\xa4\xa4\xe0\xa4\x95,0'
p3900
sS'chunkid'
p3901
S'NP'
p3902
sS'drel'
p3903
S'k7:\xe0\xa4\xaa\xe0\xa4\xb9\xe0\xa5\x81\xe0\xa4\x81\xe0\xa4\x9a'
p3904
sS'vpos'
p3905
S'vib_3'
p3906
sS'chunktype'
p3907
S'head:NP'
p3908
ssbsg1450
I00
sg1453
I00
sg1464
Nsg1451
Nsg172
I0
sg158
I6
sg1810
Nsg1462
Nsg1811
S'NN'
p3909
sg247
(issf_api
FeatureSet
p3910
(dp3911
g250
(dp3912
S'posn'
p3913
S'20'
p3914
sS'name'
p3915
S'\xe0\xa4\x86\xe0\xa4\xa6\xe0\xa4\xbf\xe0\xa4\xb5\xe0\xa4\xbe\xe0\xa4\xb8\xe0\xa4\xbf\xe0\xa4\xaf\xe0\xa5\x8b\xe0\xa4\x82'
p3916
sS'af'
p3917
S'\xe0\xa4\x86\xe0\xa4\xa6\xe0\xa4\xbf\xe0\xa4\xb5\xe0\xa4\xbe\xe0\xa4\xb8\xe0\xa5\x80,n,m,pl,3,o,0,0'
p3918
ssbsg1472
I00
sba(issf_api
Word
p3919
(dp3920
g1789
I00
sg1790
V\u0924\u0915
p3921
sg1792
(issf_api
FeatureSet
p3922
(dp3923
g250
(dp3924
S'posn'
p3925
S'30'
p3926
sS'name'
p3927
S'\xe0\xa4\xa4\xe0\xa4\x95'
p3928
sS'drel'
p3929
S'lwg__psp:\xe0\xa4\x86\xe0\xa4\xa6\xe0\xa4\xbf\xe0\xa4\xb5\xe0\xa4\xbe\xe0\xa4\xb8\xe0\xa4\xbf\xe0\xa4\xaf\xe0\xa5\x8b\xe0\xa4\x82'
p3930
sS'chunktype'
p3931
S'child:NP'
p3932
sS'af'
p3933
S'\xe0\xa4\xa4\xe0\xa4\x95,psp,,,,,,'
p3934
ssbsg1450
I00
sg1453
I00
sg1464
Nsg1451
Nsg172
I0
sg158
I6
sg1810
Nsg1462
Nsg1811
S'PSP'
p3935
sg247
(issf_api
FeatureSet
p3936
(dp3937
g250
(dp3938
S'posn'
p3939
S'30'
p3940
sS'name'
p3941
S'\xe0\xa4\xa4\xe0\xa4\x95'
p3942
sS'af'
p3943
S'\xe0\xa4\xa4\xe0\xa4\x95,psp,,,,,,'
p3944
ssbsg1472
I00
sba(issf_api
Word
p3945
(dp3946
g1789
I00
sg1790
V\u0915\u092d\u0940
p3947
sg1792
(issf_api
FeatureSet
p3948
(dp3949
g250
(dp3950
S'posn'
p3951
S'40'
p3952
sS'name'
p3953
S'\xe0\xa4\x95\xe0\xa4\xad\xe0\xa5\x80'
p3954
sS'af'
p3955
S'\xe0\xa4\x95\xe0\xa4\xad\xe0\xa5\x80,pn,,,,,,'
p3956
sS'chunkid'
p3957
S'NP2'
p3958
sS'drel'
p3959
S'k7t:\xe0\xa4\xaa\xe0\xa4\xb9\xe0\xa5\x81\xe0\xa4\x81\xe0\xa4\x9a'
p3960
sS'chunktype'
p3961
S'head:NP2'
p3962
ssbsg1450
I00
sg1453
I00
sg1464
Nsg1451
Nsg172
I1
sg158
I6
sg1810
Nsg1462
Nsg1811
S'PRP'
p3963
sg247
(issf_api
FeatureSet
p3964
(dp3965
g250
(dp3966
S'posn'
p3967
S'40'
p3968
sS'name'
p3969
S'\xe0\xa4\x95\xe0\xa4\xad\xe0\xa5\x80'
p3970
sS'af'
p3971
S'\xe0\xa4\x95\xe0\xa4\xad\xe0\xa5\x80,pn,,,,,,'
p3972
ssbsg1472
I00
sba(issf_api
Word
p3973
(dp3974
g1789
I00
sg1790
V\u092c\u094d\u0930\u093f\u091f\u093f\u0936
p3975
sg1792
(issf_api
FeatureSet
p3976
(dp3977
g250
(dp3978
S'posn'
p3979
S'50'
p3980
sS'name'
p3981
S'\xe0\xa4\xac\xe0\xa5\x8d\xe0\xa4\xb0\xe0\xa4\xbf\xe0\xa4\x9f\xe0\xa4\xbf\xe0\xa4\xb6'
p3982
sS'af'
p3983
S'\xe0\xa4\xac\xe0\xa5\x8d\xe0\xa4\xb0\xe0\xa4\xbf\xe0\xa4\x9f\xe0\xa4\xbf\xe0\xa4\xb6,n,m,pl,3,d,0,0'
p3984
sS'chunkid'
p3985
S'NP3'
p3986
sS'drel'
p3987
S'k2p:\xe0\xa4\xaa\xe0\xa4\xb9\xe0\xa5\x81\xe0\xa4\x81\xe0\xa4\x9a'
p3988
sS'chunktype'
p3989
S'head:NP3'
p3990
ssbsg1450
I00
sg1453
I00
sg1464
Nsg1451
Nsg172
I2
sg158
I6
sg1810
Nsg1462
Nsg1811
S'NN'
p3991
sg247
(issf_api
FeatureSet
p3992
(dp3993
g250
(dp3994
S'posn'
p3995
S'50'
p3996
sS'name'
p3997
S'\xe0\xa4\xac\xe0\xa5\x8d\xe0\xa4\xb0\xe0\xa4\xbf\xe0\xa4\x9f\xe0\xa4\xbf\xe0\xa4\xb6'
p3998
sS'af'
p3999
S'\xe0\xa4\xac\xe0\xa5\x8d\xe0\xa4\xb0\xe0\xa4\xbf\xe0\xa4\x9f\xe0\xa4\xbf\xe0\xa4\xb6,n,m,pl,3,d,0,0'
p4000
ssbsg1472
I00
sba(issf_api
Word
p4001
(dp4002
g1789
I00
sg1790
V\u092d\u0940
p4003
sg1792
(issf_api
FeatureSet
p4004
(dp4005
g250
(dp4006
S'posn'
p4007
S'60'
p4008
sS'name'
p4009
S'\xe0\xa4\xad\xe0\xa5\x80'
p4010
sS'drel'
p4011
S'lwg__rp:\xe0\xa4\xac\xe0\xa5\x8d\xe0\xa4\xb0\xe0\xa4\xbf\xe0\xa4\x9f\xe0\xa4\xbf\xe0\xa4\xb6'
p4012
sS'chunktype'
p4013
S'child:NP3'
p4014
sS'af'
p4015
S'\xe0\xa4\xad\xe0\xa5\x80,avy,,,,,,'
p4016
ssbsg1450
I00
sg1453
I00
sg1464
Nsg1451
Nsg172
I2
sg158
I6
sg1810
Nsg1462
Nsg1811
S'RP'
p4017
sg247
(issf_api
FeatureSet
p4018
(dp4019
g250
(dp4020
S'posn'
p4021
S'60'
p4022
sS'name'
p4023
S'\xe0\xa4\xad\xe0\xa5\x80'
p4024
sS'af'
p4025
S'\xe0\xa4\xad\xe0\xa5\x80,avy,,,,,,'
p4026
ssbsg1472
I00
sba(issf_api
Word
p4027
(dp4028
g1789
I00
sg1790
V\u0928\u0939\u0940\u0902
p4029
sg1792
(issf_api
FeatureSet
p4030
(dp4031
g250
(dp4032
S'posn'
p4033
S'70'
p4034
sS'name'
p4035
S'\xe0\xa4\xa8\xe0\xa4\xb9\xe0\xa5\x80\xe0\xa4\x82'
p4036
sS'drel'
p4037
S'lwg__neg:\xe0\xa4\xaa\xe0\xa4\xb9\xe0\xa5\x81\xe0\xa4\x81\xe0\xa4\x9a'
p4038
sS'chunktype'
p4039
S'child:VGF'
p4040
sS'af'
p4041
S'\xe0\xa4\xa8\xe0\xa4\xb9\xe0\xa5\x80\xe0\xa4\x82,avy,,,,,,'
p4042
ssbsg1450
I00
sg1453
I00
sg1464
Nsg1451
Nsg172
I3
sg158
I6
sg1810
Nsg1462
Nsg1811
S'NEG'
p4043
sg247
(issf_api
FeatureSet
p4044
(dp4045
g250
(dp4046
S'posn'
p4047
S'70'
p4048
sS'name'
p4049
S'\xe0\xa4\xa8\xe0\xa4\xb9\xe0\xa5\x80\xe0\xa4\x82'
p4050
sS'af'
p4051
S'\xe0\xa4\xa8\xe0\xa4\xb9\xe0\xa5\x80\xe0\xa4\x82,avy,,,,,,'
p4052
ssbsg1472
I00
sba(issf_api
Word
p4053
(dp4054
g1789
I00
sg1790
V\u092a\u0939\u0941\u0901\u091a
p4055
sg1792
(issf_api
FeatureSet
p4056
(dp4057
g250
(dp4058
S'posn'
p4059
S'80'
p4060
sS'name'
p4061
S'\xe0\xa4\xaa\xe0\xa4\xb9\xe0\xa5\x81\xe0\xa4\x81\xe0\xa4\x9a'
p4062
sS'af'
p4063
S'\xe0\xa4\xaa\xe0\xa4\xb9\xe0\xa5\x81\xe0\xa4\x81\xe0\xa4\x9a,v,m,pl,any,,0_\xe0\xa4\xaa\xe0\xa4\xbe+\xe0\xa4\xaf\xe0\xa4\xbe_\xe0\xa4\xa5\xe0\xa4\xbe,0'
p4064
sS'chunkid'
p4065
S'VGF'
p4066
sS'chunktype'
p4067
S'head:VGF'
p4068
sS'voicetype'
p4069
S'active'
p4070
sS'vpos'
p4071
S'tam_3_4'
p4072
sS'stype'
p4073
S'declarative'
p4074
ssbsg1450
I00
sg1453
I00
sg1464
Nsg1451
Nsg172
I3
sg158
I6
sg1810
Nsg1462
Nsg1811
S'VM'
p4075
sg247
(issf_api
FeatureSet
p4076
(dp4077
g250
(dp4078
S'posn'
p4079
S'80'
p4080
sS'name'
p4081
S'\xe0\xa4\xaa\xe0\xa4\xb9\xe0\xa5\x81\xe0\xa4\x81\xe0\xa4\x9a'
p4082
sS'af'
p4083
S'\xe0\xa4\xaa\xe0\xa4\xb9\xe0\xa5\x81\xe0\xa4\x81\xe0\xa4\x9a,v,any,any,any,,0,0'
p4084
ssbsg1472
I00
sba(issf_api
Word
p4085
(dp4086
g1789
I00
sg1790
V\u092a\u093e\u090f
p4087
sg1792
(issf_api
FeatureSet
p4088
(dp4089
g250
(dp4090
S'posn'
p4091
S'90'
p4092
sS'name'
p4093
S'\xe0\xa4\xaa\xe0\xa4\xbe\xe0\xa4\x8f'
p4094
sS'drel'
p4095
S'lwg__vaux:\xe0\xa4\xaa\xe0\xa4\xb9\xe0\xa5\x81\xe0\xa4\x81\xe0\xa4\x9a'
p4096
sS'chunktype'
p4097
S'child:VGF'
p4098
sS'af'
p4099
S'\xe0\xa4\xaa\xe0\xa4\xbe,v,m,pl,any,,\xe0\xa4\xaf\xe0\xa4\xbe,yA'
p4100
ssbsg1450
I00
sg1453
I00
sg1464
Nsg1451
Nsg172
I3
sg158
I6
sg1810
Nsg1462
Nsg1811
S'VAUX'
p4101
sg247
(issf_api
FeatureSet
p4102
(dp4103
g250
(dp4104
S'posn'
p4105
S'90'
p4106
sS'name'
p4107
S'\xe0\xa4\xaa\xe0\xa4\xbe\xe0\xa4\x8f'
p4108
sS'af'
p4109
S'\xe0\xa4\xaa\xe0\xa4\xbe,v,m,pl,any,,\xe0\xa4\xaf\xe0\xa4\xbe,yA'
p4110
ssbsg1472
I00
sba(issf_api
Word
p4111
(dp4112
g1789
I00
sg1790
V\u0925\u0947
p4113
sg1792
(issf_api
FeatureSet
p4114
(dp4115
g250
(dp4116
S'posn'
p4117
S'100'
p4118
sS'name'
p4119
S'\xe0\xa4\xa5\xe0\xa5\x87'
p4120
sS'drel'
p4121
S'lwg__vaux:\xe0\xa4\xaa\xe0\xa4\xb9\xe0\xa5\x81\xe0\xa4\x81\xe0\xa4\x9a'
p4122
sS'chunktype'
p4123
S'child:VGF'
p4124
sS'af'
p4125
S'\xe0\xa4\xa5\xe0\xa4\xbe,v,m,pl,any,,\xe0\xa4\xa5\xe0\xa4\xbe,WA'
p4126
ssbsg1450
I00
sg1453
I00
sg1464
Nsg1451
Nsg172
I3
sg158
I6
sg1810
Nsg1462
Nsg1811
S'VAUX'
p4127
sg247
(issf_api
FeatureSet
p4128
(dp4129
g250
(dp4130
S'posn'
p4131
S'100'
p4132
sS'name'
p4133
S'\xe0\xa4\xa5\xe0\xa5\x87'
p4134
sS'af'
p4135
S'\xe0\xa4\xa5\xe0\xa4\xbe,v,m,pl,any,,\xe0\xa4\xa5\xe0\xa4\xbe,WA'
p4136
ssbsg1472
I00
sba(issf_api
Word
p4137
(dp4138
g1789
I00
sg1790
V\u0964
sg1792
(issf_api
FeatureSet
p4139
(dp4140
g250
(dp4141
S'posn'
p4142
S'110'
p4143
sS'name'
p4144
S'\xe0\xa5\xa4'
p4145
sS'af'
p4146
S'\xe0\xa5\xa4,punc,,,,,,'
p4147
sS'chunkid'
p4148
S'BLK'
p4149
sS'drel'
p4150
S'rsym:\xe0\xa4\xaa\xe0\xa4\xb9\xe0\xa5\x81\xe0\xa4\x81\xe0\xa4\x9a'
p4151
sS'chunktype'
p4152
S'head:BLK'
p4153
ssbsg1450
I00
sg1453
I00
sg1464
Nsg1451
Nsg172
I4
sg158
I6
sg1810
Nsg1462
Nsg1811
S'SYM'
p4154
sg247
(issf_api
FeatureSet
p4155
(dp4156
g250
(dp4157
S'posn'
p4158
S'110'
p4159
sS'name'
p4160
S'\xe0\xa5\xa4'
p4161
sS'af'
p4162
S'\xe0\xa5\xa4,punc,,,,,,'
p4163
ssbsg1472
I00
sba(issf_api
Word
p4164
(dp4165
g1789
I00
sg1790
V\u092f\u0939
p4166
sg1792
(issf_api
FeatureSet
p4167
(dp4168
g250
(dp4169
S'posn'
p4170
S'10'
p4171
sS'name'
p4172
S'\xe0\xa4\xaf\xe0\xa4\xb9'
p4173
sS'drel'
p4174
S'nmod__adj:\xe0\xa4\x9c\xe0\xa4\x82\xe0\xa4\x97\xe0\xa4\xb2'
p4175
sS'chunktype'
p4176
S'child:NP'
p4177
sS'af'
p4178
S'\xe0\xa4\xaf\xe0\xa4\xb9,pn,any,sg,3,d,,'
p4179
ssbsg1450
I00
sg1453
I00
sg1464
Nsg1451
Nsg172
I0
sg158
I7
sg1810
Nsg1462
Nsg1811
S'DEM'
p4180
sg247
(issf_api
FeatureSet
p4181
(dp4182
g250
(dp4183
S'posn'
p4184
S'10'
p4185
sS'name'
p4186
S'\xe0\xa4\xaf\xe0\xa4\xb9'
p4187
sS'af'
p4188
S'\xe0\xa4\xaf\xe0\xa4\xb9,pn,any,sg,3,d,,'
p4189
ssbsg1472
I00
sba(issf_api
Word
p4190
(dp4191
g1789
I00
sg1790
V\u091c\u0902\u0917\u0932
p4192
sg1792
(issf_api
FeatureSet
p4193
(dp4194
g250
(dp4195
S'posn'
p4196
S'20'
p4197
sS'name'
p4198
S'\xe0\xa4\x9c\xe0\xa4\x82\xe0\xa4\x97\xe0\xa4\xb2'
p4199
sS'af'
p4200
S'\xe0\xa4\x9c\xe0\xa4\x82\xe0\xa4\x97\xe0\xa4\xb2,n,m,sg,3,d,0,0'
p4201
sS'chunkid'
p4202
S'NP'
p4203
sS'drel'
p4204
S'k1:\xe0\xa4\xac\xe0\xa4\xa8'
p4205
sS'chunktype'
p4206
S'head:NP'
p4207
ssbsg1450
I00
sg1453
I00
sg1464
Nsg1451
Nsg172
I0
sg158
I7
sg1810
Nsg1462
Nsg1811
S'NN'
p4208
sg247
(issf_api
FeatureSet
p4209
(dp4210
g250
(dp4211
S'posn'
p4212
S'20'
p4213
sS'name'
p4214
S'\xe0\xa4\x9c\xe0\xa4\x82\xe0\xa4\x97\xe0\xa4\xb2'
p4215
sS'af'
p4216
S'\xe0\xa4\x9c\xe0\xa4\x82\xe0\xa4\x97\xe0\xa4\xb2,n,m,sg,3,d,0,0'
p4217
ssbsg1472
I00
sba(issf_api
Word
p4218
(dp4219
g1789
I00
sg1790
V\u0905\u092c
p4220
sg1792
(issf_api
FeatureSet
p4221
(dp4222
g250
(dp4223
S'posn'
p4224
S'30'
p4225
sS'name'
p4226
S'\xe0\xa4\x85\xe0\xa4\xac'
p4227
sS'af'
p4228
S'\xe0\xa4\x85\xe0\xa4\xac,pn,,,,d,,'
p4229
sS'chunkid'
p4230
S'NP2'
p4231
sS'drel'
p4232
S'k7t:\xe0\xa4\xac\xe0\xa4\xa8'
p4233
sS'chunktype'
p4234
S'head:NP2'
p4235
ssbsg1450
I00
sg1453
I00
sg1464
Nsg1451
Nsg172
I1
sg158
I7
sg1810
Nsg1462
Nsg1811
S'PRP'
p4236
sg247
(issf_api
FeatureSet
p4237
(dp4238
g250
(dp4239
S'posn'
p4240
S'30'
p4241
sS'name'
p4242
S'\xe0\xa4\x85\xe0\xa4\xac'
p4243
sS'af'
p4244
S'\xe0\xa4\x85\xe0\xa4\xac,pn,,,,d,,'
p4245
ssbsg1472
I00
sba(issf_api
Word
p4246
(dp4247
g1789
I00
sg1790
V\u092e\u093e\u0913\u0935\u093e\u0926\u093f\u092f\u094b\u0902
p4248
sg1792
(issf_api
FeatureSet
p4249
(dp4250
g250
(dp4251
S'posn'
p4252
S'40'
p4253
sS'name'
p4254
S'\xe0\xa4\xae\xe0\xa4\xbe\xe0\xa4\x93\xe0\xa4\xb5\xe0\xa4\xbe\xe0\xa4\xa6\xe0\xa4\xbf\xe0\xa4\xaf\xe0\xa5\x8b\xe0\xa4\x82'
p4255
sS'af'
p4256
S'\xe0\xa4\xae\xe0\xa4\xbe\xe0\xa4\x93\xe0\xa4\xb5\xe0\xa4\xbe\xe0\xa4\xa6\xe0\xa5\x80,n,m,pl,3,o,0_\xe0\xa4\x95\xe0\xa4\xbe,0'
p4257
sS'chunkid'
p4258
S'NP3'
p4259
sS'drel'
p4260
S'r6:\xe0\xa4\x97\xe0\xa5\x9d'
p4261
sS'vpos'
p4262
S'vib_2'
p4263
sS'chunktype'
p4264
S'head:NP3'
p4265
ssbsg1450
I00
sg1453
I00
sg1464
Nsg1451
Nsg172
I2
sg158
I7
sg1810
Nsg1462
Nsg1811
S'NN'
p4266
sg247
(issf_api
FeatureSet
p4267
(dp4268
g250
(dp4269
S'posn'
p4270
S'40'
p4271
sS'name'
p4272
S'\xe0\xa4\xae\xe0\xa4\xbe\xe0\xa4\x93\xe0\xa4\xb5\xe0\xa4\xbe\xe0\xa4\xa6\xe0\xa4\xbf\xe0\xa4\xaf\xe0\xa5\x8b\xe0\xa4\x82'
p4273
sS'af'
p4274
S'\xe0\xa4\xae\xe0\xa4\xbe\xe0\xa4\x93\xe0\xa4\xb5\xe0\xa4\xbe\xe0\xa4\xa6\xe0\xa5\x80,n,m,pl,3,o,0,0'
p4275
ssbsg1472
I00
sba(issf_api
Word
p4276
(dp4277
g1789
I00
sg1790
V\u0915\u093e
p4278
sg1792
(issf_api
FeatureSet
p4279
(dp4280
g250
(dp4281
S'posn'
p4282
S'50'
p4283
sS'name'
p4284
S'\xe0\xa4\x95\xe0\xa4\xbe'
p4285
sS'drel'
p4286
S'lwg__psp:\xe0\xa4\xae\xe0\xa4\xbe\xe0\xa4\x93\xe0\xa4\xb5\xe0\xa4\xbe\xe0\xa4\xa6\xe0\xa4\xbf\xe0\xa4\xaf\xe0\xa5\x8b\xe0\xa4\x82'
p4287
sS'chunktype'
p4288
S'child:NP3'
p4289
sS'af'
p4290
S'\xe0\xa4\x95\xe0\xa4\xbe,psp,m,sg,,d,,'
p4291
ssbsg1450
I00
sg1453
I00
sg1464
Nsg1451
Nsg172
I2
sg158
I7
sg1810
Nsg1462
Nsg1811
S'PSP'
p4292
sg247
(issf_api
FeatureSet
p4293
(dp4294
g250
(dp4295
S'posn'
p4296
S'50'
p4297
sS'name'
p4298
S'\xe0\xa4\x95\xe0\xa4\xbe'
p4299
sS'af'
p4300
S'\xe0\xa4\x95\xe0\xa4\xbe,psp,m,sg,,d,,'
p4301
ssbsg1472
I00
sba(issf_api
Word
p4302
(dp4303
g1789
I00
sg1790
V\u090f\u0915
p4304
sg1792
(issf_api
FeatureSet
p4305
(dp4306
g250
(dp4307
S'posn'
p4308
S'60'
p4309
sS'name'
p4310
S'\xe0\xa4\x8f\xe0\xa4\x95'
p4311
sS'drel'
p4312
S'nmod__adj:\xe0\xa4\x97\xe0\xa5\x9d'
p4313
sS'chunktype'
p4314
S'child:NP4'
p4315
sS'af'
p4316
S'\xe0\xa4\x8f\xe0\xa4\x95,num,any,any,,any,,'
p4317
ssbsg1450
I00
sg1453
I00
sg1464
Nsg1451
Nsg172
I3
sg158
I7
sg1810
Nsg1462
Nsg1811
S'QC'
p4318
sg247
(issf_api
FeatureSet
p4319
(dp4320
g250
(dp4321
S'posn'
p4322
S'60'
p4323
sS'name'
p4324
S'\xe0\xa4\x8f\xe0\xa4\x95'
p4325
sS'af'
p4326
S'\xe0\xa4\x8f\xe0\xa4\x95,num,any,any,,any,,'
p4327
ssbsg1472
I00
sba(issf_api
Word
p4328
(dp4329
g1789
I00
sg1790
V\u092e\u0939\u0924\u094d\u0935\u092a\u0942\u0930\u094d\u0923
p4330
sg1792
(issf_api
FeatureSet
p4331
(dp4332
g250
(dp4333
S'posn'
p4334
S'70'
p4335
sS'name'
p4336
S'\xe0\xa4\xae\xe0\xa4\xb9\xe0\xa4\xa4\xe0\xa5\x8d\xe0\xa4\xb5\xe0\xa4\xaa\xe0\xa5\x82\xe0\xa4\xb0\xe0\xa5\x8d\xe0\xa4\xa3'
p4337
sS'drel'
p4338
S'nmod__adj:\xe0\xa4\x97\xe0\xa5\x9d'
p4339
sS'chunktype'
p4340
S'child:NP4'
p4341
sS'af'
p4342
S'\xe0\xa4\xae\xe0\xa4\xb9\xe0\xa4\xa4\xe0\xa5\x8d\xe0\xa4\xb5\xe0\xa4\xaa\xe0\xa5\x82\xe0\xa4\xb0\xe0\xa5\x8d\xe0\xa4\xa3,adj,any,any,,d,,'
p4343
ssbsg1450
I00
sg1453
I00
sg1464
Nsg1451
Nsg172
I3
sg158
I7
sg1810
Nsg1462
Nsg1811
S'JJ'
p4344
sg247
(issf_api
FeatureSet
p4345
(dp4346
g250
(dp4347
S'posn'
p4348
S'70'
p4349
sS'name'
p4350
S'\xe0\xa4\xae\xe0\xa4\xb9\xe0\xa4\xa4\xe0\xa5\x8d\xe0\xa4\xb5\xe0\xa4\xaa\xe0\xa5\x82\xe0\xa4\xb0\xe0\xa5\x8d\xe0\xa4\xa3'
p4351
sS'af'
p4352
S'\xe0\xa4\xae\xe0\xa4\xb9\xe0\xa4\xa4\xe0\xa5\x8d\xe0\xa4\xb5\xe0\xa4\xaa\xe0\xa5\x82\xe0\xa4\xb0\xe0\xa5\x8d\xe0\xa4\xa3,adj,any,any,,d,,'
p4353
ssbsg1472
I00
sba(issf_api
Word
p4354
(dp4355
g1789
I00
sg1790
V\u0917\u095d
p4356
sg1792
(issf_api
FeatureSet
p4357
(dp4358
g250
(dp4359
S'posn'
p4360
S'80'
p4361
sS'name'
p4362
S'\xe0\xa4\x97\xe0\xa5\x9d'
p4363
sS'af'
p4364
S'\xe0\xa4\x97\xe0\xa4\xa2,n,m,sg,3,d,0,0'
p4365
sS'chunkid'
p4366
S'NP4'
p4367
sS'drel'
p4368
S'k1s:\xe0\xa4\xac\xe0\xa4\xa8'
p4369
sS'chunktype'
p4370
S'head:NP4'
p4371
ssbsg1450
I00
sg1453
I00
sg1464
Nsg1451
Nsg172
I3
sg158
I7
sg1810
Nsg1462
Nsg1811
S'NN'
p4372
sg247
(issf_api
FeatureSet
p4373
(dp4374
g250
(dp4375
S'posn'
p4376
S'80'
p4377
sS'name'
p4378
S'\xe0\xa4\x97\xe0\xa5\x9d'
p4379
sS'af'
p4380
S'\xe0\xa4\x97\xe0\xa4\xa2,n,m,sg,3,d,0,0'
p4381
ssbsg1472
I00
sba(issf_api
Word
p4382
(dp4383
g1789
I00
sg1790
V\u092c\u0928
p4384
sg1792
(issf_api
FeatureSet
p4385
(dp4386
g250
(dp4387
S'posn'
p4388
S'90'
p4389
sS'name'
p4390
S'\xe0\xa4\xac\xe0\xa4\xa8'
p4391
sS'af'
p4392
S'\xe0\xa4\xac\xe0\xa4\xa8,v,m,sg,3,,0_\xe0\xa4\x9c\xe0\xa4\xbe+\xe0\xa4\xaf\xe0\xa4\xbe1_\xe0\xa4\xb9\xe0\xa5\x88,0'
p4393
sS'chunkid'
p4394
S'VGF'
p4395
sS'chunktype'
p4396
S'head:VGF'
p4397
sS'voicetype'
p4398
S'active'
p4399
sS'vpos'
p4400
S'tam_2_3'
p4401
sS'stype'
p4402
S'declarative'
p4403
ssbsg1450
I00
sg1453
I00
sg1464
Nsg1451
Nsg172
I4
sg158
I7
sg1810
Nsg1462
Nsg1811
S'VM'
p4404
sg247
(issf_api
FeatureSet
p4405
(dp4406
g250
(dp4407
S'posn'
p4408
S'90'
p4409
sS'name'
p4410
S'\xe0\xa4\xac\xe0\xa4\xa8'
p4411
sS'af'
p4412
S'\xe0\xa4\xac\xe0\xa4\xa8,v,any,any,any,,0,0'
p4413
ssbsg1472
I00
sba(issf_api
Word
p4414
(dp4415
g1789
I00
sg1790
V\u0917\u092f\u093e
p4416
sg1792
(issf_api
FeatureSet
p4417
(dp4418
g250
(dp4419
S'posn'
p4420
S'100'
p4421
sS'name'
p4422
S'\xe0\xa4\x97\xe0\xa4\xaf\xe0\xa4\xbe'
p4423
sS'drel'
p4424
S'lwg__vaux:\xe0\xa4\xac\xe0\xa4\xa8'
p4425
sS'chunktype'
p4426
S'child:VGF'
p4427
sS'af'
p4428
S'\xe0\xa4\x9c\xe0\xa4\xbe,v,m,sg,any,,\xe0\xa4\xaf\xe0\xa4\xbe1,yA1'
p4429
ssbsg1450
I00
sg1453
I00
sg1464
Nsg1451
Nsg172
I4
sg158
I7
sg1810
Nsg1462
Nsg1811
S'VAUX'
p4430
sg247
(issf_api
FeatureSet
p4431
(dp4432
g250
(dp4433
S'posn'
p4434
S'100'
p4435
sS'name'
p4436
S'\xe0\xa4\x97\xe0\xa4\xaf\xe0\xa4\xbe'
p4437
sS'af'
p4438
S'\xe0\xa4\x9c\xe0\xa4\xbe,v,m,sg,any,,\xe0\xa4\xaf\xe0\xa4\xbe1,yA1'
p4439
ssbsg1472
I00
sba(issf_api
Word
p4440
(dp4441
g1789
I00
sg1790
V\u0939\u0948
p4442
sg1792
(issf_api
FeatureSet
p4443
(dp4444
g250
(dp4445
S'posn'
p4446
S'110'
p4447
sS'name'
p4448
S'\xe0\xa4\xb9\xe0\xa5\x88'
p4449
sS'drel'
p4450
S'lwg__vaux:\xe0\xa4\xac\xe0\xa4\xa8'
p4451
sS'chunktype'
p4452
S'child:VGF'
p4453
sS'af'
p4454
S'\xe0\xa4\xb9\xe0\xa5\x88,v,any,sg,3,,\xe0\xa4\xb9\xe0\xa5\x88,hE'
p4455
ssbsg1450
I00
sg1453
I00
sg1464
Nsg1451
Nsg172
I4
sg158
I7
sg1810
Nsg1462
Nsg1811
S'VAUX'
p4456
sg247
(issf_api
FeatureSet
p4457
(dp4458
g250
(dp4459
S'posn'
p4460
S'110'
p4461
sS'name'
p4462
S'\xe0\xa4\xb9\xe0\xa5\x88'
p4463
sS'af'
p4464
S'\xe0\xa4\xb9\xe0\xa5\x88,v,any,sg,3,,\xe0\xa4\xb9\xe0\xa5\x88,hE'
p4465
ssbsg1472
I00
sba(issf_api
Word
p4466
(dp4467
g1789
I00
sg1790
V\u0964
sg1792
(issf_api
FeatureSet
p4468
(dp4469
g250
(dp4470
S'posn'
p4471
S'120'
p4472
sS'name'
p4473
S'\xe0\xa5\xa4'
p4474
sS'af'
p4475
S'\xe0\xa5\xa4,punc,,,,,,'
p4476
sS'chunkid'
p4477
S'BLK'
p4478
sS'drel'
p4479
S'rsym:\xe0\xa4\xac\xe0\xa4\xa8'
p4480
sS'chunktype'
p4481
S'head:BLK'
p4482
ssbsg1450
I00
sg1453
I00
sg1464
Nsg1451
Nsg172
I5
sg158
I7
sg1810
Nsg1462
Nsg1811
S'SYM'
p4483
sg247
(issf_api
FeatureSet
p4484
(dp4485
g250
(dp4486
S'posn'
p4487
S'120'
p4488
sS'name'
p4489
S'\xe0\xa5\xa4'
p4490
sS'af'
p4491
S'\xe0\xa5\xa4,punc,,,,,,'
p4492
ssbsg1472
I00
sba(issf_api
Word
p4493
(dp4494
g1789
I00
sg1790
V\u092e\u093e\u0913\u0935\u093e\u0926\u093f\u092f\u094b\u0902
p4495
sg1792
(issf_api
FeatureSet
p4496
(dp4497
g250
(dp4498
S'posn'
p4499
S'10'
p4500
sS'name'
p4501
S'\xe0\xa4\xae\xe0\xa4\xbe\xe0\xa4\x93\xe0\xa4\xb5\xe0\xa4\xbe\xe0\xa4\xa6\xe0\xa4\xbf\xe0\xa4\xaf\xe0\xa5\x8b\xe0\xa4\x82'
p4502
sS'af'
p4503
S'\xe0\xa4\xae\xe0\xa4\xbe\xe0\xa4\x93\xe0\xa4\xb5\xe0\xa4\xbe\xe0\xa4\xa6\xe0\xa5\x80,n,m,pl,3,o,0_\xe0\xa4\x95\xe0\xa4\xbe,0'
p4504
sS'chunkid'
p4505
S'NP'
p4506
sS'drel'
p4507
S'r6:\xe0\xa4\xaf\xe0\xa4\xb9\xe0\xa4\xbe\xe0\xa4\x81'
p4508
sS'vpos'
p4509
S'vib_2'
p4510
sS'chunktype'
p4511
S'head:NP'
p4512
ssbsg1450
I00
sg1453
I00
sg1464
Nsg1451
Nsg172
I0
sg158
I8
sg1810
Nsg1462
Nsg1811
S'NN'
p4513
sg247
(issf_api
FeatureSet
p4514
(dp4515
g250
(dp4516
S'posn'
p4517
S'10'
p4518
sS'name'
p4519
S'\xe0\xa4\xae\xe0\xa4\xbe\xe0\xa4\x93\xe0\xa4\xb5\xe0\xa4\xbe\xe0\xa4\xa6\xe0\xa4\xbf\xe0\xa4\xaf\xe0\xa5\x8b\xe0\xa4\x82'
p4520
sS'af'
p4521
S'\xe0\xa4\xae\xe0\xa4\xbe\xe0\xa4\x93\xe0\xa4\xb5\xe0\xa4\xbe\xe0\xa4\xa6\xe0\xa5\x80,n,m,pl,3,o,0,0'
p4522
ssbsg1472
I00
sba(issf_api
Word
p4523
(dp4524
g1789
I00
sg1790
V\u0915\u0947
p4525
sg1792
(issf_api
FeatureSet
p4526
(dp4527
g250
(dp4528
S'posn'
p4529
S'20'
p4530
sS'name'
p4531
S'\xe0\xa4\x95\xe0\xa5\x87'
p4532
sS'drel'
p4533
S'lwg__psp:\xe0\xa4\xae\xe0\xa4\xbe\xe0\xa4\x93\xe0\xa4\xb5\xe0\xa4\xbe\xe0\xa4\xa6\xe0\xa4\xbf\xe0\xa4\xaf\xe0\xa5\x8b\xe0\xa4\x82'
p4534
sS'chunktype'
p4535
S'child:NP'
p4536
sS'af'
p4537
S'\xe0\xa4\x95\xe0\xa4\xbe,psp,m,pl,,d,,'
p4538
ssbsg1450
I00
sg1453
I00
sg1464
Nsg1451
Nsg172
I0
sg158
I8
sg1810
Nsg1462
Nsg1811
S'PSP'
p4539
sg247
(issf_api
FeatureSet
p4540
(dp4541
g250
(dp4542
S'posn'
p4543
S'20'
p4544
sS'name'
p4545
S'\xe0\xa4\x95\xe0\xa5\x87'
p4546
sS'af'
p4547
S'\xe0\xa4\x95\xe0\xa4\xbe,psp,m,pl,,d,,'
p4548
ssbsg1472
I00
sba(issf_api
Word
p4549
(dp4550
g1789
I00
sg1790
V\u092f\u0939\u093e\u0901
p4551
sg1792
(issf_api
FeatureSet
p4552
(dp4553
g250
(dp4554
S'posn'
p4555
S'30'
p4556
sS'name'
p4557
S'\xe0\xa4\xaf\xe0\xa4\xb9\xe0\xa4\xbe\xe0\xa4\x81'
p4558
sS'af'
p4559
S'\xe0\xa4\xaf\xe0\xa4\xb9\xe0\xa4\xbe\xe0\xa4\x81,pn,,,,o,,'
p4560
sS'chunkid'
p4561
S'NP2'
p4562
sS'drel'
p4563
S'k7p:\xe0\xa4\xb9\xe0\xa5\x88\xe0\xa4\x82'
p4564
sS'chunktype'
p4565
S'head:NP2'
p4566
ssbsg1450
I00
sg1453
I00
sg1464
Nsg1451
Nsg172
I1
sg158
I8
sg1810
Nsg1462
Nsg1811
S'PRP'
p4567
sg247
(issf_api
FeatureSet
p4568
(dp4569
g250
(dp4570
S'posn'
p4571
S'30'
p4572
sS'name'
p4573
S'\xe0\xa4\xaf\xe0\xa4\xb9\xe0\xa4\xbe\xe0\xa4\x81'
p4574
sS'af'
p4575
S'\xe0\xa4\xaf\xe0\xa4\xb9\xe0\xa4\xbe\xe0\xa4\x81,pn,,,,o,,'
p4576
ssbsg1472
I00
sba(issf_api
Word
p4577
(dp4578
g1789
I00
sg1790
V\u0915\u0908
p4579
sg1792
(issf_api
FeatureSet
p4580
(dp4581
g250
(dp4582
S'posn'
p4583
S'40'
p4584
sS'name'
p4585
S'\xe0\xa4\x95\xe0\xa4\x88'
p4586
sS'drel'
p4587
S'nmod__adj:\xe0\xa4\x95\xe0\xa5\x87\xe0\xa4\x82\xe0\xa4\xa6\xe0\xa5\x8d\xe0\xa4\xb0'
p4588
sS'chunktype'
p4589
S'child:NP3'
p4590
sS'af'
p4591
S'\xe0\xa4\x95\xe0\xa4\x88,avy,,,,,,'
p4592
ssbsg1450
I00
sg1453
I00
sg1464
Nsg1451
Nsg172
I2
sg158
I8
sg1810
Nsg1462
Nsg1811
S'QF'
p4593
sg247
(issf_api
FeatureSet
p4594
(dp4595
g250
(dp4596
S'posn'
p4597
S'40'
p4598
sS'name'
p4599
S'\xe0\xa4\x95\xe0\xa4\x88'
p4600
sS'af'
p4601
S'\xe0\xa4\x95\xe0\xa4\x88,avy,,,,,,'
p4602
ssbsg1472
I00
sba(issf_api
Word
p4603
(dp4604
g1789
I00
sg1790
V\u092a\u094d\u0930\u0936\u093f\u0915\u094d\u0937\u0923
p4605
sg1792
(issf_api
FeatureSet
p4606
(dp4607
g250
(dp4608
S'posn'
p4609
S'50'
p4610
sS'name'
p4611
S'\xe0\xa4\xaa\xe0\xa5\x8d\xe0\xa4\xb0\xe0\xa4\xb6\xe0\xa4\xbf\xe0\xa4\x95\xe0\xa5\x8d\xe0\xa4\xb7\xe0\xa4\xa3'
p4612
sS'drel'
p4613
S'pof__cn:\xe0\xa4\x95\xe0\xa5\x87\xe0\xa4\x82\xe0\xa4\xa6\xe0\xa5\x8d\xe0\xa4\xb0'
p4614
sS'chunktype'
p4615
S'child:NP3'
p4616
sS'af'
p4617
S'\xe0\xa4\xaa\xe0\xa5\x8d\xe0\xa4\xb0\xe0\xa4\xb6\xe0\xa4\xbf\xe0\xa4\x95\xe0\xa5\x8d\xe0\xa4\xb7\xe0\xa4\xa3,n,m,sg,3,d,0,0'
p4618
ssbsg1450
I00
sg1453
I00
sg1464
Nsg1451
Nsg172
I2
sg158
I8
sg1810
Nsg1462
Nsg1811
S'NNC'
p4619
sg247
(issf_api
FeatureSet
p4620
(dp4621
g250
(dp4622
S'posn'
p4623
S'50'
p4624
sS'name'
p4625
S'\xe0\xa4\xaa\xe0\xa5\x8d\xe0\xa4\xb0\xe0\xa4\xb6\xe0\xa4\xbf\xe0\xa4\x95\xe0\xa5\x8d\xe0\xa4\xb7\xe0\xa4\xa3'
p4626
sS'af'
p4627
S'\xe0\xa4\xaa\xe0\xa5\x8d\xe0\xa4\xb0\xe0\xa4\xb6\xe0\xa4\xbf\xe0\xa4\x95\xe0\xa5\x8d\xe0\xa4\xb7\xe0\xa4\xa3,n,m,sg,3,d,0,0'
p4628
ssbsg1472
I00
sba(issf_api
Word
p4629
(dp4630
g1789
I00
sg1790
V\u0915\u0947\u0902\u0926\u094d\u0930
p4631
sg1792
(issf_api
FeatureSet
p4632
(dp4633
g250
(dp4634
S'posn'
p4635
S'60'
p4636
sS'name'
p4637
S'\xe0\xa4\x95\xe0\xa5\x87\xe0\xa4\x82\xe0\xa4\xa6\xe0\xa5\x8d\xe0\xa4\xb0'
p4638
sS'af'
p4639
S'\xe0\xa4\x95\xe0\xa5\x87\xe0\xa4\x82\xe0\xa4\xa6\xe0\xa5\x8d\xe0\xa4\xb0,n,m,pl,3,d,0,0'
p4640
sS'chunkid'
p4641
S'NP3'
p4642
sS'drel'
p4643
S'k1:\xe0\xa4\xb9\xe0\xa5\x88\xe0\xa4\x82'
p4644
sS'chunktype'
p4645
S'head:NP3'
p4646
ssbsg1450
I00
sg1453
I00
sg1464
Nsg1451
Nsg172
I2
sg158
I8
sg1810
Nsg1462
Nsg1811
S'NN'
p4647
sg247
(issf_api
FeatureSet
p4648
(dp4649
g250
(dp4650
S'posn'
p4651
S'60'
p4652
sS'name'
p4653
S'\xe0\xa4\x95\xe0\xa5\x87\xe0\xa4\x82\xe0\xa4\xa6\xe0\xa5\x8d\xe0\xa4\xb0'
p4654
sS'af'
p4655
S'\xe0\xa4\x95\xe0\xa5\x87\xe0\xa4\x82\xe0\xa4\xa6\xe0\xa5\x8d\xe0\xa4\xb0,n,m,pl,3,d,0,0'
p4656
ssbsg1472
I00
sba(issf_api
Word
p4657
(dp4658
g1789
I00
sg1790
V\u0939\u0948\u0902
p4659
sg1792
(issf_api
FeatureSet
p4660
(dp4661
g250
(dp4662
S'posn'
p4663
S'70'
p4664
sS'name'
p4665
S'\xe0\xa4\xb9\xe0\xa5\x88\xe0\xa4\x82'
p4666
sS'af'
p4667
S'\xe0\xa4\xb9\xe0\xa5\x88,v,any,pl,3,,\xe0\xa4\xb9\xe0\xa5\x88,hE'
p4668
sS'chunkid'
p4669
S'VGF'
p4670
sS'chunktype'
p4671
S'head:VGF'
p4672
sS'voicetype'
p4673
S'active'
p4674
sS'stype'
p4675
S'declarative'
p4676
ssbsg1450
I00
sg1453
I00
sg1464
Nsg1451
Nsg172
I3
sg158
I8
sg1810
Nsg1462
Nsg1811
S'VM'
p4677
sg247
(issf_api
FeatureSet
p4678
(dp4679
g250
(dp4680
S'posn'
p4681
S'70'
p4682
sS'name'
p4683
S'\xe0\xa4\xb9\xe0\xa5\x88\xe0\xa4\x82'
p4684
sS'af'
p4685
S'\xe0\xa4\xb9\xe0\xa5\x88,v,any,pl,3,,\xe0\xa4\xb9\xe0\xa5\x88,hE'
p4686
ssbsg1472
I00
sba(issf_api
Word
p4687
(dp4688
g1789
I00
sg1790
V\u0964
sg1792
(issf_api
FeatureSet
p4689
(dp4690
g250
(dp4691
S'posn'
p4692
S'80'
p4693
sS'name'
p4694
S'\xe0\xa5\xa4'
p4695
sS'af'
p4696
S'\xe0\xa5\xa4,punc,,,,,,'
p4697
sS'chunkid'
p4698
S'BLK'
p4699
sS'drel'
p4700
S'rsym:\xe0\xa4\xb9\xe0\xa5\x88\xe0\xa4\x82'
p4701
sS'chunktype'
p4702
S'head:BLK'
p4703
ssbsg1450
I00
sg1453
I00
sg1464
Nsg1451
Nsg172
I4
sg158
I8
sg1810
Nsg1462
Nsg1811
S'SYM'
p4704
sg247
(issf_api
FeatureSet
p4705
(dp4706
g250
(dp4707
S'posn'
p4708
S'80'
p4709
sS'name'
p4710
S'\xe0\xa5\xa4'
p4711
sS'af'
p4712
S'\xe0\xa5\xa4,punc,,,,,,'
p4713
ssbsg1472
I00
sba(issf_api
Word
p4714
(dp4715
g1789
I00
sg1790
V\u0906\u0926\u093f\u0935\u093e\u0938\u0940
p4716
sg1792
(issf_api
FeatureSet
p4717
(dp4718
g250
(dp4719
S'posn'
p4720
S'10'
p4721
sS'name'
p4722
S'\xe0\xa4\x86\xe0\xa4\xa6\xe0\xa4\xbf\xe0\xa4\xb5\xe0\xa4\xbe\xe0\xa4\xb8\xe0\xa5\x80'
p4723
sS'drel'
p4724
S'pof__cn:\xe0\xa4\xb8\xe0\xa4\x82\xe0\xa4\xb8\xe0\xa5\x8d\xe0\xa4\xa5\xe0\xa4\xbe\xe0\xa4\xa8'
p4725
sS'chunktype'
p4726
S'child:NP'
p4727
sS'af'
p4728
S'\xe0\xa4\x86\xe0\xa4\xa6\xe0\xa4\xbf\xe0\xa4\xb5\xe0\xa4\xbe\xe0\xa4\xb8\xe0\xa5\x80,n,m,sg,3,d,0,0'
p4729
ssbsg1450
I00
sg1453
I00
sg1464
Nsg1451
Nsg172
I0
sg158
I9
sg1810
Nsg1462
Nsg1811
S'NNPC'
p4730
sg247
(issf_api
FeatureSet
p4731
(dp4732
g250
(dp4733
S'posn'
p4734
S'10'
p4735
sS'name'
p4736
S'\xe0\xa4\x86\xe0\xa4\xa6\xe0\xa4\xbf\xe0\xa4\xb5\xe0\xa4\xbe\xe0\xa4\xb8\xe0\xa5\x80'
p4737
sS'af'
p4738
S'\xe0\xa4\x86\xe0\xa4\xa6\xe0\xa4\xbf\xe0\xa4\xb5\xe0\xa4\xbe\xe0\xa4\xb8\xe0\xa5\x80,n,m,sg,3,d,0,0'
p4739
ssbsg1472
I00
sba(issf_api
Word
p4740
(dp4741
g1789
I00
sg1790
V\u0936\u094b\u0927
p4742
sg1792
(issf_api
FeatureSet
p4743
(dp4744
g250
(dp4745
S'posn'
p4746
S'20'
p4747
sS'name'
p4748
S'\xe0\xa4\xb6\xe0\xa5\x8b\xe0\xa4\xa7'
p4749
sS'drel'
p4750
S'pof__cn:\xe0\xa4\xb8\xe0\xa4\x82\xe0\xa4\xb8\xe0\xa5\x8d\xe0\xa4\xa5\xe0\xa4\xbe\xe0\xa4\xa8'
p4751
sS'chunktype'
p4752
S'child:NP'
p4753
sS'af'
p4754
S'\xe0\xa4\xb6\xe0\xa5\x8b\xe0\xa4\xa7,n,m,sg,3,d,0,0'
p4755
ssbsg1450
I00
sg1453
I00
sg1464
Nsg1451
Nsg172
I0
sg158
I9
sg1810
Nsg1462
Nsg1811
S'NNPC'
p4756
sg247
(issf_api
FeatureSet
p4757
(dp4758
g250
(dp4759
S'posn'
p4760
S'20'
p4761
sS'name'
p4762
S'\xe0\xa4\xb6\xe0\xa5\x8b\xe0\xa4\xa7'
p4763
sS'af'
p4764
S'\xe0\xa4\xb6\xe0\xa5\x8b\xe0\xa4\xa7,n,m,sg,3,d,0,0'
p4765
ssbsg1472
I00
sba(issf_api
Word
p4766
(dp4767
g1789
I00
sg1790
V\u0914\u0930
p4768
sg1792
(issf_api
FeatureSet
p4769
(dp4770
g250
(dp4771
S'posn'
p4772
S'30'
p4773
sS'name'
p4774
S'\xe0\xa4\x94\xe0\xa4\xb0'
p4775
sS'drel'
p4776
S'pof__cn:\xe0\xa4\xb8\xe0\xa4\x82\xe0\xa4\xb8\xe0\xa5\x8d\xe0\xa4\xa5\xe0\xa4\xbe\xe0\xa4\xa8'
p4777
sS'chunktype'
p4778
S'child:NP'
p4779
sS'af'
p4780
S'\xe0\xa4\x94\xe0\xa4\xb0,avy,,,,,,'
p4781
ssbsg1450
I00
sg1453
I00
sg1464
Nsg1451
Nsg172
I0
sg158
I9
sg1810
Nsg1462
Nsg1811
S'NNPC'
p4782
sg247
(issf_api
FeatureSet
p4783
(dp4784
g250
(dp4785
S'posn'
p4786
S'30'
p4787
sS'name'
p4788
S'\xe0\xa4\x94\xe0\xa4\xb0'
p4789
sS'af'
p4790
S'\xe0\xa4\x94\xe0\xa4\xb0,avy,,,,,,'
p4791
ssbsg1472
I00
sba(issf_api
Word
p4792
(dp4793
g1789
I00
sg1790
V\u092a\u094d\u0930\u0936\u093f\u0915\u094d\u0937\u0923
p4794
sg1792
(issf_api
FeatureSet
p4795
(dp4796
g250
(dp4797
S'posn'
p4798
S'40'
p4799
sS'name'
p4800
S'\xe0\xa4\xaa\xe0\xa5\x8d\xe0\xa4\xb0\xe0\xa4\xb6\xe0\xa4\xbf\xe0\xa4\x95\xe0\xa5\x8d\xe0\xa4\xb7\xe0\xa4\xa3'
p4801
sS'drel'
p4802
S'pof__cn:\xe0\xa4\xb8\xe0\xa4\x82\xe0\xa4\xb8\xe0\xa5\x8d\xe0\xa4\xa5\xe0\xa4\xbe\xe0\xa4\xa8'
p4803
sS'chunktype'
p4804
S'child:NP'
p4805
sS'af'
p4806
S'\xe0\xa4\xaa\xe0\xa5\x8d\xe0\xa4\xb0\xe0\xa4\xb6\xe0\xa4\xbf\xe0\xa4\x95\xe0\xa5\x8d\xe0\xa4\xb7\xe0\xa4\xa3,n,m,sg,3,d,0,0'
p4807
ssbsg1450
I00
sg1453
I00
sg1464
Nsg1451
Nsg172
I0
sg158
I9
sg1810
Nsg1462
Nsg1811
S'NNPC'
p4808
sg247
(issf_api
FeatureSet
p4809
(dp4810
g250
(dp4811
S'posn'
p4812
S'40'
p4813
sS'name'
p4814
S'\xe0\xa4\xaa\xe0\xa5\x8d\xe0\xa4\xb0\xe0\xa4\xb6\xe0\xa4\xbf\xe0\xa4\x95\xe0\xa5\x8d\xe0\xa4\xb7\xe0\xa4\xa3'
p4815
sS'af'
p4816
S'\xe0\xa4\xaa\xe0\xa5\x8d\xe0\xa4\xb0\xe0\xa4\xb6\xe0\xa4\xbf\xe0\xa4\x95\xe0\xa5\x8d\xe0\xa4\xb7\xe0\xa4\xa3,n,m,sg,3,d,0,0'
p4817
ssbsg1472
I00
sba(issf_api
Word
p4818
(dp4819
g1789
I00
sg1790
V\u0938\u0902\u0938\u094d\u0925\u093e\u0928
p4820
sg1792
(issf_api
FeatureSet
p4821
(dp4822
g250
(dp4823
S'posn'
p4824
S'50'
p4825
sS'name'
p4826
S'\xe0\xa4\xb8\xe0\xa4\x82\xe0\xa4\xb8\xe0\xa5\x8d\xe0\xa4\xa5\xe0\xa4\xbe\xe0\xa4\xa8'
p4827
sS'af'
p4828
S'\xe0\xa4\xb8\xe0\xa4\x82\xe0\xa4\xb8\xe0\xa5\x8d\xe0\xa4\xa5\xe0\xa4\xbe\xe0\xa4\xa8,n,m,sg,3,o,0_\xe0\xa4\x95\xe0\xa4\xbe,0'
p4829
sS'chunkid'
p4830
S'NP'
p4831
sS'drel'
p4832
S'r6:\xe0\xa4\xa8\xe0\xa4\xbf\xe0\xa4\xa6\xe0\xa5\x87\xe0\xa4\xb6\xe0\xa4\x95'
p4833
sS'vpos'
p4834
S'vib_6'
p4835
sS'chunktype'
p4836
S'head:NP'
p4837
ssbsg1450
I00
sg1453
I00
sg1464
Nsg1451
Nsg172
I0
sg158
I9
sg1810
Nsg1462
Nsg1811
S'NNP'
p4838
sg247
(issf_api
FeatureSet
p4839
(dp4840
g250
(dp4841
S'posn'
p4842
S'50'
p4843
sS'name'
p4844
S'\xe0\xa4\xb8\xe0\xa4\x82\xe0\xa4\xb8\xe0\xa5\x8d\xe0\xa4\xa5\xe0\xa4\xbe\xe0\xa4\xa8'
p4845
sS'af'
p4846
S'\xe0\xa4\xb8\xe0\xa4\x82\xe0\xa4\xb8\xe0\xa5\x8d\xe0\xa4\xa5\xe0\xa4\xbe\xe0\xa4\xa8,n,m,sg,3,o,0,0'
p4847
ssbsg1472
I00
sba(issf_api
Word
p4848
(dp4849
g1789
I00
sg1790
V\u0915\u0947
p4850
sg1792
(issf_api
FeatureSet
p4851
(dp4852
g250
(dp4853
S'posn'
p4854
S'60'
p4855
sS'name'
p4856
S'\xe0\xa4\x95\xe0\xa5\x87'
p4857
sS'drel'
p4858
S'lwg__psp:\xe0\xa4\xb8\xe0\xa4\x82\xe0\xa4\xb8\xe0\xa5\x8d\xe0\xa4\xa5\xe0\xa4\xbe\xe0\xa4\xa8'
p4859
sS'chunktype'
p4860
S'child:NP'
p4861
sS'af'
p4862
S'\xe0\xa4\x95\xe0\xa4\xbe,psp,m,sg,,o,,'
p4863
ssbsg1450
I00
sg1453
I00
sg1464
Nsg1451
Nsg172
I0
sg158
I9
sg1810
Nsg1462
Nsg1811
S'PSP'
p4864
sg247
(issf_api
FeatureSet
p4865
(dp4866
g250
(dp4867
S'posn'
p4868
S'60'
p4869
sS'name'
p4870
S'\xe0\xa4\x95\xe0\xa5\x87'
p4871
sS'af'
p4872
S'\xe0\xa4\x95\xe0\xa4\xbe,psp,m,sg,,o,,'
p4873
ssbsg1472
I00
sba(issf_api
Word
p4874
(dp4875
g1789
I00
sg1790
V\u0938\u0902\u092f\u0941\u0915\u094d\u0924
p4876
sg1792
(issf_api
FeatureSet
p4877
(dp4878
g250
(dp4879
S'posn'
p4880
S'70'
p4881
sS'name'
p4882
S'\xe0\xa4\xb8\xe0\xa4\x82\xe0\xa4\xaf\xe0\xa5\x81\xe0\xa4\x95\xe0\xa5\x8d\xe0\xa4\xa4'
p4883
sS'drel'
p4884
S'pof__cn:\xe0\xa4\xa8\xe0\xa4\xbf\xe0\xa4\xa6\xe0\xa5\x87\xe0\xa4\xb6\xe0\xa4\x95'
p4885
sS'chunktype'
p4886
S'child:NP2'
p4887
sS'af'
p4888
S'\xe0\xa4\xb8\xe0\xa4\x82\xe0\xa4\xaf\xe0\xa5\x81\xe0\xa4\x95\xe0\xa5\x8d\xe0\xa4\xa4,n,m,sg,3,d,0,0'
p4889
ssbsg1450
I00
sg1453
I00
sg1464
Nsg1451
Nsg172
I1
sg158
I9
sg1810
Nsg1462
Nsg1811
S'NNC'
p4890
sg247
(issf_api
FeatureSet
p4891
(dp4892
g250
(dp4893
S'posn'
p4894
S'70'
p4895
sS'name'
p4896
S'\xe0\xa4\xb8\xe0\xa4\x82\xe0\xa4\xaf\xe0\xa5\x81\xe0\xa4\x95\xe0\xa5\x8d\xe0\xa4\xa4'
p4897
sS'af'
p4898
S'\xe0\xa4\xb8\xe0\xa4\x82\xe0\xa4\xaf\xe0\xa5\x81\xe0\xa4\x95\xe0\xa5\x8d\xe0\xa4\xa4,n,m,sg,3,d,0,0'
p4899
ssbsg1472
I00
sba(issf_api
Word
p4900
(dp4901
g1789
I00
sg1790
V\u0928\u093f\u0926\u0947\u0936\u0915
p4902
sg1792
(issf_api
FeatureSet
p4903
(dp4904
g250
(dp4905
S'posn'
p4906
S'80'
p4907
sS'name'
p4908
S'\xe0\xa4\xa8\xe0\xa4\xbf\xe0\xa4\xa6\xe0\xa5\x87\xe0\xa4\xb6\xe0\xa4\x95'
p4909
sS'af'
p4910
S'\xe0\xa4\xa8\xe0\xa4\xbf\xe0\xa4\xa6\xe0\xa5\x87\xe0\xa4\xb6\xe0\xa4\x95,n,m,sg,3,o,0,0'
p4911
sS'chunkid'
p4912
S'NP2'
p4913
sS'drel'
p4914
S'nmod:\xe0\xa4\xb5\xe0\xa5\x88\xe0\xa4\xb7\xe0\xa5\x8d\xe0\xa4\xa3\xe0\xa4\xb5'
p4915
sS'chunktype'
p4916
S'head:NP2'
p4917
ssbsg1450
I00
sg1453
I00
sg1464
Nsg1451
Nsg172
I1
sg158
I9
sg1810
Nsg1462
Nsg1811
S'NN'
p4918
sg247
(issf_api
FeatureSet
p4919
(dp4920
g250
(dp4921
S'posn'
p4922
S'80'
p4923
sS'name'
p4924
S'\xe0\xa4\xa8\xe0\xa4\xbf\xe0\xa4\xa6\xe0\xa5\x87\xe0\xa4\xb6\xe0\xa4\x95'
p4925
sS'af'
p4926
S'\xe0\xa4\xa8\xe0\xa4\xbf\xe0\xa4\xa6\xe0\xa5\x87\xe0\xa4\xb6\xe0\xa4\x95,n,m,sg,3,o,0,0'
p4927
ssbsg1472
I00
sba(issf_api
Word
p4928
(dp4929
g1789
I00
sg1790
V\u091f\u0940.
p4930
sg1792
(issf_api
FeatureSet
p4931
(dp4932
g250
(dp4933
S'posn'
p4934
S'90'
p4935
sS'name'
p4936
S'\xe0\xa4\x9f\xe0\xa5\x80.'
p4937
sS'drel'
p4938
S'pof__cn:\xe0\xa4\xb5\xe0\xa5\x88\xe0\xa4\xb7\xe0\xa5\x8d\xe0\xa4\xa3\xe0\xa4\xb5'
p4939
sS'chunktype'
p4940
S'child:NP3'
p4941
sS'af'
p4942
S'\xe0\xa4\x9f\xe0\xa5\x80.,n,m,sg,3,d,0,0'
p4943
ssbsg1450
I00
sg1453
I00
sg1464
Nsg1451
Nsg172
I2
sg158
I9
sg1810
Nsg1462
Nsg1811
S'NNPC'
p4944
sg247
(issf_api
FeatureSet
p4945
(dp4946
g250
(dp4947
S'posn'
p4948
S'90'
p4949
sS'name'
p4950
S'\xe0\xa4\x9f\xe0\xa5\x80.'
p4951
sS'af'
p4952
S'\xe0\xa4\x9f\xe0\xa5\x80.,n,m,sg,3,d,0,0'
p4953
ssbsg1472
I00
sba(issf_api
Word
p4954
(dp4955
g1789
I00
sg1790
V\u0906\u0930.
p4956
sg1792
(issf_api
FeatureSet
p4957
(dp4958
g250
(dp4959
S'posn'
p4960
S'100'
p4961
sS'name'
p4962
S'\xe0\xa4\x86\xe0\xa4\xb0.'
p4963
sS'drel'
p4964
S'pof__cn:\xe0\xa4\xb5\xe0\xa5\x88\xe0\xa4\xb7\xe0\xa5\x8d\xe0\xa4\xa3\xe0\xa4\xb5'
p4965
sS'chunktype'
p4966
S'child:NP3'
p4967
sS'af'
p4968
S'\xe0\xa4\x86\xe0\xa4\xb0.,n,m,sg,3,d,0,0'
p4969
ssbsg1450
I00
sg1453
I00
sg1464
Nsg1451
Nsg172
I2
sg158
I9
sg1810
Nsg1462
Nsg1811
S'NNPC'
p4970
sg247
(issf_api
FeatureSet
p4971
(dp4972
g250
(dp4973
S'posn'
p4974
S'100'
p4975
sS'name'
p4976
S'\xe0\xa4\x86\xe0\xa4\xb0.'
p4977
sS'af'
p4978
S'\xe0\xa4\x86\xe0\xa4\xb0.,n,m,sg,3,d,0,0'
p4979
ssbsg1472
I00
sba(issf_api
Word
p4980
(dp4981
g1789
I00
sg1790
V\u0935\u0948\u0937\u094d\u0923\u0935
p4982
sg1792
(issf_api
FeatureSet
p4983
(dp4984
g250
(dp4985
S'posn'
p4986
S'110'
p4987
sS'name'
p4988
S'\xe0\xa4\xb5\xe0\xa5\x88\xe0\xa4\xb7\xe0\xa5\x8d\xe0\xa4\xa3\xe0\xa4\xb5'
p4989
sS'af'
p4990
S'\xe0\xa4\xb5\xe0\xa5\x88\xe0\xa4\xb7\xe0\xa5\x8d\xe0\xa4\xa3\xe0\xa4\xb5,n,m,sg,3,o,0_\xe0\xa4\xa8\xe0\xa5\x87,0'
p4991
sS'chunkid'
p4992
S'NP3'
p4993
sS'drel'
p4994
S'k1:\xe0\xa4\x95\xe0\xa4\xb9\xe0\xa4\xbe'
p4995
sS'vpos'
p4996
S'vib_4'
p4997
sS'chunktype'
p4998
S'head:NP3'
p4999
ssbsg1450
I00
sg1453
I00
sg1464
Nsg1451
Nsg172
I2
sg158
I9
sg1810
Nsg1462
Nsg1811
S'NNP'
p5000
sg247
(issf_api
FeatureSet
p5001
(dp5002
g250
(dp5003
S'posn'
p5004
S'110'
p5005
sS'name'
p5006
S'\xe0\xa4\xb5\xe0\xa5\x88\xe0\xa4\xb7\xe0\xa5\x8d\xe0\xa4\xa3\xe0\xa4\xb5'
p5007
sS'af'
p5008
S'\xe0\xa4\xb5\xe0\xa5\x88\xe0\xa4\xb7\xe0\xa5\x8d\xe0\xa4\xa3\xe0\xa4\xb5,n,m,sg,3,o,0,0'
p5009
ssbsg1472
I00
sba(issf_api
Word
p5010
(dp5011
g1789
I00
sg1790
V\u0928\u0947
p5012
sg1792
(issf_api
FeatureSet
p5013
(dp5014
g250
(dp5015
S'posn'
p5016
S'120'
p5017
sS'name'
p5018
S'\xe0\xa4\xa8\xe0\xa5\x87'
p5019
sS'drel'
p5020
S'lwg__psp:\xe0\xa4\xb5\xe0\xa5\x88\xe0\xa4\xb7\xe0\xa5\x8d\xe0\xa4\xa3\xe0\xa4\xb5'
p5021
sS'chunktype'
p5022
S'child:NP3'
p5023
sS'af'
p5024
S'\xe0\xa4\xa8\xe0\xa5\x87,psp,,,,,,'
p5025
ssbsg1450
I00
sg1453
I00
sg1464
Nsg1451
Nsg172
I2
sg158
I9
sg1810
Nsg1462
Nsg1811
S'PSP'
p5026
sg247
(issf_api
FeatureSet
p5027
(dp5028
g250
(dp5029
S'posn'
p5030
S'120'
p5031
sS'name'
p5032
S'\xe0\xa4\xa8\xe0\xa5\x87'
p5033
sS'af'
p5034
S'\xe0\xa4\xa8\xe0\xa5\x87,psp,,,,,,'
p5035
ssbsg1472
I00
sba(issf_api
Word
p5036
(dp5037
g1789
I00
sg1790
V\u0915\u0939\u093e
p5038
sg1792
(issf_api
FeatureSet
p5039
(dp5040
g250
(dp5041
S'posn'
p5042
S'130'
p5043
sS'name'
p5044
S'\xe0\xa4\x95\xe0\xa4\xb9\xe0\xa4\xbe'
p5045
sS'af'
p5046
S'\xe0\xa4\x95\xe0\xa4\xb9,v,m,sg,any,,\xe0\xa4\xaf\xe0\xa4\xbe,yA'
p5047
sS'chunkid'
p5048
S'VGF'
p5049
sS'chunktype'
p5050
S'head:VGF'
p5051
sS'voicetype'
p5052
S'active'
p5053
sS'stype'
p5054
S'declarative'
p5055
ssbsg1450
I00
sg1453
I00
sg1464
Nsg1451
Nsg172
I3
sg158
I9
sg1810
Nsg1462
Nsg1811
S'VM'
p5056
sg247
(issf_api
FeatureSet
p5057
(dp5058
g250
(dp5059
S'posn'
p5060
S'130'
p5061
sS'name'
p5062
S'\xe0\xa4\x95\xe0\xa4\xb9\xe0\xa4\xbe'
p5063
sS'af'
p5064
S'\xe0\xa4\x95\xe0\xa4\xb9,v,m,sg,any,,\xe0\xa4\xaf\xe0\xa4\xbe,yA'
p5065
ssbsg1472
I00
sba(issf_api
Word
p5066
(dp5067
g1789
I00
sg1790
V\u0915\u093f
p5068
sg1792
(issf_api
FeatureSet
p5069
(dp5070
g250
(dp5071
S'posn'
p5072
S'140'
p5073
sS'name'
p5074
S'\xe0\xa4\x95\xe0\xa4\xbf'
p5075
sS'af'
p5076
S'\xe0\xa4\x95\xe0\xa4\xbf,avy,,,,,,'
p5077
sS'chunkid'
p5078
S'CCP'
p5079
sS'drel'
p5080
S'k2:\xe0\xa4\x95\xe0\xa4\xb9\xe0\xa4\xbe'
p5081
sS'chunktype'
p5082
S'head:CCP'
p5083
ssbsg1450
I00
sg1453
I00
sg1464
Nsg1451
Nsg172
I4
sg158
I9
sg1810
Nsg1462
Nsg1811
S'CC'
p5084
sg247
(issf_api
FeatureSet
p5085
(dp5086
g250
(dp5087
S'posn'
p5088
S'140'
p5089
sS'name'
p5090
S'\xe0\xa4\x95\xe0\xa4\xbf'
p5091
sS'af'
p5092
S'\xe0\xa4\x95\xe0\xa4\xbf,avy,,,,,,'
p5093
ssbsg1472
I00
sba(issf_api
Word
p5094
(dp5095
g1789
I00
sg1790
V\u092a\u093f\u091b\u0932\u0947
p5096
sg1792
(issf_api
FeatureSet
p5097
(dp5098
g250
(dp5099
S'posn'
p5100
S'150'
p5101
sS'name'
p5102
S'\xe0\xa4\xaa\xe0\xa4\xbf\xe0\xa4\x9b\xe0\xa4\xb2\xe0\xa5\x87'
p5103
sS'drel'
p5104
S'nmod__adj:\xe0\xa4\xae\xe0\xa4\xb9\xe0\xa5\x80\xe0\xa4\xa8\xe0\xa5\x87'
p5105
sS'chunktype'
p5106
S'child:NP4'
p5107
sS'af'
p5108
S'\xe0\xa4\xaa\xe0\xa4\xbf\xe0\xa4\x9b\xe0\xa4\xb2\xe0\xa4\xbe,adj,m,sg,,o,,'
p5109
ssbsg1450
I01
sg1453
I00
sg1464
Nsg1451
Nsg172
I5
sg158
I9
sg1810
I1
sg1462
Nsg1811
S'JJ'
p5110
sg247
(issf_api
FeatureSet
p5111
(dp5112
g250
(dp5113
S'posn'
p5114
S'150'
p5115
sS'name'
p5116
S'\xe0\xa4\xaa\xe0\xa4\xbf\xe0\xa4\x9b\xe0\xa4\xb2\xe0\xa5\x87'
p5117
sS'af'
p5118
S'\xe0\xa4\xaa\xe0\xa4\xbf\xe0\xa4\x9b\xe0\xa4\xb2\xe0\xa4\xbe,adj,m,sg,,o,,'
p5119
ssbsg1472
I00
sba(issf_api
Word
p5120
(dp5121
g1789
I00
sg1790
V\u092e\u0939\u0940\u0928\u0947
p5122
sg1792
(issf_api
FeatureSet
p5123
(dp5124
g250
(dp5125
S'posn'
p5126
S'160'
p5127
sS'name'
p5128
S'\xe0\xa4\xae\xe0\xa4\xb9\xe0\xa5\x80\xe0\xa4\xa8\xe0\xa5\x87'
p5129
sS'af'
p5130
S'\xe0\xa4\xae\xe0\xa4\xb9\xe0\xa5\x80\xe0\xa4\xa8\xe0\xa4\xbe,n,m,sg,3,o,0,0'
p5131
sS'chunkid'
p5132
S'NP4'
p5133
sS'drel'
p5134
S'k7t:\xe0\xa4\x95\xe0\xa4\xb0'
p5135
sS'chunktype'
p5136
S'head:NP4'
p5137
ssbsg1450
I01
sg1453
I00
sg1464
Nsg1451
Nsg172
I5
sg158
I9
sg1810
I1
sg1462
Nsg1811
S'NN'
p5138
sg247
(issf_api
FeatureSet
p5139
(dp5140
g250
(dp5141
S'posn'
p5142
S'160'
p5143
sS'name'
p5144
S'\xe0\xa4\xae\xe0\xa4\xb9\xe0\xa5\x80\xe0\xa4\xa8\xe0\xa5\x87'
p5145
sS'af'
p5146
S'\xe0\xa4\xae\xe0\xa4\xb9\xe0\xa5\x80\xe0\xa4\xa8\xe0\xa4\xbe,n,m,sg,3,o,0,0'
p5147
ssbsg1472
I00
sba(issf_api
Word
p5148
(dp5149
g1789
I00
sg1790
V\u0939\u092e
p5150
sg1792
(issf_api
FeatureSet
p5151
(dp5152
g250
(dp5153
S'posn'
p5154
S'170'
p5155
sS'name'
p5156
S'\xe0\xa4\xb9\xe0\xa4\xae'
p5157
sS'drel'
p5158
S'nmod__adj:\xe0\xa4\xb2\xe0\xa5\x8b\xe0\xa4\x97\xe0\xa5\x8b\xe0\xa4\x82'
p5159
sS'chunktype'
p5160
S'child:NP5'
p5161
sS'af'
p5162
S'\xe0\xa4\xb9\xe0\xa4\xae,pn,any,pl,1,d,,'
p5163
ssbsg1450
I01
sg1453
I00
sg1464
Nsg1451
Nsg172
I6
sg158
I9
sg1810
I1
sg1462
Nsg1811
S'DEM'
p5164
sg247
(issf_api
FeatureSet
p5165
(dp5166
g250
(dp5167
S'posn'
p5168
S'170'
p5169
sS'name'
p5170
S'\xe0\xa4\xb9\xe0\xa4\xae'
p5171
sS'af'
p5172
S'\xe0\xa4\xb9\xe0\xa4\xae,pn,any,pl,1,d,,'
p5173
ssbsg1472
I00
sba(issf_api
Word
p5174
(dp5175
g1789
I00
sg1790
V\u0932\u094b\u0917\u094b\u0902
p5176
sg1792
(issf_api
FeatureSet
p5177
(dp5178
g250
(dp5179
S'posn'
p5180
S'180'
p5181
sS'name'
p5182
S'\xe0\xa4\xb2\xe0\xa5\x8b\xe0\xa4\x97\xe0\xa5\x8b\xe0\xa4\x82'
p5183
sS'af'
p5184
S'\xe0\xa4\xb2\xe0\xa5\x8b\xe0\xa4\x97,n,m,pl,3,o,0_\xe0\xa4\x95\xe0\xa5\x8b,0'
p5185
sS'chunkid'
p5186
S'NP5'
p5187
sS'drel'
p5188
S'k2:\xe0\xa4\x95\xe0\xa4\xb0'
p5189
sS'vpos'
p5190
S'vib_3'
p5191
sS'chunktype'
p5192
S'head:NP5'
p5193
ssbsg1450
I01
sg1453
I00
sg1464
Nsg1451
Nsg172
I6
sg158
I9
sg1810
I1
sg1462
Nsg1811
S'NN'
p5194
sg247
(issf_api
FeatureSet
p5195
(dp5196
g250
(dp5197
S'posn'
p5198
S'180'
p5199
sS'name'
p5200
S'\xe0\xa4\xb2\xe0\xa5\x8b\xe0\xa4\x97\xe0\xa5\x8b\xe0\xa4\x82'
p5201
sS'af'
p5202
S'\xe0\xa4\xb2\xe0\xa5\x8b\xe0\xa4\x97,n,m,pl,3,o,0,0'
p5203
ssbsg1472
I00
sba(issf_api
Word
p5204
(dp5205
g1789
I00
sg1790
V\u0915\u094b
p5206
sg1792
(issf_api
FeatureSet
p5207
(dp5208
g250
(dp5209
S'posn'
p5210
S'190'
p5211
sS'name'
p5212
S'\xe0\xa4\x95\xe0\xa5\x8b'
p5213
sS'drel'
p5214
S'lwg__psp:\xe0\xa4\xb2\xe0\xa5\x8b\xe0\xa4\x97\xe0\xa5\x8b\xe0\xa4\x82'
p5215
sS'chunktype'
p5216
S'child:NP5'
p5217
sS'af'
p5218
S'\xe0\xa4\x95\xe0\xa5\x8b,psp,,,,,,'
p5219
ssbsg1450
I01
sg1453
I00
sg1464
Nsg1451
Nsg172
I6
sg158
I9
sg1810
I1
sg1462
Nsg1811
S'PSP'
p5220
sg247
(issf_api
FeatureSet
p5221
(dp5222
g250
(dp5223
S'posn'
p5224
S'190'
p5225
sS'name'
p5226
S'\xe0\xa4\x95\xe0\xa5\x8b'
p5227
sS'af'
p5228
S'\xe0\xa4\x95\xe0\xa5\x8b,psp,,,,,,'
p5229
ssbsg1472
I00
sba(issf_api
Word
p5230
(dp5231
g1789
I00
sg1790
V\u0938\u0930\u094d\u0935\u0947
p5232
sg1792
(issf_api
FeatureSet
p5233
(dp5234
g250
(dp5235
S'posn'
p5236
S'200'
p5237
sS'name'
p5238
S'\xe0\xa4\xb8\xe0\xa4\xb0\xe0\xa5\x8d\xe0\xa4\xb5\xe0\xa5\x87'
p5239
sS'af'
p5240
S'\xe0\xa4\xb8\xe0\xa4\xb0\xe0\xa5\x8d\xe0\xa4\xb5\xe0\xa5\x87,n,m,sg,3,d,0,0'
p5241
sS'chunkid'
p5242
S'NP6'
p5243
sS'drel'
p5244
S'k2:\xe0\xa4\x95\xe0\xa4\xb0\xe0\xa4\xa8\xe0\xa5\x87'
p5245
sS'chunktype'
p5246
S'head:NP6'
p5247
ssbsg1450
I01
sg1453
I00
sg1464
Nsg1451
Nsg172
I7
sg158
I9
sg1810
I1
sg1462
Nsg1811
S'NN'
p5248
sg247
(issf_api
FeatureSet
p5249
(dp5250
g250
(dp5251
S'posn'
p5252
S'200'
p5253
sS'name'
p5254
S'\xe0\xa4\xb8\xe0\xa4\xb0\xe0\xa5\x8d\xe0\xa4\xb5\xe0\xa5\x87'
p5255
sS'af'
p5256
S'\xe0\xa4\xb8\xe0\xa4\xb0\xe0\xa5\x8d\xe0\xa4\xb5\xe0\xa5\x87,n,m,sg,3,d,0,0'
p5257
ssbsg1472
I00
sba(issf_api
Word
p5258
(dp5259
g1789
I00
sg1790
V\u092c\u0902\u0926
p5260
sg1792
(issf_api
FeatureSet
p5261
(dp5262
g250
(dp5263
S'posn'
p5264
S'210'
p5265
sS'name'
p5266
S'\xe0\xa4\xac\xe0\xa4\x82\xe0\xa4\xa6'
p5267
sS'af'
p5268
S'\xe0\xa4\xac\xe0\xa4\x82\xe0\xa4\xa6,adj,any,any,,,,'
p5269
sS'chunkid'
p5270
S'JJP'
p5271
sS'drel'
p5272
S'pof:\xe0\xa4\x95\xe0\xa4\xb0\xe0\xa4\xa8\xe0\xa5\x87'
p5273
sS'chunktype'
p5274
S'head:JJP'
p5275
ssbsg1450
I01
sg1453
I00
sg1464
Nsg1451
Nsg172
I8
sg158
I9
sg1810
I1
sg1462
Nsg1811
S'JJ'
p5276
sg247
(issf_api
FeatureSet
p5277
(dp5278
g250
(dp5279
S'posn'
p5280
S'210'
p5281
sS'name'
p5282
S'\xe0\xa4\xac\xe0\xa4\x82\xe0\xa4\xa6'
p5283
sS'af'
p5284
S'\xe0\xa4\xac\xe0\xa4\x82\xe0\xa4\xa6,adj,any,any,,,,'
p5285
ssbsg1472
I00
sba(issf_api
Word
p5286
(dp5287
g1789
I00
sg1790
V\u0915\u0930\u0928\u0947
p5288
sg1792
(issf_api
FeatureSet
p5289
(dp5290
g250
(dp5291
S'posn'
p5292
S'220'
p5293
sS'name'
p5294
S'\xe0\xa4\x95\xe0\xa4\xb0\xe0\xa4\xa8\xe0\xa5\x87'
p5295
sS'af'
p5296
S'\xe0\xa4\x95\xe0\xa4\xb0,v,any,any,any,o,\xe0\xa4\xa8\xe0\xa4\xbe_\xe0\xa4\xaa\xe0\xa4\xb0,nA'
p5297
sS'chunkid'
p5298
S'VGNN'
p5299
sS'drel'
p5300
S'k7:\xe0\xa4\x95\xe0\xa4\xb0'
p5301
sS'vpos'
p5302
S'tam_2'
p5303
sS'chunktype'
p5304
S'head:VGNN'
p5305
ssbsg1450
I01
sg1453
I00
sg1464
Nsg1451
Nsg172
I9
sg158
I9
sg1810
I1
sg1462
Nsg1811
S'VM'
p5306
sg247
(issf_api
FeatureSet
p5307
(dp5308
g250
(dp5309
S'posn'
p5310
S'220'
p5311
sS'name'
p5312
S'\xe0\xa4\x95\xe0\xa4\xb0\xe0\xa4\xa8\xe0\xa5\x87'
p5313
sS'af'
p5314
S'\xe0\xa4\x95\xe0\xa4\xb0,v,any,any,any,o,\xe0\xa4\xa8\xe0\xa4\xbe,nA'
p5315
ssbsg1472
I00
sba(issf_api
Word
p5316
(dp5317
g1789
I00
sg1790
V\u092a\u0930
p5318
sg1792
(issf_api
FeatureSet
p5319
(dp5320
g250
(dp5321
S'posn'
p5322
S'230'
p5323
sS'name'
p5324
S'\xe0\xa4\xaa\xe0\xa4\xb0'
p5325
sS'drel'
p5326
S'lwg__psp:\xe0\xa4\x95\xe0\xa4\xb0\xe0\xa4\xa8\xe0\xa5\x87'
p5327
sS'chunktype'
p5328
S'child:VGNN'
p5329
sS'af'
p5330
S'\xe0\xa4\xaa\xe0\xa4\xb0,psp,,,,,,'
p5331
ssbsg1450
I01
sg1453
I00
sg1464
Nsg1451
Nsg172
I9
sg158
I9
sg1810
I1
sg1462
Nsg1811
S'PSP'
p5332
sg247
(issf_api
FeatureSet
p5333
(dp5334
g250
(dp5335
S'posn'
p5336
S'230'
p5337
sS'name'
p5338
S'\xe0\xa4\xaa\xe0\xa4\xb0'
p5339
sS'af'
p5340
S'\xe0\xa4\xaa\xe0\xa4\xb0,psp,,,,,,'
p5341
ssbsg1472
I00
sba(issf_api
Word
p5342
(dp5343
g1789
I00
sg1790
V\u092e\u091c\u092c\u0942\u0930
p5344
sg1792
(issf_api
FeatureSet
p5345
(dp5346
g250
(dp5347
S'posn'
p5348
S'240'
p5349
sS'name'
p5350
S'\xe0\xa4\xae\xe0\xa4\x9c\xe0\xa4\xac\xe0\xa5\x82\xe0\xa4\xb0'
p5351
sS'af'
p5352
S'\xe0\xa4\xae\xe0\xa4\x9c\xe0\xa4\xac\xe0\xa5\x82\xe0\xa4\xb0,adj,any,any,,,,'
p5353
sS'chunkid'
p5354
S'JJP2'
p5355
sS'drel'
p5356
S'pof:\xe0\xa4\x95\xe0\xa4\xb0'
p5357
sS'chunktype'
p5358
S'head:JJP2'
p5359
ssbsg1450
I01
sg1453
I00
sg1464
Nsg1451
Nsg172
I10
sg158
I9
sg1810
I1
sg1462
Nsg1811
S'JJ'
p5360
sg247
(issf_api
FeatureSet
p5361
(dp5362
g250
(dp5363
S'posn'
p5364
S'240'
p5365
sS'name'
p5366
S'\xe0\xa4\xae\xe0\xa4\x9c\xe0\xa4\xac\xe0\xa5\x82\xe0\xa4\xb0'
p5367
sS'af'
p5368
S'\xe0\xa4\xae\xe0\xa4\x9c\xe0\xa4\xac\xe0\xa5\x82\xe0\xa4\xb0,adj,any,any,,,,'
p5369
ssbsg1472
I00
sba(issf_api
Word
p5370
(dp5371
g1789
I00
sg1790
V\u0915\u0930
p5372
sg1792
(issf_api
FeatureSet
p5373
(dp5374
g250
(dp5375
S'posn'
p5376
S'250'
p5377
sS'name'
p5378
S'\xe0\xa4\x95\xe0\xa4\xb0'
p5379
sS'af'
p5380
S'\xe0\xa4\x95\xe0\xa4\xb0,v,m,sg,any,,0_\xe0\xa4\xa6\xe0\xa5\x87+\xe0\xa4\xaf\xe0\xa4\xbe_\xe0\xa4\x9c\xe0\xa4\xbe+\xe0\xa4\xaf\xe0\xa4\xbe1,0'
p5381
sS'chunkid'
p5382
S'VGF2'
p5383
sS'stype'
p5384
S'declarative'
p5385
sS'drel'
p5386
S'ccof:\xe0\xa4\x95\xe0\xa4\xbf'
p5387
sS'voicetype'
p5388
S'active'
p5389
sS'vpos'
p5390
S'tam_2_3'
p5391
sS'chunktype'
p5392
S'head:VGF2'
p5393
ssbsg1450
I01
sg1453
I00
sg1464
Nsg1451
Nsg172
I11
sg158
I9
sg1810
I1
sg1462
Nsg1811
S'VM'
p5394
sg247
(issf_api
FeatureSet
p5395
(dp5396
g250
(dp5397
S'posn'
p5398
S'250'
p5399
sS'name'
p5400
S'\xe0\xa4\x95\xe0\xa4\xb0'
p5401
sS'af'
p5402
S'\xe0\xa4\x95\xe0\xa4\xb0,v,any,any,any,,0,0'
p5403
ssbsg1472
I00
sba(issf_api
Word
p5404
(dp5405
g1789
I00
sg1790
V\u0926\u093f\u092f\u093e
p5406
sg1792
(issf_api
FeatureSet
p5407
(dp5408
g250
(dp5409
S'posn'
p5410
S'260'
p5411
sS'name'
p5412
S'\xe0\xa4\xa6\xe0\xa4\xbf\xe0\xa4\xaf\xe0\xa4\xbe'
p5413
sS'drel'
p5414
S'lwg__vaux:\xe0\xa4\x95\xe0\xa4\xb0'
p5415
sS'chunktype'
p5416
S'child:VGF2'
p5417
sS'af'
p5418
S'\xe0\xa4\xa6\xe0\xa5\x87,v,m,sg,any,,\xe0\xa4\xaf\xe0\xa4\xbe,yA'
p5419
ssbsg1450
I01
sg1453
I00
sg1464
Nsg1451
Nsg172
I11
sg158
I9
sg1810
I1
sg1462
Nsg1811
S'VAUX'
p5420
sg247
(issf_api
FeatureSet
p5421
(dp5422
g250
(dp5423
S'posn'
p5424
S'260'
p5425
sS'name'
p5426
S'\xe0\xa4\xa6\xe0\xa4\xbf\xe0\xa4\xaf\xe0\xa4\xbe'
p5427
sS'af'
p5428
S'\xe0\xa4\xa6\xe0\xa5\x87,v,m,sg,any,,\xe0\xa4\xaf\xe0\xa4\xbe,yA'
p5429
ssbsg1472
I00
sba(issf_api
Word
p5430
(dp5431
g1789
I00
sg1790
V\u0917\u092f\u093e
p5432
sg1792
(issf_api
FeatureSet
p5433
(dp5434
g250
(dp5435
S'posn'
p5436
S'270'
p5437
sS'name'
p5438
S'\xe0\xa4\x97\xe0\xa4\xaf\xe0\xa4\xbe'
p5439
sS'drel'
p5440
S'lwg__vaux:\xe0\xa4\x95\xe0\xa4\xb0'
p5441
sS'chunktype'
p5442
S'child:VGF2'
p5443
sS'af'
p5444
S'\xe0\xa4\x9c\xe0\xa4\xbe,v,m,sg,any,,\xe0\xa4\xaf\xe0\xa4\xbe1,yA1'
p5445
ssbsg1450
I01
sg1453
I00
sg1464
Nsg1451
Nsg172
I11
sg158
I9
sg1810
I1
sg1462
Nsg1811
S'VAUX'
p5446
sg247
(issf_api
FeatureSet
p5447
(dp5448
g250
(dp5449
S'posn'
p5450
S'270'
p5451
sS'name'
p5452
S'\xe0\xa4\x97\xe0\xa4\xaf\xe0\xa4\xbe'
p5453
sS'af'
p5454
S'\xe0\xa4\x9c\xe0\xa4\xbe,v,m,sg,any,,\xe0\xa4\xaf\xe0\xa4\xbe1,yA1'
p5455
ssbsg1472
I00
sba(issf_api
Word
p5456
(dp5457
g1789
I00
sg1790
V,
sg1792
(issf_api
FeatureSet
p5458
(dp5459
g250
(dp5460
S'posn'
p5461
S'280'
p5462
sS'name'
p5463
S','
sS'drel'
p5464
S'rsym:\xe0\xa4\x95\xe0\xa4\xb0'
p5465
sS'chunktype'
p5466
S'child:VGF2'
p5467
sS'af'
p5468
S'COMMA,punc,,,,,,'
p5469
ssbsg1450
I00
sg1453
I00
sg1464
Nsg1451
Nsg172
I11
sg158
I9
sg1810
Nsg1462
Nsg1811
S'SYM'
p5470
sg247
(issf_api
FeatureSet
p5471
(dp5472
g250
(dp5473
S'posn'
p5474
S'280'
p5475
sS'name'
p5476
S','
sS'af'
p5477
S'COMMA,punc,,,,,,'
p5478
ssbsg1472
I00
sba(issf_api
Word
p5479
(dp5480
g1789
I00
sg1790
V\u0915\u094d\u092f\u094b\u0902\u0915\u093f
p5481
sg1792
(issf_api
FeatureSet
p5482
(dp5483
g250
(dp5484
S'posn'
p5485
S'290'
p5486
sS'name'
p5487
S'\xe0\xa4\x95\xe0\xa5\x8d\xe0\xa4\xaf\xe0\xa5\x8b\xe0\xa4\x82\xe0\xa4\x95\xe0\xa4\xbf'
p5488
sS'af'
p5489
S'\xe0\xa4\x95\xe0\xa5\x8d\xe0\xa4\xaf\xe0\xa5\x8b\xe0\xa4\x82\xe0\xa4\x95\xe0\xa4\xbf,avy,,,,,,'
p5490
sS'chunkid'
p5491
S'CCP2'
p5492
sS'drel'
p5493
S'rh:\xe0\xa4\x95\xe0\xa4\xb0'
p5494
sS'chunktype'
p5495
S'head:CCP2'
p5496
ssbsg1450
I00
sg1453
I00
sg1464
g1626
sg1451
(lp5497
I120
aI121
aI122
aI123
aI124
aI125
aI126
aI127
aI128
aI129
aI130
aI131
aI132
asg172
I12
sg158
I9
sg1810
I1
sg1462
(lp5498
I135
aI136
aI137
aI138
aI139
aI140
aI141
aI142
aI143
aI144
aI145
asg1811
S'CC'
p5499
sg247
(issf_api
FeatureSet
p5500
(dp5501
g250
(dp5502
S'posn'
p5503
S'290'
p5504
sS'name'
p5505
S'\xe0\xa4\x95\xe0\xa5\x8d\xe0\xa4\xaf\xe0\xa5\x8b\xe0\xa4\x82\xe0\xa4\x95\xe0\xa4\xbf'
p5506
sS'af'
p5507
S'\xe0\xa4\x95\xe0\xa5\x8d\xe0\xa4\xaf\xe0\xa5\x8b\xe0\xa4\x82\xe0\xa4\x95\xe0\xa4\xbf,avy,,,,,,'
p5508
ssbsg1472
I01
sba(issf_api
Word
p5509
(dp5510
g1789
I00
sg1790
V\u092e\u093e\u0913\u0935\u093e\u0926\u093f\u092f\u094b\u0902
p5511
sg1792
(issf_api
FeatureSet
p5512
(dp5513
g250
(dp5514
S'posn'
p5515
S'300'
p5516
sS'name'
p5517
S'\xe0\xa4\xae\xe0\xa4\xbe\xe0\xa4\x93\xe0\xa4\xb5\xe0\xa4\xbe\xe0\xa4\xa6\xe0\xa4\xbf\xe0\xa4\xaf\xe0\xa5\x8b\xe0\xa4\x82'
p5518
sS'af'
p5519
S'\xe0\xa4\xae\xe0\xa4\xbe\xe0\xa4\x93\xe0\xa4\xb5\xe0\xa4\xbe\xe0\xa4\xa6\xe0\xa5\x80,n,m,pl,3,o,0_\xe0\xa4\x95\xe0\xa4\xbe_\xe0\xa4\x93\xe0\xa4\xb0_\xe0\xa4\xb8\xe0\xa5\x87,0'
p5520
sS'chunkid'
p5521
S'NP7'
p5522
sS'drel'
p5523
S'rd:\xe0\xa4\xa6\xe0\xa5\x80'
p5524
sS'vpos'
p5525
S'vib_2_3_4'
p5526
sS'chunktype'
p5527
S'head:NP7'
p5528
ssbsg1450
I00
sg1453
I01
sg1464
Nsg1451
Nsg172
I13
sg158
I9
sg1810
I1
sg1462
Nsg1811
S'NN'
p5529
sg247
(issf_api
FeatureSet
p5530
(dp5531
g250
(dp5532
S'posn'
p5533
S'300'
p5534
sS'name'
p5535
S'\xe0\xa4\xae\xe0\xa4\xbe\xe0\xa4\x93\xe0\xa4\xb5\xe0\xa4\xbe\xe0\xa4\xa6\xe0\xa4\xbf\xe0\xa4\xaf\xe0\xa5\x8b\xe0\xa4\x82'
p5536
sS'af'
p5537
S'\xe0\xa4\xae\xe0\xa4\xbe\xe0\xa4\x93\xe0\xa4\xb5\xe0\xa4\xbe\xe0\xa4\xa6\xe0\xa5\x80,n,m,pl,3,o,0,0'
p5538
ssbsg1472
I00
sba(issf_api
Word
p5539
(dp5540
g1789
I00
sg1790
V\u0915\u0940
p5541
sg1792
(issf_api
FeatureSet
p5542
(dp5543
g250
(dp5544
S'posn'
p5545
S'310'
p5546
sS'name'
p5547
S'\xe0\xa4\x95\xe0\xa5\x80'
p5548
sS'drel'
p5549
S'lwg__psp:\xe0\xa4\xae\xe0\xa4\xbe\xe0\xa4\x93\xe0\xa4\xb5\xe0\xa4\xbe\xe0\xa4\xa6\xe0\xa4\xbf\xe0\xa4\xaf\xe0\xa5\x8b\xe0\xa4\x82'
p5550
sS'chunktype'
p5551
S'child:NP7'
p5552
sS'af'
p5553
S'\xe0\xa4\x95\xe0\xa4\xbe,psp,f,sg,,o,,'
p5554
ssbsg1450
I00
sg1453
I01
sg1464
Nsg1451
Nsg172
I13
sg158
I9
sg1810
I1
sg1462
Nsg1811
S'PSP'
p5555
sg247
(issf_api
FeatureSet
p5556
(dp5557
g250
(dp5558
S'posn'
p5559
S'310'
p5560
sS'name'
p5561
S'\xe0\xa4\x95\xe0\xa5\x80'
p5562
sS'af'
p5563
S'\xe0\xa4\x95\xe0\xa4\xbe,psp,f,sg,,o,,'
p5564
ssbsg1472
I00
sba(issf_api
Word
p5565
(dp5566
g1789
I00
sg1790
V\u0913\u0930
p5567
sg1792
(issf_api
FeatureSet
p5568
(dp5569
g250
(dp5570
S'posn'
p5571
S'320'
p5572
sS'name'
p5573
S'\xe0\xa4\x93\xe0\xa4\xb0'
p5574
sS'drel'
p5575
S'lwg__psp:\xe0\xa4\xae\xe0\xa4\xbe\xe0\xa4\x93\xe0\xa4\xb5\xe0\xa4\xbe\xe0\xa4\xa6\xe0\xa4\xbf\xe0\xa4\xaf\xe0\xa5\x8b\xe0\xa4\x82'
p5576
sS'chunktype'
p5577
S'child:NP7'
p5578
sS'af'
p5579
S'\xe0\xa4\x93\xe0\xa4\xb0,nst,f,sg,3,o,,'
p5580
ssbsg1450
I00
sg1453
I01
sg1464
Nsg1451
Nsg172
I13
sg158
I9
sg1810
I1
sg1462
Nsg1811
S'NST'
p5581
sg247
(issf_api
FeatureSet
p5582
(dp5583
g250
(dp5584
S'posn'
p5585
S'320'
p5586
sS'name'
p5587
S'\xe0\xa4\x93\xe0\xa4\xb0'
p5588
sS'af'
p5589
S'\xe0\xa4\x93\xe0\xa4\xb0,nst,f,sg,3,o,,'
p5590
ssbsg1472
I00
sba(issf_api
Word
p5591
(dp5592
g1789
I00
sg1790
V\u0938\u0947
p5593
sg1792
(issf_api
FeatureSet
p5594
(dp5595
g250
(dp5596
S'posn'
p5597
S'330'
p5598
sS'name'
p5599
S'\xe0\xa4\xb8\xe0\xa5\x87'
p5600
sS'drel'
p5601
S'lwg__psp:\xe0\xa4\xae\xe0\xa4\xbe\xe0\xa4\x93\xe0\xa4\xb5\xe0\xa4\xbe\xe0\xa4\xa6\xe0\xa4\xbf\xe0\xa4\xaf\xe0\xa5\x8b\xe0\xa4\x82'
p5602
sS'chunktype'
p5603
S'child:NP7'
p5604
sS'af'
p5605
S'\xe0\xa4\xb8\xe0\xa5\x87,psp,,,,,,'
p5606
ssbsg1450
I00
sg1453
I01
sg1464
Nsg1451
Nsg172
I13
sg158
I9
sg1810
I1
sg1462
Nsg1811
S'PSP'
p5607
sg247
(issf_api
FeatureSet
p5608
(dp5609
g250
(dp5610
S'posn'
p5611
S'330'
p5612
sS'name'
p5613
S'\xe0\xa4\xb8\xe0\xa5\x87'
p5614
sS'af'
p5615
S'\xe0\xa4\xb8\xe0\xa5\x87,psp,,,,,,'
p5616
ssbsg1472
I00
sba(issf_api
Word
p5617
(dp5618
g1789
I00
sg1790
V\u0939\u092e\u0947\u0902
p5619
sg1792
(issf_api
FeatureSet
p5620
(dp5621
g250
(dp5622
S'posn'
p5623
S'340'
p5624
sS'name'
p5625
S'\xe0\xa4\xb9\xe0\xa4\xae\xe0\xa5\x87\xe0\xa4\x82'
p5626
sS'af'
p5627
S'\xe0\xa4\xb9\xe0\xa4\xae,pn,any,pl,1,o,\xe0\xa4\x95\xe0\xa5\x8b,ko'
p5628
sS'chunkid'
p5629
S'NP8'
p5630
sS'drel'
p5631
S'k2:\xe0\xa4\xa6\xe0\xa5\x80'
p5632
sS'chunktype'
p5633
S'head:NP8'
p5634
ssbsg1450
I00
sg1453
I01
sg1464
Nsg1451
Nsg172
I14
sg158
I9
sg1810
I1
sg1462
Nsg1811
S'PRP'
p5635
sg247
(issf_api
FeatureSet
p5636
(dp5637
g250
(dp5638
S'posn'
p5639
S'340'
p5640
sS'name'
p5641
S'\xe0\xa4\xb9\xe0\xa4\xae\xe0\xa5\x87\xe0\xa4\x82'
p5642
sS'af'
p5643
S'\xe0\xa4\xb9\xe0\xa4\xae,pn,any,pl,1,o,\xe0\xa4\x95\xe0\xa5\x8b,ko'
p5644
ssbsg1472
I00
sba(issf_api
Word
p5645
(dp5646
g1789
I00
sg1790
V\u0915\u0908
p5647
sg1792
(issf_api
FeatureSet
p5648
(dp5649
g250
(dp5650
S'posn'
p5651
S'350'
p5652
sS'name'
p5653
S'\xe0\xa4\x95\xe0\xa4\x88'
p5654
sS'drel'
p5655
S'nmod__adj:\xe0\xa4\xac\xe0\xa4\xbe\xe0\xa4\xb0'
p5656
sS'chunktype'
p5657
S'child:NP9'
p5658
sS'af'
p5659
S'\xe0\xa4\x95\xe0\xa4\x88,avy,,,,,,'
p5660
ssbsg1450
I00
sg1453
I01
sg1464
Nsg1451
Nsg172
I15
sg158
I9
sg1810
I1
sg1462
Nsg1811
S'QF'
p5661
sg247
(issf_api
FeatureSet
p5662
(dp5663
g250
(dp5664
S'posn'
p5665
S'350'
p5666
sS'name'
p5667
S'\xe0\xa4\x95\xe0\xa4\x88'
p5668
sS'af'
p5669
S'\xe0\xa4\x95\xe0\xa4\x88,avy,,,,,,'
p5670
ssbsg1472
I00
sba(issf_api
Word
p5671
(dp5672
g1789
I00
sg1790
V\u092c\u093e\u0930
p5673
sg1792
(issf_api
FeatureSet
p5674
(dp5675
g250
(dp5676
S'posn'
p5677
S'360'
p5678
sS'name'
p5679
S'\xe0\xa4\xac\xe0\xa4\xbe\xe0\xa4\xb0'
p5680
sS'af'
p5681
S'\xe0\xa4\xac\xe0\xa4\xbe\xe0\xa4\xb0,n,f,pl,3,d,0,0'
p5682
sS'chunkid'
p5683
S'NP9'
p5684
sS'drel'
p5685
S'k7t:\xe0\xa4\xa6\xe0\xa5\x80'
p5686
sS'chunktype'
p5687
S'head:NP9'
p5688
ssbsg1450
I00
sg1453
I01
sg1464
Nsg1451
Nsg172
I15
sg158
I9
sg1810
I1
sg1462
Nsg1811
S'NN'
p5689
sg247
(issf_api
FeatureSet
p5690
(dp5691
g250
(dp5692
S'posn'
p5693
S'360'
p5694
sS'name'
p5695
S'\xe0\xa4\xac\xe0\xa4\xbe\xe0\xa4\xb0'
p5696
sS'af'
p5697
S'\xe0\xa4\xac\xe0\xa4\xbe\xe0\xa4\xb0,n,f,pl,3,d,0,0'
p5698
ssbsg1472
I00
sba(issf_api
Word
p5699
(dp5700
g1789
I00
sg1790
V\u0927\u092e\u0915\u0940
p5701
sg1792
(issf_api
FeatureSet
p5702
(dp5703
g250
(dp5704
S'posn'
p5705
S'370'
p5706
sS'name'
p5707
S'\xe0\xa4\xa7\xe0\xa4\xae\xe0\xa4\x95\xe0\xa5\x80'
p5708
sS'af'
p5709
S'\xe0\xa4\xa7\xe0\xa4\xae\xe0\xa4\x95\xe0\xa5\x80,n,f,pl,3,d,0,0'
p5710
sS'chunkid'
p5711
S'NP10'
p5712
sS'drel'
p5713
S'pof:\xe0\xa4\xa6\xe0\xa5\x80'
p5714
sS'chunktype'
p5715
S'head:NP10'
p5716
ssbsg1450
I00
sg1453
I01
sg1464
Nsg1451
Nsg172
I16
sg158
I9
sg1810
I1
sg1462
Nsg1811
S'NN'
p5717
sg247
(issf_api
FeatureSet
p5718
(dp5719
g250
(dp5720
S'posn'
p5721
S'370'
p5722
sS'name'
p5723
S'\xe0\xa4\xa7\xe0\xa4\xae\xe0\xa4\x95\xe0\xa5\x80'
p5724
sS'af'
p5725
S'\xe0\xa4\xa7\xe0\xa4\xae\xe0\xa4\x95\xe0\xa5\x80,n,f,pl,3,d,0,0'
p5726
ssbsg1472
I00
sba(issf_api
Word
p5727
(dp5728
g1789
I00
sg1790
V\u0926\u0940
p5729
sg1792
(issf_api
FeatureSet
p5730
(dp5731
g250
(dp5732
S'posn'
p5733
S'380'
p5734
sS'name'
p5735
S'\xe0\xa4\xa6\xe0\xa5\x80'
p5736
sS'af'
p5737
S'\xe0\xa4\xa6\xe0\xa5\x87,v,f,pl,3,,\xe0\xa4\xaf\xe0\xa4\xbe_\xe0\xa4\x9c\xe0\xa4\xbe+\xe0\xa4\xaf\xe0\xa4\xbe1_\xe0\xa4\xb9\xe0\xa5\x88,yA'
p5738
sS'chunkid'
p5739
S'VGF3'
p5740
sS'stype'
p5741
S'declarative'
p5742
sS'drel'
p5743
S'ccof:\xe0\xa4\x95\xe0\xa5\x8d\xe0\xa4\xaf\xe0\xa5\x8b\xe0\xa4\x82\xe0\xa4\x95\xe0\xa4\xbf'
p5744
sS'voicetype'
p5745
S'active'
p5746
sS'vpos'
p5747
S'tam_2_3'
p5748
sS'chunktype'
p5749
S'head:VGF3'
p5750
ssbsg1450
I00
sg1453
I01
sg1464
Nsg1451
Nsg172
I17
sg158
I9
sg1810
I1
sg1462
Nsg1811
S'VM'
p5751
sg247
(issf_api
FeatureSet
p5752
(dp5753
g250
(dp5754
S'posn'
p5755
S'380'
p5756
sS'name'
p5757
S'\xe0\xa4\xa6\xe0\xa5\x80'
p5758
sS'af'
p5759
S'\xe0\xa4\xa6\xe0\xa5\x87,v,f,pl,any,,\xe0\xa4\xaf\xe0\xa4\xbe,yA'
p5760
ssbsg1472
I00
sba(issf_api
Word
p5761
(dp5762
g1789
I00
sg1790
V\u0917\u0908
p5763
sg1792
(issf_api
FeatureSet
p5764
(dp5765
g250
(dp5766
S'posn'
p5767
S'390'
p5768
sS'name'
p5769
S'\xe0\xa4\x97\xe0\xa4\x88'
p5770
sS'drel'
p5771
S'lwg__vaux:\xe0\xa4\xa6\xe0\xa5\x80'
p5772
sS'chunktype'
p5773
S'child:VGF3'
p5774
sS'af'
p5775
S'\xe0\xa4\x9c\xe0\xa4\xbe,v,f,pl,any,,\xe0\xa4\xaf\xe0\xa4\xbe1,yA1'
p5776
ssbsg1450
I00
sg1453
I01
sg1464
Nsg1451
Nsg172
I17
sg158
I9
sg1810
I1
sg1462
Nsg1811
S'VAUX'
p5777
sg247
(issf_api
FeatureSet
p5778
(dp5779
g250
(dp5780
S'posn'
p5781
S'390'
p5782
sS'name'
p5783
S'\xe0\xa4\x97\xe0\xa4\x88'
p5784
sS'af'
p5785
S'\xe0\xa4\x9c\xe0\xa4\xbe,v,f,pl,any,,\xe0\xa4\xaf\xe0\xa4\xbe1,yA1'
p5786
ssbsg1472
I00
sba(issf_api
Word
p5787
(dp5788
g1789
I00
sg1790
V\u0939\u0948\u0902
p5789
sg1792
(issf_api
FeatureSet
p5790
(dp5791
g250
(dp5792
S'posn'
p5793
S'400'
p5794
sS'name'
p5795
S'\xe0\xa4\xb9\xe0\xa5\x88\xe0\xa4\x82'
p5796
sS'drel'
p5797
S'lwg__vaux:\xe0\xa4\xa6\xe0\xa5\x80'
p5798
sS'chunktype'
p5799
S'child:VGF3'
p5800
sS'af'
p5801
S'\xe0\xa4\xb9\xe0\xa5\x88,v,any,pl,3,,\xe0\xa4\xb9\xe0\xa5\x88,hE'
p5802
ssbsg1450
I00
sg1453
I01
sg1464
Nsg1451
Nsg172
I17
sg158
I9
sg1810
I1
sg1462
Nsg1811
S'VAUX'
p5803
sg247
(issf_api
FeatureSet
p5804
(dp5805
g250
(dp5806
S'posn'
p5807
S'400'
p5808
sS'name'
p5809
S'\xe0\xa4\xb9\xe0\xa5\x88\xe0\xa4\x82'
p5810
sS'af'
p5811
S'\xe0\xa4\xb9\xe0\xa5\x88,v,any,pl,3,,\xe0\xa4\xb9\xe0\xa5\x88,hE'
p5812
ssbsg1472
I00
sba(issf_api
Word
p5813
(dp5814
g1789
I00
sg1790
V\u0964
sg1792
(issf_api
FeatureSet
p5815
(dp5816
g250
(dp5817
S'posn'
p5818
S'410'
p5819
sS'name'
p5820
S'\xe0\xa5\xa4'
p5821
sS'af'
p5822
S'\xe0\xa5\xa4,punc,,,,,,'
p5823
sS'chunkid'
p5824
S'BLK'
p5825
sS'drel'
p5826
S'rsym:\xe0\xa4\x95\xe0\xa4\xb9\xe0\xa4\xbe'
p5827
sS'chunktype'
p5828
S'head:BLK'
p5829
ssbsg1450
I00
sg1453
I00
sg1464
Nsg1451
Nsg172
I18
sg158
I9
sg1810
Nsg1462
Nsg1811
S'SYM'
p5830
sg247
(issf_api
FeatureSet
p5831
(dp5832
g250
(dp5833
S'posn'
p5834
S'410'
p5835
sS'name'
p5836
S'\xe0\xa5\xa4'
p5837
sS'af'
p5838
S'\xe0\xa5\xa4,punc,,,,,,'
p5839
ssbsg1472
I00
sbasb.