(iannotated_data
discourseFile
p1
(dp2
S'annToRawMapping'
p3
(dp4
I0
(I0
tp5
sI1
(I1
tp6
sI2
(I2
tp7
sI3
(I3
tp8
sI4
(I4
tp9
sI5
(I5
tp10
sI6
(I6
tp11
sI7
(I7
tp12
sI8
(I8
tp13
sI9
(I9
tp14
sI10
(I10
tp15
sI11
(I11
tp16
sI12
(I12
tp17
sI13
(I13
tp18
sI14
(I14
tp19
sI15
(I15
tp20
sI16
(I16
tp21
sI17
(I17
tp22
sI18
(I18
tp23
sI19
(I19
tp24
sI20
(I20
tp25
sI21
(I21
tp26
sI22
(I22
tp27
sI23
(I23
tp28
sI24
(I24
tp29
sI25
(I25
tp30
sI26
(I26
tp31
sI27
(I27
tp32
sI28
(I28
tp33
sI29
(I29
tp34
sI30
(I30
tp35
sI31
(I31
tp36
sI32
(I32
tp37
sI33
(I33
tp38
sI34
(I34
tp39
sI35
(I35
tp40
sI36
(I36
tp41
sI37
(I37
tp42
sI38
(I38
tp43
sI39
(I39
tp44
sI40
(I40
tp45
sI41
(I41
tp46
sI42
(I42
tp47
sI43
(I43
tp48
sI44
(I44
tp49
sI45
(I45
tp50
sI46
(I46
tp51
sI47
(I47
tp52
sI48
(I48
tp53
sI49
(I49
tp54
sI50
(I50
tp55
sI51
(I51
tp56
sI52
(I52
tp57
sI53
(I53
tp58
sI54
(I54
tp59
sI55
(I55
tp60
sI56
(I56
tp61
sI57
(I57
tp62
sI58
(I58
tp63
sI59
(I59
tp64
sI60
(I60
tp65
sI61
(I61
tp66
sI62
(I62
tp67
sI63
(I63
tp68
sI64
(I64
tp69
sI65
(I65
tp70
sI66
(I66
tp71
sI67
(I67
tp72
sI68
(I68
tp73
sI69
(I69
tp74
sI70
(I70
tp75
sI71
(I71
tp76
sI72
(I72
tp77
sI73
(I73
tp78
sI74
(I74
tp79
sI75
(I75
tp80
sI76
(I76
tp81
sI77
(I77
tp82
sI78
(I78
tp83
sI79
(I79
tp84
sI80
(I80
tp85
sI81
(I81
tp86
sI82
(I82
tp87
sI83
(I83
tp88
sI84
(I84
tp89
sI85
(I85
tp90
sI86
(I86
tp91
sI87
(I87
tp92
sI88
(I88
tp93
sI89
(I89
tp94
sI90
(I90
tp95
sI91
(I91
tp96
sI92
(I92
tp97
sI93
(I93
tp98
sI94
(I94
tp99
sI95
(I95
tp100
sI96
(I96
tp101
sI97
(I97
tp102
sI98
(I98
tp103
sI99
(I99
tp104
sI100
(I100
tp105
sI101
(I101
tp106
sI102
(I102
tp107
sI103
(I103
tp108
sI104
(I104
tp109
sI105
(I105
tp110
sI106
(I106
tp111
sI107
(I107
tp112
sI108
(I108
tp113
sI109
(I109
tp114
sI110
(I110
tp115
sI111
(I111
tp116
sI112
(I112
tp117
sI113
(I113
tp118
sI114
(I114
tp119
sI115
(I115
tp120
sI116
(I116
tp121
sI117
(I117
tp122
sI118
(I118
tp123
sI119
(I119
tp124
sI120
(I120
tp125
sI121
(I121
tp126
sI122
(I122
tp127
sI123
(I123
tp128
sI124
(I124
tp129
sI125
(I125
tp130
sI126
(I126
tp131
sI127
(I127
tp132
sI128
(I128
tp133
sI129
(I129
tp134
sI130
(I130
tp135
sI131
(I131
tp136
sI132
(I132
tp137
sI133
(I133
tp138
sI134
(I134
tp139
sI135
(I135
tp140
sI136
(I136
tp141
sI137
(I137
tp142
sI138
(I138
tp143
sI139
(I139
tp144
sI140
(I140
tp145
sI141
(I141
tp146
sI142
(I142
tp147
sI143
(I143
tp148
sI144
(I144
tp149
sI145
(I145
tp150
sI146
(I146
tp151
sI147
(I147
tp152
sI148
(I148
tp153
sI149
(I149
tp154
sI150
(I150
tp155
sI151
(I151
tp156
sI152
(I152
tp157
sI153
(I153
tp158
sI154
(I154
tp159
sI155
(I155
tp160
sI156
(I156
tp161
sI157
(I157
tp162
sI158
(I158
tp163
sI159
(I159
tp164
sI160
(I160
tp165
sI161
(I161
tp166
sI162
(I162
tp167
sI163
(I163
tp168
ssS'sentenceList'
p169
(lp170
(issf_api
Sentence
p171
(dp172
S'rootNode'
p173
(lp174
sS'sentenceNum'
p175
I0
sS'wordNumList'
p176
(lp177
I0
aI1
aI2
aI3
aI4
aI5
aI6
aI7
aI8
aI9
aI10
aI11
aI12
aI13
aI14
aI15
aI16
aI17
aI18
aI19
asS'nodeDict'
p178
(dp179
S'VGF'
p180
(issf_api
Node
p181
(dp182
S'nodeRelation'
p183
S'None'
p184
sS'nodeName'
p185
g180
sS'nodeParent'
p186
g184
sS'nodeLevel'
p187
I-1
sS'chunkNum'
p188
I6
sS'childList'
p189
(lp190
sbsS'JJP'
p191
(issf_api
Node
p192
(dp193
g183
S'pof'
p194
sg185
g191
sg186
S'VGF'
p195
sg187
I-1
sg188
I5
sg189
(lp196
sbsS'NP5'
p197
(issf_api
Node
p198
(dp199
g183
S'k2'
p200
sg185
g197
sg186
S'VGF'
p201
sg187
I-1
sg188
I4
sg189
(lp202
sbsS'BLK'
p203
(issf_api
Node
p204
(dp205
g183
S'rsym'
p206
sg185
g203
sg186
S'VGF'
p207
sg187
I-1
sg188
I7
sg189
(lp208
sbsS'NP'
p209
(issf_api
Node
p210
(dp211
g183
S'k7'
p212
sg185
g209
sg186
S'VGF'
p213
sg187
I-1
sg188
I0
sg189
(lp214
sbsS'NP4'
p215
(issf_api
Node
p216
(dp217
g183
S'vmod'
p218
sg185
g215
sg186
S'VGF'
p219
sg187
I-1
sg188
I3
sg189
(lp220
sbsS'NP3'
p221
(issf_api
Node
p222
(dp223
g183
S'k1'
p224
sg185
g221
sg186
S'VGF'
p225
sg187
I-1
sg188
I2
sg189
(lp226
sbsS'NP2'
p227
(issf_api
Node
p228
(dp229
g183
S'r6'
p230
sg185
g227
sg186
S'NP3'
p231
sg187
I-1
sg188
I1
sg189
(lp232
sbssS'chunkList'
p233
(lp234
(issf_api
Chunk
p235
(dp236
g185
g209
sg188
I0
sS'chunkTag'
p237
S'NP'
p238
sg175
I0
sg176
(lp239
I0
aI1
aI2
aI3
asS'featureSet'
p240
(issf_api
FeatureSet
p241
(dp242
S'featureDict'
p243
(dp244
S'drel'
p245
S'k7:VGF'
p246
sS'name'
p247
g209
ssbsba(issf_api
Chunk
p248
(dp249
g185
g227
sg188
I1
sg237
S'NP'
p250
sg175
I0
sg176
(lp251
I4
aI5
asg240
(issf_api
FeatureSet
p252
(dp253
g243
(dp254
S'drel'
p255
S'r6:NP3'
p256
sS'name'
p257
g227
ssbsba(issf_api
Chunk
p258
(dp259
g185
g221
sg188
I2
sg237
S'NP'
p260
sg175
I0
sg176
(lp261
I6
aI7
aI8
aI9
asg240
(issf_api
FeatureSet
p262
(dp263
g243
(dp264
S'drel'
p265
S'k1:VGF'
p266
sS'name'
p267
g221
ssbsba(issf_api
Chunk
p268
(dp269
g185
g215
sg188
I3
sg237
S'NP'
p270
sg175
I0
sg176
(lp271
I10
aI11
aI12
aI13
asg240
(issf_api
FeatureSet
p272
(dp273
g243
(dp274
S'drel'
p275
S'vmod:VGF'
p276
sS'name'
p277
g215
ssbsba(issf_api
Chunk
p278
(dp279
g185
g197
sg188
I4
sg237
S'NP'
p280
sg175
I0
sg176
(lp281
I14
aI15
asg240
(issf_api
FeatureSet
p282
(dp283
g243
(dp284
S'drel'
p285
S'k2:VGF'
p286
sS'name'
p287
g197
ssbsba(issf_api
Chunk
p288
(dp289
g185
g191
sg188
I5
sg237
S'JJP'
p290
sg175
I0
sg176
(lp291
I16
asg240
(issf_api
FeatureSet
p292
(dp293
g243
(dp294
S'drel'
p295
S'pof:VGF'
p296
sS'name'
p297
g191
ssbsba(issf_api
Chunk
p298
(dp299
g185
g180
sg188
I6
sg237
S'VGF'
p300
sg175
I0
sg176
(lp301
I17
aI18
asg240
(issf_api
FeatureSet
p302
(dp303
g243
(dp304
S'name'
p305
g180
sS'stype'
p306
S'declarative'
p307
sS'voicetype'
p308
S'active'
p309
ssbsba(issf_api
Chunk
p310
(dp311
g185
g203
sg188
I7
sg237
S'BLK'
p312
sg175
I0
sg176
(lp313
I19
asg240
(issf_api
FeatureSet
p314
(dp315
g243
(dp316
S'drel'
p317
S'rsym:VGF'
p318
sS'name'
p319
g203
ssbsbasba(issf_api
Sentence
p320
(dp321
g173
(lp322
sg175
I1
sg176
(lp323
I20
aI21
aI22
aI23
aI24
aI25
aI26
aI27
aI28
aI29
aI30
aI31
aI32
aI33
aI34
aI35
aI36
aI37
aI38
aI39
aI40
aI41
aI42
aI43
aI44
aI45
aI46
aI47
aI48
aI49
aI50
aI51
aI52
aI53
aI54
aI55
aI56
aI57
aI58
asg178
(dp324
S'VGF2'
p325
(issf_api
Node
p326
(dp327
g183
S'ccof'
p328
sg185
g325
sg186
S'CCP'
p329
sg187
I-1
sg188
I15
sg189
(lp330
sbsS'VGNN'
p331
(issf_api
Node
p332
(dp333
g183
S'r6'
p334
sg185
g331
sg186
S'NP6'
p335
sg187
I-1
sg188
I8
sg189
(lp336
sbsS'VGF'
p337
(issf_api
Node
p338
(dp339
g183
g184
sg185
g337
sg186
g184
sg187
I-1
sg188
I2
sg189
(lp340
sbsS'CCP'
p341
(issf_api
Node
p342
(dp343
g183
S'k2'
p344
sg185
g341
sg186
S'VGF'
p345
sg187
I-1
sg188
I3
sg189
(lp346
sbsS'JJP'
p347
(issf_api
Node
p348
(dp349
g183
S'pof'
p350
sg185
g347
sg186
S'VGNN'
p351
sg187
I-1
sg188
I7
sg189
(lp352
sbsS'NP5'
p353
(issf_api
Node
p354
(dp355
g183
S'k2'
p356
sg185
g353
sg186
S'VGNN'
p357
sg187
I-1
sg188
I6
sg189
(lp358
sbsS'JJP2'
p359
(issf_api
Node
p360
(dp361
g183
S'pof'
p362
sg185
g359
sg186
S'VGF2'
p363
sg187
I-1
sg188
I14
sg189
(lp364
sbsS'NP9'
p365
(issf_api
Node
p366
(dp367
g183
S'k1'
p368
sg185
g365
sg186
S'VGF2'
p369
sg187
I-1
sg188
I12
sg189
(lp370
sbsS'NP8'
p371
(issf_api
Node
p372
(dp373
g183
S'k7'
p374
sg185
g371
sg186
S'VGF2'
p375
sg187
I-1
sg188
I11
sg189
(lp376
sbsS'BLK'
p377
(issf_api
Node
p378
(dp379
g183
S'rsym'
p380
sg185
g377
sg186
S'VGF'
p381
sg187
I-1
sg188
I16
sg189
(lp382
sbsS'NP10'
p383
(issf_api
Node
p384
(dp385
g183
S'k7p'
p386
sg185
g383
sg186
S'VGF2'
p387
sg187
I-1
sg188
I13
sg189
(lp388
sbsS'NP'
p389
(issf_api
Node
p390
(dp391
g183
S'k1'
p392
sg185
g389
sg186
S'VGF'
p393
sg187
I-1
sg188
I0
sg189
(lp394
sbsS'NP4'
p395
(issf_api
Node
p396
(dp397
g183
S'k1'
p398
sg185
g395
sg186
S'VGNN'
p399
sg187
I-1
sg188
I5
sg189
(lp400
sbsS'NP7'
p401
(issf_api
Node
p402
(dp403
g183
S'r6'
p404
sg185
g401
sg186
S'NP8'
p405
sg187
I-1
sg188
I10
sg189
(lp406
sbsS'NP6'
p407
(issf_api
Node
p408
(dp409
g183
S'k7t'
p410
sg185
g407
sg186
S'VGF2'
p411
sg187
I-1
sg188
I9
sg189
(lp412
sbsS'NP3'
p413
(issf_api
Node
p414
(dp415
g183
S'k7'
p416
sg185
g413
sg186
S'VGNN'
p417
sg187
I-1
sg188
I4
sg189
(lp418
sbsS'NP2'
p419
(issf_api
Node
p420
(dp421
g183
S'k7t'
p422
sg185
g419
sg186
S'VGF'
p423
sg187
I-1
sg188
I1
sg189
(lp424
sbssg233
(lp425
(issf_api
Chunk
p426
(dp427
g185
g389
sg188
I0
sg237
S'NP'
p428
sg175
I1
sg176
(lp429
I20
aI21
aI22
aI23
aI24
aI25
asg240
(issf_api
FeatureSet
p430
(dp431
g243
(dp432
S'drel'
p433
S'k1:VGF'
p434
sS'name'
p435
g389
ssbsba(issf_api
Chunk
p436
(dp437
g185
g419
sg188
I1
sg237
S'NP'
p438
sg175
I1
sg176
(lp439
I26
aI27
asg240
(issf_api
FeatureSet
p440
(dp441
g243
(dp442
S'drel'
p443
S'k7t:VGF'
p444
sS'name'
p445
g419
ssbsba(issf_api
Chunk
p446
(dp447
g185
g337
sg188
I2
sg237
S'VGF'
p448
sg175
I1
sg176
(lp449
I28
asg240
(issf_api
FeatureSet
p450
(dp451
g243
(dp452
S'name'
p453
g337
sS'stype'
p454
S'declarative'
p455
sS'voicetype'
p456
S'active'
p457
ssbsba(issf_api
Chunk
p458
(dp459
g185
g341
sg188
I3
sg237
S'CCP'
p460
sg175
I1
sg176
(lp461
I29
asg240
(issf_api
FeatureSet
p462
(dp463
g243
(dp464
S'drel'
p465
S'k2:VGF'
p466
sS'name'
p467
g341
ssbsba(issf_api
Chunk
p468
(dp469
g185
g413
sg188
I4
sg237
S'NP'
p470
sg175
I1
sg176
(lp471
I30
aI31
aI32
aI33
asg240
(issf_api
FeatureSet
p472
(dp473
g243
(dp474
S'drel'
p475
S'k7:VGNN'
p476
sS'name'
p477
g413
ssbsba(issf_api
Chunk
p478
(dp479
g185
g395
sg188
I5
sg237
S'NP'
p480
sg175
I1
sg176
(lp481
I34
aI35
asg240
(issf_api
FeatureSet
p482
(dp483
g243
(dp484
S'drel'
p485
S'k1:VGNN'
p486
sS'name'
p487
g395
ssbsba(issf_api
Chunk
p488
(dp489
g185
g353
sg188
I6
sg237
S'NP'
p490
sg175
I1
sg176
(lp491
I36
aI37
aI38
asg240
(issf_api
FeatureSet
p492
(dp493
g243
(dp494
S'drel'
p495
S'k2:VGNN'
p496
sS'name'
p497
g353
ssbsba(issf_api
Chunk
p498
(dp499
g185
g347
sg188
I7
sg237
S'JJP'
p500
sg175
I1
sg176
(lp501
I39
asg240
(issf_api
FeatureSet
p502
(dp503
g243
(dp504
S'drel'
p505
S'pof:VGNN'
p506
sS'name'
p507
g347
ssbsba(issf_api
Chunk
p508
(dp509
g185
g331
sg188
I8
sg237
S'VGNN'
p510
sg175
I1
sg176
(lp511
I40
aI41
aI42
asg240
(issf_api
FeatureSet
p512
(dp513
g243
(dp514
S'drel'
p515
S'r6:NP6'
p516
sS'name'
p517
g331
ssbsba(issf_api
Chunk
p518
(dp519
g185
g407
sg188
I9
sg237
S'NP'
p520
sg175
I1
sg176
(lp521
I43
aI44
aI45
asg240
(issf_api
FeatureSet
p522
(dp523
g243
(dp524
S'drel'
p525
S'k7t:VGF2'
p526
sS'name'
p527
g407
ssbsba(issf_api
Chunk
p528
(dp529
g185
g401
sg188
I10
sg237
S'NP'
p530
sg175
I1
sg176
(lp531
I46
aI47
aI48
asg240
(issf_api
FeatureSet
p532
(dp533
g243
(dp534
S'drel'
p535
S'r6:NP8'
p536
sS'name'
p537
g401
ssbsba(issf_api
Chunk
p538
(dp539
g185
g371
sg188
I11
sg237
S'NP'
p540
sg175
I1
sg176
(lp541
I49
aI50
asg240
(issf_api
FeatureSet
p542
(dp543
g243
(dp544
S'drel'
p545
S'k7:VGF2'
p546
sS'name'
p547
g371
ssbsba(issf_api
Chunk
p548
(dp549
g185
g365
sg188
I12
sg237
S'NP'
p550
sg175
I1
sg176
(lp551
I51
aI52
asg240
(issf_api
FeatureSet
p552
(dp553
g243
(dp554
S'drel'
p555
S'k1:VGF2'
p556
sS'name'
p557
g365
ssbsba(issf_api
Chunk
p558
(dp559
g185
g383
sg188
I13
sg237
S'NP'
p560
sg175
I1
sg176
(lp561
I53
asg240
(issf_api
FeatureSet
p562
(dp563
g243
(dp564
S'drel'
p565
S'k7p:VGF2'
p566
sS'name'
p567
g383
ssbsba(issf_api
Chunk
p568
(dp569
g185
g359
sg188
I14
sg237
S'JJP'
p570
sg175
I1
sg176
(lp571
I54
asg240
(issf_api
FeatureSet
p572
(dp573
g243
(dp574
S'drel'
p575
S'pof:VGF2'
p576
sS'name'
p577
g359
ssbsba(issf_api
Chunk
p578
(dp579
g185
g325
sg188
I15
sg237
S'VGF'
p580
sg175
I1
sg176
(lp581
I55
aI56
aI57
asg240
(issf_api
FeatureSet
p582
(dp583
g243
(dp584
S'voicetype'
p585
S'active'
p586
sS'drel'
p587
S'ccof:CCP'
p588
sS'stype'
p589
S'declarative'
p590
sS'name'
p591
g325
ssbsba(issf_api
Chunk
p592
(dp593
g185
g377
sg188
I16
sg237
S'BLK'
p594
sg175
I1
sg176
(lp595
I58
asg240
(issf_api
FeatureSet
p596
(dp597
g243
(dp598
S'drel'
p599
S'rsym:VGF'
p600
sS'name'
p601
g377
ssbsbasba(issf_api
Sentence
p602
(dp603
g173
(lp604
sg175
I2
sg176
(lp605
I59
aI60
aI61
aI62
aI63
aI64
aI65
aI66
aI67
aI68
aI69
aI70
aI71
aI72
aI73
aI74
aI75
aI76
aI77
aI78
aI79
aI80
aI81
aI82
asg178
(dp606
S'VGF2'
p607
(issf_api
Node
p608
(dp609
g183
S'ccof'
p610
sg185
g607
sg186
S'CCP'
p611
sg187
I-1
sg188
I10
sg189
(lp612
sbsS'VGNN'
p613
(issf_api
Node
p614
(dp615
g183
S'r6'
p616
sg185
g613
sg186
S'NP6'
p617
sg187
I-1
sg188
I8
sg189
(lp618
sbsS'VGF'
p619
(issf_api
Node
p620
(dp621
g183
g184
sg185
g619
sg186
g184
sg187
I-1
sg188
I1
sg189
(lp622
sbsS'CCP'
p623
(issf_api
Node
p624
(dp625
g183
S'k2'
p626
sg185
g623
sg186
S'VGF'
p627
sg187
I-1
sg188
I2
sg189
(lp628
sbsS'JJP'
p629
(issf_api
Node
p630
(dp631
g183
S'pof'
p632
sg185
g629
sg186
S'VGNN'
p633
sg187
I-1
sg188
I7
sg189
(lp634
sbsS'NP5'
p635
(issf_api
Node
p636
(dp637
g183
S'k7p'
p638
sg185
g635
sg186
S'VGNN'
p639
sg187
I-1
sg188
I6
sg189
(lp640
sbsS'BLK'
p641
(issf_api
Node
p642
(dp643
g183
S'rsym'
p644
sg185
g641
sg186
S'VGF'
p645
sg187
I-1
sg188
I11
sg189
(lp646
sbsS'NP'
p647
(issf_api
Node
p648
(dp649
g183
S'k1'
p650
sg185
g647
sg186
S'VGF'
p651
sg187
I-1
sg188
I0
sg189
(lp652
sbsS'NP4'
p653
(issf_api
Node
p654
(dp655
g183
S'k4'
p656
sg185
g653
sg186
S'VGF2'
p657
sg187
I-1
sg188
I5
sg189
(lp658
sbsS'NP6'
p659
(issf_api
Node
p660
(dp661
g183
S'k2'
p662
sg185
g659
sg186
S'VGF2'
p663
sg187
I-1
sg188
I9
sg189
(lp664
sbsS'NP3'
p665
(issf_api
Node
p666
(dp667
g183
S'k7t'
p668
sg185
g665
sg186
S'VGF2'
p669
sg187
I-1
sg188
I4
sg189
(lp670
sbsS'NP2'
p671
(issf_api
Node
p672
(dp673
g183
S'k1'
p674
sg185
g671
sg186
S'VGF2'
p675
sg187
I-1
sg188
I3
sg189
(lp676
sbssg233
(lp677
(issf_api
Chunk
p678
(dp679
g185
g647
sg188
I0
sg237
S'NP'
p680
sg175
I2
sg176
(lp681
I59
asg240
(issf_api
FeatureSet
p682
(dp683
g243
(dp684
S'drel'
p685
S'k1:VGF'
p686
sS'name'
p687
g647
ssbsba(issf_api
Chunk
p688
(dp689
g185
g619
sg188
I1
sg237
S'VGF'
p690
sg175
I2
sg176
(lp691
I60
asg240
(issf_api
FeatureSet
p692
(dp693
g243
(dp694
S'name'
p695
g619
sS'stype'
p696
S'declarative'
p697
sS'voicetype'
p698
S'active'
p699
ssbsba(issf_api
Chunk
p700
(dp701
g185
g623
sg188
I2
sg237
S'CCP'
p702
sg175
I2
sg176
(lp703
I61
asg240
(issf_api
FeatureSet
p704
(dp705
g243
(dp706
S'drel'
p707
S'k2:VGF'
p708
sS'name'
p709
g623
ssbsba(issf_api
Chunk
p710
(dp711
g185
g671
sg188
I3
sg237
S'NP'
p712
sg175
I2
sg176
(lp713
I62
aI63
aI64
aI65
aI66
aI67
aI68
asg240
(issf_api
FeatureSet
p714
(dp715
g243
(dp716
S'drel'
p717
S'k1:VGF2'
p718
sS'name'
p719
g671
ssbsba(issf_api
Chunk
p720
(dp721
g185
g665
sg188
I4
sg237
S'NP'
p722
sg175
I2
sg176
(lp723
I69
aI70
aI71
asg240
(issf_api
FeatureSet
p724
(dp725
g243
(dp726
S'drel'
p727
S'k7t:VGF2'
p728
sS'name'
p729
g665
ssbsba(issf_api
Chunk
p730
(dp731
g185
g653
sg188
I5
sg237
S'NP'
p732
sg175
I2
sg176
(lp733
I72
aI73
asg240
(issf_api
FeatureSet
p734
(dp735
g243
(dp736
S'drel'
p737
S'k4:VGF2'
p738
sS'name'
p739
g653
ssbsba(issf_api
Chunk
p740
(dp741
g185
g635
sg188
I6
sg237
S'NP'
p742
sg175
I2
sg176
(lp743
I74
aI75
asg240
(issf_api
FeatureSet
p744
(dp745
g243
(dp746
S'drel'
p747
S'k7p:VGNN'
p748
sS'name'
p749
g635
ssbsba(issf_api
Chunk
p750
(dp751
g185
g629
sg188
I7
sg237
S'JJP'
p752
sg175
I2
sg176
(lp753
I76
asg240
(issf_api
FeatureSet
p754
(dp755
g243
(dp756
S'drel'
p757
S'pof:VGNN'
p758
sS'name'
p759
g629
ssbsba(issf_api
Chunk
p760
(dp761
g185
g613
sg188
I8
sg237
S'VGNN'
p762
sg175
I2
sg176
(lp763
I77
aI78
asg240
(issf_api
FeatureSet
p764
(dp765
g243
(dp766
S'drel'
p767
S'r6:NP6'
p768
sS'name'
p769
g613
ssbsba(issf_api
Chunk
p770
(dp771
g185
g659
sg188
I9
sg237
S'NP'
p772
sg175
I2
sg176
(lp773
I79
asg240
(issf_api
FeatureSet
p774
(dp775
g243
(dp776
S'drel'
p777
S'k2:VGF2'
p778
sS'name'
p779
g659
ssbsba(issf_api
Chunk
p780
(dp781
g185
g607
sg188
I10
sg237
S'VGF'
p782
sg175
I2
sg176
(lp783
I80
aI81
asg240
(issf_api
FeatureSet
p784
(dp785
g243
(dp786
S'voicetype'
p787
S'active'
p788
sS'drel'
p789
S'ccof:CCP'
p790
sS'stype'
p791
S'declarative'
p792
sS'name'
p793
g607
ssbsba(issf_api
Chunk
p794
(dp795
g185
g641
sg188
I11
sg237
S'BLK'
p796
sg175
I2
sg176
(lp797
I82
asg240
(issf_api
FeatureSet
p798
(dp799
g243
(dp800
S'drel'
p801
S'rsym:VGF'
p802
sS'name'
p803
g641
ssbsbasba(issf_api
Sentence
p804
(dp805
g173
(lp806
sg175
I3
sg176
(lp807
I83
aI84
aI85
aI86
aI87
aI88
aI89
aI90
aI91
aI92
aI93
aI94
aI95
aI96
aI97
aI98
aI99
aI100
aI101
aI102
asg178
(dp808
S'VGNF'
p809
(issf_api
Node
p810
(dp811
g183
S'vmod'
p812
sg185
g809
sg186
S'VGF'
p813
sg187
I-1
sg188
I5
sg189
(lp814
sbsS'VGF'
p815
(issf_api
Node
p816
(dp817
g183
g184
sg185
g815
sg186
g184
sg187
I-1
sg188
I7
sg189
(lp818
sbsS'JJP'
p819
(issf_api
Node
p820
(dp821
g183
S'pof'
p822
sg185
g819
sg186
S'VGNF'
p823
sg187
I-1
sg188
I4
sg189
(lp824
sbsS'NP5'
p825
(issf_api
Node
p826
(dp827
g183
S'k2p'
p828
sg185
g825
sg186
S'VGF'
p829
sg187
I-1
sg188
I6
sg189
(lp830
sbsS'BLK'
p831
(issf_api
Node
p832
(dp833
g183
S'rsym'
p834
sg185
g831
sg186
S'VGF'
p835
sg187
I-1
sg188
I8
sg189
(lp836
sbsS'NP'
p837
(issf_api
Node
p838
(dp839
g183
S'k2'
p840
sg185
g837
sg186
S'VGF'
p841
sg187
I-1
sg188
I0
sg189
(lp842
sbsS'NP4'
p843
(issf_api
Node
p844
(dp845
g183
S'k5'
p846
sg185
g843
sg186
S'VGNF'
p847
sg187
I-1
sg188
I3
sg189
(lp848
sbsS'NP3'
p849
(issf_api
Node
p850
(dp851
g183
S'ras-k1'
p852
sg185
g849
sg186
S'VGF'
p853
sg187
I-1
sg188
I2
sg189
(lp854
sbsS'NP2'
p855
(issf_api
Node
p856
(dp857
g183
S'k7t'
p858
sg185
g855
sg186
S'VGF'
p859
sg187
I-1
sg188
I1
sg189
(lp860
sbssg233
(lp861
(issf_api
Chunk
p862
(dp863
g185
g837
sg188
I0
sg237
S'NP'
p864
sg175
I3
sg176
(lp865
I83
aI84
asg240
(issf_api
FeatureSet
p866
(dp867
g243
(dp868
S'drel'
p869
S'k2:VGF'
p870
sS'name'
p871
g837
ssbsba(issf_api
Chunk
p872
(dp873
g185
g855
sg188
I1
sg237
S'NP'
p874
sg175
I3
sg176
(lp875
I85
aI86
aI87
asg240
(issf_api
FeatureSet
p876
(dp877
g243
(dp878
S'drel'
p879
S'k7t:VGF'
p880
sS'name'
p881
g855
ssbsba(issf_api
Chunk
p882
(dp883
g185
g849
sg188
I2
sg237
S'NP'
p884
sg175
I3
sg176
(lp885
I88
aI89
aI90
aI91
aI92
aI93
asg240
(issf_api
FeatureSet
p886
(dp887
g243
(dp888
S'drel'
p889
S'ras-k1:VGF'
p890
sS'name'
p891
g849
ssbsba(issf_api
Chunk
p892
(dp893
g185
g843
sg188
I3
sg237
S'NP'
p894
sg175
I3
sg176
(lp895
I94
aI95
asg240
(issf_api
FeatureSet
p896
(dp897
g243
(dp898
S'drel'
p899
S'k5:VGNF'
p900
sS'name'
p901
g843
ssbsba(issf_api
Chunk
p902
(dp903
g185
g819
sg188
I4
sg237
S'JJP'
p904
sg175
I3
sg176
(lp905
I96
asg240
(issf_api
FeatureSet
p906
(dp907
g243
(dp908
S'drel'
p909
S'pof:VGNF'
p910
sS'name'
p911
g819
ssbsba(issf_api
Chunk
p912
(dp913
g185
g809
sg188
I5
sg237
S'VGNF'
p914
sg175
I3
sg176
(lp915
I97
asg240
(issf_api
FeatureSet
p916
(dp917
g243
(dp918
S'drel'
p919
S'vmod:VGF'
p920
sS'name'
p921
g809
ssbsba(issf_api
Chunk
p922
(dp923
g185
g825
sg188
I6
sg237
S'NP'
p924
sg175
I3
sg176
(lp925
I98
asg240
(issf_api
FeatureSet
p926
(dp927
g243
(dp928
S'drel'
p929
S'k2p:VGF'
p930
sS'name'
p931
g825
ssbsba(issf_api
Chunk
p932
(dp933
g185
g815
sg188
I7
sg237
S'VGF'
p934
sg175
I3
sg176
(lp935
I99
aI100
aI101
asg240
(issf_api
FeatureSet
p936
(dp937
g243
(dp938
S'name'
p939
g815
sS'stype'
p940
S'declarative'
p941
sS'voicetype'
p942
S'active'
p943
ssbsba(issf_api
Chunk
p944
(dp945
g185
g831
sg188
I8
sg237
S'BLK'
p946
sg175
I3
sg176
(lp947
I102
asg240
(issf_api
FeatureSet
p948
(dp949
g243
(dp950
S'drel'
p951
S'rsym:VGF'
p952
sS'name'
p953
g831
ssbsbasba(issf_api
Sentence
p954
(dp955
g173
(lp956
sg175
I4
sg176
(lp957
I103
aI104
aI105
aI106
aI107
aI108
aI109
aI110
aI111
aI112
aI113
aI114
aI115
aI116
asg178
(dp958
S'VGNN'
p959
(issf_api
Node
p960
(dp961
g183
S'r6'
p962
sg185
g959
sg186
S'NP5'
p963
sg187
I-1
sg188
I5
sg189
(lp964
sbsS'VGF'
p965
(issf_api
Node
p966
(dp967
g183
g184
sg185
g965
sg186
g184
sg187
I-1
sg188
I7
sg189
(lp968
sbsS'JJP'
p969
(issf_api
Node
p970
(dp971
g183
S'pof'
p972
sg185
g969
sg186
S'VGNN'
p973
sg187
I-1
sg188
I4
sg189
(lp974
sbsS'NP5'
p975
(issf_api
Node
p976
(dp977
g183
S'k1'
p978
sg185
g975
sg186
S'VGF'
p979
sg187
I-1
sg188
I6
sg189
(lp980
sbsS'BLK'
p981
(issf_api
Node
p982
(dp983
g183
S'rsym'
p984
sg185
g981
sg186
S'VGF'
p985
sg187
I-1
sg188
I8
sg189
(lp986
sbsS'NP'
p987
(issf_api
Node
p988
(dp989
g183
S'k7'
p990
sg185
g987
sg186
S'VGF'
p991
sg187
I-1
sg188
I0
sg189
(lp992
sbsS'NP4'
p993
(issf_api
Node
p994
(dp995
g183
S'k2'
p996
sg185
g993
sg186
S'VGNN'
p997
sg187
I-1
sg188
I3
sg189
(lp998
sbsS'NP3'
p999
(issf_api
Node
p1000
(dp1001
g183
S'k7t'
p1002
sg185
g999
sg186
S'VGF'
p1003
sg187
I-1
sg188
I2
sg189
(lp1004
sbsS'NP2'
p1005
(issf_api
Node
p1006
(dp1007
g183
S'k5'
p1008
sg185
g1005
sg186
S'VGNN'
p1009
sg187
I-1
sg188
I1
sg189
(lp1010
sbssg233
(lp1011
(issf_api
Chunk
p1012
(dp1013
g185
g987
sg188
I0
sg237
S'NP'
p1014
sg175
I4
sg176
(lp1015
I103
aI104
asg240
(issf_api
FeatureSet
p1016
(dp1017
g243
(dp1018
S'drel'
p1019
S'k7:VGF'
p1020
sS'name'
p1021
g987
ssbsba(issf_api
Chunk
p1022
(dp1023
g185
g1005
sg188
I1
sg237
S'NP'
p1024
sg175
I4
sg176
(lp1025
I105
aI106
asg240
(issf_api
FeatureSet
p1026
(dp1027
g243
(dp1028
S'drel'
p1029
S'k5:VGNN'
p1030
sS'name'
p1031
g1005
ssbsba(issf_api
Chunk
p1032
(dp1033
g185
g999
sg188
I2
sg237
S'NP'
p1034
sg175
I4
sg176
(lp1035
I107
aI108
asg240
(issf_api
FeatureSet
p1036
(dp1037
g243
(dp1038
S'drel'
p1039
S'k7t:VGF'
p1040
sS'name'
p1041
g999
ssbsba(issf_api
Chunk
p1042
(dp1043
g185
g993
sg188
I3
sg237
S'NP'
p1044
sg175
I4
sg176
(lp1045
I109
aI110
asg240
(issf_api
FeatureSet
p1046
(dp1047
g243
(dp1048
S'drel'
p1049
S'k2:VGNN'
p1050
sS'name'
p1051
g993
ssbsba(issf_api
Chunk
p1052
(dp1053
g185
g969
sg188
I4
sg237
S'JJP'
p1054
sg175
I4
sg176
(lp1055
I111
asg240
(issf_api
FeatureSet
p1056
(dp1057
g243
(dp1058
S'drel'
p1059
S'pof:VGNN'
p1060
sS'name'
p1061
g969
ssbsba(issf_api
Chunk
p1062
(dp1063
g185
g959
sg188
I5
sg237
S'VGNN'
p1064
sg175
I4
sg176
(lp1065
I112
aI113
asg240
(issf_api
FeatureSet
p1066
(dp1067
g243
(dp1068
S'drel'
p1069
S'r6:NP5'
p1070
sS'name'
p1071
g959
ssbsba(issf_api
Chunk
p1072
(dp1073
g185
g975
sg188
I6
sg237
S'NP'
p1074
sg175
I4
sg176
(lp1075
I114
asg240
(issf_api
FeatureSet
p1076
(dp1077
g243
(dp1078
S'drel'
p1079
S'k1:VGF'
p1080
sS'name'
p1081
g975
ssbsba(issf_api
Chunk
p1082
(dp1083
g185
g965
sg188
I7
sg237
S'VGF'
p1084
sg175
I4
sg176
(lp1085
I115
asg240
(issf_api
FeatureSet
p1086
(dp1087
g243
(dp1088
S'name'
p1089
g965
sS'stype'
p1090
S'declarative'
p1091
sS'voicetype'
p1092
S'active'
p1093
ssbsba(issf_api
Chunk
p1094
(dp1095
g185
g981
sg188
I8
sg237
S'BLK'
p1096
sg175
I4
sg176
(lp1097
I116
asg240
(issf_api
FeatureSet
p1098
(dp1099
g243
(dp1100
S'drel'
p1101
S'rsym:VGF'
p1102
sS'name'
p1103
g981
ssbsbasba(issf_api
Sentence
p1104
(dp1105
g173
(lp1106
sg175
I5
sg176
(lp1107
I117
aI118
aI119
aI120
aI121
aI122
aI123
aI124
aI125
aI126
aI127
aI128
aI129
aI130
aI131
aI132
aI133
aI134
aI135
aI136
aI137
aI138
aI139
aI140
aI141
aI142
aI143
aI144
aI145
aI146
aI147
aI148
asg178
(dp1108
S'VGF2'
p1109
(issf_api
Node
p1110
(dp1111
g183
S'ccof'
p1112
sg185
g1109
sg186
S'CCP'
p1113
sg187
I-1
sg188
I15
sg189
(lp1114
sbsS'VGNN'
p1115
(issf_api
Node
p1116
(dp1117
g183
S'k7t'
p1118
sg185
g1115
sg186
S'VGF2'
p1119
sg187
I-1
sg188
I10
sg189
(lp1120
sbsS'VGF'
p1121
(issf_api
Node
p1122
(dp1123
g183
g184
sg185
g1121
sg186
g184
sg187
I-1
sg188
I1
sg189
(lp1124
sbsS'CCP'
p1125
(issf_api
Node
p1126
(dp1127
g183
S'k2'
p1128
sg185
g1125
sg186
S'VGF'
p1129
sg187
I-1
sg188
I2
sg189
(lp1130
sbsS'JJP'
p1131
(issf_api
Node
p1132
(dp1133
g183
S'pof'
p1134
sg185
g1131
sg186
S'VGNN'
p1135
sg187
I-1
sg188
I9
sg189
(lp1136
sbsS'NP5'
p1137
(issf_api
Node
p1138
(dp1139
g183
S'k7'
p1140
sg185
g1137
sg186
S'VGNN'
p1141
sg187
I-1
sg188
I7
sg189
(lp1142
sbsS'JJP2'
p1143
(issf_api
Node
p1144
(dp1145
g183
S'pof'
p1146
sg185
g1143
sg186
S'VGF2'
p1147
sg187
I-1
sg188
I14
sg189
(lp1148
sbsS'NP9'
p1149
(issf_api
Node
p1150
(dp1151
g183
S'k2'
p1152
sg185
g1149
sg186
S'VGF2'
p1153
sg187
I-1
sg188
I13
sg189
(lp1154
sbsS'NP8'
p1155
(issf_api
Node
p1156
(dp1157
g183
S'vmod'
p1158
sg185
g1155
sg186
S'VGF2'
p1159
sg187
I-1
sg188
I12
sg189
(lp1160
sbsS'BLK'
p1161
(issf_api
Node
p1162
(dp1163
g183
S'rsym'
p1164
sg185
g1161
sg186
S'VGF'
p1165
sg187
I-1
sg188
I16
sg189
(lp1166
sbsS'NP'
p1167
(issf_api
Node
p1168
(dp1169
g183
S'k1'
p1170
sg185
g1167
sg186
S'VGF'
p1171
sg187
I-1
sg188
I0
sg189
(lp1172
sbsS'NP4'
p1173
(issf_api
Node
p1174
(dp1175
g183
S'ccof'
p1176
sg185
g1173
sg186
S'CCP2'
p1177
sg187
I-1
sg188
I6
sg189
(lp1178
sbsS'NP7'
p1179
(issf_api
Node
p1180
(dp1181
g183
S'k1'
p1182
sg185
g1179
sg186
S'VGF2'
p1183
sg187
I-1
sg188
I11
sg189
(lp1184
sbsS'NP6'
p1185
(issf_api
Node
p1186
(dp1187
g183
S'k2'
p1188
sg185
g1185
sg186
S'VGNN'
p1189
sg187
I-1
sg188
I8
sg189
(lp1190
sbsS'CCP2'
p1191
(issf_api
Node
p1192
(dp1193
g183
S'vmod'
p1194
sg185
g1191
sg186
S'VGF2'
p1195
sg187
I-1
sg188
I5
sg189
(lp1196
sbsS'NP3'
p1197
(issf_api
Node
p1198
(dp1199
g183
S'ccof'
p1200
sg185
g1197
sg186
S'CCP2'
p1201
sg187
I-1
sg188
I4
sg189
(lp1202
sbsS'NP2'
p1203
(issf_api
Node
p1204
(dp1205
g183
S'k7t'
p1206
sg185
g1203
sg186
S'VGF2'
p1207
sg187
I-1
sg188
I3
sg189
(lp1208
sbssg233
(lp1209
(issf_api
Chunk
p1210
(dp1211
g185
g1167
sg188
I0
sg237
S'NP'
p1212
sg175
I5
sg176
(lp1213
I117
aI118
aI119
asg240
(issf_api
FeatureSet
p1214
(dp1215
g243
(dp1216
S'drel'
p1217
S'k1:VGF'
p1218
sS'name'
p1219
g1167
ssbsba(issf_api
Chunk
p1220
(dp1221
g185
g1121
sg188
I1
sg237
S'VGF'
p1222
sg175
I5
sg176
(lp1223
I120
asg240
(issf_api
FeatureSet
p1224
(dp1225
g243
(dp1226
S'name'
p1227
g1121
sS'stype'
p1228
S'declarative'
p1229
sS'voicetype'
p1230
S'active'
p1231
ssbsba(issf_api
Chunk
p1232
(dp1233
g185
g1125
sg188
I2
sg237
S'CCP'
p1234
sg175
I5
sg176
(lp1235
I121
asg240
(issf_api
FeatureSet
p1236
(dp1237
g243
(dp1238
S'drel'
p1239
S'k2:VGF'
p1240
sS'name'
p1241
g1125
ssbsba(issf_api
Chunk
p1242
(dp1243
g185
g1203
sg188
I3
sg237
S'NP'
p1244
sg175
I5
sg176
(lp1245
I122
aI123
asg240
(issf_api
FeatureSet
p1246
(dp1247
g243
(dp1248
S'drel'
p1249
S'k7t:VGF2'
p1250
sS'name'
p1251
g1203
ssbsba(issf_api
Chunk
p1252
(dp1253
g185
g1197
sg188
I4
sg237
S'NP'
p1254
sg175
I5
sg176
(lp1255
I124
asg240
(issf_api
FeatureSet
p1256
(dp1257
g243
(dp1258
S'drel'
p1259
S'ccof:CCP2'
p1260
sS'name'
p1261
g1197
ssbsba(issf_api
Chunk
p1262
(dp1263
g185
g1191
sg188
I5
sg237
S'CCP'
p1264
sg175
I5
sg176
(lp1265
I125
asg240
(issf_api
FeatureSet
p1266
(dp1267
g243
(dp1268
S'drel'
p1269
S'vmod:VGF2'
p1270
sS'name'
p1271
g1191
ssbsba(issf_api
Chunk
p1272
(dp1273
g185
g1173
sg188
I6
sg237
S'NP'
p1274
sg175
I5
sg176
(lp1275
I126
aI127
aI128
asg240
(issf_api
FeatureSet
p1276
(dp1277
g243
(dp1278
S'drel'
p1279
S'ccof:CCP2'
p1280
sS'name'
p1281
g1173
ssbsba(issf_api
Chunk
p1282
(dp1283
g185
g1137
sg188
I7
sg237
S'NP'
p1284
sg175
I5
sg176
(lp1285
I129
aI130
aI131
aI132
asg240
(issf_api
FeatureSet
p1286
(dp1287
g243
(dp1288
S'drel'
p1289
S'k7:VGNN'
p1290
sS'name'
p1291
g1137
ssbsba(issf_api
Chunk
p1292
(dp1293
g185
g1185
sg188
I8
sg237
S'NP'
p1294
sg175
I5
sg176
(lp1295
I133
asg240
(issf_api
FeatureSet
p1296
(dp1297
g243
(dp1298
S'drel'
p1299
S'k2:VGNN'
p1300
sS'name'
p1301
g1185
ssbsba(issf_api
Chunk
p1302
(dp1303
g185
g1131
sg188
I9
sg237
S'JJP'
p1304
sg175
I5
sg176
(lp1305
I134
asg240
(issf_api
FeatureSet
p1306
(dp1307
g243
(dp1308
S'drel'
p1309
S'pof:VGNN'
p1310
sS'name'
p1311
g1131
ssbsba(issf_api
Chunk
p1312
(dp1313
g185
g1115
sg188
I10
sg237
S'VGNN'
p1314
sg175
I5
sg176
(lp1315
I135
aI136
aI137
asg240
(issf_api
FeatureSet
p1316
(dp1317
g243
(dp1318
S'drel'
p1319
S'k7t:VGF2'
p1320
sS'name'
p1321
g1115
ssbsba(issf_api
Chunk
p1322
(dp1323
g185
g1179
sg188
I11
sg237
S'NP'
p1324
sg175
I5
sg176
(lp1325
I138
aI139
asg240
(issf_api
FeatureSet
p1326
(dp1327
g243
(dp1328
S'drel'
p1329
S'k1:VGF2'
p1330
sS'name'
p1331
g1179
ssbsba(issf_api
Chunk
p1332
(dp1333
g185
g1155
sg188
I12
sg237
S'NP'
p1334
sg175
I5
sg176
(lp1335
I140
aI141
aI142
asg240
(issf_api
FeatureSet
p1336
(dp1337
g243
(dp1338
S'drel'
p1339
S'vmod:VGF2'
p1340
sS'name'
p1341
g1155
ssbsba(issf_api
Chunk
p1342
(dp1343
g185
g1149
sg188
I13
sg237
S'NP'
p1344
sg175
I5
sg176
(lp1345
I143
aI144
asg240
(issf_api
FeatureSet
p1346
(dp1347
g243
(dp1348
S'drel'
p1349
S'k2:VGF2'
p1350
sS'name'
p1351
g1149
ssbsba(issf_api
Chunk
p1352
(dp1353
g185
g1143
sg188
I14
sg237
S'JJP'
p1354
sg175
I5
sg176
(lp1355
I145
asg240
(issf_api
FeatureSet
p1356
(dp1357
g243
(dp1358
S'drel'
p1359
S'pof:VGF2'
p1360
sS'name'
p1361
g1143
ssbsba(issf_api
Chunk
p1362
(dp1363
g185
g1109
sg188
I15
sg237
S'VGF'
p1364
sg175
I5
sg176
(lp1365
I146
aI147
asg240
(issf_api
FeatureSet
p1366
(dp1367
g243
(dp1368
S'voicetype'
p1369
S'active'
p1370
sS'drel'
p1371
S'ccof:CCP'
p1372
sS'stype'
p1373
S'declarative'
p1374
sS'name'
p1375
g1109
ssbsba(issf_api
Chunk
p1376
(dp1377
g185
g1161
sg188
I16
sg237
S'BLK'
p1378
sg175
I5
sg176
(lp1379
I148
asg240
(issf_api
FeatureSet
p1380
(dp1381
g243
(dp1382
S'drel'
p1383
S'rsym:VGF'
p1384
sS'name'
p1385
g1161
ssbsbasba(issf_api
Sentence
p1386
(dp1387
g173
(lp1388
sg175
I6
sg176
(lp1389
I149
aI150
aI151
aI152
aI153
aI154
aI155
aI156
aI157
aI158
aI159
aI160
aI161
aI162
aI163
asg178
(dp1390
S'VGF'
p1391
(issf_api
Node
p1392
(dp1393
g183
g184
sg185
g1391
sg186
g184
sg187
I-1
sg188
I6
sg189
(lp1394
sbsS'JJP'
p1395
(issf_api
Node
p1396
(dp1397
g183
S'pof'
p1398
sg185
g1395
sg186
S'VGF'
p1399
sg187
I-1
sg188
I5
sg189
(lp1400
sbsS'BLK'
p1401
(issf_api
Node
p1402
(dp1403
g183
S'rsym'
p1404
sg185
g1401
sg186
S'VGF'
p1405
sg187
I-1
sg188
I7
sg189
(lp1406
sbsS'NP'
p1407
(issf_api
Node
p1408
(dp1409
g183
S'k1'
p1410
sg185
g1407
sg186
S'VGF'
p1411
sg187
I-1
sg188
I0
sg189
(lp1412
sbsS'NP4'
p1413
(issf_api
Node
p1414
(dp1415
g183
S'k2'
p1416
sg185
g1413
sg186
S'VGF'
p1417
sg187
I-1
sg188
I4
sg189
(lp1418
sbsS'RBP'
p1419
(issf_api
Node
p1420
(dp1421
g183
S'adv'
p1422
sg185
g1419
sg186
S'VGF'
p1423
sg187
I-1
sg188
I3
sg189
(lp1424
sbsS'NP3'
p1425
(issf_api
Node
p1426
(dp1427
g183
S'k7'
p1428
sg185
g1425
sg186
S'VGF'
p1429
sg187
I-1
sg188
I2
sg189
(lp1430
sbsS'NP2'
p1431
(issf_api
Node
p1432
(dp1433
g183
S'k7t'
p1434
sg185
g1431
sg186
S'VGF'
p1435
sg187
I-1
sg188
I1
sg189
(lp1436
sbssg233
(lp1437
(issf_api
Chunk
p1438
(dp1439
g185
g1407
sg188
I0
sg237
S'NP'
p1440
sg175
I6
sg176
(lp1441
I149
aI150
aI151
asg240
(issf_api
FeatureSet
p1442
(dp1443
g243
(dp1444
S'drel'
p1445
S'k1:VGF'
p1446
sS'name'
p1447
g1407
ssbsba(issf_api
Chunk
p1448
(dp1449
g185
g1431
sg188
I1
sg237
S'NP'
p1450
sg175
I6
sg176
(lp1451
I152
aI153
aI154
asg240
(issf_api
FeatureSet
p1452
(dp1453
g243
(dp1454
S'drel'
p1455
S'k7t:VGF'
p1456
sS'name'
p1457
g1431
ssbsba(issf_api
Chunk
p1458
(dp1459
g185
g1425
sg188
I2
sg237
S'NP'
p1460
sg175
I6
sg176
(lp1461
I155
aI156
aI157
asg240
(issf_api
FeatureSet
p1462
(dp1463
g243
(dp1464
S'drel'
p1465
S'k7:VGF'
p1466
sS'name'
p1467
g1425
ssbsba(issf_api
Chunk
p1468
(dp1469
g185
g1419
sg188
I3
sg237
S'RBP'
p1470
sg175
I6
sg176
(lp1471
I158
aI159
asg240
(issf_api
FeatureSet
p1472
(dp1473
g243
(dp1474
S'drel'
p1475
S'adv:VGF'
p1476
sS'name'
p1477
g1419
ssbsba(issf_api
Chunk
p1478
(dp1479
g185
g1413
sg188
I4
sg237
S'NP'
p1480
sg175
I6
sg176
(lp1481
I160
asg240
(issf_api
FeatureSet
p1482
(dp1483
g243
(dp1484
S'drel'
p1485
S'k2:VGF'
p1486
sS'name'
p1487
g1413
ssbsba(issf_api
Chunk
p1488
(dp1489
g185
g1395
sg188
I5
sg237
S'JJP'
p1490
sg175
I6
sg176
(lp1491
I161
asg240
(issf_api
FeatureSet
p1492
(dp1493
g243
(dp1494
S'drel'
p1495
S'pof:VGF'
p1496
sS'name'
p1497
g1395
ssbsba(issf_api
Chunk
p1498
(dp1499
g185
g1391
sg188
I6
sg237
S'VGF'
p1500
sg175
I6
sg176
(lp1501
I162
asg240
(issf_api
FeatureSet
p1502
(dp1503
g243
(dp1504
S'name'
p1505
g1391
sS'stype'
p1506
S'declarative'
p1507
sS'voicetype'
p1508
S'active'
p1509
ssbsba(issf_api
Chunk
p1510
(dp1511
g185
g1401
sg188
I7
sg237
S'BLK'
p1512
sg175
I6
sg176
(lp1513
I163
asg240
(issf_api
FeatureSet
p1514
(dp1515
g243
(dp1516
S'drel'
p1517
S'rsym:VGF'
p1518
sS'name'
p1519
g1401
ssbsbasbasS'relationList'
p1520
(lp1521
(iextract_relations
discourseRelation
p1522
(dp1523
S'arg1Trees'
p1524
(lp1525
sS'arg2Sentence'
p1526
(lp1527
sS'arg1Sentence'
p1528
(lp1529
sS'connList'
p1530
(lp1531
sS'isPaired'
p1532
I00
sS'arg1'
p1533
NsS'arg1Span'
p1534
V130..233
p1535
sS'arg2'
p1536
NsS'arg2Trees'
p1537
(lp1538
sS'fileName'
p1539
S'../data/raw/Section_17/fullnews_id_2605259_date_18_7_2004.utf8'
p1540
sS'connTrees'
p1541
(lp1542
sS'arg2List'
p1543
(lp1544
sS'arg2Span'
p1545
V235..426
p1546
sS'sense'
p1547
VExpansion.Restatement.Specification
p1548
sS'relationType'
p1549
VImplicit
p1550
sS'connSpan'
p1551
V
sS'arg1List'
p1552
(lp1553
sS'conn'
p1554
VwaWA
p1555
sba(iextract_relations
discourseRelation
p1556
(dp1557
g1524
(lp1558
sg1526
(lp1559
sg1528
(lp1560
sg1530
(lp1561
I44
aI45
asg1532
I00
sg1533
Nsg1534
V283..356
p1562
sg1536
Nsg1537
(lp1563
sg1539
g1540
sg1541
(lp1564
sg1543
(lp1565
I46
aI47
aI48
aI49
aI50
aI51
aI52
aI53
aI54
aI55
aI56
aI57
asg1545
V364..425
p1566
sg1547
VTemporal.Asynchronous.Succession
p1567
sg1549
VExplicit
p1568
sg1551
V357..363
p1569
sg1552
(lp1570
I30
aI31
aI32
aI33
aI34
aI35
aI36
aI37
aI38
aI39
aI40
aI41
aI42
aI43
asg1554
V\u0915\u0947 \u092c\u093e\u0926
p1571
sba(iextract_relations
discourseRelation
p1572
(dp1573
g1524
(lp1574
sg1526
(lp1575
sg1528
(lp1576
sg1530
(lp1577
sg1532
I00
sg1533
Nsg1534
V235..426
p1578
sg1536
Nsg1537
(lp1579
sg1539
g1540
sg1541
(lp1580
sg1543
(lp1581
sg1545
V427..545
p1582
sg1547
VExpansion.Conjunction
p1583
sg1549
VImplicit
p1584
sg1551
V
sg1552
(lp1585
sg1554
VAge
p1586
sba(iextract_relations
discourseRelation
p1587
(dp1588
g1524
(lp1589
sg1526
(lp1590
sg1528
(lp1591
sg1530
(lp1592
sg1532
I00
sg1533
Nsg1534
V443..546
p1593
sg1536
Nsg1537
(lp1594
sg1539
g1540
sg1541
(lp1595
sg1543
(lp1596
sg1545
V547..644
p1597
sg1547
VTemporal.Asynchronous.Precedence
p1598
sg1549
VImplicit
p1599
sg1551
V
sg1552
(lp1600
sg1554
Visake pahale
p1601
sba(iextract_relations
discourseRelation
p1602
(dp1603
g1524
(lp1604
sg1526
(lp1605
sg1528
(lp1606
sg1530
(lp1607
sg1532
I00
sg1533
Nsg1534
V547..644
p1608
sg1536
Nsg1537
(lp1609
sg1539
g1540
sg1541
(lp1610
sg1543
(lp1611
sg1545
V646..712
p1612
sg1547
VContingency.Cause.Reason
p1613
sg1549
VImplicit
p1614
sg1551
V
sg1552
(lp1615
sg1554
VkyoMki
p1616
sba(iextract_relations
discourseRelation
p1617
(dp1618
g1524
(lp1619
sg1526
(lp1620
sg1528
(lp1621
sg1530
(lp1622
sg1532
I00
sg1533
Nsg1534
V427..711
p1623
sg1536
Nsg1537
(lp1624
sg1539
g1540
sg1541
(lp1625
sg1543
(lp1626
sg1545
V713..872
p1627
sg1547
VExpansion.Conjunction
p1628
sg1549
VImplicit
p1629
sg1551
V
sg1552
(lp1630
sg1554
VsAWa hI
p1631
sba(iextract_relations
discourseRelation
p1632
(dp1633
g1524
(lp1634
sg1526
(lp1635
sg1528
(lp1636
sg1530
(lp1637
I136
aI137
asg1532
I00
sg1533
Nsg1534
V739..812
p1638
sg1536
Nsg1537
(lp1639
sg1539
g1540
sg1541
(lp1640
sg1543
(lp1641
I138
aI139
aI140
aI141
aI142
aI143
aI144
aI145
aI146
aI147
asg1545
V820..872
p1642
sg1547
VTemporal.Asynchronous.Succession
p1643
sg1549
VExplicit
p1644
sg1551
V813..819
p1645
sg1552
(lp1646
I122
aI123
aI124
aI125
aI126
aI127
aI128
aI129
aI130
aI131
aI132
aI133
aI134
aI135
asg1554
V\u0915\u0947 \u092c\u093e\u0926
p1647
sba(iextract_relations
discourseRelation
p1648
(dp1649
g1524
(lp1650
sg1526
(lp1651
sg1528
(lp1652
sg1530
(lp1653
sg1532
I00
sg1533
Nsg1534
V739..873
p1654
sg1536
Nsg1537
(lp1655
sg1539
g1540
sg1541
(lp1656
sg1543
(lp1657
sg1545
V874..939
p1658
sg1547
VExpansion.Conjunction
p1659
sg1549
VImplicit
p1660
sg1551
V
sg1552
(lp1661
sg1554
VOra
p1662
sbasS'rawData'
p1663
V<DOC>\u000a<DOCNO>fullnews_id_2605259_date_18_7_2004.utf8</DOCNO>\u000a<TEXT>\u000a\u000a\u000a\u092e\u094b\u0928\u093f\u0915\u093e \u0915\u0947 \u0916\u093f\u0932\u093e\u092b \u092a\u094d\u0930\u094b\u0921\u0915\u094d\u0936\u0928 \u0935\u093e\u0930\u0902\u091f \u091c\u093e\u0930\u0940\u000a\u000a\u000a\u000a\u092a\u094d\u0930\u0947\u000a\u000a\u092d\u094b\u092a\u093e\u0932\u0964  \u000a\u000a\u000a\u000a\u000a\u000a\u092b\u0930\u094d\u091c\u0940 \u092a\u093e\u0938\u092a\u094b\u0930\u094d\u091f \u092e\u093e\u092e\u0932\u0947 \u092e\u0947\u0902 \u092d\u094b\u092a\u093e\u0932 \u0915\u0940 \u090f\u0915 \u0938\u094d\u0925\u093e\u0928\u0940\u092f \u0905\u0926\u093e\u0932\u0924 \u0928\u0947 \u092e\u094b\u0928\u093f\u0915\u093e \u092c\u0947\u0926\u0940 \u0915\u0947 \u0916\u093f\u0932\u093e\u092b \u092a\u094d\u0930\u094b\u0921\u0915\u094d\u0936\u0928 \u0935\u093e\u0930\u0902\u091f \u091c\u093e\u0930\u0940 \u0915\u093f\u092f\u093e \u0939\u0948\u0964 \u092a\u0941\u0932\u093f\u0938 \u0905\u0927\u0940\u0915\u094d\u0937\u0915 \u090f.\u0915\u0947.\u0938\u093f\u0902\u0939 \u0928\u0947 \u0936\u0941\u0915\u094d\u0930\u0935\u093e\u0930 \u0915\u094b \u092c\u0924\u093e\u092f\u093e \u0915\u093f \u092b\u0930\u094d\u091c\u0940 \u092a\u093e\u0938\u092a\u094b\u0930\u094d\u091f \u092e\u093e\u092e\u0932\u0947 \u092e\u0947\u0902 \u0905\u0926\u093e\u0932\u0924 \u0926\u094d\u0935\u093e\u0930\u093e \u092e\u094b\u0928\u093f\u0915\u093e \u092c\u0947\u0926\u0940 \u0915\u094b \u092a\u0947\u0936 \u0915\u093f\u090f \u091c\u093e\u0928\u0947 \u0915\u0947 \u0906\u0926\u0947\u0936 \u0915\u0947 \u092c\u093e\u0926 \u092a\u0941\u0932\u093f\u0938 \u0909\u092a\u093e\u0927\u0940\u0915\u094d\u0937\u0915 \u0915\u0947 \u0928\u0947\u0924\u0943\u0924\u094d\u0935 \u092e\u0947\u0902 \u090f\u0915 \u091f\u0940\u092e \u0939\u0948\u0926\u0930\u093e\u092c\u093e\u0926 \u0930\u0935\u093e\u0928\u093e \u0939\u094b \u0917\u0908 \u0939\u0948\u0964 \u0909\u0928\u094d\u0939\u094b\u0902\u0928\u0947 \u0915\u0939\u093e \u0915\u093f \u092e\u0941\u0916\u094d\u092f \u0928\u094d\u092f\u093e\u092f\u093f\u0915 \u0926\u0902\u0921\u093e\u0927\u093f\u0915\u093e\u0930\u0940 \u0926\u093f\u0928\u0947\u0936 \u0915\u0941\u092e\u093e\u0930 \u0926\u093e\u0902\u0917\u0940 \u0928\u0947 \u0968\u096c \u0928\u0935\u0902\u092c\u0930 \u0915\u094b \u092e\u094b\u0928\u093f\u0915\u093e \u0915\u094b \u0905\u0926\u093e\u0932\u0924 \u092e\u0947\u0902 \u092a\u0947\u0936 \u0915\u0930\u0928\u0947 \u0915\u093e \u0906\u0926\u0947\u0936 \u0926\u093f\u092f\u093e \u0939\u0948\u0964 \u092e\u094b\u0928\u093f\u0915\u093e \u0915\u094b \u0967\u0967 \u0928\u0935\u0902\u092c\u0930 \u0915\u094b \u0905\u0902\u0921\u0930\u0935\u0932\u094d\u0930\u094d\u0921 \u0921\u0945\u0928 \u0905\u092c\u0942 \u0938\u0932\u0947\u092e \u0915\u0947 \u0938\u093e\u0925 \u092a\u0941\u0930\u094d\u0924\u0917\u093e\u0932 \u0938\u0947 \u092a\u094d\u0930\u0924\u094d\u092f\u0930\u094d\u092a\u093f\u0924 \u0915\u0930 \u092e\u0941\u0902\u092c\u0908 \u0932\u093e\u092f\u093e \u0917\u092f\u093e \u0925\u093e\u0964 \u092e\u094b\u0928\u093f\u0915\u093e \u092a\u0930 \u092d\u094b\u092a\u093e\u0932 \u0938\u0947 \u0968\u0966\u0966\u0967 \u092e\u0947\u0902 \u092b\u0930\u094d\u091c\u0940 \u092a\u093e\u0938\u092a\u094b\u0930\u094d\u091f \u091c\u093e\u0930\u0940 \u0915\u0930\u0935\u093e\u0928\u0947 \u0915\u093e \u0906\u0930\u094b\u092a \u0939\u0948\u0964 \u092a\u0941\u0932\u093f\u0938 \u0905\u0927\u0940\u0915\u094d\u0937\u0915 \u0928\u0947 \u092c\u0924\u093e\u092f\u093e \u0915\u093f \u0968\u0966\u0966\u0968 \u092e\u0947\u0902 \u0938\u0932\u0947\u092e \u0914\u0930 \u092e\u094b\u0928\u093f\u0915\u093e \u0915\u0947 \u0916\u093f\u0932\u093e\u092b \u092b\u0930\u094d\u091c\u0940 \u092a\u093e\u0938\u092a\u094b\u0930\u094d\u091f \u092e\u093e\u092e\u0932\u0947 \u092e\u0947\u0902 \u0906\u0930\u094b\u092a\u093e \u0926\u093e\u092f\u0930 \u0915\u0930\u0928\u0947 \u0915\u0947 \u092c\u093e\u0926 \u0905\u0926\u093e\u0932\u0924 \u0928\u0947 \u0926\u094b\u0928\u094b\u0902 \u0915\u0947 \u0916\u093f\u0932\u093e\u092b \u0917\u093f\u0930\u092b\u094d\u0924\u093e\u0930\u0940 \u0935\u093e\u0930\u0902\u091f \u091c\u093e\u0930\u0940 \u0915\u093f\u092f\u093e \u0925\u093e\u0964 \u0938\u094d\u0925\u093e\u0928\u0940\u092f \u0905\u0926\u093e\u0932\u0924 \u0928\u0947 \u0967\u096a \u0928\u0935\u0902\u092c\u0930 \u0915\u094b \u0907\u0938 \u092e\u093e\u092e\u0932\u0947 \u092e\u0947\u0902 \u092b\u093f\u0930 \u0938\u0947 \u0935\u093e\u0930\u0902\u091f \u091c\u093e\u0930\u0940 \u0915\u093f\u092f\u093e\u0964\u000a\u000a\u000a\u000a\u000a</TEXT>\u000a</DOC>
p1664
sS'rawFileName'
p1665
g1540
sS'rawToAnnMapping'
p1666
(dp1667
I0
(I0
tp1668
sI1
(I1
tp1669
sI2
(I2
tp1670
sI3
(I3
tp1671
sI4
(I4
tp1672
sI5
(I5
tp1673
sI6
(I6
tp1674
sI7
(I7
tp1675
sI8
(I8
tp1676
sI9
(I9
tp1677
sI10
(I10
tp1678
sI11
(I11
tp1679
sI12
(I12
tp1680
sI13
(I13
tp1681
sI14
(I14
tp1682
sI15
(I15
tp1683
sI16
(I16
tp1684
sI17
(I17
tp1685
sI18
(I18
tp1686
sI19
(I19
tp1687
sI20
(I20
tp1688
sI21
(I21
tp1689
sI22
(I22
tp1690
sI23
(I23
tp1691
sI24
(I24
tp1692
sI25
(I25
tp1693
sI26
(I26
tp1694
sI27
(I27
tp1695
sI28
(I28
tp1696
sI29
(I29
tp1697
sI30
(I30
tp1698
sI31
(I31
tp1699
sI32
(I32
tp1700
sI33
(I33
tp1701
sI34
(I34
tp1702
sI35
(I35
tp1703
sI36
(I36
tp1704
sI37
(I37
tp1705
sI38
(I38
tp1706
sI39
(I39
tp1707
sI40
(I40
tp1708
sI41
(I41
tp1709
sI42
(I42
tp1710
sI43
(I43
tp1711
sI44
(I44
tp1712
sI45
(I45
tp1713
sI46
(I46
tp1714
sI47
(I47
tp1715
sI48
(I48
tp1716
sI49
(I49
tp1717
sI50
(I50
tp1718
sI51
(I51
tp1719
sI52
(I52
tp1720
sI53
(I53
tp1721
sI54
(I54
tp1722
sI55
(I55
tp1723
sI56
(I56
tp1724
sI57
(I57
tp1725
sI58
(I58
tp1726
sI59
(I59
tp1727
sI60
(I60
tp1728
sI61
(I61
tp1729
sI62
(I62
tp1730
sI63
(I63
tp1731
sI64
(I64
tp1732
sI65
(I65
tp1733
sI66
(I66
tp1734
sI67
(I67
tp1735
sI68
(I68
tp1736
sI69
(I69
tp1737
sI70
(I70
tp1738
sI71
(I71
tp1739
sI72
(I72
tp1740
sI73
(I73
tp1741
sI74
(I74
tp1742
sI75
(I75
tp1743
sI76
(I76
tp1744
sI77
(I77
tp1745
sI78
(I78
tp1746
sI79
(I79
tp1747
sI80
(I80
tp1748
sI81
(I81
tp1749
sI82
(I82
tp1750
sI83
(I83
tp1751
sI84
(I84
tp1752
sI85
(I85
tp1753
sI86
(I86
tp1754
sI87
(I87
tp1755
sI88
(I88
tp1756
sI89
(I89
tp1757
sI90
(I90
tp1758
sI91
(I91
tp1759
sI92
(I92
tp1760
sI93
(I93
tp1761
sI94
(I94
tp1762
sI95
(I95
tp1763
sI96
(I96
tp1764
sI97
(I97
tp1765
sI98
(I98
tp1766
sI99
(I99
tp1767
sI100
(I100
tp1768
sI101
(I101
tp1769
sI102
(I102
tp1770
sI103
(I103
tp1771
sI104
(I104
tp1772
sI105
(I105
tp1773
sI106
(I106
tp1774
sI107
(I107
tp1775
sI108
(I108
tp1776
sI109
(I109
tp1777
sI110
(I110
tp1778
sI111
(I111
tp1779
sI112
(I112
tp1780
sI113
(I113
tp1781
sI114
(I114
tp1782
sI115
(I115
tp1783
sI116
(I116
tp1784
sI117
(I117
tp1785
sI118
(I118
tp1786
sI119
(I119
tp1787
sI120
(I120
tp1788
sI121
(I121
tp1789
sI122
(I122
tp1790
sI123
(I123
tp1791
sI124
(I124
tp1792
sI125
(I125
tp1793
sI126
(I126
tp1794
sI127
(I127
tp1795
sI128
(I128
tp1796
sI129
(I129
tp1797
sI130
(I130
tp1798
sI131
(I131
tp1799
sI132
(I132
tp1800
sI133
(I133
tp1801
sI134
(I134
tp1802
sI135
(I135
tp1803
sI136
(I136
tp1804
sI137
(I137
tp1805
sI138
(I138
tp1806
sI139
(I139
tp1807
sI140
(I140
tp1808
sI141
(I141
tp1809
sI142
(I142
tp1810
sI143
(I143
tp1811
sI144
(I144
tp1812
sI145
(I145
tp1813
sI146
(I146
tp1814
sI147
(I147
tp1815
sI148
(I148
tp1816
sI149
(I149
tp1817
sI150
(I150
tp1818
sI151
(I151
tp1819
sI152
(I152
tp1820
sI153
(I153
tp1821
sI154
(I154
tp1822
sI155
(I155
tp1823
sI156
(I156
tp1824
sI157
(I157
tp1825
sI158
(I158
tp1826
sI159
(I159
tp1827
sI160
(I160
tp1828
sI161
(I161
tp1829
sI162
(I162
tp1830
sI163
(I163
tp1831
ssS'globalWordList'
p1832
(lp1833
(issf_api
Word
p1834
(dp1835
S'splitConn'
p1836
I00
sS'word'
p1837
V\u092b\u0930\u094d\u091c\u0940
p1838
sS'extraFeatureSet'
p1839
(issf_api
FeatureSet
p1840
(dp1841
g243
(dp1842
S'posn'
p1843
S'10'
p1844
sS'name'
p1845
S'\xe0\xa4\xab\xe0\xa4\xb0\xe0\xa5\x8d\xe0\xa4\x9c\xe0\xa5\x80'
p1846
sS'drel'
p1847
S'nmod__adj:\xe0\xa4\xae\xe0\xa4\xbe\xe0\xa4\xae\xe0\xa4\xb2\xe0\xa5\x87'
p1848
sS'chunktype'
p1849
S'child:NP'
p1850
sS'af'
p1851
S'\xe0\xa4\xab\xe0\xa4\xb0\xe0\xa5\x8d\xe0\xa4\x9c\xe0\xa5\x80,adj,any,any,,o,,'
p1852
ssbsg1533
I00
sg1536
I00
sg1547
Nsg1534
Nsg188
I0
sg175
I0
sS'relationNum'
p1853
Nsg1545
NsS'wordTag'
p1854
S'JJ'
p1855
sg240
(issf_api
FeatureSet
p1856
(dp1857
g243
(dp1858
S'posn'
p1859
S'10'
p1860
sS'name'
p1861
S'\xe0\xa4\xab\xe0\xa4\xb0\xe0\xa5\x8d\xe0\xa4\x9c\xe0\xa5\x80'
p1862
sS'af'
p1863
S'\xe0\xa4\xab\xe0\xa4\xb0\xe0\xa5\x8d\xe0\xa4\x9c\xe0\xa5\x80,adj,any,any,,o,,'
p1864
ssbsg1554
I00
sba(issf_api
Word
p1865
(dp1866
g1836
I00
sg1837
V\u092a\u093e\u0938\u092a\u094b\u0930\u094d\u091f
p1867
sg1839
(issf_api
FeatureSet
p1868
(dp1869
g243
(dp1870
S'posn'
p1871
S'20'
p1872
sS'name'
p1873
S'\xe0\xa4\xaa\xe0\xa4\xbe\xe0\xa4\xb8\xe0\xa4\xaa\xe0\xa5\x8b\xe0\xa4\xb0\xe0\xa5\x8d\xe0\xa4\x9f'
p1874
sS'drel'
p1875
S'pof__cn:\xe0\xa4\xae\xe0\xa4\xbe\xe0\xa4\xae\xe0\xa4\xb2\xe0\xa5\x87'
p1876
sS'chunktype'
p1877
S'child:NP'
p1878
sS'af'
p1879
S'\xe0\xa4\xaa\xe0\xa4\xbe\xe0\xa4\xb8\xe0\xa4\xaa\xe0\xa5\x8b\xe0\xa4\xb0\xe0\xa5\x8d\xe0\xa4\x9f,n,m,sg,3,d,0,0'
p1880
ssbsg1533
I00
sg1536
I00
sg1547
Nsg1534
Nsg188
I0
sg175
I0
sg1853
Nsg1545
Nsg1854
S'NNC'
p1881
sg240
(issf_api
FeatureSet
p1882
(dp1883
g243
(dp1884
S'posn'
p1885
S'20'
p1886
sS'name'
p1887
S'\xe0\xa4\xaa\xe0\xa4\xbe\xe0\xa4\xb8\xe0\xa4\xaa\xe0\xa5\x8b\xe0\xa4\xb0\xe0\xa5\x8d\xe0\xa4\x9f'
p1888
sS'af'
p1889
S'\xe0\xa4\xaa\xe0\xa4\xbe\xe0\xa4\xb8\xe0\xa4\xaa\xe0\xa5\x8b\xe0\xa4\xb0\xe0\xa5\x8d\xe0\xa4\x9f,n,m,sg,3,d,0,0'
p1890
ssbsg1554
I00
sba(issf_api
Word
p1891
(dp1892
g1836
I00
sg1837
V\u092e\u093e\u092e\u0932\u0947
p1893
sg1839
(issf_api
FeatureSet
p1894
(dp1895
g243
(dp1896
S'posn'
p1897
S'30'
p1898
sS'name'
p1899
S'\xe0\xa4\xae\xe0\xa4\xbe\xe0\xa4\xae\xe0\xa4\xb2\xe0\xa5\x87'
p1900
sS'af'
p1901
S'\xe0\xa4\xae\xe0\xa4\xbe\xe0\xa4\xae\xe0\xa4\xb2\xe0\xa4\xbe,n,m,sg,3,o,0_\xe0\xa4\xae\xe0\xa5\x87\xe0\xa4\x82,0'
p1902
sS'chunkid'
p1903
S'NP'
p1904
sS'drel'
p1905
S'k7:\xe0\xa4\x95\xe0\xa4\xbf\xe0\xa4\xaf\xe0\xa4\xbe'
p1906
sS'vpos'
p1907
S'vib_4'
p1908
sS'chunktype'
p1909
S'head:NP'
p1910
ssbsg1533
I00
sg1536
I00
sg1547
Nsg1534
Nsg188
I0
sg175
I0
sg1853
Nsg1545
Nsg1854
S'NN'
p1911
sg240
(issf_api
FeatureSet
p1912
(dp1913
g243
(dp1914
S'posn'
p1915
S'30'
p1916
sS'name'
p1917
S'\xe0\xa4\xae\xe0\xa4\xbe\xe0\xa4\xae\xe0\xa4\xb2\xe0\xa5\x87'
p1918
sS'af'
p1919
S'\xe0\xa4\xae\xe0\xa4\xbe\xe0\xa4\xae\xe0\xa4\xb2\xe0\xa4\xbe,n,m,sg,3,o,0,0'
p1920
ssbsg1554
I00
sba(issf_api
Word
p1921
(dp1922
g1836
I00
sg1837
V\u092e\u0947\u0902
p1923
sg1839
(issf_api
FeatureSet
p1924
(dp1925
g243
(dp1926
S'posn'
p1927
S'40'
p1928
sS'name'
p1929
S'\xe0\xa4\xae\xe0\xa5\x87\xe0\xa4\x82'
p1930
sS'drel'
p1931
S'lwg__psp:\xe0\xa4\xae\xe0\xa4\xbe\xe0\xa4\xae\xe0\xa4\xb2\xe0\xa5\x87'
p1932
sS'chunktype'
p1933
S'child:NP'
p1934
sS'af'
p1935
S'\xe0\xa4\xae\xe0\xa5\x87\xe0\xa4\x82,psp,,,,,,'
p1936
ssbsg1533
I00
sg1536
I00
sg1547
Nsg1534
Nsg188
I0
sg175
I0
sg1853
Nsg1545
Nsg1854
S'PSP'
p1937
sg240
(issf_api
FeatureSet
p1938
(dp1939
g243
(dp1940
S'posn'
p1941
S'40'
p1942
sS'name'
p1943
S'\xe0\xa4\xae\xe0\xa5\x87\xe0\xa4\x82'
p1944
sS'af'
p1945
S'\xe0\xa4\xae\xe0\xa5\x87\xe0\xa4\x82,psp,,,,,,'
p1946
ssbsg1554
I00
sba(issf_api
Word
p1947
(dp1948
g1836
I00
sg1837
V\u092d\u094b\u092a\u093e\u0932
p1949
sg1839
(issf_api
FeatureSet
p1950
(dp1951
g243
(dp1952
S'posn'
p1953
S'50'
p1954
sS'name'
p1955
S'\xe0\xa4\xad\xe0\xa5\x8b\xe0\xa4\xaa\xe0\xa4\xbe\xe0\xa4\xb2'
p1956
sS'af'
p1957
S'\xe0\xa4\xad\xe0\xa5\x8b\xe0\xa4\xaa\xe0\xa4\xbe\xe0\xa4\xb2,n,m,sg,3,o,0_\xe0\xa4\x95\xe0\xa4\xbe,0'
p1958
sS'chunkid'
p1959
S'NP2'
p1960
sS'drel'
p1961
S'r6:\xe0\xa4\x85\xe0\xa4\xa6\xe0\xa4\xbe\xe0\xa4\xb2\xe0\xa4\xa4'
p1962
sS'vpos'
p1963
S'vib_2'
p1964
sS'chunktype'
p1965
S'head:NP2'
p1966
ssbsg1533
I00
sg1536
I00
sg1547
Nsg1534
Nsg188
I1
sg175
I0
sg1853
Nsg1545
Nsg1854
S'NNP'
p1967
sg240
(issf_api
FeatureSet
p1968
(dp1969
g243
(dp1970
S'posn'
p1971
S'50'
p1972
sS'name'
p1973
S'\xe0\xa4\xad\xe0\xa5\x8b\xe0\xa4\xaa\xe0\xa4\xbe\xe0\xa4\xb2'
p1974
sS'af'
p1975
S'\xe0\xa4\xad\xe0\xa5\x8b\xe0\xa4\xaa\xe0\xa4\xbe\xe0\xa4\xb2,n,m,sg,3,o,0,0'
p1976
ssbsg1554
I00
sba(issf_api
Word
p1977
(dp1978
g1836
I00
sg1837
V\u0915\u0940
p1979
sg1839
(issf_api
FeatureSet
p1980
(dp1981
g243
(dp1982
S'posn'
p1983
S'60'
p1984
sS'name'
p1985
S'\xe0\xa4\x95\xe0\xa5\x80'
p1986
sS'drel'
p1987
S'lwg__psp:\xe0\xa4\xad\xe0\xa5\x8b\xe0\xa4\xaa\xe0\xa4\xbe\xe0\xa4\xb2'
p1988
sS'chunktype'
p1989
S'child:NP2'
p1990
sS'af'
p1991
S'\xe0\xa4\x95\xe0\xa4\xbe,psp,f,sg,,o,,'
p1992
ssbsg1533
I00
sg1536
I00
sg1547
Nsg1534
Nsg188
I1
sg175
I0
sg1853
Nsg1545
Nsg1854
S'PSP'
p1993
sg240
(issf_api
FeatureSet
p1994
(dp1995
g243
(dp1996
S'posn'
p1997
S'60'
p1998
sS'name'
p1999
S'\xe0\xa4\x95\xe0\xa5\x80'
p2000
sS'af'
p2001
S'\xe0\xa4\x95\xe0\xa4\xbe,psp,f,sg,,o,,'
p2002
ssbsg1554
I00
sba(issf_api
Word
p2003
(dp2004
g1836
I00
sg1837
V\u090f\u0915
p2005
sg1839
(issf_api
FeatureSet
p2006
(dp2007
g243
(dp2008
S'posn'
p2009
S'70'
p2010
sS'name'
p2011
S'\xe0\xa4\x8f\xe0\xa4\x95'
p2012
sS'drel'
p2013
S'nmod__adj:\xe0\xa4\x85\xe0\xa4\xa6\xe0\xa4\xbe\xe0\xa4\xb2\xe0\xa4\xa4'
p2014
sS'chunktype'
p2015
S'child:NP3'
p2016
sS'af'
p2017
S'\xe0\xa4\x8f\xe0\xa4\x95,num,any,any,,any,,'
p2018
ssbsg1533
I00
sg1536
I00
sg1547
Nsg1534
Nsg188
I2
sg175
I0
sg1853
Nsg1545
Nsg1854
S'QC'
p2019
sg240
(issf_api
FeatureSet
p2020
(dp2021
g243
(dp2022
S'posn'
p2023
S'70'
p2024
sS'name'
p2025
S'\xe0\xa4\x8f\xe0\xa4\x95'
p2026
sS'af'
p2027
S'\xe0\xa4\x8f\xe0\xa4\x95,num,any,any,,any,,'
p2028
ssbsg1554
I00
sba(issf_api
Word
p2029
(dp2030
g1836
I00
sg1837
V\u0938\u094d\u0925\u093e\u0928\u0940\u092f
p2031
sg1839
(issf_api
FeatureSet
p2032
(dp2033
g243
(dp2034
S'posn'
p2035
S'80'
p2036
sS'name'
p2037
S'\xe0\xa4\xb8\xe0\xa5\x8d\xe0\xa4\xa5\xe0\xa4\xbe\xe0\xa4\xa8\xe0\xa5\x80\xe0\xa4\xaf'
p2038
sS'drel'
p2039
S'nmod__adj:\xe0\xa4\x85\xe0\xa4\xa6\xe0\xa4\xbe\xe0\xa4\xb2\xe0\xa4\xa4'
p2040
sS'chunktype'
p2041
S'child:NP3'
p2042
sS'af'
p2043
S'\xe0\xa4\xb8\xe0\xa5\x8d\xe0\xa4\xa5\xe0\xa4\xbe\xe0\xa4\xa8\xe0\xa5\x80\xe0\xa4\xaf,adj,any,any,,o,,'
p2044
ssbsg1533
I00
sg1536
I00
sg1547
Nsg1534
Nsg188
I2
sg175
I0
sg1853
Nsg1545
Nsg1854
S'JJ'
p2045
sg240
(issf_api
FeatureSet
p2046
(dp2047
g243
(dp2048
S'posn'
p2049
S'80'
p2050
sS'name'
p2051
S'\xe0\xa4\xb8\xe0\xa5\x8d\xe0\xa4\xa5\xe0\xa4\xbe\xe0\xa4\xa8\xe0\xa5\x80\xe0\xa4\xaf'
p2052
sS'af'
p2053
S'\xe0\xa4\xb8\xe0\xa5\x8d\xe0\xa4\xa5\xe0\xa4\xbe\xe0\xa4\xa8\xe0\xa5\x80\xe0\xa4\xaf,adj,any,any,,o,,'
p2054
ssbsg1554
I00
sba(issf_api
Word
p2055
(dp2056
g1836
I00
sg1837
V\u0905\u0926\u093e\u0932\u0924
p2057
sg1839
(issf_api
FeatureSet
p2058
(dp2059
g243
(dp2060
S'posn'
p2061
S'90'
p2062
sS'name'
p2063
S'\xe0\xa4\x85\xe0\xa4\xa6\xe0\xa4\xbe\xe0\xa4\xb2\xe0\xa4\xa4'
p2064
sS'af'
p2065
S'\xe0\xa4\x85\xe0\xa4\xa6\xe0\xa4\xbe\xe0\xa4\xb2\xe0\xa4\xa4,n,f,sg,3,o,0_\xe0\xa4\xa8\xe0\xa5\x87,0'
p2066
sS'chunkid'
p2067
S'NP3'
p2068
sS'drel'
p2069
S'k1:\xe0\xa4\x95\xe0\xa4\xbf\xe0\xa4\xaf\xe0\xa4\xbe'
p2070
sS'vpos'
p2071
S'vib_4'
p2072
sS'chunktype'
p2073
S'head:NP3'
p2074
ssbsg1533
I00
sg1536
I00
sg1547
Nsg1534
Nsg188
I2
sg175
I0
sg1853
Nsg1545
Nsg1854
S'NN'
p2075
sg240
(issf_api
FeatureSet
p2076
(dp2077
g243
(dp2078
S'posn'
p2079
S'90'
p2080
sS'name'
p2081
S'\xe0\xa4\x85\xe0\xa4\xa6\xe0\xa4\xbe\xe0\xa4\xb2\xe0\xa4\xa4'
p2082
sS'af'
p2083
S'\xe0\xa4\x85\xe0\xa4\xa6\xe0\xa4\xbe\xe0\xa4\xb2\xe0\xa4\xa4,n,f,sg,3,o,0,0'
p2084
ssbsg1554
I00
sba(issf_api
Word
p2085
(dp2086
g1836
I00
sg1837
V\u0928\u0947
p2087
sg1839
(issf_api
FeatureSet
p2088
(dp2089
g243
(dp2090
S'posn'
p2091
S'100'
p2092
sS'name'
p2093
S'\xe0\xa4\xa8\xe0\xa5\x87'
p2094
sS'drel'
p2095
S'lwg__psp:\xe0\xa4\x85\xe0\xa4\xa6\xe0\xa4\xbe\xe0\xa4\xb2\xe0\xa4\xa4'
p2096
sS'chunktype'
p2097
S'child:NP3'
p2098
sS'af'
p2099
S'\xe0\xa4\xa8\xe0\xa5\x87,psp,,,,,,'
p2100
ssbsg1533
I00
sg1536
I00
sg1547
Nsg1534
Nsg188
I2
sg175
I0
sg1853
Nsg1545
Nsg1854
S'PSP'
p2101
sg240
(issf_api
FeatureSet
p2102
(dp2103
g243
(dp2104
S'posn'
p2105
S'100'
p2106
sS'name'
p2107
S'\xe0\xa4\xa8\xe0\xa5\x87'
p2108
sS'af'
p2109
S'\xe0\xa4\xa8\xe0\xa5\x87,psp,,,,,,'
p2110
ssbsg1554
I00
sba(issf_api
Word
p2111
(dp2112
g1836
I00
sg1837
V\u092e\u094b\u0928\u093f\u0915\u093e
p2113
sg1839
(issf_api
FeatureSet
p2114
(dp2115
g243
(dp2116
S'posn'
p2117
S'110'
p2118
sS'name'
p2119
S'\xe0\xa4\xae\xe0\xa5\x8b\xe0\xa4\xa8\xe0\xa4\xbf\xe0\xa4\x95\xe0\xa4\xbe'
p2120
sS'drel'
p2121
S'pof__cn:\xe0\xa4\xac\xe0\xa5\x87\xe0\xa4\xa6\xe0\xa5\x80'
p2122
sS'chunktype'
p2123
S'child:NP4'
p2124
sS'af'
p2125
S'\xe0\xa4\xae\xe0\xa5\x8b\xe0\xa4\xa8\xe0\xa4\xbf\xe0\xa4\x95\xe0\xa4\xbe,n,f,sg,3,d,0,0'
p2126
ssbsg1533
I00
sg1536
I00
sg1547
Nsg1534
Nsg188
I3
sg175
I0
sg1853
Nsg1545
Nsg1854
S'NNPC'
p2127
sg240
(issf_api
FeatureSet
p2128
(dp2129
g243
(dp2130
S'posn'
p2131
S'110'
p2132
sS'name'
p2133
S'\xe0\xa4\xae\xe0\xa5\x8b\xe0\xa4\xa8\xe0\xa4\xbf\xe0\xa4\x95\xe0\xa4\xbe'
p2134
sS'af'
p2135
S'\xe0\xa4\xae\xe0\xa5\x8b\xe0\xa4\xa8\xe0\xa4\xbf\xe0\xa4\x95\xe0\xa4\xbe,n,f,sg,3,d,0,0'
p2136
ssbsg1554
I00
sba(issf_api
Word
p2137
(dp2138
g1836
I00
sg1837
V\u092c\u0947\u0926\u0940
p2139
sg1839
(issf_api
FeatureSet
p2140
(dp2141
g243
(dp2142
S'posn'
p2143
S'120'
p2144
sS'name'
p2145
S'\xe0\xa4\xac\xe0\xa5\x87\xe0\xa4\xa6\xe0\xa5\x80'
p2146
sS'af'
p2147
S'\xe0\xa4\xac\xe0\xa5\x87\xe0\xa4\xa6\xe0\xa5\x80,n,any,sg,3,o,0_\xe0\xa4\x95\xe0\xa5\x87_\xe0\xa4\x96\xe0\xa4\xbf\xe0\xa4\xb2\xe0\xa4\xbe\xe0\xa4\xab,0'
p2148
sS'chunkid'
p2149
S'NP4'
p2150
sS'drel'
p2151
S'vmod:\xe0\xa4\x95\xe0\xa4\xbf\xe0\xa4\xaf\xe0\xa4\xbe'
p2152
sS'vpos'
p2153
S'vib_3_4'
p2154
sS'chunktype'
p2155
S'head:NP4'
p2156
ssbsg1533
I00
sg1536
I00
sg1547
Nsg1534
Nsg188
I3
sg175
I0
sg1853
Nsg1545
Nsg1854
S'NNP'
p2157
sg240
(issf_api
FeatureSet
p2158
(dp2159
g243
(dp2160
S'posn'
p2161
S'120'
p2162
sS'name'
p2163
S'\xe0\xa4\xac\xe0\xa5\x87\xe0\xa4\xa6\xe0\xa5\x80'
p2164
sS'af'
p2165
S'\xe0\xa4\xac\xe0\xa5\x87\xe0\xa4\xa6\xe0\xa5\x80,n,any,sg,3,o,0,0'
p2166
ssbsg1554
I00
sba(issf_api
Word
p2167
(dp2168
g1836
I00
sg1837
V\u0915\u0947
p2169
sg1839
(issf_api
FeatureSet
p2170
(dp2171
g243
(dp2172
S'posn'
p2173
S'130'
p2174
sS'name'
p2175
S'\xe0\xa4\x95\xe0\xa5\x87'
p2176
sS'drel'
p2177
S'lwg__psp:\xe0\xa4\xac\xe0\xa5\x87\xe0\xa4\xa6\xe0\xa5\x80'
p2178
sS'chunktype'
p2179
S'child:NP4'
p2180
sS'af'
p2181
S'\xe0\xa4\x95\xe0\xa5\x87,psp,,,,,,'
p2182
ssbsg1533
I00
sg1536
I00
sg1547
Nsg1534
Nsg188
I3
sg175
I0
sg1853
Nsg1545
Nsg1854
S'PSP'
p2183
sg240
(issf_api
FeatureSet
p2184
(dp2185
g243
(dp2186
S'posn'
p2187
S'130'
p2188
sS'name'
p2189
S'\xe0\xa4\x95\xe0\xa5\x87'
p2190
sS'af'
p2191
S'\xe0\xa4\x95\xe0\xa5\x87,psp,,,,,,'
p2192
ssbsg1554
I00
sba(issf_api
Word
p2193
(dp2194
g1836
I00
sg1837
V\u0916\u093f\u0932\u093e\u092b
p2195
sg1839
(issf_api
FeatureSet
p2196
(dp2197
g243
(dp2198
S'posn'
p2199
S'140'
p2200
sS'name'
p2201
S'\xe0\xa4\x96\xe0\xa4\xbf\xe0\xa4\xb2\xe0\xa4\xbe\xe0\xa4\xab'
p2202
sS'drel'
p2203
S'lwg__psp:\xe0\xa4\xac\xe0\xa5\x87\xe0\xa4\xa6\xe0\xa5\x80'
p2204
sS'chunktype'
p2205
S'child:NP4'
p2206
sS'af'
p2207
S'\xe0\xa4\x96\xe0\xa4\xbf\xe0\xa4\xb2\xe0\xa4\xbe\xe0\xa4\xab,adj,,,,,,'
p2208
ssbsg1533
I00
sg1536
I00
sg1547
Nsg1534
Nsg188
I3
sg175
I0
sg1853
Nsg1545
Nsg1854
S'PSP'
p2209
sg240
(issf_api
FeatureSet
p2210
(dp2211
g243
(dp2212
S'posn'
p2213
S'140'
p2214
sS'name'
p2215
S'\xe0\xa4\x96\xe0\xa4\xbf\xe0\xa4\xb2\xe0\xa4\xbe\xe0\xa4\xab'
p2216
sS'af'
p2217
S'\xe0\xa4\x96\xe0\xa4\xbf\xe0\xa4\xb2\xe0\xa4\xbe\xe0\xa4\xab,adj,,,,,,'
p2218
ssbsg1554
I00
sba(issf_api
Word
p2219
(dp2220
g1836
I00
sg1837
V\u092a\u094d\u0930\u094b\u091f\u0947\u0915\u094d\u0936\u0928
p2221
sg1839
(issf_api
FeatureSet
p2222
(dp2223
g243
(dp2224
S'posn'
p2225
S'150'
p2226
sS'name'
p2227
S'\xe0\xa4\xaa\xe0\xa5\x8d\xe0\xa4\xb0\xe0\xa5\x8b\xe0\xa4\x9f\xe0\xa5\x87\xe0\xa4\x95\xe0\xa5\x8d\xe0\xa4\xb6\xe0\xa4\xa8'
p2228
sS'drel'
p2229
S'pof__cn:\xe0\xa4\xb5\xe0\xa4\xbe\xe0\xa4\xb0\xe0\xa4\x82\xe0\xa4\x9f'
p2230
sS'chunktype'
p2231
S'child:NP5'
p2232
sS'af'
p2233
S'\xe0\xa4\xaa\xe0\xa5\x8d\xe0\xa4\xb0\xe0\xa5\x8b\xe0\xa4\x9f\xe0\xa5\x87\xe0\xa4\x95\xe0\xa5\x8d\xe0\xa4\xb6\xe0\xa4\xa8,n,m,sg,3,d,0,0'
p2234
ssbsg1533
I00
sg1536
I00
sg1547
Nsg1534
Nsg188
I4
sg175
I0
sg1853
Nsg1545
Nsg1854
S'NNC'
p2235
sg240
(issf_api
FeatureSet
p2236
(dp2237
g243
(dp2238
S'posn'
p2239
S'150'
p2240
sS'name'
p2241
S'\xe0\xa4\xaa\xe0\xa5\x8d\xe0\xa4\xb0\xe0\xa5\x8b\xe0\xa4\x9f\xe0\xa5\x87\xe0\xa4\x95\xe0\xa5\x8d\xe0\xa4\xb6\xe0\xa4\xa8'
p2242
sS'af'
p2243
S'\xe0\xa4\xaa\xe0\xa5\x8d\xe0\xa4\xb0\xe0\xa5\x8b\xe0\xa4\x9f\xe0\xa5\x87\xe0\xa4\x95\xe0\xa5\x8d\xe0\xa4\xb6\xe0\xa4\xa8,n,m,sg,3,d,0,0'
p2244
ssbsg1554
I00
sba(issf_api
Word
p2245
(dp2246
g1836
I00
sg1837
V\u0935\u093e\u0930\u0902\u091f
p2247
sg1839
(issf_api
FeatureSet
p2248
(dp2249
g243
(dp2250
S'posn'
p2251
S'160'
p2252
sS'name'
p2253
S'\xe0\xa4\xb5\xe0\xa4\xbe\xe0\xa4\xb0\xe0\xa4\x82\xe0\xa4\x9f'
p2254
sS'af'
p2255
S'\xe0\xa4\xb5\xe0\xa4\xbe\xe0\xa4\xb0\xe0\xa4\x82\xe0\xa4\x9f,n,m,sg,3,d,0,0'
p2256
sS'chunkid'
p2257
S'NP5'
p2258
sS'drel'
p2259
S'k2:\xe0\xa4\x95\xe0\xa4\xbf\xe0\xa4\xaf\xe0\xa4\xbe'
p2260
sS'chunktype'
p2261
S'head:NP5'
p2262
ssbsg1533
I00
sg1536
I00
sg1547
Nsg1534
Nsg188
I4
sg175
I0
sg1853
Nsg1545
Nsg1854
S'NN'
p2263
sg240
(issf_api
FeatureSet
p2264
(dp2265
g243
(dp2266
S'posn'
p2267
S'160'
p2268
sS'name'
p2269
S'\xe0\xa4\xb5\xe0\xa4\xbe\xe0\xa4\xb0\xe0\xa4\x82\xe0\xa4\x9f'
p2270
sS'af'
p2271
S'\xe0\xa4\xb5\xe0\xa4\xbe\xe0\xa4\xb0\xe0\xa4\x82\xe0\xa4\x9f,n,m,sg,3,d,0,0'
p2272
ssbsg1554
I00
sba(issf_api
Word
p2273
(dp2274
g1836
I00
sg1837
V\u091c\u093e\u0930\u0940
p2275
sg1839
(issf_api
FeatureSet
p2276
(dp2277
g243
(dp2278
S'posn'
p2279
S'170'
p2280
sS'name'
p2281
S'\xe0\xa4\x9c\xe0\xa4\xbe\xe0\xa4\xb0\xe0\xa5\x80'
p2282
sS'af'
p2283
S'\xe0\xa4\x9c\xe0\xa4\xbe\xe0\xa4\xb0\xe0\xa5\x80,adj,any,any,,,,'
p2284
sS'chunkid'
p2285
S'JJP'
p2286
sS'drel'
p2287
S'pof:\xe0\xa4\x95\xe0\xa4\xbf\xe0\xa4\xaf\xe0\xa4\xbe'
p2288
sS'chunktype'
p2289
S'head:JJP'
p2290
ssbsg1533
I00
sg1536
I00
sg1547
Nsg1534
Nsg188
I5
sg175
I0
sg1853
Nsg1545
Nsg1854
S'JJ'
p2291
sg240
(issf_api
FeatureSet
p2292
(dp2293
g243
(dp2294
S'posn'
p2295
S'170'
p2296
sS'name'
p2297
S'\xe0\xa4\x9c\xe0\xa4\xbe\xe0\xa4\xb0\xe0\xa5\x80'
p2298
sS'af'
p2299
S'\xe0\xa4\x9c\xe0\xa4\xbe\xe0\xa4\xb0\xe0\xa5\x80,adj,any,any,,,,'
p2300
ssbsg1554
I00
sba(issf_api
Word
p2301
(dp2302
g1836
I00
sg1837
V\u0915\u093f\u092f\u093e
p2303
sg1839
(issf_api
FeatureSet
p2304
(dp2305
g243
(dp2306
S'posn'
p2307
S'180'
p2308
sS'name'
p2309
S'\xe0\xa4\x95\xe0\xa4\xbf\xe0\xa4\xaf\xe0\xa4\xbe'
p2310
sS'af'
p2311
S'\xe0\xa4\x95\xe0\xa4\xb0,v,m,sg,3,,\xe0\xa4\xaf\xe0\xa4\xbe_\xe0\xa4\xb9\xe0\xa5\x88,yA'
p2312
sS'chunkid'
p2313
S'VGF'
p2314
sS'chunktype'
p2315
S'head:VGF'
p2316
sS'voicetype'
p2317
S'active'
p2318
sS'vpos'
p2319
S'tam_2'
p2320
sS'stype'
p2321
S'declarative'
p2322
ssbsg1533
I00
sg1536
I00
sg1547
Nsg1534
Nsg188
I6
sg175
I0
sg1853
Nsg1545
Nsg1854
S'VM'
p2323
sg240
(issf_api
FeatureSet
p2324
(dp2325
g243
(dp2326
S'posn'
p2327
S'180'
p2328
sS'name'
p2329
S'\xe0\xa4\x95\xe0\xa4\xbf\xe0\xa4\xaf\xe0\xa4\xbe'
p2330
sS'af'
p2331
S'\xe0\xa4\x95\xe0\xa4\xb0,v,m,sg,any,,\xe0\xa4\xaf\xe0\xa4\xbe,yA'
p2332
ssbsg1554
I00
sba(issf_api
Word
p2333
(dp2334
g1836
I00
sg1837
V\u0939\u0948
p2335
sg1839
(issf_api
FeatureSet
p2336
(dp2337
g243
(dp2338
S'posn'
p2339
S'190'
p2340
sS'name'
p2341
S'\xe0\xa4\xb9\xe0\xa5\x88'
p2342
sS'drel'
p2343
S'lwg__vaux:\xe0\xa4\x95\xe0\xa4\xbf\xe0\xa4\xaf\xe0\xa4\xbe'
p2344
sS'chunktype'
p2345
S'child:VGF'
p2346
sS'af'
p2347
S'\xe0\xa4\xb9\xe0\xa5\x88,v,any,sg,3,,\xe0\xa4\xb9\xe0\xa5\x88,hE'
p2348
ssbsg1533
I00
sg1536
I00
sg1547
Nsg1534
Nsg188
I6
sg175
I0
sg1853
Nsg1545
Nsg1854
S'VAUX'
p2349
sg240
(issf_api
FeatureSet
p2350
(dp2351
g243
(dp2352
S'posn'
p2353
S'190'
p2354
sS'name'
p2355
S'\xe0\xa4\xb9\xe0\xa5\x88'
p2356
sS'af'
p2357
S'\xe0\xa4\xb9\xe0\xa5\x88,v,any,sg,3,,\xe0\xa4\xb9\xe0\xa5\x88,hE'
p2358
ssbsg1554
I00
sba(issf_api
Word
p2359
(dp2360
g1836
I00
sg1837
V\u0964
sg1839
(issf_api
FeatureSet
p2361
(dp2362
g243
(dp2363
S'posn'
p2364
S'200'
p2365
sS'name'
p2366
S'\xe0\xa5\xa4'
p2367
sS'af'
p2368
S'\xe0\xa5\xa4,punc,,,,,,'
p2369
sS'chunkid'
p2370
S'BLK'
p2371
sS'drel'
p2372
S'rsym:\xe0\xa4\x95\xe0\xa4\xbf\xe0\xa4\xaf\xe0\xa4\xbe'
p2373
sS'chunktype'
p2374
S'head:BLK'
p2375
ssbsg1533
I00
sg1536
I00
sg1547
Nsg1534
Nsg188
I7
sg175
I0
sg1853
Nsg1545
Nsg1854
S'SYM'
p2376
sg240
(issf_api
FeatureSet
p2377
(dp2378
g243
(dp2379
S'posn'
p2380
S'200'
p2381
sS'name'
p2382
S'\xe0\xa5\xa4'
p2383
sS'af'
p2384
S'\xe0\xa5\xa4,punc,,,,,,'
p2385
ssbsg1554
I00
sba(issf_api
Word
p2386
(dp2387
g1836
I00
sg1837
V\u092a\u0941\u0932\u093f\u0938
p2388
sg1839
(issf_api
FeatureSet
p2389
(dp2390
g243
(dp2391
S'posn'
p2392
S'10'
p2393
sS'name'
p2394
S'\xe0\xa4\xaa\xe0\xa5\x81\xe0\xa4\xb2\xe0\xa4\xbf\xe0\xa4\xb8'
p2395
sS'drel'
p2396
S'pof__cn:\xe0\xa4\x85\xe0\xa4\xa7\xe0\xa5\x80\xe0\xa4\x95\xe0\xa5\x8d\xe0\xa4\xb7\xe0\xa4\x95'
p2397
sS'chunktype'
p2398
S'child:NP'
p2399
sS'af'
p2400
S'\xe0\xa4\xaa\xe0\xa5\x81\xe0\xa4\xb2\xe0\xa4\xbf\xe0\xa4\xb8,n,f,sg,3,d,0,0'
p2401
ssbsg1533
I00
sg1536
I00
sg1547
Nsg1534
Nsg188
I0
sg175
I1
sg1853
Nsg1545
Nsg1854
S'NNC'
p2402
sg240
(issf_api
FeatureSet
p2403
(dp2404
g243
(dp2405
S'posn'
p2406
S'10'
p2407
sS'name'
p2408
S'\xe0\xa4\xaa\xe0\xa5\x81\xe0\xa4\xb2\xe0\xa4\xbf\xe0\xa4\xb8'
p2409
sS'af'
p2410
S'\xe0\xa4\xaa\xe0\xa5\x81\xe0\xa4\xb2\xe0\xa4\xbf\xe0\xa4\xb8,n,f,sg,3,d,0,0'
p2411
ssbsg1554
I00
sba(issf_api
Word
p2412
(dp2413
g1836
I00
sg1837
V\u0905\u0927\u0940\u0915\u094d\u0937\u0915
p2414
sg1839
(issf_api
FeatureSet
p2415
(dp2416
g243
(dp2417
S'posn'
p2418
S'20'
p2419
sS'name'
p2420
S'\xe0\xa4\x85\xe0\xa4\xa7\xe0\xa5\x80\xe0\xa4\x95\xe0\xa5\x8d\xe0\xa4\xb7\xe0\xa4\x95'
p2421
sS'drel'
p2422
S'nmod:\xe0\xa4\xb8\xe0\xa4\xbf\xe0\xa4\x82\xe0\xa4\xb9'
p2423
sS'chunktype'
p2424
S'child:NP'
p2425
sS'af'
p2426
S'\xe0\xa4\x85\xe0\xa4\xa7\xe0\xa5\x80\xe0\xa4\x95\xe0\xa5\x8d\xe0\xa4\xb7\xe0\xa4\x95,n,m,sg,3,d,0,0'
p2427
ssbsg1533
I00
sg1536
I00
sg1547
Nsg1534
Nsg188
I0
sg175
I1
sg1853
Nsg1545
Nsg1854
S'NN'
p2428
sg240
(issf_api
FeatureSet
p2429
(dp2430
g243
(dp2431
S'posn'
p2432
S'20'
p2433
sS'name'
p2434
S'\xe0\xa4\x85\xe0\xa4\xa7\xe0\xa5\x80\xe0\xa4\x95\xe0\xa5\x8d\xe0\xa4\xb7\xe0\xa4\x95'
p2435
sS'af'
p2436
S'\xe0\xa4\x85\xe0\xa4\xa7\xe0\xa5\x80\xe0\xa4\x95\xe0\xa5\x8d\xe0\xa4\xb7\xe0\xa4\x95,n,m,sg,3,d,0,0'
p2437
ssbsg1554
I00
sba(issf_api
Word
p2438
(dp2439
g1836
I00
sg1837
V\u090f.
p2440
sg1839
(issf_api
FeatureSet
p2441
(dp2442
g243
(dp2443
S'posn'
p2444
S'30'
p2445
sS'name'
p2446
S'\xe0\xa4\x8f.'
p2447
sS'drel'
p2448
S'pof__cn:\xe0\xa4\xb8\xe0\xa4\xbf\xe0\xa4\x82\xe0\xa4\xb9'
p2449
sS'chunktype'
p2450
S'child:NP'
p2451
sS'af'
p2452
S'\xe0\xa4\x8f.,n,m,sg,3,d,0,0'
p2453
ssbsg1533
I00
sg1536
I00
sg1547
Nsg1534
Nsg188
I0
sg175
I1
sg1853
Nsg1545
Nsg1854
S'NNPC'
p2454
sg240
(issf_api
FeatureSet
p2455
(dp2456
g243
(dp2457
S'posn'
p2458
S'30'
p2459
sS'name'
p2460
S'\xe0\xa4\x8f.'
p2461
sS'af'
p2462
S'\xe0\xa4\x8f.,n,m,sg,3,d,0,0'
p2463
ssbsg1554
I00
sba(issf_api
Word
p2464
(dp2465
g1836
I00
sg1837
V\u0915\u0947.
p2466
sg1839
(issf_api
FeatureSet
p2467
(dp2468
g243
(dp2469
S'posn'
p2470
S'40'
p2471
sS'name'
p2472
S'\xe0\xa4\x95\xe0\xa5\x87.'
p2473
sS'drel'
p2474
S'pof__cn:\xe0\xa4\xb8\xe0\xa4\xbf\xe0\xa4\x82\xe0\xa4\xb9'
p2475
sS'chunktype'
p2476
S'child:NP'
p2477
sS'af'
p2478
S'\xe0\xa4\x95\xe0\xa5\x87.,n,m,sg,3,d,0,0'
p2479
ssbsg1533
I00
sg1536
I00
sg1547
Nsg1534
Nsg188
I0
sg175
I1
sg1853
Nsg1545
Nsg1854
S'NNPC'
p2480
sg240
(issf_api
FeatureSet
p2481
(dp2482
g243
(dp2483
S'posn'
p2484
S'40'
p2485
sS'name'
p2486
S'\xe0\xa4\x95\xe0\xa5\x87.'
p2487
sS'af'
p2488
S'\xe0\xa4\x95\xe0\xa5\x87.,n,m,sg,3,d,0,0'
p2489
ssbsg1554
I00
sba(issf_api
Word
p2490
(dp2491
g1836
I00
sg1837
V\u0938\u093f\u0902\u0939
p2492
sg1839
(issf_api
FeatureSet
p2493
(dp2494
g243
(dp2495
S'posn'
p2496
S'50'
p2497
sS'name'
p2498
S'\xe0\xa4\xb8\xe0\xa4\xbf\xe0\xa4\x82\xe0\xa4\xb9'
p2499
sS'af'
p2500
S'\xe0\xa4\xb8\xe0\xa4\xbf\xe0\xa4\x82\xe0\xa4\xb9,n,m,sg,3,o,0_\xe0\xa4\xa8\xe0\xa5\x87,0'
p2501
sS'chunkid'
p2502
S'NP'
p2503
sS'drel'
p2504
S'k1:\xe0\xa4\xac\xe0\xa4\xa4\xe0\xa4\xbe\xe0\xa4\xaf\xe0\xa4\xbe'
p2505
sS'vpos'
p2506
S'vib_vib_6'
p2507
sS'chunktype'
p2508
S'head:NP'
p2509
ssbsg1533
I00
sg1536
I00
sg1547
Nsg1534
Nsg188
I0
sg175
I1
sg1853
Nsg1545
Nsg1854
S'NNP'
p2510
sg240
(issf_api
FeatureSet
p2511
(dp2512
g243
(dp2513
S'posn'
p2514
S'50'
p2515
sS'name'
p2516
S'\xe0\xa4\xb8\xe0\xa4\xbf\xe0\xa4\x82\xe0\xa4\xb9'
p2517
sS'af'
p2518
S'\xe0\xa4\xb8\xe0\xa4\xbf\xe0\xa4\x82\xe0\xa4\xb9,n,m,sg,3,o,0,0'
p2519
ssbsg1554
I00
sba(issf_api
Word
p2520
(dp2521
g1836
I00
sg1837
V\u0928\u0947
p2522
sg1839
(issf_api
FeatureSet
p2523
(dp2524
g243
(dp2525
S'posn'
p2526
S'60'
p2527
sS'name'
p2528
S'\xe0\xa4\xa8\xe0\xa5\x87'
p2529
sS'drel'
p2530
S'lwg__psp:\xe0\xa4\xb8\xe0\xa4\xbf\xe0\xa4\x82\xe0\xa4\xb9'
p2531
sS'chunktype'
p2532
S'child:NP'
p2533
sS'af'
p2534
S'\xe0\xa4\xa8\xe0\xa5\x87,psp,,,,,,'
p2535
ssbsg1533
I00
sg1536
I00
sg1547
Nsg1534
Nsg188
I0
sg175
I1
sg1853
Nsg1545
Nsg1854
S'PSP'
p2536
sg240
(issf_api
FeatureSet
p2537
(dp2538
g243
(dp2539
S'posn'
p2540
S'60'
p2541
sS'name'
p2542
S'\xe0\xa4\xa8\xe0\xa5\x87'
p2543
sS'af'
p2544
S'\xe0\xa4\xa8\xe0\xa5\x87,psp,,,,,,'
p2545
ssbsg1554
I00
sba(issf_api
Word
p2546
(dp2547
g1836
I00
sg1837
V\u0936\u0941\u0915\u094d\u0930\u0935\u093e\u0930
p2548
sg1839
(issf_api
FeatureSet
p2549
(dp2550
g243
(dp2551
S'posn'
p2552
S'70'
p2553
sS'name'
p2554
S'\xe0\xa4\xb6\xe0\xa5\x81\xe0\xa4\x95\xe0\xa5\x8d\xe0\xa4\xb0\xe0\xa4\xb5\xe0\xa4\xbe\xe0\xa4\xb0'
p2555
sS'af'
p2556
S'\xe0\xa4\xb6\xe0\xa5\x81\xe0\xa4\x95\xe0\xa5\x8d\xe0\xa4\xb0\xe0\xa4\xb5\xe0\xa4\xbe\xe0\xa4\xb0,n,m,sg,3,o,0_\xe0\xa4\x95\xe0\xa5\x8b,0'
p2557
sS'chunkid'
p2558
S'NP2'
p2559
sS'drel'
p2560
S'k7t:\xe0\xa4\xac\xe0\xa4\xa4\xe0\xa4\xbe\xe0\xa4\xaf\xe0\xa4\xbe'
p2561
sS'vpos'
p2562
S'vib_2'
p2563
sS'chunktype'
p2564
S'head:NP2'
p2565
ssbsg1533
I00
sg1536
I00
sg1547
Nsg1534
Nsg188
I1
sg175
I1
sg1853
Nsg1545
Nsg1854
S'NNP'
p2566
sg240
(issf_api
FeatureSet
p2567
(dp2568
g243
(dp2569
S'posn'
p2570
S'70'
p2571
sS'name'
p2572
S'\xe0\xa4\xb6\xe0\xa5\x81\xe0\xa4\x95\xe0\xa5\x8d\xe0\xa4\xb0\xe0\xa4\xb5\xe0\xa4\xbe\xe0\xa4\xb0'
p2573
sS'af'
p2574
S'\xe0\xa4\xb6\xe0\xa5\x81\xe0\xa4\x95\xe0\xa5\x8d\xe0\xa4\xb0\xe0\xa4\xb5\xe0\xa4\xbe\xe0\xa4\xb0,n,m,sg,3,o,0,0'
p2575
ssbsg1554
I00
sba(issf_api
Word
p2576
(dp2577
g1836
I00
sg1837
V\u0915\u094b
p2578
sg1839
(issf_api
FeatureSet
p2579
(dp2580
g243
(dp2581
S'posn'
p2582
S'80'
p2583
sS'name'
p2584
S'\xe0\xa4\x95\xe0\xa5\x8b'
p2585
sS'drel'
p2586
S'lwg__psp:\xe0\xa4\xb6\xe0\xa5\x81\xe0\xa4\x95\xe0\xa5\x8d\xe0\xa4\xb0\xe0\xa4\xb5\xe0\xa4\xbe\xe0\xa4\xb0'
p2587
sS'chunktype'
p2588
S'child:NP2'
p2589
sS'af'
p2590
S'\xe0\xa4\x95\xe0\xa5\x8b,psp,,,,,,'
p2591
ssbsg1533
I00
sg1536
I00
sg1547
Nsg1534
Nsg188
I1
sg175
I1
sg1853
Nsg1545
Nsg1854
S'PSP'
p2592
sg240
(issf_api
FeatureSet
p2593
(dp2594
g243
(dp2595
S'posn'
p2596
S'80'
p2597
sS'name'
p2598
S'\xe0\xa4\x95\xe0\xa5\x8b'
p2599
sS'af'
p2600
S'\xe0\xa4\x95\xe0\xa5\x8b,psp,,,,,,'
p2601
ssbsg1554
I00
sba(issf_api
Word
p2602
(dp2603
g1836
I00
sg1837
V\u092c\u0924\u093e\u092f\u093e
p2604
sg1839
(issf_api
FeatureSet
p2605
(dp2606
g243
(dp2607
S'posn'
p2608
S'90'
p2609
sS'name'
p2610
S'\xe0\xa4\xac\xe0\xa4\xa4\xe0\xa4\xbe\xe0\xa4\xaf\xe0\xa4\xbe'
p2611
sS'af'
p2612
S'\xe0\xa4\xac\xe0\xa4\xa4\xe0\xa4\xbe,v,m,sg,any,,\xe0\xa4\xaf\xe0\xa4\xbe,yA'
p2613
sS'chunkid'
p2614
S'VGF'
p2615
sS'chunktype'
p2616
S'head:VGF'
p2617
sS'voicetype'
p2618
S'active'
p2619
sS'stype'
p2620
S'declarative'
p2621
ssbsg1533
I00
sg1536
I00
sg1547
Nsg1534
Nsg188
I2
sg175
I1
sg1853
Nsg1545
Nsg1854
S'VM'
p2622
sg240
(issf_api
FeatureSet
p2623
(dp2624
g243
(dp2625
S'posn'
p2626
S'90'
p2627
sS'name'
p2628
S'\xe0\xa4\xac\xe0\xa4\xa4\xe0\xa4\xbe\xe0\xa4\xaf\xe0\xa4\xbe'
p2629
sS'af'
p2630
S'\xe0\xa4\xac\xe0\xa4\xa4\xe0\xa4\xbe,v,m,sg,any,,\xe0\xa4\xaf\xe0\xa4\xbe,yA'
p2631
ssbsg1554
I00
sba(issf_api
Word
p2632
(dp2633
g1836
I00
sg1837
V\u0915\u093f
p2634
sg1839
(issf_api
FeatureSet
p2635
(dp2636
g243
(dp2637
S'posn'
p2638
S'100'
p2639
sS'name'
p2640
S'\xe0\xa4\x95\xe0\xa4\xbf'
p2641
sS'af'
p2642
S'\xe0\xa4\x95\xe0\xa4\xbf,avy,,,,,,'
p2643
sS'chunkid'
p2644
S'CCP'
p2645
sS'drel'
p2646
S'k2:\xe0\xa4\xac\xe0\xa4\xa4\xe0\xa4\xbe\xe0\xa4\xaf\xe0\xa4\xbe'
p2647
sS'chunktype'
p2648
S'head:CCP'
p2649
ssbsg1533
I00
sg1536
I00
sg1547
Nsg1534
Nsg188
I3
sg175
I1
sg1853
Nsg1545
Nsg1854
S'CC'
p2650
sg240
(issf_api
FeatureSet
p2651
(dp2652
g243
(dp2653
S'posn'
p2654
S'100'
p2655
sS'name'
p2656
S'\xe0\xa4\x95\xe0\xa4\xbf'
p2657
sS'af'
p2658
S'\xe0\xa4\x95\xe0\xa4\xbf,avy,,,,,,'
p2659
ssbsg1554
I00
sba(issf_api
Word
p2660
(dp2661
g1836
I00
sg1837
V\u092b\u0930\u094d\u091c\u0940
p2662
sg1839
(issf_api
FeatureSet
p2663
(dp2664
g243
(dp2665
S'posn'
p2666
S'110'
p2667
sS'name'
p2668
S'\xe0\xa4\xab\xe0\xa4\xb0\xe0\xa5\x8d\xe0\xa4\x9c\xe0\xa5\x80'
p2669
sS'drel'
p2670
S'nmod__adj:\xe0\xa4\xae\xe0\xa4\xbe\xe0\xa4\xae\xe0\xa4\xb2\xe0\xa5\x87'
p2671
sS'chunktype'
p2672
S'child:NP3'
p2673
sS'af'
p2674
S'\xe0\xa4\xab\xe0\xa4\xb0\xe0\xa5\x8d\xe0\xa4\x9c\xe0\xa5\x80,adj,any,any,,o,,'
p2675
ssbsg1533
I01
sg1536
I00
sg1547
Nsg1534
Nsg188
I4
sg175
I1
sg1853
I0
sg1545
Nsg1854
S'JJ'
p2676
sg240
(issf_api
FeatureSet
p2677
(dp2678
g243
(dp2679
S'posn'
p2680
S'110'
p2681
sS'name'
p2682
S'\xe0\xa4\xab\xe0\xa4\xb0\xe0\xa5\x8d\xe0\xa4\x9c\xe0\xa5\x80'
p2683
sS'af'
p2684
S'\xe0\xa4\xab\xe0\xa4\xb0\xe0\xa5\x8d\xe0\xa4\x9c\xe0\xa5\x80,adj,any,any,,o,,'
p2685
ssbsg1554
I00
sba(issf_api
Word
p2686
(dp2687
g1836
I00
sg1837
V\u092a\u093e\u0938\u092a\u094b\u0930\u094d\u091f
p2688
sg1839
(issf_api
FeatureSet
p2689
(dp2690
g243
(dp2691
S'posn'
p2692
S'120'
p2693
sS'name'
p2694
S'\xe0\xa4\xaa\xe0\xa4\xbe\xe0\xa4\xb8\xe0\xa4\xaa\xe0\xa5\x8b\xe0\xa4\xb0\xe0\xa5\x8d\xe0\xa4\x9f'
p2695
sS'drel'
p2696
S'pof__cn:\xe0\xa4\xae\xe0\xa4\xbe\xe0\xa4\xae\xe0\xa4\xb2\xe0\xa5\x87'
p2697
sS'chunktype'
p2698
S'child:NP3'
p2699
sS'af'
p2700
S'\xe0\xa4\xaa\xe0\xa4\xbe\xe0\xa4\xb8\xe0\xa4\xaa\xe0\xa5\x8b\xe0\xa4\xb0\xe0\xa5\x8d\xe0\xa4\x9f,n,m,sg,3,d,0,0'
p2701
ssbsg1533
I01
sg1536
I00
sg1547
Nsg1534
Nsg188
I4
sg175
I1
sg1853
I0
sg1545
Nsg1854
S'NNC'
p2702
sg240
(issf_api
FeatureSet
p2703
(dp2704
g243
(dp2705
S'posn'
p2706
S'120'
p2707
sS'name'
p2708
S'\xe0\xa4\xaa\xe0\xa4\xbe\xe0\xa4\xb8\xe0\xa4\xaa\xe0\xa5\x8b\xe0\xa4\xb0\xe0\xa5\x8d\xe0\xa4\x9f'
p2709
sS'af'
p2710
S'\xe0\xa4\xaa\xe0\xa4\xbe\xe0\xa4\xb8\xe0\xa4\xaa\xe0\xa5\x8b\xe0\xa4\xb0\xe0\xa5\x8d\xe0\xa4\x9f,n,m,sg,3,d,0,0'
p2711
ssbsg1554
I00
sba(issf_api
Word
p2712
(dp2713
g1836
I00
sg1837
V\u092e\u093e\u092e\u0932\u0947
p2714
sg1839
(issf_api
FeatureSet
p2715
(dp2716
g243
(dp2717
S'posn'
p2718
S'130'
p2719
sS'name'
p2720
S'\xe0\xa4\xae\xe0\xa4\xbe\xe0\xa4\xae\xe0\xa4\xb2\xe0\xa5\x87'
p2721
sS'af'
p2722
S'\xe0\xa4\xae\xe0\xa4\xbe\xe0\xa4\xae\xe0\xa4\xb2\xe0\xa4\xbe,n,m,sg,3,o,0_\xe0\xa4\xae\xe0\xa5\x87\xe0\xa4\x82,0'
p2723
sS'chunkid'
p2724
S'NP3'
p2725
sS'drel'
p2726
S'k7:\xe0\xa4\x95\xe0\xa4\xbf\xe0\xa4\x8f'
p2727
sS'vpos'
p2728
S'vib_4'
p2729
sS'chunktype'
p2730
S'head:NP3'
p2731
ssbsg1533
I01
sg1536
I00
sg1547
Nsg1534
Nsg188
I4
sg175
I1
sg1853
I0
sg1545
Nsg1854
S'NN'
p2732
sg240
(issf_api
FeatureSet
p2733
(dp2734
g243
(dp2735
S'posn'
p2736
S'130'
p2737
sS'name'
p2738
S'\xe0\xa4\xae\xe0\xa4\xbe\xe0\xa4\xae\xe0\xa4\xb2\xe0\xa5\x87'
p2739
sS'af'
p2740
S'\xe0\xa4\xae\xe0\xa4\xbe\xe0\xa4\xae\xe0\xa4\xb2\xe0\xa4\xbe,n,m,sg,3,o,0,0'
p2741
ssbsg1554
I00
sba(issf_api
Word
p2742
(dp2743
g1836
I00
sg1837
V\u092e\u0947\u0902
p2744
sg1839
(issf_api
FeatureSet
p2745
(dp2746
g243
(dp2747
S'posn'
p2748
S'140'
p2749
sS'name'
p2750
S'\xe0\xa4\xae\xe0\xa5\x87\xe0\xa4\x82'
p2751
sS'drel'
p2752
S'lwg__psp:\xe0\xa4\xae\xe0\xa4\xbe\xe0\xa4\xae\xe0\xa4\xb2\xe0\xa5\x87'
p2753
sS'chunktype'
p2754
S'child:NP3'
p2755
sS'af'
p2756
S'\xe0\xa4\xae\xe0\xa5\x87\xe0\xa4\x82,psp,,,,,,'
p2757
ssbsg1533
I01
sg1536
I00
sg1547
Nsg1534
Nsg188
I4
sg175
I1
sg1853
I0
sg1545
Nsg1854
S'PSP'
p2758
sg240
(issf_api
FeatureSet
p2759
(dp2760
g243
(dp2761
S'posn'
p2762
S'140'
p2763
sS'name'
p2764
S'\xe0\xa4\xae\xe0\xa5\x87\xe0\xa4\x82'
p2765
sS'af'
p2766
S'\xe0\xa4\xae\xe0\xa5\x87\xe0\xa4\x82,psp,,,,,,'
p2767
ssbsg1554
I00
sba(issf_api
Word
p2768
(dp2769
g1836
I00
sg1837
V\u0905\u0926\u093e\u0932\u0924
p2770
sg1839
(issf_api
FeatureSet
p2771
(dp2772
g243
(dp2773
S'posn'
p2774
S'150'
p2775
sS'name'
p2776
S'\xe0\xa4\x85\xe0\xa4\xa6\xe0\xa4\xbe\xe0\xa4\xb2\xe0\xa4\xa4'
p2777
sS'af'
p2778
S'\xe0\xa4\x85\xe0\xa4\xa6\xe0\xa4\xbe\xe0\xa4\xb2\xe0\xa4\xa4,n,f,sg,3,o,0_\xe0\xa4\xa6\xe0\xa5\x8d\xe0\xa4\xb5\xe0\xa4\xbe\xe0\xa4\xb0\xe0\xa4\xbe,0'
p2779
sS'chunkid'
p2780
S'NP4'
p2781
sS'drel'
p2782
S'k1:\xe0\xa4\x95\xe0\xa4\xbf\xe0\xa4\x8f'
p2783
sS'vpos'
p2784
S'vib_2'
p2785
sS'chunktype'
p2786
S'head:NP4'
p2787
ssbsg1533
I01
sg1536
I00
sg1547
Nsg1534
Nsg188
I5
sg175
I1
sg1853
I0
sg1545
Nsg1854
S'NN'
p2788
sg240
(issf_api
FeatureSet
p2789
(dp2790
g243
(dp2791
S'posn'
p2792
S'150'
p2793
sS'name'
p2794
S'\xe0\xa4\x85\xe0\xa4\xa6\xe0\xa4\xbe\xe0\xa4\xb2\xe0\xa4\xa4'
p2795
sS'af'
p2796
S'\xe0\xa4\x85\xe0\xa4\xa6\xe0\xa4\xbe\xe0\xa4\xb2\xe0\xa4\xa4,n,f,sg,3,o,0,0'
p2797
ssbsg1554
I00
sba(issf_api
Word
p2798
(dp2799
g1836
I00
sg1837
V\u0926\u094d\u0935\u093e\u0930\u093e
p2800
sg1839
(issf_api
FeatureSet
p2801
(dp2802
g243
(dp2803
S'posn'
p2804
S'160'
p2805
sS'name'
p2806
S'\xe0\xa4\xa6\xe0\xa5\x8d\xe0\xa4\xb5\xe0\xa4\xbe\xe0\xa4\xb0\xe0\xa4\xbe'
p2807
sS'drel'
p2808
S'lwg__psp:\xe0\xa4\x85\xe0\xa4\xa6\xe0\xa4\xbe\xe0\xa4\xb2\xe0\xa4\xa4'
p2809
sS'chunktype'
p2810
S'child:NP4'
p2811
sS'af'
p2812
S'\xe0\xa4\xa6\xe0\xa5\x8d\xe0\xa4\xb5\xe0\xa4\xbe\xe0\xa4\xb0\xe0\xa4\xbe,psp,,,,,,'
p2813
ssbsg1533
I01
sg1536
I00
sg1547
Nsg1534
Nsg188
I5
sg175
I1
sg1853
I0
sg1545
Nsg1854
S'PSP'
p2814
sg240
(issf_api
FeatureSet
p2815
(dp2816
g243
(dp2817
S'posn'
p2818
S'160'
p2819
sS'name'
p2820
S'\xe0\xa4\xa6\xe0\xa5\x8d\xe0\xa4\xb5\xe0\xa4\xbe\xe0\xa4\xb0\xe0\xa4\xbe'
p2821
sS'af'
p2822
S'\xe0\xa4\xa6\xe0\xa5\x8d\xe0\xa4\xb5\xe0\xa4\xbe\xe0\xa4\xb0\xe0\xa4\xbe,psp,,,,,,'
p2823
ssbsg1554
I00
sba(issf_api
Word
p2824
(dp2825
g1836
I00
sg1837
V\u092e\u094b\u0928\u093f\u0915\u093e
p2826
sg1839
(issf_api
FeatureSet
p2827
(dp2828
g243
(dp2829
S'posn'
p2830
S'170'
p2831
sS'name'
p2832
S'\xe0\xa4\xae\xe0\xa5\x8b\xe0\xa4\xa8\xe0\xa4\xbf\xe0\xa4\x95\xe0\xa4\xbe'
p2833
sS'drel'
p2834
S'pof__cn:\xe0\xa4\xac\xe0\xa5\x87\xe0\xa4\xa6\xe0\xa5\x80'
p2835
sS'chunktype'
p2836
S'child:NP5'
p2837
sS'af'
p2838
S'\xe0\xa4\xae\xe0\xa5\x8b\xe0\xa4\xa8\xe0\xa4\xbf\xe0\xa4\x95\xe0\xa4\xbe,n,f,sg,3,d,0,0'
p2839
ssbsg1533
I01
sg1536
I00
sg1547
Nsg1534
Nsg188
I6
sg175
I1
sg1853
I0
sg1545
Nsg1854
S'NNPC'
p2840
sg240
(issf_api
FeatureSet
p2841
(dp2842
g243
(dp2843
S'posn'
p2844
S'170'
p2845
sS'name'
p2846
S'\xe0\xa4\xae\xe0\xa5\x8b\xe0\xa4\xa8\xe0\xa4\xbf\xe0\xa4\x95\xe0\xa4\xbe'
p2847
sS'af'
p2848
S'\xe0\xa4\xae\xe0\xa5\x8b\xe0\xa4\xa8\xe0\xa4\xbf\xe0\xa4\x95\xe0\xa4\xbe,n,f,sg,3,d,0,0'
p2849
ssbsg1554
I00
sba(issf_api
Word
p2850
(dp2851
g1836
I00
sg1837
V\u092c\u0947\u0926\u0940
p2852
sg1839
(issf_api
FeatureSet
p2853
(dp2854
g243
(dp2855
S'posn'
p2856
S'180'
p2857
sS'name'
p2858
S'\xe0\xa4\xac\xe0\xa5\x87\xe0\xa4\xa6\xe0\xa5\x80'
p2859
sS'af'
p2860
S'\xe0\xa4\xac\xe0\xa5\x87\xe0\xa4\xa6\xe0\xa5\x80,n,any,sg,3,o,0_\xe0\xa4\x95\xe0\xa5\x8b,0'
p2861
sS'chunkid'
p2862
S'NP5'
p2863
sS'drel'
p2864
S'k2:\xe0\xa4\x95\xe0\xa4\xbf\xe0\xa4\x8f'
p2865
sS'vpos'
p2866
S'vib_3'
p2867
sS'chunktype'
p2868
S'head:NP5'
p2869
ssbsg1533
I01
sg1536
I00
sg1547
Nsg1534
Nsg188
I6
sg175
I1
sg1853
I0
sg1545
Nsg1854
S'NNP'
p2870
sg240
(issf_api
FeatureSet
p2871
(dp2872
g243
(dp2873
S'posn'
p2874
S'180'
p2875
sS'name'
p2876
S'\xe0\xa4\xac\xe0\xa5\x87\xe0\xa4\xa6\xe0\xa5\x80'
p2877
sS'af'
p2878
S'\xe0\xa4\xac\xe0\xa5\x87\xe0\xa4\xa6\xe0\xa5\x80,n,any,sg,3,o,0,0'
p2879
ssbsg1554
I00
sba(issf_api
Word
p2880
(dp2881
g1836
I00
sg1837
V\u0915\u094b
p2882
sg1839
(issf_api
FeatureSet
p2883
(dp2884
g243
(dp2885
S'posn'
p2886
S'190'
p2887
sS'name'
p2888
S'\xe0\xa4\x95\xe0\xa5\x8b2'
p2889
sS'drel'
p2890
S'lwg__psp:\xe0\xa4\xac\xe0\xa5\x87\xe0\xa4\xa6\xe0\xa5\x80'
p2891
sS'chunktype'
p2892
S'child:NP5'
p2893
sS'af'
p2894
S'\xe0\xa4\x95\xe0\xa5\x8b,psp,,,,,,'
p2895
ssbsg1533
I01
sg1536
I00
sg1547
Nsg1534
Nsg188
I6
sg175
I1
sg1853
I0
sg1545
Nsg1854
S'PSP'
p2896
sg240
(issf_api
FeatureSet
p2897
(dp2898
g243
(dp2899
S'posn'
p2900
S'190'
p2901
sS'name'
p2902
S'\xe0\xa4\x95\xe0\xa5\x8b2'
p2903
sS'af'
p2904
S'\xe0\xa4\x95\xe0\xa5\x8b,psp,,,,,,'
p2905
ssbsg1554
I00
sba(issf_api
Word
p2906
(dp2907
g1836
I00
sg1837
V\u092a\u0947\u0936
p2908
sg1839
(issf_api
FeatureSet
p2909
(dp2910
g243
(dp2911
S'posn'
p2912
S'200'
p2913
sS'name'
p2914
S'\xe0\xa4\xaa\xe0\xa5\x87\xe0\xa4\xb6'
p2915
sS'af'
p2916
S'\xe0\xa4\xaa\xe0\xa5\x87\xe0\xa4\xb6,adj,any,any,,,,'
p2917
sS'chunkid'
p2918
S'JJP'
p2919
sS'drel'
p2920
S'pof:\xe0\xa4\x95\xe0\xa4\xbf\xe0\xa4\x8f'
p2921
sS'chunktype'
p2922
S'head:JJP'
p2923
ssbsg1533
I01
sg1536
I00
sg1547
Nsg1534
Nsg188
I7
sg175
I1
sg1853
I0
sg1545
Nsg1854
S'JJ'
p2924
sg240
(issf_api
FeatureSet
p2925
(dp2926
g243
(dp2927
S'posn'
p2928
S'200'
p2929
sS'name'
p2930
S'\xe0\xa4\xaa\xe0\xa5\x87\xe0\xa4\xb6'
p2931
sS'af'
p2932
S'\xe0\xa4\xaa\xe0\xa5\x87\xe0\xa4\xb6,adj,any,any,,,,'
p2933
ssbsg1554
I00
sba(issf_api
Word
p2934
(dp2935
g1836
I00
sg1837
V\u0915\u093f\u090f
p2936
sg1839
(issf_api
FeatureSet
p2937
(dp2938
g243
(dp2939
S'posn'
p2940
S'210'
p2941
sS'name'
p2942
S'\xe0\xa4\x95\xe0\xa4\xbf\xe0\xa4\x8f'
p2943
sS'af'
p2944
S'\xe0\xa4\x95\xe0\xa4\xb0,v,any,sg,any,,\xe0\xa4\xaf\xe0\xa4\xbe_\xe0\xa4\x9c\xe0\xa4\xbe+\xe0\xa4\xa8\xe0\xa4\xbe_\xe0\xa4\x95\xe0\xa4\xbe,yA'
p2945
sS'chunkid'
p2946
S'VGNN'
p2947
sS'drel'
p2948
S'r6:\xe0\xa4\x86\xe0\xa4\xa6\xe0\xa5\x87\xe0\xa4\xb6'
p2949
sS'vpos'
p2950
S'tam_2_3'
p2951
sS'chunktype'
p2952
S'head:VGNN'
p2953
ssbsg1533
I01
sg1536
I00
sg1547
Nsg1534
Nsg188
I8
sg175
I1
sg1853
I0
sg1545
Nsg1854
S'VM'
p2954
sg240
(issf_api
FeatureSet
p2955
(dp2956
g243
(dp2957
S'posn'
p2958
S'210'
p2959
sS'name'
p2960
S'\xe0\xa4\x95\xe0\xa4\xbf\xe0\xa4\x8f'
p2961
sS'af'
p2962
S'\xe0\xa4\x95\xe0\xa4\xb0,v,m,sg,any,,\xe0\xa4\xaf\xe0\xa4\xbe,yA'
p2963
ssbsg1554
I00
sba(issf_api
Word
p2964
(dp2965
g1836
I00
sg1837
V\u091c\u093e\u0928\u0947
p2966
sg1839
(issf_api
FeatureSet
p2967
(dp2968
g243
(dp2969
S'posn'
p2970
S'220'
p2971
sS'name'
p2972
S'\xe0\xa4\x9c\xe0\xa4\xbe\xe0\xa4\xa8\xe0\xa5\x87'
p2973
sS'drel'
p2974
S'lwg__vaux:\xe0\xa4\x95\xe0\xa4\xbf\xe0\xa4\x8f'
p2975
sS'chunktype'
p2976
S'child:VGNN'
p2977
sS'af'
p2978
S'\xe0\xa4\x9c\xe0\xa4\xbe,v,any,any,any,o,\xe0\xa4\xa8\xe0\xa4\xbe,nA'
p2979
ssbsg1533
I01
sg1536
I00
sg1547
Nsg1534
Nsg188
I8
sg175
I1
sg1853
I0
sg1545
Nsg1854
S'VAUX'
p2980
sg240
(issf_api
FeatureSet
p2981
(dp2982
g243
(dp2983
S'posn'
p2984
S'220'
p2985
sS'name'
p2986
S'\xe0\xa4\x9c\xe0\xa4\xbe\xe0\xa4\xa8\xe0\xa5\x87'
p2987
sS'af'
p2988
S'\xe0\xa4\x9c\xe0\xa4\xbe,v,any,any,any,o,\xe0\xa4\xa8\xe0\xa4\xbe,nA'
p2989
ssbsg1554
I00
sba(issf_api
Word
p2990
(dp2991
g1836
I00
sg1837
V\u0915\u0947
p2992
sg1839
(issf_api
FeatureSet
p2993
(dp2994
g243
(dp2995
S'posn'
p2996
S'230'
p2997
sS'name'
p2998
S'\xe0\xa4\x95\xe0\xa5\x87'
p2999
sS'drel'
p3000
S'lwg__psp:\xe0\xa4\x95\xe0\xa4\xbf\xe0\xa4\x8f'
p3001
sS'chunktype'
p3002
S'child:VGNN'
p3003
sS'af'
p3004
S'\xe0\xa4\x95\xe0\xa4\xbe,psp,m,sg,,o,,'
p3005
ssbsg1533
I01
sg1536
I00
sg1547
Nsg1534
Nsg188
I8
sg175
I1
sg1853
I0
sg1545
Nsg1854
S'PSP'
p3006
sg240
(issf_api
FeatureSet
p3007
(dp3008
g243
(dp3009
S'posn'
p3010
S'230'
p3011
sS'name'
p3012
S'\xe0\xa4\x95\xe0\xa5\x87'
p3013
sS'af'
p3014
S'\xe0\xa4\x95\xe0\xa4\xbe,psp,m,sg,,o,,'
p3015
ssbsg1554
I00
sba(issf_api
Word
p3016
(dp3017
g1836
I00
sg1837
V\u0906\u0926\u0947\u0936
p3018
sg1839
(issf_api
FeatureSet
p3019
(dp3020
g243
(dp3021
S'posn'
p3022
S'240'
p3023
sS'name'
p3024
S'\xe0\xa4\x86\xe0\xa4\xa6\xe0\xa5\x87\xe0\xa4\xb6'
p3025
sS'af'
p3026
S'\xe0\xa4\x86\xe0\xa4\xa6\xe0\xa5\x87\xe0\xa4\xb6,n,m,sg,3,o,0_\xe0\xa4\x95\xe0\xa5\x87_\xe0\xa4\xac\xe0\xa4\xbe\xe0\xa4\xa6,0'
p3027
sS'chunkid'
p3028
S'NP6'
p3029
sS'drel'
p3030
S'k7t:\xe0\xa4\xb9\xe0\xa5\x8b'
p3031
sS'vpos'
p3032
S'vib_2_3'
p3033
sS'chunktype'
p3034
S'head:NP6'
p3035
ssbsg1533
I01
sg1536
I00
sg1547
Nsg1534
Nsg188
I9
sg175
I1
sg1853
I0
sg1545
Nsg1854
S'NN'
p3036
sg240
(issf_api
FeatureSet
p3037
(dp3038
g243
(dp3039
S'posn'
p3040
S'240'
p3041
sS'name'
p3042
S'\xe0\xa4\x86\xe0\xa4\xa6\xe0\xa5\x87\xe0\xa4\xb6'
p3043
sS'af'
p3044
S'\xe0\xa4\x86\xe0\xa4\xa6\xe0\xa5\x87\xe0\xa4\xb6,n,m,sg,3,o,0,0'
p3045
ssbsg1554
I00
sba(issf_api
Word
p3046
(dp3047
g1836
I00
sg1837
V\u0915\u0947
p3048
sg1839
(issf_api
FeatureSet
p3049
(dp3050
g243
(dp3051
S'posn'
p3052
S'250'
p3053
sS'name'
p3054
S'\xe0\xa4\x95\xe0\xa5\x872'
p3055
sS'drel'
p3056
S'lwg__psp:\xe0\xa4\x86\xe0\xa4\xa6\xe0\xa5\x87\xe0\xa4\xb6'
p3057
sS'chunktype'
p3058
S'child:NP6'
p3059
sS'af'
p3060
S'\xe0\xa4\x95\xe0\xa5\x87,psp,,,,,,'
p3061
ssbsg1533
I00
sg1536
I00
sg1547
g1567
sg1534
(lp3062
I30
aI31
aI32
aI33
aI34
aI35
aI36
aI37
aI38
aI39
aI40
aI41
aI42
aI43
asg188
I9
sg175
I1
sg1853
I0
sg1545
(lp3063
I46
aI47
aI48
aI49
aI50
aI51
aI52
aI53
aI54
aI55
aI56
aI57
asg1854
S'PSP'
p3064
sg240
(issf_api
FeatureSet
p3065
(dp3066
g243
(dp3067
S'posn'
p3068
S'250'
p3069
sS'name'
p3070
S'\xe0\xa4\x95\xe0\xa5\x872'
p3071
sS'af'
p3072
S'\xe0\xa4\x95\xe0\xa5\x87,psp,,,,,,'
p3073
ssbsg1554
I01
sba(issf_api
Word
p3074
(dp3075
g1836
I00
sg1837
V\u092c\u093e\u0926
p3076
sg1839
(issf_api
FeatureSet
p3077
(dp3078
g243
(dp3079
S'posn'
p3080
S'260'
p3081
sS'name'
p3082
S'\xe0\xa4\xac\xe0\xa4\xbe\xe0\xa4\xa6'
p3083
sS'drel'
p3084
S'lwg__psp:\xe0\xa4\x86\xe0\xa4\xa6\xe0\xa5\x87\xe0\xa4\xb6'
p3085
sS'chunktype'
p3086
S'child:NP6'
p3087
sS'af'
p3088
S'\xe0\xa4\xac\xe0\xa4\xbe\xe0\xa4\xa6,nst,m,sg,3,d,,'
p3089
ssbsg1533
I00
sg1536
I00
sg1547
g1567
sg1534
g3062
sg188
I9
sg175
I1
sg1853
I0
sg1545
g3063
sg1854
S'NST'
p3090
sg240
(issf_api
FeatureSet
p3091
(dp3092
g243
(dp3093
S'posn'
p3094
S'260'
p3095
sS'name'
p3096
S'\xe0\xa4\xac\xe0\xa4\xbe\xe0\xa4\xa6'
p3097
sS'af'
p3098
S'\xe0\xa4\xac\xe0\xa4\xbe\xe0\xa4\xa6,nst,m,sg,3,d,,'
p3099
ssbsg1554
I01
sba(issf_api
Word
p3100
(dp3101
g1836
I00
sg1837
V\u092a\u0941\u0932\u093f\u0938
p3102
sg1839
(issf_api
FeatureSet
p3103
(dp3104
g243
(dp3105
S'posn'
p3106
S'270'
p3107
sS'name'
p3108
S'\xe0\xa4\xaa\xe0\xa5\x81\xe0\xa4\xb2\xe0\xa4\xbf\xe0\xa4\xb82'
p3109
sS'drel'
p3110
S'pof__cn:\xe0\xa4\x89\xe0\xa4\xaa\xe0\xa4\xbe\xe0\xa4\xa7\xe0\xa5\x80\xe0\xa4\x95\xe0\xa5\x8d\xe0\xa4\xb7\xe0\xa4\x95'
p3111
sS'chunktype'
p3112
S'child:NP7'
p3113
sS'af'
p3114
S'\xe0\xa4\xaa\xe0\xa5\x81\xe0\xa4\xb2\xe0\xa4\xbf\xe0\xa4\xb8,n,f,sg,3,d,0,0'
p3115
ssbsg1533
I00
sg1536
I01
sg1547
Nsg1534
Nsg188
I10
sg175
I1
sg1853
I0
sg1545
Nsg1854
S'NNC'
p3116
sg240
(issf_api
FeatureSet
p3117
(dp3118
g243
(dp3119
S'posn'
p3120
S'270'
p3121
sS'name'
p3122
S'\xe0\xa4\xaa\xe0\xa5\x81\xe0\xa4\xb2\xe0\xa4\xbf\xe0\xa4\xb82'
p3123
sS'af'
p3124
S'\xe0\xa4\xaa\xe0\xa5\x81\xe0\xa4\xb2\xe0\xa4\xbf\xe0\xa4\xb8,n,f,sg,3,d,0,0'
p3125
ssbsg1554
I00
sba(issf_api
Word
p3126
(dp3127
g1836
I00
sg1837
V\u0909\u092a\u093e\u0927\u0940\u0915\u094d\u0937\u0915
p3128
sg1839
(issf_api
FeatureSet
p3129
(dp3130
g243
(dp3131
S'posn'
p3132
S'280'
p3133
sS'name'
p3134
S'\xe0\xa4\x89\xe0\xa4\xaa\xe0\xa4\xbe\xe0\xa4\xa7\xe0\xa5\x80\xe0\xa4\x95\xe0\xa5\x8d\xe0\xa4\xb7\xe0\xa4\x95'
p3135
sS'af'
p3136
S'\xe0\xa4\x89\xe0\xa4\xaa\xe0\xa4\xbe\xe0\xa4\xa7\xe0\xa5\x80\xe0\xa4\x95\xe0\xa5\x8d\xe0\xa4\xb7\xe0\xa4\x95,n,m,sg,3,o,0_\xe0\xa4\x95\xe0\xa4\xbe,0'
p3137
sS'chunkid'
p3138
S'NP7'
p3139
sS'drel'
p3140
S'r6:\xe0\xa4\xa8\xe0\xa5\x87\xe0\xa4\xa4\xe0\xa5\x83\xe0\xa4\xa4\xe0\xa5\x8d\xe0\xa4\xb5'
p3141
sS'vpos'
p3142
S'vib_3'
p3143
sS'chunktype'
p3144
S'head:NP7'
p3145
ssbsg1533
I00
sg1536
I01
sg1547
Nsg1534
Nsg188
I10
sg175
I1
sg1853
I0
sg1545
Nsg1854
S'NN'
p3146
sg240
(issf_api
FeatureSet
p3147
(dp3148
g243
(dp3149
S'posn'
p3150
S'280'
p3151
sS'name'
p3152
S'\xe0\xa4\x89\xe0\xa4\xaa\xe0\xa4\xbe\xe0\xa4\xa7\xe0\xa5\x80\xe0\xa4\x95\xe0\xa5\x8d\xe0\xa4\xb7\xe0\xa4\x95'
p3153
sS'af'
p3154
S'\xe0\xa4\x89\xe0\xa4\xaa\xe0\xa4\xbe\xe0\xa4\xa7\xe0\xa5\x80\xe0\xa4\x95\xe0\xa5\x8d\xe0\xa4\xb7\xe0\xa4\x95,n,m,sg,3,o,0,0'
p3155
ssbsg1554
I00
sba(issf_api
Word
p3156
(dp3157
g1836
I00
sg1837
V\u0915\u0947
p3158
sg1839
(issf_api
FeatureSet
p3159
(dp3160
g243
(dp3161
S'posn'
p3162
S'290'
p3163
sS'name'
p3164
S'\xe0\xa4\x95\xe0\xa5\x873'
p3165
sS'drel'
p3166
S'lwg__psp:\xe0\xa4\x89\xe0\xa4\xaa\xe0\xa4\xbe\xe0\xa4\xa7\xe0\xa5\x80\xe0\xa4\x95\xe0\xa5\x8d\xe0\xa4\xb7\xe0\xa4\x95'
p3167
sS'chunktype'
p3168
S'child:NP7'
p3169
sS'af'
p3170
S'\xe0\xa4\x95\xe0\xa4\xbe,psp,m,sg,,o,,'
p3171
ssbsg1533
I00
sg1536
I01
sg1547
Nsg1534
Nsg188
I10
sg175
I1
sg1853
I0
sg1545
Nsg1854
S'PSP'
p3172
sg240
(issf_api
FeatureSet
p3173
(dp3174
g243
(dp3175
S'posn'
p3176
S'290'
p3177
sS'name'
p3178
S'\xe0\xa4\x95\xe0\xa5\x873'
p3179
sS'af'
p3180
S'\xe0\xa4\x95\xe0\xa4\xbe,psp,m,sg,,o,,'
p3181
ssbsg1554
I00
sba(issf_api
Word
p3182
(dp3183
g1836
I00
sg1837
V\u0928\u0947\u0924\u0943\u0924\u094d\u0935
p3184
sg1839
(issf_api
FeatureSet
p3185
(dp3186
g243
(dp3187
S'posn'
p3188
S'300'
p3189
sS'name'
p3190
S'\xe0\xa4\xa8\xe0\xa5\x87\xe0\xa4\xa4\xe0\xa5\x83\xe0\xa4\xa4\xe0\xa5\x8d\xe0\xa4\xb5'
p3191
sS'af'
p3192
S'\xe0\xa4\xa8\xe0\xa5\x87\xe0\xa4\xa4\xe0\xa5\x83\xe0\xa4\xa4\xe0\xa5\x8d\xe0\xa4\xb5,n,m,sg,3,o,0_\xe0\xa4\xae\xe0\xa5\x87\xe0\xa4\x82,0'
p3193
sS'chunkid'
p3194
S'NP8'
p3195
sS'drel'
p3196
S'k7:\xe0\xa4\xb9\xe0\xa5\x8b'
p3197
sS'vpos'
p3198
S'vib_2'
p3199
sS'chunktype'
p3200
S'head:NP8'
p3201
ssbsg1533
I00
sg1536
I01
sg1547
Nsg1534
Nsg188
I11
sg175
I1
sg1853
I0
sg1545
Nsg1854
S'NN'
p3202
sg240
(issf_api
FeatureSet
p3203
(dp3204
g243
(dp3205
S'posn'
p3206
S'300'
p3207
sS'name'
p3208
S'\xe0\xa4\xa8\xe0\xa5\x87\xe0\xa4\xa4\xe0\xa5\x83\xe0\xa4\xa4\xe0\xa5\x8d\xe0\xa4\xb5'
p3209
sS'af'
p3210
S'\xe0\xa4\xa8\xe0\xa5\x87\xe0\xa4\xa4\xe0\xa5\x83\xe0\xa4\xa4\xe0\xa5\x8d\xe0\xa4\xb5,n,m,sg,3,o,0,0'
p3211
ssbsg1554
I00
sba(issf_api
Word
p3212
(dp3213
g1836
I00
sg1837
V\u092e\u0947\u0902
p3214
sg1839
(issf_api
FeatureSet
p3215
(dp3216
g243
(dp3217
S'posn'
p3218
S'310'
p3219
sS'name'
p3220
S'\xe0\xa4\xae\xe0\xa5\x87\xe0\xa4\x822'
p3221
sS'drel'
p3222
S'lwg__psp:\xe0\xa4\xa8\xe0\xa5\x87\xe0\xa4\xa4\xe0\xa5\x83\xe0\xa4\xa4\xe0\xa5\x8d\xe0\xa4\xb5'
p3223
sS'chunktype'
p3224
S'child:NP8'
p3225
sS'af'
p3226
S'\xe0\xa4\xae\xe0\xa5\x87\xe0\xa4\x82,psp,,,,,,'
p3227
ssbsg1533
I00
sg1536
I01
sg1547
Nsg1534
Nsg188
I11
sg175
I1
sg1853
I0
sg1545
Nsg1854
S'PSP'
p3228
sg240
(issf_api
FeatureSet
p3229
(dp3230
g243
(dp3231
S'posn'
p3232
S'310'
p3233
sS'name'
p3234
S'\xe0\xa4\xae\xe0\xa5\x87\xe0\xa4\x822'
p3235
sS'af'
p3236
S'\xe0\xa4\xae\xe0\xa5\x87\xe0\xa4\x82,psp,,,,,,'
p3237
ssbsg1554
I00
sba(issf_api
Word
p3238
(dp3239
g1836
I00
sg1837
V\u090f\u0915
p3240
sg1839
(issf_api
FeatureSet
p3241
(dp3242
g243
(dp3243
S'posn'
p3244
S'320'
p3245
sS'name'
p3246
S'\xe0\xa4\x8f\xe0\xa4\x95'
p3247
sS'drel'
p3248
S'nmod__adj:\xe0\xa4\x9f\xe0\xa5\x80\xe0\xa4\xae'
p3249
sS'chunktype'
p3250
S'child:NP9'
p3251
sS'af'
p3252
S'\xe0\xa4\x8f\xe0\xa4\x95,num,any,any,,any,,'
p3253
ssbsg1533
I00
sg1536
I01
sg1547
Nsg1534
Nsg188
I12
sg175
I1
sg1853
I0
sg1545
Nsg1854
S'QC'
p3254
sg240
(issf_api
FeatureSet
p3255
(dp3256
g243
(dp3257
S'posn'
p3258
S'320'
p3259
sS'name'
p3260
S'\xe0\xa4\x8f\xe0\xa4\x95'
p3261
sS'af'
p3262
S'\xe0\xa4\x8f\xe0\xa4\x95,num,any,any,,any,,'
p3263
ssbsg1554
I00
sba(issf_api
Word
p3264
(dp3265
g1836
I00
sg1837
V\u091f\u0940\u092e
p3266
sg1839
(issf_api
FeatureSet
p3267
(dp3268
g243
(dp3269
S'posn'
p3270
S'330'
p3271
sS'name'
p3272
S'\xe0\xa4\x9f\xe0\xa5\x80\xe0\xa4\xae'
p3273
sS'af'
p3274
S'\xe0\xa4\x9f\xe0\xa5\x80\xe0\xa4\xae,n,f,sg,3,d,0,0'
p3275
sS'chunkid'
p3276
S'NP9'
p3277
sS'drel'
p3278
S'k1:\xe0\xa4\xb9\xe0\xa5\x8b'
p3279
sS'chunktype'
p3280
S'head:NP9'
p3281
ssbsg1533
I00
sg1536
I01
sg1547
Nsg1534
Nsg188
I12
sg175
I1
sg1853
I0
sg1545
Nsg1854
S'NN'
p3282
sg240
(issf_api
FeatureSet
p3283
(dp3284
g243
(dp3285
S'posn'
p3286
S'330'
p3287
sS'name'
p3288
S'\xe0\xa4\x9f\xe0\xa5\x80\xe0\xa4\xae'
p3289
sS'af'
p3290
S'\xe0\xa4\x9f\xe0\xa5\x80\xe0\xa4\xae,n,f,sg,3,d,0,0'
p3291
ssbsg1554
I00
sba(issf_api
Word
p3292
(dp3293
g1836
I00
sg1837
V\u0939\u0948\u0926\u0930\u093e\u092c\u093e\u0926
p3294
sg1839
(issf_api
FeatureSet
p3295
(dp3296
g243
(dp3297
S'posn'
p3298
S'340'
p3299
sS'name'
p3300
S'\xe0\xa4\xb9\xe0\xa5\x88\xe0\xa4\xa6\xe0\xa4\xb0\xe0\xa4\xbe\xe0\xa4\xac\xe0\xa4\xbe\xe0\xa4\xa6'
p3301
sS'af'
p3302
S'\xe0\xa4\xb9\xe0\xa5\x88\xe0\xa4\xa6\xe0\xa4\xb0\xe0\xa4\xbe\xe0\xa4\xac\xe0\xa4\xbe\xe0\xa4\xa6,n,m,sg,3,d,0,0'
p3303
sS'chunkid'
p3304
S'NP10'
p3305
sS'drel'
p3306
S'k7p:\xe0\xa4\xb9\xe0\xa5\x8b'
p3307
sS'chunktype'
p3308
S'head:NP10'
p3309
ssbsg1533
I00
sg1536
I01
sg1547
Nsg1534
Nsg188
I13
sg175
I1
sg1853
I0
sg1545
Nsg1854
S'NNP'
p3310
sg240
(issf_api
FeatureSet
p3311
(dp3312
g243
(dp3313
S'posn'
p3314
S'340'
p3315
sS'name'
p3316
S'\xe0\xa4\xb9\xe0\xa5\x88\xe0\xa4\xa6\xe0\xa4\xb0\xe0\xa4\xbe\xe0\xa4\xac\xe0\xa4\xbe\xe0\xa4\xa6'
p3317
sS'af'
p3318
S'\xe0\xa4\xb9\xe0\xa5\x88\xe0\xa4\xa6\xe0\xa4\xb0\xe0\xa4\xbe\xe0\xa4\xac\xe0\xa4\xbe\xe0\xa4\xa6,n,m,sg,3,d,0,0'
p3319
ssbsg1554
I00
sba(issf_api
Word
p3320
(dp3321
g1836
I00
sg1837
V\u0930\u0935\u093e\u0928\u093e
p3322
sg1839
(issf_api
FeatureSet
p3323
(dp3324
g243
(dp3325
S'posn'
p3326
S'350'
p3327
sS'name'
p3328
S'\xe0\xa4\xb0\xe0\xa4\xb5\xe0\xa4\xbe\xe0\xa4\xa8\xe0\xa4\xbe'
p3329
sS'af'
p3330
S'\xe0\xa4\xb0\xe0\xa4\xb5\xe0\xa4\xbe\xe0\xa4\xa8\xe0\xa4\xbe,adj,any,any,,,,'
p3331
sS'chunkid'
p3332
S'JJP2'
p3333
sS'drel'
p3334
S'pof:\xe0\xa4\xb9\xe0\xa5\x8b'
p3335
sS'chunktype'
p3336
S'head:JJP2'
p3337
ssbsg1533
I00
sg1536
I01
sg1547
Nsg1534
Nsg188
I14
sg175
I1
sg1853
I0
sg1545
Nsg1854
S'JJ'
p3338
sg240
(issf_api
FeatureSet
p3339
(dp3340
g243
(dp3341
S'posn'
p3342
S'350'
p3343
sS'name'
p3344
S'\xe0\xa4\xb0\xe0\xa4\xb5\xe0\xa4\xbe\xe0\xa4\xa8\xe0\xa4\xbe'
p3345
sS'af'
p3346
S'\xe0\xa4\xb0\xe0\xa4\xb5\xe0\xa4\xbe\xe0\xa4\xa8\xe0\xa4\xbe,adj,any,any,,,,'
p3347
ssbsg1554
I00
sba(issf_api
Word
p3348
(dp3349
g1836
I00
sg1837
V\u0939\u094b
p3350
sg1839
(issf_api
FeatureSet
p3351
(dp3352
g243
(dp3353
S'posn'
p3354
S'360'
p3355
sS'name'
p3356
S'\xe0\xa4\xb9\xe0\xa5\x8b'
p3357
sS'af'
p3358
S'\xe0\xa4\xb9\xe0\xa5\x8b,v,f,sg,3,,0_\xe0\xa4\x9c\xe0\xa4\xbe+\xe0\xa4\xaf\xe0\xa4\xbe\xe0\xa5\xa7_\xe0\xa4\xb9\xe0\xa5\x88,0'
p3359
sS'chunkid'
p3360
S'VGF2'
p3361
sS'stype'
p3362
S'declarative'
p3363
sS'drel'
p3364
S'ccof:\xe0\xa4\x95\xe0\xa4\xbf'
p3365
sS'voicetype'
p3366
S'active'
p3367
sS'vpos'
p3368
S'tam_2_3'
p3369
sS'chunktype'
p3370
S'head:VGF2'
p3371
ssbsg1533
I00
sg1536
I01
sg1547
Nsg1534
Nsg188
I15
sg175
I1
sg1853
I0
sg1545
Nsg1854
S'VM'
p3372
sg240
(issf_api
FeatureSet
p3373
(dp3374
g243
(dp3375
S'posn'
p3376
S'360'
p3377
sS'name'
p3378
S'\xe0\xa4\xb9\xe0\xa5\x8b'
p3379
sS'af'
p3380
S'\xe0\xa4\xb9\xe0\xa5\x8b,v,any,any,any,,0,0'
p3381
ssbsg1554
I00
sba(issf_api
Word
p3382
(dp3383
g1836
I00
sg1837
V\u0917\u0908
p3384
sg1839
(issf_api
FeatureSet
p3385
(dp3386
g243
(dp3387
S'posn'
p3388
S'370'
p3389
sS'name'
p3390
S'\xe0\xa4\x97\xe0\xa4\x88'
p3391
sS'drel'
p3392
S'lwg__vaux:\xe0\xa4\xb9\xe0\xa5\x8b'
p3393
sS'chunktype'
p3394
S'child:VGF2'
p3395
sS'af'
p3396
S'\xe0\xa4\x9c\xe0\xa4\xbe,v,f,sg,any,,\xe0\xa4\xaf\xe0\xa4\xbe\xe0\xa5\xa7,yA1'
p3397
ssbsg1533
I00
sg1536
I01
sg1547
Nsg1534
Nsg188
I15
sg175
I1
sg1853
I0
sg1545
Nsg1854
S'VAUX'
p3398
sg240
(issf_api
FeatureSet
p3399
(dp3400
g243
(dp3401
S'posn'
p3402
S'370'
p3403
sS'name'
p3404
S'\xe0\xa4\x97\xe0\xa4\x88'
p3405
sS'af'
p3406
S'\xe0\xa4\x9c\xe0\xa4\xbe,v,f,sg,any,,\xe0\xa4\xaf\xe0\xa4\xbe\xe0\xa5\xa7,yA1'
p3407
ssbsg1554
I00
sba(issf_api
Word
p3408
(dp3409
g1836
I00
sg1837
V\u0939\u0948
p3410
sg1839
(issf_api
FeatureSet
p3411
(dp3412
g243
(dp3413
S'posn'
p3414
S'380'
p3415
sS'name'
p3416
S'\xe0\xa4\xb9\xe0\xa5\x88'
p3417
sS'drel'
p3418
S'lwg__vaux:\xe0\xa4\xb9\xe0\xa5\x8b'
p3419
sS'chunktype'
p3420
S'child:VGF2'
p3421
sS'af'
p3422
S'\xe0\xa4\xb9\xe0\xa5\x88,v,any,sg,3,,\xe0\xa4\xb9\xe0\xa5\x88,hE'
p3423
ssbsg1533
I00
sg1536
I01
sg1547
Nsg1534
Nsg188
I15
sg175
I1
sg1853
I0
sg1545
Nsg1854
S'VAUX'
p3424
sg240
(issf_api
FeatureSet
p3425
(dp3426
g243
(dp3427
S'posn'
p3428
S'380'
p3429
sS'name'
p3430
S'\xe0\xa4\xb9\xe0\xa5\x88'
p3431
sS'af'
p3432
S'\xe0\xa4\xb9\xe0\xa5\x88,v,any,sg,3,,\xe0\xa4\xb9\xe0\xa5\x88,hE'
p3433
ssbsg1554
I00
sba(issf_api
Word
p3434
(dp3435
g1836
I00
sg1837
V\u0964
sg1839
(issf_api
FeatureSet
p3436
(dp3437
g243
(dp3438
S'posn'
p3439
S'390'
p3440
sS'name'
p3441
S'\xe0\xa5\xa4'
p3442
sS'af'
p3443
S'\xe0\xa5\xa4,punc,,,,,,'
p3444
sS'chunkid'
p3445
S'BLK'
p3446
sS'drel'
p3447
S'rsym:\xe0\xa4\xac\xe0\xa4\xa4\xe0\xa4\xbe\xe0\xa4\xaf\xe0\xa4\xbe'
p3448
sS'chunktype'
p3449
S'head:BLK'
p3450
ssbsg1533
I00
sg1536
I00
sg1547
Nsg1534
Nsg188
I16
sg175
I1
sg1853
Nsg1545
Nsg1854
S'SYM'
p3451
sg240
(issf_api
FeatureSet
p3452
(dp3453
g243
(dp3454
S'posn'
p3455
S'390'
p3456
sS'name'
p3457
S'\xe0\xa5\xa4'
p3458
sS'af'
p3459
S'\xe0\xa5\xa4,punc,,,,,,'
p3460
ssbsg1554
I00
sba(issf_api
Word
p3461
(dp3462
g1836
I00
sg1837
V\u0909\u0928\u094d\u0939\u094b\u0902\u0928\u0947
p3463
sg1839
(issf_api
FeatureSet
p3464
(dp3465
g243
(dp3466
S'posn'
p3467
S'10'
p3468
sS'name'
p3469
S'\xe0\xa4\x89\xe0\xa4\xa8\xe0\xa5\x8d\xe0\xa4\xb9\xe0\xa5\x8b\xe0\xa4\x82\xe0\xa4\xa8\xe0\xa5\x87'
p3470
sS'af'
p3471
S'\xe0\xa4\xb5\xe0\xa4\xb9,pn,any,sg,3h,o,\xe0\xa4\xa8\xe0\xa5\x87,ne'
p3472
sS'chunkid'
p3473
S'NP'
p3474
sS'drel'
p3475
S'k1:\xe0\xa4\x95\xe0\xa4\xb9\xe0\xa4\xbe'
p3476
sS'chunktype'
p3477
S'head:NP'
p3478
ssbsg1533
I00
sg1536
I00
sg1547
Nsg1534
Nsg188
I0
sg175
I2
sg1853
Nsg1545
Nsg1854
S'PRP'
p3479
sg240
(issf_api
FeatureSet
p3480
(dp3481
g243
(dp3482
S'posn'
p3483
S'10'
p3484
sS'name'
p3485
S'\xe0\xa4\x89\xe0\xa4\xa8\xe0\xa5\x8d\xe0\xa4\xb9\xe0\xa5\x8b\xe0\xa4\x82\xe0\xa4\xa8\xe0\xa5\x87'
p3486
sS'af'
p3487
S'\xe0\xa4\xb5\xe0\xa4\xb9,pn,any,sg,3h,o,\xe0\xa4\xa8\xe0\xa5\x87,ne'
p3488
ssbsg1554
I00
sba(issf_api
Word
p3489
(dp3490
g1836
I00
sg1837
V\u0915\u0939\u093e
p3491
sg1839
(issf_api
FeatureSet
p3492
(dp3493
g243
(dp3494
S'posn'
p3495
S'20'
p3496
sS'name'
p3497
S'\xe0\xa4\x95\xe0\xa4\xb9\xe0\xa4\xbe'
p3498
sS'af'
p3499
S'\xe0\xa4\x95\xe0\xa4\xb9,v,m,sg,any,,\xe0\xa4\xaf\xe0\xa4\xbe,yA'
p3500
sS'chunkid'
p3501
S'VGF'
p3502
sS'chunktype'
p3503
S'head:VGF'
p3504
sS'voicetype'
p3505
S'active'
p3506
sS'stype'
p3507
S'declarative'
p3508
ssbsg1533
I00
sg1536
I00
sg1547
Nsg1534
Nsg188
I1
sg175
I2
sg1853
Nsg1545
Nsg1854
S'VM'
p3509
sg240
(issf_api
FeatureSet
p3510
(dp3511
g243
(dp3512
S'posn'
p3513
S'20'
p3514
sS'name'
p3515
S'\xe0\xa4\x95\xe0\xa4\xb9\xe0\xa4\xbe'
p3516
sS'af'
p3517
S'\xe0\xa4\x95\xe0\xa4\xb9,v,m,sg,any,,\xe0\xa4\xaf\xe0\xa4\xbe,yA'
p3518
ssbsg1554
I00
sba(issf_api
Word
p3519
(dp3520
g1836
I00
sg1837
V\u0915\u093f
p3521
sg1839
(issf_api
FeatureSet
p3522
(dp3523
g243
(dp3524
S'posn'
p3525
S'30'
p3526
sS'name'
p3527
S'\xe0\xa4\x95\xe0\xa4\xbf'
p3528
sS'af'
p3529
S'\xe0\xa4\x95\xe0\xa4\xbf,avy,,,,,,'
p3530
sS'chunkid'
p3531
S'CCP'
p3532
sS'drel'
p3533
S'k2:\xe0\xa4\x95\xe0\xa4\xb9\xe0\xa4\xbe'
p3534
sS'chunktype'
p3535
S'head:CCP'
p3536
ssbsg1533
I00
sg1536
I00
sg1547
Nsg1534
Nsg188
I2
sg175
I2
sg1853
Nsg1545
Nsg1854
S'CC'
p3537
sg240
(issf_api
FeatureSet
p3538
(dp3539
g243
(dp3540
S'posn'
p3541
S'30'
p3542
sS'name'
p3543
S'\xe0\xa4\x95\xe0\xa4\xbf'
p3544
sS'af'
p3545
S'\xe0\xa4\x95\xe0\xa4\xbf,avy,,,,,,'
p3546
ssbsg1554
I00
sba(issf_api
Word
p3547
(dp3548
g1836
I00
sg1837
V\u092e\u0941\u0916\u094d\u092f
p3549
sg1839
(issf_api
FeatureSet
p3550
(dp3551
g243
(dp3552
S'posn'
p3553
S'40'
p3554
sS'name'
p3555
S'\xe0\xa4\xae\xe0\xa5\x81\xe0\xa4\x96\xe0\xa5\x8d\xe0\xa4\xaf'
p3556
sS'drel'
p3557
S'mod:\xe0\xa4\xa6\xe0\xa4\xbe\xe0\xa4\x82\xe0\xa4\x97\xe0\xa5\x80'
p3558
sS'chunktype'
p3559
S'child:NP2'
p3560
sS'af'
p3561
S'\xe0\xa4\xae\xe0\xa5\x81\xe0\xa4\x96\xe0\xa5\x8d\xe0\xa4\xaf,adj,any,any,,,,'
p3562
ssbsg1533
I00
sg1536
I00
sg1547
Nsg1534
Nsg188
I3
sg175
I2
sg1853
Nsg1545
Nsg1854
S'JJC'
p3563
sg240
(issf_api
FeatureSet
p3564
(dp3565
g243
(dp3566
S'posn'
p3567
S'40'
p3568
sS'name'
p3569
S'\xe0\xa4\xae\xe0\xa5\x81\xe0\xa4\x96\xe0\xa5\x8d\xe0\xa4\xaf'
p3570
sS'af'
p3571
S'\xe0\xa4\xae\xe0\xa5\x81\xe0\xa4\x96\xe0\xa5\x8d\xe0\xa4\xaf,adj,any,any,,,,'
p3572
ssbsg1554
I00
sba(issf_api
Word
p3573
(dp3574
g1836
I00
sg1837
V\u0928\u094d\u092f\u093e\u092f\u093f\u0915
p3575
sg1839
(issf_api
FeatureSet
p3576
(dp3577
g243
(dp3578
S'posn'
p3579
S'50'
p3580
sS'name'
p3581
S'\xe0\xa4\xa8\xe0\xa5\x8d\xe0\xa4\xaf\xe0\xa4\xbe\xe0\xa4\xaf\xe0\xa4\xbf\xe0\xa4\x95'
p3582
sS'drel'
p3583
S'nmod__adj:\xe0\xa4\xa6\xe0\xa4\xbf\xe0\xa4\xa8\xe0\xa5\x87\xe0\xa4\xb6'
p3584
sS'chunktype'
p3585
S'child:NP2'
p3586
sS'af'
p3587
S'\xe0\xa4\xa8\xe0\xa5\x8d\xe0\xa4\xaf\xe0\xa4\xbe\xe0\xa4\xaf\xe0\xa4\xbf\xe0\xa4\x95,adj,any,any,,o,,'
p3588
ssbsg1533
I00
sg1536
I00
sg1547
Nsg1534
Nsg188
I3
sg175
I2
sg1853
Nsg1545
Nsg1854
S'JJ'
p3589
sg240
(issf_api
FeatureSet
p3590
(dp3591
g243
(dp3592
S'posn'
p3593
S'50'
p3594
sS'name'
p3595
S'\xe0\xa4\xa8\xe0\xa5\x8d\xe0\xa4\xaf\xe0\xa4\xbe\xe0\xa4\xaf\xe0\xa4\xbf\xe0\xa4\x95'
p3596
sS'af'
p3597
S'\xe0\xa4\xa8\xe0\xa5\x8d\xe0\xa4\xaf\xe0\xa4\xbe\xe0\xa4\xaf\xe0\xa4\xbf\xe0\xa4\x95,adj,any,any,,o,,'
p3598
ssbsg1554
I00
sba(issf_api
Word
p3599
(dp3600
g1836
I00
sg1837
V\u0926\u0902\u0921\u093e\u0927\u093f\u0915\u093e\u0930\u0940
p3601
sg1839
(issf_api
FeatureSet
p3602
(dp3603
g243
(dp3604
S'posn'
p3605
S'60'
p3606
sS'name'
p3607
S'\xe0\xa4\xa6\xe0\xa4\x82\xe0\xa4\xa1\xe0\xa4\xbe\xe0\xa4\xa7\xe0\xa4\xbf\xe0\xa4\x95\xe0\xa4\xbe\xe0\xa4\xb0\xe0\xa5\x80'
p3608
sS'drel'
p3609
S'nmod:\xe0\xa4\xa6\xe0\xa4\xbe\xe0\xa4\x82\xe0\xa4\x97\xe0\xa5\x80'
p3610
sS'chunktype'
p3611
S'child:NP2'
p3612
sS'af'
p3613
S'\xe0\xa4\xa6\xe0\xa4\x82\xe0\xa4\xa1\xe0\xa4\xbe\xe0\xa4\xa7\xe0\xa4\xbf\xe0\xa4\x95\xe0\xa4\xbe\xe0\xa4\xb0\xe0\xa5\x80,n,m,sg,3,d,0,0'
p3614
ssbsg1533
I00
sg1536
I00
sg1547
Nsg1534
Nsg188
I3
sg175
I2
sg1853
Nsg1545
Nsg1854
S'NN'
p3615
sg240
(issf_api
FeatureSet
p3616
(dp3617
g243
(dp3618
S'posn'
p3619
S'60'
p3620
sS'name'
p3621
S'\xe0\xa4\xa6\xe0\xa4\x82\xe0\xa4\xa1\xe0\xa4\xbe\xe0\xa4\xa7\xe0\xa4\xbf\xe0\xa4\x95\xe0\xa4\xbe\xe0\xa4\xb0\xe0\xa5\x80'
p3622
sS'af'
p3623
S'\xe0\xa4\xa6\xe0\xa4\x82\xe0\xa4\xa1\xe0\xa4\xbe\xe0\xa4\xa7\xe0\xa4\xbf\xe0\xa4\x95\xe0\xa4\xbe\xe0\xa4\xb0\xe0\xa5\x80,n,m,sg,3,d,0,0'
p3624
ssbsg1554
I00
sba(issf_api
Word
p3625
(dp3626
g1836
I00
sg1837
V\u0926\u093f\u0928\u0947\u0936
p3627
sg1839
(issf_api
FeatureSet
p3628
(dp3629
g243
(dp3630
S'posn'
p3631
S'70'
p3632
sS'name'
p3633
S'\xe0\xa4\xa6\xe0\xa4\xbf\xe0\xa4\xa8\xe0\xa5\x87\xe0\xa4\xb6'
p3634
sS'drel'
p3635
S'pof__cn:\xe0\xa4\xa6\xe0\xa4\xbe\xe0\xa4\x82\xe0\xa4\x97\xe0\xa5\x80'
p3636
sS'chunktype'
p3637
S'child:NP2'
p3638
sS'af'
p3639
S'\xe0\xa4\xa6\xe0\xa4\xbf\xe0\xa4\xa8\xe0\xa5\x87\xe0\xa4\xb6,n,m,sg,3,d,0,0'
p3640
ssbsg1533
I00
sg1536
I00
sg1547
Nsg1534
Nsg188
I3
sg175
I2
sg1853
Nsg1545
Nsg1854
S'NNPC'
p3641
sg240
(issf_api
FeatureSet
p3642
(dp3643
g243
(dp3644
S'posn'
p3645
S'70'
p3646
sS'name'
p3647
S'\xe0\xa4\xa6\xe0\xa4\xbf\xe0\xa4\xa8\xe0\xa5\x87\xe0\xa4\xb6'
p3648
sS'af'
p3649
S'\xe0\xa4\xa6\xe0\xa4\xbf\xe0\xa4\xa8\xe0\xa5\x87\xe0\xa4\xb6,n,m,sg,3,d,0,0'
p3650
ssbsg1554
I00
sba(issf_api
Word
p3651
(dp3652
g1836
I00
sg1837
V\u0915\u0941\u092e\u093e\u0930
p3653
sg1839
(issf_api
FeatureSet
p3654
(dp3655
g243
(dp3656
S'posn'
p3657
S'80'
p3658
sS'name'
p3659
S'\xe0\xa4\x95\xe0\xa5\x81\xe0\xa4\xae\xe0\xa4\xbe\xe0\xa4\xb0'
p3660
sS'drel'
p3661
S'pof__cn:\xe0\xa4\xa6\xe0\xa4\xbe\xe0\xa4\x82\xe0\xa4\x97\xe0\xa5\x80'
p3662
sS'chunktype'
p3663
S'child:NP2'
p3664
sS'af'
p3665
S'\xe0\xa4\x95\xe0\xa5\x81\xe0\xa4\xae\xe0\xa4\xbe\xe0\xa4\xb0,n,m,sg,3,d,0,0'
p3666
ssbsg1533
I00
sg1536
I00
sg1547
Nsg1534
Nsg188
I3
sg175
I2
sg1853
Nsg1545
Nsg1854
S'NNPC'
p3667
sg240
(issf_api
FeatureSet
p3668
(dp3669
g243
(dp3670
S'posn'
p3671
S'80'
p3672
sS'name'
p3673
S'\xe0\xa4\x95\xe0\xa5\x81\xe0\xa4\xae\xe0\xa4\xbe\xe0\xa4\xb0'
p3674
sS'af'
p3675
S'\xe0\xa4\x95\xe0\xa5\x81\xe0\xa4\xae\xe0\xa4\xbe\xe0\xa4\xb0,n,m,sg,3,d,0,0'
p3676
ssbsg1554
I00
sba(issf_api
Word
p3677
(dp3678
g1836
I00
sg1837
V\u0926\u093e\u0902\u0917\u0940
p3679
sg1839
(issf_api
FeatureSet
p3680
(dp3681
g243
(dp3682
S'posn'
p3683
S'90'
p3684
sS'name'
p3685
S'\xe0\xa4\xa6\xe0\xa4\xbe\xe0\xa4\x82\xe0\xa4\x97\xe0\xa5\x80'
p3686
sS'af'
p3687
S'\xe0\xa4\xa6\xe0\xa4\xbe\xe0\xa4\x82\xe0\xa4\x97\xe0\xa5\x80,n,any,sg,3,o,0_\xe0\xa4\xa8\xe0\xa5\x87,0'
p3688
sS'chunkid'
p3689
S'NP2'
p3690
sS'drel'
p3691
S'k1:\xe0\xa4\xa6\xe0\xa4\xbf\xe0\xa4\xaf\xe0\xa4\xbe'
p3692
sS'vpos'
p3693
S'vib_vib_7'
p3694
sS'chunktype'
p3695
S'head:NP2'
p3696
ssbsg1533
I00
sg1536
I00
sg1547
Nsg1534
Nsg188
I3
sg175
I2
sg1853
Nsg1545
Nsg1854
S'NNP'
p3697
sg240
(issf_api
FeatureSet
p3698
(dp3699
g243
(dp3700
S'posn'
p3701
S'90'
p3702
sS'name'
p3703
S'\xe0\xa4\xa6\xe0\xa4\xbe\xe0\xa4\x82\xe0\xa4\x97\xe0\xa5\x80'
p3704
sS'af'
p3705
S'\xe0\xa4\xa6\xe0\xa4\xbe\xe0\xa4\x82\xe0\xa4\x97\xe0\xa5\x80,n,any,sg,3,o,0,0'
p3706
ssbsg1554
I00
sba(issf_api
Word
p3707
(dp3708
g1836
I00
sg1837
V\u0928\u0947
p3709
sg1839
(issf_api
FeatureSet
p3710
(dp3711
g243
(dp3712
S'posn'
p3713
S'100'
p3714
sS'name'
p3715
S'\xe0\xa4\xa8\xe0\xa5\x87'
p3716
sS'drel'
p3717
S'lwg__psp:\xe0\xa4\xa6\xe0\xa4\xbe\xe0\xa4\x82\xe0\xa4\x97\xe0\xa5\x80'
p3718
sS'chunktype'
p3719
S'child:NP2'
p3720
sS'af'
p3721
S'\xe0\xa4\xa8\xe0\xa5\x87,psp,,,,,,'
p3722
ssbsg1533
I00
sg1536
I00
sg1547
Nsg1534
Nsg188
I3
sg175
I2
sg1853
Nsg1545
Nsg1854
S'PSP'
p3723
sg240
(issf_api
FeatureSet
p3724
(dp3725
g243
(dp3726
S'posn'
p3727
S'100'
p3728
sS'name'
p3729
S'\xe0\xa4\xa8\xe0\xa5\x87'
p3730
sS'af'
p3731
S'\xe0\xa4\xa8\xe0\xa5\x87,psp,,,,,,'
p3732
ssbsg1554
I00
sba(issf_api
Word
p3733
(dp3734
g1836
I00
sg1837
V\u0968\u096c
p3735
sg1839
(issf_api
FeatureSet
p3736
(dp3737
g243
(dp3738
S'posn'
p3739
S'110'
p3740
sS'name'
p3741
S'\xe0\xa5\xa8\xe0\xa5\xac'
p3742
sS'drel'
p3743
S'pof__cn:\xe0\xa4\xa8\xe0\xa4\xb5\xe0\xa4\x82\xe0\xa4\xac\xe0\xa4\xb0'
p3744
sS'chunktype'
p3745
S'child:NP3'
p3746
sS'af'
p3747
S'\xe0\xa5\xa8\xe0\xa5\xac,n,any,sg,3,d,0,0'
p3748
ssbsg1533
I00
sg1536
I00
sg1547
Nsg1534
Nsg188
I4
sg175
I2
sg1853
Nsg1545
Nsg1854
S'NNPC'
p3749
sg240
(issf_api
FeatureSet
p3750
(dp3751
g243
(dp3752
S'posn'
p3753
S'110'
p3754
sS'name'
p3755
S'\xe0\xa5\xa8\xe0\xa5\xac'
p3756
sS'af'
p3757
S'\xe0\xa5\xa8\xe0\xa5\xac,n,any,sg,3,d,0,0'
p3758
ssbsg1554
I00
sba(issf_api
Word
p3759
(dp3760
g1836
I00
sg1837
V\u0928\u0935\u0902\u092c\u0930
p3761
sg1839
(issf_api
FeatureSet
p3762
(dp3763
g243
(dp3764
S'posn'
p3765
S'120'
p3766
sS'name'
p3767
S'\xe0\xa4\xa8\xe0\xa4\xb5\xe0\xa4\x82\xe0\xa4\xac\xe0\xa4\xb0'
p3768
sS'af'
p3769
S'\xe0\xa4\xa8\xe0\xa4\xb5\xe0\xa4\x82\xe0\xa4\xac\xe0\xa4\xb0,n,m,sg,3,o,0_\xe0\xa4\x95\xe0\xa5\x8b,0'
p3770
sS'chunkid'
p3771
S'NP3'
p3772
sS'drel'
p3773
S'k7t:\xe0\xa4\xa6\xe0\xa4\xbf\xe0\xa4\xaf\xe0\xa4\xbe'
p3774
sS'vpos'
p3775
S'vib_3'
p3776
sS'chunktype'
p3777
S'head:NP3'
p3778
ssbsg1533
I00
sg1536
I00
sg1547
Nsg1534
Nsg188
I4
sg175
I2
sg1853
Nsg1545
Nsg1854
S'NNP'
p3779
sg240
(issf_api
FeatureSet
p3780
(dp3781
g243
(dp3782
S'posn'
p3783
S'120'
p3784
sS'name'
p3785
S'\xe0\xa4\xa8\xe0\xa4\xb5\xe0\xa4\x82\xe0\xa4\xac\xe0\xa4\xb0'
p3786
sS'af'
p3787
S'\xe0\xa4\xa8\xe0\xa4\xb5\xe0\xa4\x82\xe0\xa4\xac\xe0\xa4\xb0,n,m,sg,3,o,0,0'
p3788
ssbsg1554
I00
sba(issf_api
Word
p3789
(dp3790
g1836
I00
sg1837
V\u0915\u094b
p3791
sg1839
(issf_api
FeatureSet
p3792
(dp3793
g243
(dp3794
S'posn'
p3795
S'130'
p3796
sS'name'
p3797
S'\xe0\xa4\x95\xe0\xa5\x8b'
p3798
sS'drel'
p3799
S'lwg__psp:\xe0\xa4\xa8\xe0\xa4\xb5\xe0\xa4\x82\xe0\xa4\xac\xe0\xa4\xb0'
p3800
sS'chunktype'
p3801
S'child:NP3'
p3802
sS'af'
p3803
S'\xe0\xa4\x95\xe0\xa5\x8b,psp,,,,,,'
p3804
ssbsg1533
I00
sg1536
I00
sg1547
Nsg1534
Nsg188
I4
sg175
I2
sg1853
Nsg1545
Nsg1854
S'PSP'
p3805
sg240
(issf_api
FeatureSet
p3806
(dp3807
g243
(dp3808
S'posn'
p3809
S'130'
p3810
sS'name'
p3811
S'\xe0\xa4\x95\xe0\xa5\x8b'
p3812
sS'af'
p3813
S'\xe0\xa4\x95\xe0\xa5\x8b,psp,,,,,,'
p3814
ssbsg1554
I00
sba(issf_api
Word
p3815
(dp3816
g1836
I00
sg1837
V\u092e\u094b\u0928\u093f\u0915\u093e
p3817
sg1839
(issf_api
FeatureSet
p3818
(dp3819
g243
(dp3820
S'posn'
p3821
S'140'
p3822
sS'name'
p3823
S'\xe0\xa4\xae\xe0\xa5\x8b\xe0\xa4\xa8\xe0\xa4\xbf\xe0\xa4\x95\xe0\xa4\xbe'
p3824
sS'af'
p3825
S'\xe0\xa4\xae\xe0\xa5\x8b\xe0\xa4\xa8\xe0\xa4\xbf\xe0\xa4\x95\xe0\xa4\xbe,n,f,sg,3,o,0_\xe0\xa4\x95\xe0\xa5\x8b,0'
p3826
sS'chunkid'
p3827
S'NP4'
p3828
sS'drel'
p3829
S'k4:\xe0\xa4\xa6\xe0\xa4\xbf\xe0\xa4\xaf\xe0\xa4\xbe'
p3830
sS'vpos'
p3831
S'vib_2'
p3832
sS'chunktype'
p3833
S'head:NP4'
p3834
ssbsg1533
I00
sg1536
I00
sg1547
Nsg1534
Nsg188
I5
sg175
I2
sg1853
Nsg1545
Nsg1854
S'NNP'
p3835
sg240
(issf_api
FeatureSet
p3836
(dp3837
g243
(dp3838
S'posn'
p3839
S'140'
p3840
sS'name'
p3841
S'\xe0\xa4\xae\xe0\xa5\x8b\xe0\xa4\xa8\xe0\xa4\xbf\xe0\xa4\x95\xe0\xa4\xbe'
p3842
sS'af'
p3843
S'\xe0\xa4\xae\xe0\xa5\x8b\xe0\xa4\xa8\xe0\xa4\xbf\xe0\xa4\x95\xe0\xa4\xbe,n,f,sg,3,o,0,0'
p3844
ssbsg1554
I00
sba(issf_api
Word
p3845
(dp3846
g1836
I00
sg1837
V\u0915\u094b
p3847
sg1839
(issf_api
FeatureSet
p3848
(dp3849
g243
(dp3850
S'posn'
p3851
S'150'
p3852
sS'name'
p3853
S'\xe0\xa4\x95\xe0\xa5\x8b2'
p3854
sS'drel'
p3855
S'lwg__psp:\xe0\xa4\xae\xe0\xa5\x8b\xe0\xa4\xa8\xe0\xa4\xbf\xe0\xa4\x95\xe0\xa4\xbe'
p3856
sS'chunktype'
p3857
S'child:NP4'
p3858
sS'af'
p3859
S'\xe0\xa4\x95\xe0\xa5\x8b,psp,,,,,,'
p3860
ssbsg1533
I00
sg1536
I00
sg1547
Nsg1534
Nsg188
I5
sg175
I2
sg1853
Nsg1545
Nsg1854
S'PSP'
p3861
sg240
(issf_api
FeatureSet
p3862
(dp3863
g243
(dp3864
S'posn'
p3865
S'150'
p3866
sS'name'
p3867
S'\xe0\xa4\x95\xe0\xa5\x8b2'
p3868
sS'af'
p3869
S'\xe0\xa4\x95\xe0\xa5\x8b,psp,,,,,,'
p3870
ssbsg1554
I00
sba(issf_api
Word
p3871
(dp3872
g1836
I00
sg1837
V\u0905\u0926\u093e\u0932\u0924
p3873
sg1839
(issf_api
FeatureSet
p3874
(dp3875
g243
(dp3876
S'posn'
p3877
S'160'
p3878
sS'name'
p3879
S'\xe0\xa4\x85\xe0\xa4\xa6\xe0\xa4\xbe\xe0\xa4\xb2\xe0\xa4\xa4'
p3880
sS'af'
p3881
S'\xe0\xa4\x85\xe0\xa4\xa6\xe0\xa4\xbe\xe0\xa4\xb2\xe0\xa4\xa4,n,f,sg,3,o,0_\xe0\xa4\xae\xe0\xa5\x87\xe0\xa4\x82,0'
p3882
sS'chunkid'
p3883
S'NP5'
p3884
sS'drel'
p3885
S'k7p:\xe0\xa4\x95\xe0\xa4\xb0\xe0\xa4\xa8\xe0\xa5\x87'
p3886
sS'vpos'
p3887
S'vib_2'
p3888
sS'chunktype'
p3889
S'head:NP5'
p3890
ssbsg1533
I00
sg1536
I00
sg1547
Nsg1534
Nsg188
I6
sg175
I2
sg1853
Nsg1545
Nsg1854
S'NN'
p3891
sg240
(issf_api
FeatureSet
p3892
(dp3893
g243
(dp3894
S'posn'
p3895
S'160'
p3896
sS'name'
p3897
S'\xe0\xa4\x85\xe0\xa4\xa6\xe0\xa4\xbe\xe0\xa4\xb2\xe0\xa4\xa4'
p3898
sS'af'
p3899
S'\xe0\xa4\x85\xe0\xa4\xa6\xe0\xa4\xbe\xe0\xa4\xb2\xe0\xa4\xa4,n,f,sg,3,o,0,0'
p3900
ssbsg1554
I00
sba(issf_api
Word
p3901
(dp3902
g1836
I00
sg1837
V\u092e\u0947\u0902
p3903
sg1839
(issf_api
FeatureSet
p3904
(dp3905
g243
(dp3906
S'posn'
p3907
S'170'
p3908
sS'name'
p3909
S'\xe0\xa4\xae\xe0\xa5\x87\xe0\xa4\x82'
p3910
sS'drel'
p3911
S'lwg__psp:\xe0\xa4\x85\xe0\xa4\xa6\xe0\xa4\xbe\xe0\xa4\xb2\xe0\xa4\xa4'
p3912
sS'chunktype'
p3913
S'child:NP5'
p3914
sS'af'
p3915
S'\xe0\xa4\xae\xe0\xa5\x87\xe0\xa4\x82,psp,,,,,,'
p3916
ssbsg1533
I00
sg1536
I00
sg1547
Nsg1534
Nsg188
I6
sg175
I2
sg1853
Nsg1545
Nsg1854
S'PSP'
p3917
sg240
(issf_api
FeatureSet
p3918
(dp3919
g243
(dp3920
S'posn'
p3921
S'170'
p3922
sS'name'
p3923
S'\xe0\xa4\xae\xe0\xa5\x87\xe0\xa4\x82'
p3924
sS'af'
p3925
S'\xe0\xa4\xae\xe0\xa5\x87\xe0\xa4\x82,psp,,,,,,'
p3926
ssbsg1554
I00
sba(issf_api
Word
p3927
(dp3928
g1836
I00
sg1837
V\u092a\u0947\u0936
p3929
sg1839
(issf_api
FeatureSet
p3930
(dp3931
g243
(dp3932
S'posn'
p3933
S'180'
p3934
sS'name'
p3935
S'\xe0\xa4\xaa\xe0\xa5\x87\xe0\xa4\xb6'
p3936
sS'af'
p3937
S'\xe0\xa4\xaa\xe0\xa5\x87\xe0\xa4\xb6,adj,any,any,,,,'
p3938
sS'chunkid'
p3939
S'JJP'
p3940
sS'drel'
p3941
S'pof:\xe0\xa4\x95\xe0\xa4\xb0\xe0\xa4\xa8\xe0\xa5\x87'
p3942
sS'chunktype'
p3943
S'head:JJP'
p3944
ssbsg1533
I00
sg1536
I00
sg1547
Nsg1534
Nsg188
I7
sg175
I2
sg1853
Nsg1545
Nsg1854
S'JJ'
p3945
sg240
(issf_api
FeatureSet
p3946
(dp3947
g243
(dp3948
S'posn'
p3949
S'180'
p3950
sS'name'
p3951
S'\xe0\xa4\xaa\xe0\xa5\x87\xe0\xa4\xb6'
p3952
sS'af'
p3953
S'\xe0\xa4\xaa\xe0\xa5\x87\xe0\xa4\xb6,adj,any,any,,,,'
p3954
ssbsg1554
I00
sba(issf_api
Word
p3955
(dp3956
g1836
I00
sg1837
V\u0915\u0930\u0928\u0947
p3957
sg1839
(issf_api
FeatureSet
p3958
(dp3959
g243
(dp3960
S'posn'
p3961
S'190'
p3962
sS'name'
p3963
S'\xe0\xa4\x95\xe0\xa4\xb0\xe0\xa4\xa8\xe0\xa5\x87'
p3964
sS'af'
p3965
S'\xe0\xa4\x95\xe0\xa4\xb0,v,any,sg,any,o,\xe0\xa4\xa8\xe0\xa4\xbe_\xe0\xa4\x95\xe0\xa4\xbe,nA'
p3966
sS'chunkid'
p3967
S'VGNN'
p3968
sS'drel'
p3969
S'r6:\xe0\xa4\x86\xe0\xa4\xa6\xe0\xa5\x87\xe0\xa4\xb6'
p3970
sS'vpos'
p3971
S'tam_2'
p3972
sS'chunktype'
p3973
S'head:VGNN'
p3974
ssbsg1533
I00
sg1536
I00
sg1547
Nsg1534
Nsg188
I8
sg175
I2
sg1853
Nsg1545
Nsg1854
S'VM'
p3975
sg240
(issf_api
FeatureSet
p3976
(dp3977
g243
(dp3978
S'posn'
p3979
S'190'
p3980
sS'name'
p3981
S'\xe0\xa4\x95\xe0\xa4\xb0\xe0\xa4\xa8\xe0\xa5\x87'
p3982
sS'af'
p3983
S'\xe0\xa4\x95\xe0\xa4\xb0,v,any,any,any,o,\xe0\xa4\xa8\xe0\xa4\xbe,nA'
p3984
ssbsg1554
I00
sba(issf_api
Word
p3985
(dp3986
g1836
I00
sg1837
V\u0915\u093e
p3987
sg1839
(issf_api
FeatureSet
p3988
(dp3989
g243
(dp3990
S'posn'
p3991
S'200'
p3992
sS'name'
p3993
S'\xe0\xa4\x95\xe0\xa4\xbe'
p3994
sS'drel'
p3995
S'lwg__psp:\xe0\xa4\x95\xe0\xa4\xb0\xe0\xa4\xa8\xe0\xa5\x87'
p3996
sS'chunktype'
p3997
S'child:VGNN'
p3998
sS'af'
p3999
S'\xe0\xa4\x95\xe0\xa4\xbe,psp,m,sg,,d,,'
p4000
ssbsg1533
I00
sg1536
I00
sg1547
Nsg1534
Nsg188
I8
sg175
I2
sg1853
Nsg1545
Nsg1854
S'PSP'
p4001
sg240
(issf_api
FeatureSet
p4002
(dp4003
g243
(dp4004
S'posn'
p4005
S'200'
p4006
sS'name'
p4007
S'\xe0\xa4\x95\xe0\xa4\xbe'
p4008
sS'af'
p4009
S'\xe0\xa4\x95\xe0\xa4\xbe,psp,m,sg,,d,,'
p4010
ssbsg1554
I00
sba(issf_api
Word
p4011
(dp4012
g1836
I00
sg1837
V\u0906\u0926\u0947\u0936
p4013
sg1839
(issf_api
FeatureSet
p4014
(dp4015
g243
(dp4016
S'posn'
p4017
S'210'
p4018
sS'name'
p4019
S'\xe0\xa4\x86\xe0\xa4\xa6\xe0\xa5\x87\xe0\xa4\xb6'
p4020
sS'af'
p4021
S'\xe0\xa4\x86\xe0\xa4\xa6\xe0\xa5\x87\xe0\xa4\xb6,n,m,sg,3,d,0,0'
p4022
sS'chunkid'
p4023
S'NP6'
p4024
sS'drel'
p4025
S'k2:\xe0\xa4\xa6\xe0\xa4\xbf\xe0\xa4\xaf\xe0\xa4\xbe'
p4026
sS'chunktype'
p4027
S'head:NP6'
p4028
ssbsg1533
I00
sg1536
I00
sg1547
Nsg1534
Nsg188
I9
sg175
I2
sg1853
Nsg1545
Nsg1854
S'NN'
p4029
sg240
(issf_api
FeatureSet
p4030
(dp4031
g243
(dp4032
S'posn'
p4033
S'210'
p4034
sS'name'
p4035
S'\xe0\xa4\x86\xe0\xa4\xa6\xe0\xa5\x87\xe0\xa4\xb6'
p4036
sS'af'
p4037
S'\xe0\xa4\x86\xe0\xa4\xa6\xe0\xa5\x87\xe0\xa4\xb6,n,m,sg,3,d,0,0'
p4038
ssbsg1554
I00
sba(issf_api
Word
p4039
(dp4040
g1836
I00
sg1837
V\u0926\u093f\u092f\u093e
p4041
sg1839
(issf_api
FeatureSet
p4042
(dp4043
g243
(dp4044
S'posn'
p4045
S'220'
p4046
sS'name'
p4047
S'\xe0\xa4\xa6\xe0\xa4\xbf\xe0\xa4\xaf\xe0\xa4\xbe'
p4048
sS'af'
p4049
S'\xe0\xa4\xa6\xe0\xa5\x87,v,m,sg,3,,\xe0\xa4\xaf\xe0\xa4\xbe_\xe0\xa4\xb9\xe0\xa5\x88,yA'
p4050
sS'chunkid'
p4051
S'VGF2'
p4052
sS'stype'
p4053
S'declarative'
p4054
sS'drel'
p4055
S'ccof:\xe0\xa4\x95\xe0\xa4\xbf'
p4056
sS'voicetype'
p4057
S'active'
p4058
sS'vpos'
p4059
S'tam_2'
p4060
sS'chunktype'
p4061
S'head:VGF2'
p4062
ssbsg1533
I00
sg1536
I00
sg1547
Nsg1534
Nsg188
I10
sg175
I2
sg1853
Nsg1545
Nsg1854
S'VM'
p4063
sg240
(issf_api
FeatureSet
p4064
(dp4065
g243
(dp4066
S'posn'
p4067
S'220'
p4068
sS'name'
p4069
S'\xe0\xa4\xa6\xe0\xa4\xbf\xe0\xa4\xaf\xe0\xa4\xbe'
p4070
sS'af'
p4071
S'\xe0\xa4\xa6\xe0\xa5\x87,v,m,sg,any,,\xe0\xa4\xaf\xe0\xa4\xbe,yA'
p4072
ssbsg1554
I00
sba(issf_api
Word
p4073
(dp4074
g1836
I00
sg1837
V\u0939\u0948
p4075
sg1839
(issf_api
FeatureSet
p4076
(dp4077
g243
(dp4078
S'posn'
p4079
S'230'
p4080
sS'name'
p4081
S'\xe0\xa4\xb9\xe0\xa5\x88'
p4082
sS'drel'
p4083
S'lwg__vaux:\xe0\xa4\xa6\xe0\xa4\xbf\xe0\xa4\xaf\xe0\xa4\xbe'
p4084
sS'chunktype'
p4085
S'child:VGF2'
p4086
sS'af'
p4087
S'\xe0\xa4\xb9\xe0\xa5\x88,v,any,sg,3,,\xe0\xa4\xb9\xe0\xa5\x88,hE'
p4088
ssbsg1533
I00
sg1536
I00
sg1547
Nsg1534
Nsg188
I10
sg175
I2
sg1853
Nsg1545
Nsg1854
S'VAUX'
p4089
sg240
(issf_api
FeatureSet
p4090
(dp4091
g243
(dp4092
S'posn'
p4093
S'230'
p4094
sS'name'
p4095
S'\xe0\xa4\xb9\xe0\xa5\x88'
p4096
sS'af'
p4097
S'\xe0\xa4\xb9\xe0\xa5\x88,v,any,sg,3,,\xe0\xa4\xb9\xe0\xa5\x88,hE'
p4098
ssbsg1554
I00
sba(issf_api
Word
p4099
(dp4100
g1836
I00
sg1837
V\u0964
sg1839
(issf_api
FeatureSet
p4101
(dp4102
g243
(dp4103
S'posn'
p4104
S'240'
p4105
sS'name'
p4106
S'\xe0\xa5\xa4'
p4107
sS'af'
p4108
S'\xe0\xa5\xa4,punc,,,,,,'
p4109
sS'chunkid'
p4110
S'BLK'
p4111
sS'drel'
p4112
S'rsym:\xe0\xa4\x95\xe0\xa4\xb9\xe0\xa4\xbe'
p4113
sS'chunktype'
p4114
S'head:BLK'
p4115
ssbsg1533
I00
sg1536
I00
sg1547
Nsg1534
Nsg188
I11
sg175
I2
sg1853
Nsg1545
Nsg1854
S'SYM'
p4116
sg240
(issf_api
FeatureSet
p4117
(dp4118
g243
(dp4119
S'posn'
p4120
S'240'
p4121
sS'name'
p4122
S'\xe0\xa5\xa4'
p4123
sS'af'
p4124
S'\xe0\xa5\xa4,punc,,,,,,'
p4125
ssbsg1554
I00
sba(issf_api
Word
p4126
(dp4127
g1836
I00
sg1837
V\u092e\u094b\u0928\u093f\u0915\u093e
p4128
sg1839
(issf_api
FeatureSet
p4129
(dp4130
g243
(dp4131
S'posn'
p4132
S'10'
p4133
sS'name'
p4134
S'\xe0\xa4\xae\xe0\xa5\x8b\xe0\xa4\xa8\xe0\xa4\xbf\xe0\xa4\x95\xe0\xa4\xbe'
p4135
sS'af'
p4136
S'\xe0\xa4\xae\xe0\xa5\x8b\xe0\xa4\xa8\xe0\xa4\xbf\xe0\xa4\x95\xe0\xa4\xbe,n,f,sg,3,o,0_\xe0\xa4\x95\xe0\xa5\x8b,0'
p4137
sS'chunkid'
p4138
S'NP'
p4139
sS'drel'
p4140
S'k2:\xe0\xa4\xb2\xe0\xa4\xbe\xe0\xa4\xaf\xe0\xa4\xbe'
p4141
sS'vpos'
p4142
S'vib_2'
p4143
sS'chunktype'
p4144
S'head:NP'
p4145
ssbsg1533
I00
sg1536
I00
sg1547
Nsg1534
Nsg188
I0
sg175
I3
sg1853
Nsg1545
Nsg1854
S'NNP'
p4146
sg240
(issf_api
FeatureSet
p4147
(dp4148
g243
(dp4149
S'posn'
p4150
S'10'
p4151
sS'name'
p4152
S'\xe0\xa4\xae\xe0\xa5\x8b\xe0\xa4\xa8\xe0\xa4\xbf\xe0\xa4\x95\xe0\xa4\xbe'
p4153
sS'af'
p4154
S'\xe0\xa4\xae\xe0\xa5\x8b\xe0\xa4\xa8\xe0\xa4\xbf\xe0\xa4\x95\xe0\xa4\xbe,n,f,sg,3,o,0,0'
p4155
ssbsg1554
I00
sba(issf_api
Word
p4156
(dp4157
g1836
I00
sg1837
V\u0915\u094b
p4158
sg1839
(issf_api
FeatureSet
p4159
(dp4160
g243
(dp4161
S'posn'
p4162
S'20'
p4163
sS'name'
p4164
S'\xe0\xa4\x95\xe0\xa5\x8b'
p4165
sS'drel'
p4166
S'lwg__psp:\xe0\xa4\xae\xe0\xa5\x8b\xe0\xa4\xa8\xe0\xa4\xbf\xe0\xa4\x95\xe0\xa4\xbe'
p4167
sS'chunktype'
p4168
S'child:NP'
p4169
sS'af'
p4170
S'\xe0\xa4\x95\xe0\xa5\x8b,psp,,,,,,'
p4171
ssbsg1533
I00
sg1536
I00
sg1547
Nsg1534
Nsg188
I0
sg175
I3
sg1853
Nsg1545
Nsg1854
S'PSP'
p4172
sg240
(issf_api
FeatureSet
p4173
(dp4174
g243
(dp4175
S'posn'
p4176
S'20'
p4177
sS'name'
p4178
S'\xe0\xa4\x95\xe0\xa5\x8b'
p4179
sS'af'
p4180
S'\xe0\xa4\x95\xe0\xa5\x8b,psp,,,,,,'
p4181
ssbsg1554
I00
sba(issf_api
Word
p4182
(dp4183
g1836
I00
sg1837
V\u0967\u0967
p4184
sg1839
(issf_api
FeatureSet
p4185
(dp4186
g243
(dp4187
S'posn'
p4188
S'30'
p4189
sS'name'
p4190
S'\xe0\xa5\xa7\xe0\xa5\xa7'
p4191
sS'drel'
p4192
S'pof__cn:\xe0\xa4\xa8\xe0\xa4\xb5\xe0\xa4\x82\xe0\xa4\xac\xe0\xa4\xb0'
p4193
sS'chunktype'
p4194
S'child:NP2'
p4195
sS'af'
p4196
S'\xe0\xa5\xa7\xe0\xa5\xa7,n,any,sg,3,d,0,0'
p4197
ssbsg1533
I00
sg1536
I00
sg1547
Nsg1534
Nsg188
I1
sg175
I3
sg1853
Nsg1545
Nsg1854
S'NNPC'
p4198
sg240
(issf_api
FeatureSet
p4199
(dp4200
g243
(dp4201
S'posn'
p4202
S'30'
p4203
sS'name'
p4204
S'\xe0\xa5\xa7\xe0\xa5\xa7'
p4205
sS'af'
p4206
S'\xe0\xa5\xa7\xe0\xa5\xa7,n,any,sg,3,d,0,0'
p4207
ssbsg1554
I00
sba(issf_api
Word
p4208
(dp4209
g1836
I00
sg1837
V\u0928\u0935\u0902\u092c\u0930
p4210
sg1839
(issf_api
FeatureSet
p4211
(dp4212
g243
(dp4213
S'posn'
p4214
S'40'
p4215
sS'name'
p4216
S'\xe0\xa4\xa8\xe0\xa4\xb5\xe0\xa4\x82\xe0\xa4\xac\xe0\xa4\xb0'
p4217
sS'af'
p4218
S'\xe0\xa4\xa8\xe0\xa4\xb5\xe0\xa4\x82\xe0\xa4\xac\xe0\xa4\xb0,n,m,sg,3,o,0_\xe0\xa4\x95\xe0\xa5\x8b,0'
p4219
sS'chunkid'
p4220
S'NP2'
p4221
sS'drel'
p4222
S'k7t:\xe0\xa4\xb2\xe0\xa4\xbe\xe0\xa4\xaf\xe0\xa4\xbe'
p4223
sS'vpos'
p4224
S'vib_3'
p4225
sS'chunktype'
p4226
S'head:NP2'
p4227
ssbsg1533
I00
sg1536
I00
sg1547
Nsg1534
Nsg188
I1
sg175
I3
sg1853
Nsg1545
Nsg1854
S'NNP'
p4228
sg240
(issf_api
FeatureSet
p4229
(dp4230
g243
(dp4231
S'posn'
p4232
S'40'
p4233
sS'name'
p4234
S'\xe0\xa4\xa8\xe0\xa4\xb5\xe0\xa4\x82\xe0\xa4\xac\xe0\xa4\xb0'
p4235
sS'af'
p4236
S'\xe0\xa4\xa8\xe0\xa4\xb5\xe0\xa4\x82\xe0\xa4\xac\xe0\xa4\xb0,n,m,sg,3,o,0,0'
p4237
ssbsg1554
I00
sba(issf_api
Word
p4238
(dp4239
g1836
I00
sg1837
V\u0915\u094b
p4240
sg1839
(issf_api
FeatureSet
p4241
(dp4242
g243
(dp4243
S'posn'
p4244
S'50'
p4245
sS'name'
p4246
S'\xe0\xa4\x95\xe0\xa5\x8b2'
p4247
sS'drel'
p4248
S'lwg__psp:\xe0\xa4\xa8\xe0\xa4\xb5\xe0\xa4\x82\xe0\xa4\xac\xe0\xa4\xb0'
p4249
sS'chunktype'
p4250
S'child:NP2'
p4251
sS'af'
p4252
S'\xe0\xa4\x95\xe0\xa5\x8b,psp,,,,,,'
p4253
ssbsg1533
I00
sg1536
I00
sg1547
Nsg1534
Nsg188
I1
sg175
I3
sg1853
Nsg1545
Nsg1854
S'PSP'
p4254
sg240
(issf_api
FeatureSet
p4255
(dp4256
g243
(dp4257
S'posn'
p4258
S'50'
p4259
sS'name'
p4260
S'\xe0\xa4\x95\xe0\xa5\x8b2'
p4261
sS'af'
p4262
S'\xe0\xa4\x95\xe0\xa5\x8b,psp,,,,,,'
p4263
ssbsg1554
I00
sba(issf_api
Word
p4264
(dp4265
g1836
I00
sg1837
V\u0905\u0902\u0921\u0930\u0935\u0930\u094d\u0932\u094d\u0921
p4266
sg1839
(issf_api
FeatureSet
p4267
(dp4268
g243
(dp4269
S'posn'
p4270
S'60'
p4271
sS'name'
p4272
S'\xe0\xa4\x85\xe0\xa4\x82\xe0\xa4\xa1\xe0\xa4\xb0\xe0\xa4\xb5\xe0\xa4\xb0\xe0\xa5\x8d\xe0\xa4\xb2\xe0\xa5\x8d\xe0\xa4\xa1'
p4273
sS'drel'
p4274
S'pof__cn:\xe0\xa4\xa1\xe0\xa5\x89\xe0\xa4\xa8'
p4275
sS'chunktype'
p4276
S'child:NP3'
p4277
sS'af'
p4278
S'\xe0\xa4\x85\xe0\xa4\x82\xe0\xa4\xa1\xe0\xa4\xb0\xe0\xa4\xb5\xe0\xa4\xb0\xe0\xa5\x8d\xe0\xa4\xb2\xe0\xa5\x8d\xe0\xa4\xa1,n,m,sg,3,d,0,0'
p4279
ssbsg1533
I00
sg1536
I00
sg1547
Nsg1534
Nsg188
I2
sg175
I3
sg1853
Nsg1545
Nsg1854
S'NNC'
p4280
sg240
(issf_api
FeatureSet
p4281
(dp4282
g243
(dp4283
S'posn'
p4284
S'60'
p4285
sS'name'
p4286
S'\xe0\xa4\x85\xe0\xa4\x82\xe0\xa4\xa1\xe0\xa4\xb0\xe0\xa4\xb5\xe0\xa4\xb0\xe0\xa5\x8d\xe0\xa4\xb2\xe0\xa5\x8d\xe0\xa4\xa1'
p4287
sS'af'
p4288
S'\xe0\xa4\x85\xe0\xa4\x82\xe0\xa4\xa1\xe0\xa4\xb0\xe0\xa4\xb5\xe0\xa4\xb0\xe0\xa5\x8d\xe0\xa4\xb2\xe0\xa5\x8d\xe0\xa4\xa1,n,m,sg,3,d,0,0'
p4289
ssbsg1554
I00
sba(issf_api
Word
p4290
(dp4291
g1836
I00
sg1837
V\u0921\u0949\u0928
p4292
sg1839
(issf_api
FeatureSet
p4293
(dp4294
g243
(dp4295
S'posn'
p4296
S'70'
p4297
sS'name'
p4298
S'\xe0\xa4\xa1\xe0\xa5\x89\xe0\xa4\xa8'
p4299
sS'drel'
p4300
S'nmod:\xe0\xa4\xb8\xe0\xa4\xb2\xe0\xa5\x87\xe0\xa4\xae'
p4301
sS'chunktype'
p4302
S'child:NP3'
p4303
sS'af'
p4304
S'\xe0\xa4\xa1\xe0\xa5\x89\xe0\xa4\xa8,n,m,sg,3,d,0,0'
p4305
ssbsg1533
I00
sg1536
I00
sg1547
Nsg1534
Nsg188
I2
sg175
I3
sg1853
Nsg1545
Nsg1854
S'NN'
p4306
sg240
(issf_api
FeatureSet
p4307
(dp4308
g243
(dp4309
S'posn'
p4310
S'70'
p4311
sS'name'
p4312
S'\xe0\xa4\xa1\xe0\xa5\x89\xe0\xa4\xa8'
p4313
sS'af'
p4314
S'\xe0\xa4\xa1\xe0\xa5\x89\xe0\xa4\xa8,n,m,sg,3,d,0,0'
p4315
ssbsg1554
I00
sba(issf_api
Word
p4316
(dp4317
g1836
I00
sg1837
V\u0905\u092c\u0942
p4318
sg1839
(issf_api
FeatureSet
p4319
(dp4320
g243
(dp4321
S'posn'
p4322
S'80'
p4323
sS'name'
p4324
S'\xe0\xa4\x85\xe0\xa4\xac\xe0\xa5\x82'
p4325
sS'drel'
p4326
S'pof__cn:\xe0\xa4\xb8\xe0\xa4\xb2\xe0\xa5\x87\xe0\xa4\xae'
p4327
sS'chunktype'
p4328
S'child:NP3'
p4329
sS'af'
p4330
S'\xe0\xa4\x85\xe0\xa4\xac\xe0\xa5\x82,n,m,sg,3,d,0,0'
p4331
ssbsg1533
I00
sg1536
I00
sg1547
Nsg1534
Nsg188
I2
sg175
I3
sg1853
Nsg1545
Nsg1854
S'NNPC'
p4332
sg240
(issf_api
FeatureSet
p4333
(dp4334
g243
(dp4335
S'posn'
p4336
S'80'
p4337
sS'name'
p4338
S'\xe0\xa4\x85\xe0\xa4\xac\xe0\xa5\x82'
p4339
sS'af'
p4340
S'\xe0\xa4\x85\xe0\xa4\xac\xe0\xa5\x82,n,m,sg,3,d,0,0'
p4341
ssbsg1554
I00
sba(issf_api
Word
p4342
(dp4343
g1836
I00
sg1837
V\u0938\u0932\u0947\u092e
p4344
sg1839
(issf_api
FeatureSet
p4345
(dp4346
g243
(dp4347
S'posn'
p4348
S'90'
p4349
sS'name'
p4350
S'\xe0\xa4\xb8\xe0\xa4\xb2\xe0\xa5\x87\xe0\xa4\xae'
p4351
sS'af'
p4352
S'\xe0\xa4\xb8\xe0\xa4\xb2\xe0\xa5\x87\xe0\xa4\xae,n,m,sg,3,o,0_\xe0\xa4\x95\xe0\xa5\x87_\xe0\xa4\xb8\xe0\xa4\xbe\xe0\xa4\xa5,0'
p4353
sS'chunkid'
p4354
S'NP3'
p4355
sS'drel'
p4356
S'ras-k1:\xe0\xa4\xb2\xe0\xa4\xbe\xe0\xa4\xaf\xe0\xa4\xbe'
p4357
sS'vpos'
p4358
S'vib_vib_5_6'
p4359
sS'chunktype'
p4360
S'head:NP3'
p4361
ssbsg1533
I00
sg1536
I00
sg1547
Nsg1534
Nsg188
I2
sg175
I3
sg1853
Nsg1545
Nsg1854
S'NNP'
p4362
sg240
(issf_api
FeatureSet
p4363
(dp4364
g243
(dp4365
S'posn'
p4366
S'90'
p4367
sS'name'
p4368
S'\xe0\xa4\xb8\xe0\xa4\xb2\xe0\xa5\x87\xe0\xa4\xae'
p4369
sS'af'
p4370
S'\xe0\xa4\xb8\xe0\xa4\xb2\xe0\xa5\x87\xe0\xa4\xae,n,m,sg,3,o,0,0'
p4371
ssbsg1554
I00
sba(issf_api
Word
p4372
(dp4373
g1836
I00
sg1837
V\u0915\u0947
p4374
sg1839
(issf_api
FeatureSet
p4375
(dp4376
g243
(dp4377
S'posn'
p4378
S'100'
p4379
sS'name'
p4380
S'\xe0\xa4\x95\xe0\xa5\x87'
p4381
sS'drel'
p4382
S'lwg__psp:\xe0\xa4\xb8\xe0\xa4\xb2\xe0\xa5\x87\xe0\xa4\xae'
p4383
sS'chunktype'
p4384
S'child:NP3'
p4385
sS'af'
p4386
S'\xe0\xa4\x95\xe0\xa5\x87,psp,,,,,,'
p4387
ssbsg1533
I00
sg1536
I00
sg1547
Nsg1534
Nsg188
I2
sg175
I3
sg1853
Nsg1545
Nsg1854
S'PSP'
p4388
sg240
(issf_api
FeatureSet
p4389
(dp4390
g243
(dp4391
S'posn'
p4392
S'100'
p4393
sS'name'
p4394
S'\xe0\xa4\x95\xe0\xa5\x87'
p4395
sS'af'
p4396
S'\xe0\xa4\x95\xe0\xa5\x87,psp,,,,,,'
p4397
ssbsg1554
I00
sba(issf_api
Word
p4398
(dp4399
g1836
I00
sg1837
V\u0938\u093e\u0925
p4400
sg1839
(issf_api
FeatureSet
p4401
(dp4402
g243
(dp4403
S'posn'
p4404
S'110'
p4405
sS'name'
p4406
S'\xe0\xa4\xb8\xe0\xa4\xbe\xe0\xa4\xa5'
p4407
sS'drel'
p4408
S'lwg__psp:\xe0\xa4\xb8\xe0\xa4\xb2\xe0\xa5\x87\xe0\xa4\xae'
p4409
sS'chunktype'
p4410
S'child:NP3'
p4411
sS'af'
p4412
S'\xe0\xa4\xb8\xe0\xa4\xbe\xe0\xa4\xa5,nst,m,sg,3,d,,'
p4413
ssbsg1533
I00
sg1536
I00
sg1547
Nsg1534
Nsg188
I2
sg175
I3
sg1853
Nsg1545
Nsg1854
S'NST'
p4414
sg240
(issf_api
FeatureSet
p4415
(dp4416
g243
(dp4417
S'posn'
p4418
S'110'
p4419
sS'name'
p4420
S'\xe0\xa4\xb8\xe0\xa4\xbe\xe0\xa4\xa5'
p4421
sS'af'
p4422
S'\xe0\xa4\xb8\xe0\xa4\xbe\xe0\xa4\xa5,nst,m,sg,3,d,,'
p4423
ssbsg1554
I00
sba(issf_api
Word
p4424
(dp4425
g1836
I00
sg1837
V\u092a\u0941\u0930\u094d\u0924\u0917\u093e\u0932
p4426
sg1839
(issf_api
FeatureSet
p4427
(dp4428
g243
(dp4429
S'posn'
p4430
S'120'
p4431
sS'name'
p4432
S'\xe0\xa4\xaa\xe0\xa5\x81\xe0\xa4\xb0\xe0\xa5\x8d\xe0\xa4\xa4\xe0\xa4\x97\xe0\xa4\xbe\xe0\xa4\xb2'
p4433
sS'af'
p4434
S'\xe0\xa4\xaa\xe0\xa5\x81\xe0\xa4\xb0\xe0\xa5\x8d\xe0\xa4\xa4\xe0\xa4\x97\xe0\xa4\xbe\xe0\xa4\xb2,n,m,sg,3,o,0_\xe0\xa4\xb8\xe0\xa5\x87,0'
p4435
sS'chunkid'
p4436
S'NP4'
p4437
sS'drel'
p4438
S'k5:\xe0\xa4\x95\xe0\xa4\xb0'
p4439
sS'vpos'
p4440
S'vib_2'
p4441
sS'chunktype'
p4442
S'head:NP4'
p4443
ssbsg1533
I00
sg1536
I00
sg1547
Nsg1534
Nsg188
I3
sg175
I3
sg1853
Nsg1545
Nsg1854
S'NNP'
p4444
sg240
(issf_api
FeatureSet
p4445
(dp4446
g243
(dp4447
S'posn'
p4448
S'120'
p4449
sS'name'
p4450
S'\xe0\xa4\xaa\xe0\xa5\x81\xe0\xa4\xb0\xe0\xa5\x8d\xe0\xa4\xa4\xe0\xa4\x97\xe0\xa4\xbe\xe0\xa4\xb2'
p4451
sS'af'
p4452
S'\xe0\xa4\xaa\xe0\xa5\x81\xe0\xa4\xb0\xe0\xa5\x8d\xe0\xa4\xa4\xe0\xa4\x97\xe0\xa4\xbe\xe0\xa4\xb2,n,m,sg,3,o,0,0'
p4453
ssbsg1554
I00
sba(issf_api
Word
p4454
(dp4455
g1836
I00
sg1837
V\u0938\u0947
p4456
sg1839
(issf_api
FeatureSet
p4457
(dp4458
g243
(dp4459
S'posn'
p4460
S'130'
p4461
sS'name'
p4462
S'\xe0\xa4\xb8\xe0\xa5\x87'
p4463
sS'drel'
p4464
S'lwg__psp:\xe0\xa4\xaa\xe0\xa5\x81\xe0\xa4\xb0\xe0\xa5\x8d\xe0\xa4\xa4\xe0\xa4\x97\xe0\xa4\xbe\xe0\xa4\xb2'
p4465
sS'chunktype'
p4466
S'child:NP4'
p4467
sS'af'
p4468
S'\xe0\xa4\xb8\xe0\xa5\x87,psp,,,,,,'
p4469
ssbsg1533
I00
sg1536
I00
sg1547
Nsg1534
Nsg188
I3
sg175
I3
sg1853
Nsg1545
Nsg1854
S'PSP'
p4470
sg240
(issf_api
FeatureSet
p4471
(dp4472
g243
(dp4473
S'posn'
p4474
S'130'
p4475
sS'name'
p4476
S'\xe0\xa4\xb8\xe0\xa5\x87'
p4477
sS'af'
p4478
S'\xe0\xa4\xb8\xe0\xa5\x87,psp,,,,,,'
p4479
ssbsg1554
I00
sba(issf_api
Word
p4480
(dp4481
g1836
I00
sg1837
V\u092a\u094d\u0930\u0924\u094d\u092f\u0930\u094d\u092a\u093f\u0924
p4482
sg1839
(issf_api
FeatureSet
p4483
(dp4484
g243
(dp4485
S'posn'
p4486
S'140'
p4487
sS'name'
p4488
S'\xe0\xa4\xaa\xe0\xa5\x8d\xe0\xa4\xb0\xe0\xa4\xa4\xe0\xa5\x8d\xe0\xa4\xaf\xe0\xa4\xb0\xe0\xa5\x8d\xe0\xa4\xaa\xe0\xa4\xbf\xe0\xa4\xa4'
p4489
sS'af'
p4490
S'\xe0\xa4\xaa\xe0\xa5\x8d\xe0\xa4\xb0\xe0\xa4\xa4\xe0\xa5\x8d\xe0\xa4\xaf\xe0\xa4\xb0\xe0\xa5\x8d\xe0\xa4\xaa\xe0\xa4\xbf\xe0\xa4\xa4,adj,any,any,,,,'
p4491
sS'chunkid'
p4492
S'JJP'
p4493
sS'drel'
p4494
S'pof:\xe0\xa4\x95\xe0\xa4\xb0'
p4495
sS'chunktype'
p4496
S'head:JJP'
p4497
ssbsg1533
I00
sg1536
I00
sg1547
Nsg1534
Nsg188
I4
sg175
I3
sg1853
Nsg1545
Nsg1854
S'JJ'
p4498
sg240
(issf_api
FeatureSet
p4499
(dp4500
g243
(dp4501
S'posn'
p4502
S'140'
p4503
sS'name'
p4504
S'\xe0\xa4\xaa\xe0\xa5\x8d\xe0\xa4\xb0\xe0\xa4\xa4\xe0\xa5\x8d\xe0\xa4\xaf\xe0\xa4\xb0\xe0\xa5\x8d\xe0\xa4\xaa\xe0\xa4\xbf\xe0\xa4\xa4'
p4505
sS'af'
p4506
S'\xe0\xa4\xaa\xe0\xa5\x8d\xe0\xa4\xb0\xe0\xa4\xa4\xe0\xa5\x8d\xe0\xa4\xaf\xe0\xa4\xb0\xe0\xa5\x8d\xe0\xa4\xaa\xe0\xa4\xbf\xe0\xa4\xa4,adj,any,any,,,,'
p4507
ssbsg1554
I00
sba(issf_api
Word
p4508
(dp4509
g1836
I00
sg1837
V\u0915\u0930
p4510
sg1839
(issf_api
FeatureSet
p4511
(dp4512
g243
(dp4513
S'posn'
p4514
S'150'
p4515
sS'name'
p4516
S'\xe0\xa4\x95\xe0\xa4\xb0'
p4517
sS'af'
p4518
S'\xe0\xa4\x95\xe0\xa4\xb0,v,any,any,any,,0,0'
p4519
sS'chunkid'
p4520
S'VGNF'
p4521
sS'drel'
p4522
S'vmod:\xe0\xa4\xb2\xe0\xa4\xbe\xe0\xa4\xaf\xe0\xa4\xbe'
p4523
sS'chunktype'
p4524
S'head:VGNF'
p4525
ssbsg1533
I00
sg1536
I00
sg1547
Nsg1534
Nsg188
I5
sg175
I3
sg1853
Nsg1545
Nsg1854
S'VM'
p4526
sg240
(issf_api
FeatureSet
p4527
(dp4528
g243
(dp4529
S'posn'
p4530
S'150'
p4531
sS'name'
p4532
S'\xe0\xa4\x95\xe0\xa4\xb0'
p4533
sS'af'
p4534
S'\xe0\xa4\x95\xe0\xa4\xb0,v,any,any,any,,0,0'
p4535
ssbsg1554
I00
sba(issf_api
Word
p4536
(dp4537
g1836
I00
sg1837
V\u092e\u0941\u0902\u092c\u0908
p4538
sg1839
(issf_api
FeatureSet
p4539
(dp4540
g243
(dp4541
S'posn'
p4542
S'160'
p4543
sS'name'
p4544
S'\xe0\xa4\xae\xe0\xa5\x81\xe0\xa4\x82\xe0\xa4\xac\xe0\xa4\x88'
p4545
sS'af'
p4546
S'\xe0\xa4\xae\xe0\xa5\x81\xe0\xa4\x82\xe0\xa4\xac\xe0\xa4\x88,n,f,sg,3,d,0,0'
p4547
sS'chunkid'
p4548
S'NP5'
p4549
sS'drel'
p4550
S'k2p:\xe0\xa4\xb2\xe0\xa4\xbe\xe0\xa4\xaf\xe0\xa4\xbe'
p4551
sS'chunktype'
p4552
S'head:NP5'
p4553
ssbsg1533
I00
sg1536
I00
sg1547
Nsg1534
Nsg188
I6
sg175
I3
sg1853
Nsg1545
Nsg1854
S'NNP'
p4554
sg240
(issf_api
FeatureSet
p4555
(dp4556
g243
(dp4557
S'posn'
p4558
S'160'
p4559
sS'name'
p4560
S'\xe0\xa4\xae\xe0\xa5\x81\xe0\xa4\x82\xe0\xa4\xac\xe0\xa4\x88'
p4561
sS'af'
p4562
S'\xe0\xa4\xae\xe0\xa5\x81\xe0\xa4\x82\xe0\xa4\xac\xe0\xa4\x88,n,f,sg,3,d,0,0'
p4563
ssbsg1554
I00
sba(issf_api
Word
p4564
(dp4565
g1836
I00
sg1837
V\u0932\u093e\u092f\u093e
p4566
sg1839
(issf_api
FeatureSet
p4567
(dp4568
g243
(dp4569
S'posn'
p4570
S'170'
p4571
sS'name'
p4572
S'\xe0\xa4\xb2\xe0\xa4\xbe\xe0\xa4\xaf\xe0\xa4\xbe'
p4573
sS'af'
p4574
S'\xe0\xa4\xb2\xe0\xa4\xbe,v,m,sg,any,,\xe0\xa4\xaf\xe0\xa4\xbe_\xe0\xa4\x9c\xe0\xa4\xbe+\xe0\xa4\xaf\xe0\xa4\xbe\xe0\xa5\xa7_\xe0\xa4\xa5\xe0\xa4\xbe,yA'
p4575
sS'chunkid'
p4576
S'VGF'
p4577
sS'chunktype'
p4578
S'head:VGF'
p4579
sS'voicetype'
p4580
S'active'
p4581
sS'vpos'
p4582
S'tam_2_3'
p4583
sS'stype'
p4584
S'declarative'
p4585
ssbsg1533
I00
sg1536
I00
sg1547
Nsg1534
Nsg188
I7
sg175
I3
sg1853
Nsg1545
Nsg1854
S'VM'
p4586
sg240
(issf_api
FeatureSet
p4587
(dp4588
g243
(dp4589
S'posn'
p4590
S'170'
p4591
sS'name'
p4592
S'\xe0\xa4\xb2\xe0\xa4\xbe\xe0\xa4\xaf\xe0\xa4\xbe'
p4593
sS'af'
p4594
S'\xe0\xa4\xb2\xe0\xa4\xbe,v,m,sg,any,,\xe0\xa4\xaf\xe0\xa4\xbe,yA'
p4595
ssbsg1554
I00
sba(issf_api
Word
p4596
(dp4597
g1836
I00
sg1837
V\u0917\u092f\u093e
p4598
sg1839
(issf_api
FeatureSet
p4599
(dp4600
g243
(dp4601
S'posn'
p4602
S'180'
p4603
sS'name'
p4604
S'\xe0\xa4\x97\xe0\xa4\xaf\xe0\xa4\xbe'
p4605
sS'drel'
p4606
S'lwg__vaux:\xe0\xa4\xb2\xe0\xa4\xbe\xe0\xa4\xaf\xe0\xa4\xbe'
p4607
sS'chunktype'
p4608
S'child:VGF'
p4609
sS'af'
p4610
S'\xe0\xa4\x9c\xe0\xa4\xbe,v,m,sg,any,,\xe0\xa4\xaf\xe0\xa4\xbe\xe0\xa5\xa7,yA1'
p4611
ssbsg1533
I00
sg1536
I00
sg1547
Nsg1534
Nsg188
I7
sg175
I3
sg1853
Nsg1545
Nsg1854
S'VAUX'
p4612
sg240
(issf_api
FeatureSet
p4613
(dp4614
g243
(dp4615
S'posn'
p4616
S'180'
p4617
sS'name'
p4618
S'\xe0\xa4\x97\xe0\xa4\xaf\xe0\xa4\xbe'
p4619
sS'af'
p4620
S'\xe0\xa4\x9c\xe0\xa4\xbe,v,m,sg,any,,\xe0\xa4\xaf\xe0\xa4\xbe\xe0\xa5\xa7,yA1'
p4621
ssbsg1554
I00
sba(issf_api
Word
p4622
(dp4623
g1836
I00
sg1837
V\u0925\u093e
p4624
sg1839
(issf_api
FeatureSet
p4625
(dp4626
g243
(dp4627
S'posn'
p4628
S'190'
p4629
sS'name'
p4630
S'\xe0\xa4\xa5\xe0\xa4\xbe'
p4631
sS'drel'
p4632
S'lwg__vaux:\xe0\xa4\xb2\xe0\xa4\xbe\xe0\xa4\xaf\xe0\xa4\xbe'
p4633
sS'chunktype'
p4634
S'child:VGF'
p4635
sS'af'
p4636
S'\xe0\xa4\xa5\xe0\xa4\xbe,v,m,sg,any,,\xe0\xa4\xa5\xe0\xa4\xbe,WA'
p4637
ssbsg1533
I00
sg1536
I00
sg1547
Nsg1534
Nsg188
I7
sg175
I3
sg1853
Nsg1545
Nsg1854
S'VAUX'
p4638
sg240
(issf_api
FeatureSet
p4639
(dp4640
g243
(dp4641
S'posn'
p4642
S'190'
p4643
sS'name'
p4644
S'\xe0\xa4\xa5\xe0\xa4\xbe'
p4645
sS'af'
p4646
S'\xe0\xa4\xa5\xe0\xa4\xbe,v,m,sg,any,,\xe0\xa4\xa5\xe0\xa4\xbe,WA'
p4647
ssbsg1554
I00
sba(issf_api
Word
p4648
(dp4649
g1836
I00
sg1837
V\u0964
sg1839
(issf_api
FeatureSet
p4650
(dp4651
g243
(dp4652
S'posn'
p4653
S'200'
p4654
sS'name'
p4655
S'\xe0\xa5\xa4'
p4656
sS'af'
p4657
S'\xe0\xa5\xa4,punc,,,,,,'
p4658
sS'chunkid'
p4659
S'BLK'
p4660
sS'drel'
p4661
S'rsym:\xe0\xa4\xb2\xe0\xa4\xbe\xe0\xa4\xaf\xe0\xa4\xbe'
p4662
sS'chunktype'
p4663
S'head:BLK'
p4664
ssbsg1533
I00
sg1536
I00
sg1547
Nsg1534
Nsg188
I8
sg175
I3
sg1853
Nsg1545
Nsg1854
S'SYM'
p4665
sg240
(issf_api
FeatureSet
p4666
(dp4667
g243
(dp4668
S'posn'
p4669
S'200'
p4670
sS'name'
p4671
S'\xe0\xa5\xa4'
p4672
sS'af'
p4673
S'\xe0\xa5\xa4,punc,,,,,,'
p4674
ssbsg1554
I00
sba(issf_api
Word
p4675
(dp4676
g1836
I00
sg1837
V\u092e\u094b\u0928\u093f\u0915\u093e
p4677
sg1839
(issf_api
FeatureSet
p4678
(dp4679
g243
(dp4680
S'posn'
p4681
S'10'
p4682
sS'name'
p4683
S'\xe0\xa4\xae\xe0\xa5\x8b\xe0\xa4\xa8\xe0\xa4\xbf\xe0\xa4\x95\xe0\xa4\xbe'
p4684
sS'af'
p4685
S'\xe0\xa4\xae\xe0\xa5\x8b\xe0\xa4\xa8\xe0\xa4\xbf\xe0\xa4\x95\xe0\xa4\xbe,n,f,sg,3,o,0_\xe0\xa4\xaa\xe0\xa4\xb0,0'
p4686
sS'chunkid'
p4687
S'NP'
p4688
sS'drel'
p4689
S'k7:\xe0\xa4\xb9\xe0\xa5\x88'
p4690
sS'vpos'
p4691
S'vib_2'
p4692
sS'chunktype'
p4693
S'head:NP'
p4694
ssbsg1533
I00
sg1536
I00
sg1547
Nsg1534
Nsg188
I0
sg175
I4
sg1853
Nsg1545
Nsg1854
S'NNP'
p4695
sg240
(issf_api
FeatureSet
p4696
(dp4697
g243
(dp4698
S'posn'
p4699
S'10'
p4700
sS'name'
p4701
S'\xe0\xa4\xae\xe0\xa5\x8b\xe0\xa4\xa8\xe0\xa4\xbf\xe0\xa4\x95\xe0\xa4\xbe'
p4702
sS'af'
p4703
S'\xe0\xa4\xae\xe0\xa5\x8b\xe0\xa4\xa8\xe0\xa4\xbf\xe0\xa4\x95\xe0\xa4\xbe,n,f,sg,3,o,0,0'
p4704
ssbsg1554
I00
sba(issf_api
Word
p4705
(dp4706
g1836
I00
sg1837
V\u092a\u0930
p4707
sg1839
(issf_api
FeatureSet
p4708
(dp4709
g243
(dp4710
S'posn'
p4711
S'20'
p4712
sS'name'
p4713
S'\xe0\xa4\xaa\xe0\xa4\xb0'
p4714
sS'drel'
p4715
S'lwg__psp:\xe0\xa4\xae\xe0\xa5\x8b\xe0\xa4\xa8\xe0\xa4\xbf\xe0\xa4\x95\xe0\xa4\xbe'
p4716
sS'chunktype'
p4717
S'child:NP'
p4718
sS'af'
p4719
S'\xe0\xa4\xaa\xe0\xa4\xb0,psp,,,,,,'
p4720
ssbsg1533
I00
sg1536
I00
sg1547
Nsg1534
Nsg188
I0
sg175
I4
sg1853
Nsg1545
Nsg1854
S'PSP'
p4721
sg240
(issf_api
FeatureSet
p4722
(dp4723
g243
(dp4724
S'posn'
p4725
S'20'
p4726
sS'name'
p4727
S'\xe0\xa4\xaa\xe0\xa4\xb0'
p4728
sS'af'
p4729
S'\xe0\xa4\xaa\xe0\xa4\xb0,psp,,,,,,'
p4730
ssbsg1554
I00
sba(issf_api
Word
p4731
(dp4732
g1836
I00
sg1837
V\u092d\u094b\u092a\u093e\u0932
p4733
sg1839
(issf_api
FeatureSet
p4734
(dp4735
g243
(dp4736
S'posn'
p4737
S'30'
p4738
sS'name'
p4739
S'\xe0\xa4\xad\xe0\xa5\x8b\xe0\xa4\xaa\xe0\xa4\xbe\xe0\xa4\xb2'
p4740
sS'af'
p4741
S'\xe0\xa4\xad\xe0\xa5\x8b\xe0\xa4\xaa\xe0\xa4\xbe\xe0\xa4\xb2,n,m,sg,3,o,0_\xe0\xa4\xb8\xe0\xa5\x87,0'
p4742
sS'chunkid'
p4743
S'NP2'
p4744
sS'drel'
p4745
S'k5:\xe0\xa4\x95\xe0\xa4\xb0\xe0\xa4\xb5\xe0\xa4\xbe\xe0\xa4\xa8\xe0\xa5\x87'
p4746
sS'vpos'
p4747
S'vib_2'
p4748
sS'chunktype'
p4749
S'head:NP2'
p4750
ssbsg1533
I00
sg1536
I00
sg1547
Nsg1534
Nsg188
I1
sg175
I4
sg1853
Nsg1545
Nsg1854
S'NNP'
p4751
sg240
(issf_api
FeatureSet
p4752
(dp4753
g243
(dp4754
S'posn'
p4755
S'30'
p4756
sS'name'
p4757
S'\xe0\xa4\xad\xe0\xa5\x8b\xe0\xa4\xaa\xe0\xa4\xbe\xe0\xa4\xb2'
p4758
sS'af'
p4759
S'\xe0\xa4\xad\xe0\xa5\x8b\xe0\xa4\xaa\xe0\xa4\xbe\xe0\xa4\xb2,n,m,sg,3,o,0,0'
p4760
ssbsg1554
I00
sba(issf_api
Word
p4761
(dp4762
g1836
I00
sg1837
V\u0938\u0947
p4763
sg1839
(issf_api
FeatureSet
p4764
(dp4765
g243
(dp4766
S'posn'
p4767
S'40'
p4768
sS'name'
p4769
S'\xe0\xa4\xb8\xe0\xa5\x87'
p4770
sS'drel'
p4771
S'lwg__psp:\xe0\xa4\xad\xe0\xa5\x8b\xe0\xa4\xaa\xe0\xa4\xbe\xe0\xa4\xb2'
p4772
sS'chunktype'
p4773
S'child:NP2'
p4774
sS'af'
p4775
S'\xe0\xa4\xb8\xe0\xa5\x87,psp,,,,,,'
p4776
ssbsg1533
I00
sg1536
I00
sg1547
Nsg1534
Nsg188
I1
sg175
I4
sg1853
Nsg1545
Nsg1854
S'PSP'
p4777
sg240
(issf_api
FeatureSet
p4778
(dp4779
g243
(dp4780
S'posn'
p4781
S'40'
p4782
sS'name'
p4783
S'\xe0\xa4\xb8\xe0\xa5\x87'
p4784
sS'af'
p4785
S'\xe0\xa4\xb8\xe0\xa5\x87,psp,,,,,,'
p4786
ssbsg1554
I00
sba(issf_api
Word
p4787
(dp4788
g1836
I00
sg1837
V\u0968\u0966\u0966\u0967
p4789
sg1839
(issf_api
FeatureSet
p4790
(dp4791
g243
(dp4792
S'posn'
p4793
S'50'
p4794
sS'name'
p4795
S'\xe0\xa5\xa8\xe0\xa5\xa6\xe0\xa5\xa6\xe0\xa5\xa7'
p4796
sS'af'
p4797
S'\xe0\xa5\xa8\xe0\xa5\xa6\xe0\xa5\xa6\xe0\xa5\xa7,n,any,sg,3,o,0_\xe0\xa4\xae\xe0\xa5\x87\xe0\xa4\x82,0'
p4798
sS'chunkid'
p4799
S'NP3'
p4800
sS'drel'
p4801
S'k7t:\xe0\xa4\xb9\xe0\xa5\x88'
p4802
sS'vpos'
p4803
S'vib_2'
p4804
sS'chunktype'
p4805
S'head:NP3'
p4806
ssbsg1533
I00
sg1536
I00
sg1547
Nsg1534
Nsg188
I2
sg175
I4
sg1853
Nsg1545
Nsg1854
S'NNP'
p4807
sg240
(issf_api
FeatureSet
p4808
(dp4809
g243
(dp4810
S'posn'
p4811
S'50'
p4812
sS'name'
p4813
S'\xe0\xa5\xa8\xe0\xa5\xa6\xe0\xa5\xa6\xe0\xa5\xa7'
p4814
sS'af'
p4815
S'\xe0\xa5\xa8\xe0\xa5\xa6\xe0\xa5\xa6\xe0\xa5\xa7,n,any,sg,3,o,0,0'
p4816
ssbsg1554
I00
sba(issf_api
Word
p4817
(dp4818
g1836
I00
sg1837
V\u092e\u0947\u0902
p4819
sg1839
(issf_api
FeatureSet
p4820
(dp4821
g243
(dp4822
S'posn'
p4823
S'60'
p4824
sS'name'
p4825
S'\xe0\xa4\xae\xe0\xa5\x87\xe0\xa4\x82'
p4826
sS'drel'
p4827
S'lwg__psp:\xe0\xa5\xa8\xe0\xa5\xa6\xe0\xa5\xa6\xe0\xa5\xa7'
p4828
sS'chunktype'
p4829
S'child:NP3'
p4830
sS'af'
p4831
S'\xe0\xa4\xae\xe0\xa5\x87\xe0\xa4\x82,psp,,,,,,'
p4832
ssbsg1533
I00
sg1536
I00
sg1547
Nsg1534
Nsg188
I2
sg175
I4
sg1853
Nsg1545
Nsg1854
S'PSP'
p4833
sg240
(issf_api
FeatureSet
p4834
(dp4835
g243
(dp4836
S'posn'
p4837
S'60'
p4838
sS'name'
p4839
S'\xe0\xa4\xae\xe0\xa5\x87\xe0\xa4\x82'
p4840
sS'af'
p4841
S'\xe0\xa4\xae\xe0\xa5\x87\xe0\xa4\x82,psp,,,,,,'
p4842
ssbsg1554
I00
sba(issf_api
Word
p4843
(dp4844
g1836
I00
sg1837
V\u092b\u0930\u094d\u091c\u0940
p4845
sg1839
(issf_api
FeatureSet
p4846
(dp4847
g243
(dp4848
S'posn'
p4849
S'70'
p4850
sS'name'
p4851
S'\xe0\xa4\xab\xe0\xa4\xb0\xe0\xa5\x8d\xe0\xa4\x9c\xe0\xa5\x80'
p4852
sS'drel'
p4853
S'nmod__adj:\xe0\xa4\xaa\xe0\xa4\xbe\xe0\xa4\xb8\xe0\xa4\xaa\xe0\xa5\x8b\xe0\xa4\xb0\xe0\xa5\x8d\xe0\xa4\x9f'
p4854
sS'chunktype'
p4855
S'child:NP4'
p4856
sS'af'
p4857
S'\xe0\xa4\xab\xe0\xa4\xb0\xe0\xa5\x8d\xe0\xa4\x9c\xe0\xa5\x80,adj,any,any,,d,,'
p4858
ssbsg1533
I00
sg1536
I00
sg1547
Nsg1534
Nsg188
I3
sg175
I4
sg1853
Nsg1545
Nsg1854
S'JJ'
p4859
sg240
(issf_api
FeatureSet
p4860
(dp4861
g243
(dp4862
S'posn'
p4863
S'70'
p4864
sS'name'
p4865
S'\xe0\xa4\xab\xe0\xa4\xb0\xe0\xa5\x8d\xe0\xa4\x9c\xe0\xa5\x80'
p4866
sS'af'
p4867
S'\xe0\xa4\xab\xe0\xa4\xb0\xe0\xa5\x8d\xe0\xa4\x9c\xe0\xa5\x80,adj,any,any,,d,,'
p4868
ssbsg1554
I00
sba(issf_api
Word
p4869
(dp4870
g1836
I00
sg1837
V\u092a\u093e\u0938\u092a\u094b\u0930\u094d\u091f
p4871
sg1839
(issf_api
FeatureSet
p4872
(dp4873
g243
(dp4874
S'posn'
p4875
S'80'
p4876
sS'name'
p4877
S'\xe0\xa4\xaa\xe0\xa4\xbe\xe0\xa4\xb8\xe0\xa4\xaa\xe0\xa5\x8b\xe0\xa4\xb0\xe0\xa5\x8d\xe0\xa4\x9f'
p4878
sS'af'
p4879
S'\xe0\xa4\xaa\xe0\xa4\xbe\xe0\xa4\xb8\xe0\xa4\xaa\xe0\xa5\x8b\xe0\xa4\xb0\xe0\xa5\x8d\xe0\xa4\x9f,n,m,sg,3,d,0,0'
p4880
sS'chunkid'
p4881
S'NP4'
p4882
sS'drel'
p4883
S'k2:\xe0\xa4\x95\xe0\xa4\xb0\xe0\xa4\xb5\xe0\xa4\xbe\xe0\xa4\xa8\xe0\xa5\x87'
p4884
sS'chunktype'
p4885
S'head:NP4'
p4886
ssbsg1533
I00
sg1536
I00
sg1547
Nsg1534
Nsg188
I3
sg175
I4
sg1853
Nsg1545
Nsg1854
S'NN'
p4887
sg240
(issf_api
FeatureSet
p4888
(dp4889
g243
(dp4890
S'posn'
p4891
S'80'
p4892
sS'name'
p4893
S'\xe0\xa4\xaa\xe0\xa4\xbe\xe0\xa4\xb8\xe0\xa4\xaa\xe0\xa5\x8b\xe0\xa4\xb0\xe0\xa5\x8d\xe0\xa4\x9f'
p4894
sS'af'
p4895
S'\xe0\xa4\xaa\xe0\xa4\xbe\xe0\xa4\xb8\xe0\xa4\xaa\xe0\xa5\x8b\xe0\xa4\xb0\xe0\xa5\x8d\xe0\xa4\x9f,n,m,sg,3,d,0,0'
p4896
ssbsg1554
I00
sba(issf_api
Word
p4897
(dp4898
g1836
I00
sg1837
V\u091c\u093e\u0930\u0940
p4899
sg1839
(issf_api
FeatureSet
p4900
(dp4901
g243
(dp4902
S'posn'
p4903
S'90'
p4904
sS'name'
p4905
S'\xe0\xa4\x9c\xe0\xa4\xbe\xe0\xa4\xb0\xe0\xa5\x80'
p4906
sS'af'
p4907
S'\xe0\xa4\x9c\xe0\xa4\xbe\xe0\xa4\xb0\xe0\xa5\x80,adj,any,any,,,,'
p4908
sS'chunkid'
p4909
S'JJP'
p4910
sS'drel'
p4911
S'pof:\xe0\xa4\x95\xe0\xa4\xb0\xe0\xa4\xb5\xe0\xa4\xbe\xe0\xa4\xa8\xe0\xa5\x87'
p4912
sS'chunktype'
p4913
S'head:JJP'
p4914
ssbsg1533
I00
sg1536
I00
sg1547
Nsg1534
Nsg188
I4
sg175
I4
sg1853
Nsg1545
Nsg1854
S'JJ'
p4915
sg240
(issf_api
FeatureSet
p4916
(dp4917
g243
(dp4918
S'posn'
p4919
S'90'
p4920
sS'name'
p4921
S'\xe0\xa4\x9c\xe0\xa4\xbe\xe0\xa4\xb0\xe0\xa5\x80'
p4922
sS'af'
p4923
S'\xe0\xa4\x9c\xe0\xa4\xbe\xe0\xa4\xb0\xe0\xa5\x80,adj,any,any,,,,'
p4924
ssbsg1554
I00
sba(issf_api
Word
p4925
(dp4926
g1836
I00
sg1837
V\u0915\u0930\u0935\u093e\u0928\u0947
p4927
sg1839
(issf_api
FeatureSet
p4928
(dp4929
g243
(dp4930
S'posn'
p4931
S'100'
p4932
sS'droot'
p4933
S'\xe0\xa4\x95\xe0\xa4\xb0\xe0\xa4\xb5\xe0\xa4\xbe'
p4934
sS'name'
p4935
S'\xe0\xa4\x95\xe0\xa4\xb0\xe0\xa4\xb5\xe0\xa4\xbe\xe0\xa4\xa8\xe0\xa5\x87'
p4936
sS'af'
p4937
S'\xe0\xa4\x95\xe0\xa4\xb0,v,any,sg,any,o,\xe0\xa4\xa8\xe0\xa4\xbe_\xe0\xa4\x95\xe0\xa4\xbe,nA'
p4938
sS'chunkid'
p4939
S'VGNN'
p4940
sS'drel'
p4941
S'r6:\xe0\xa4\x86\xe0\xa4\xb0\xe0\xa5\x8b\xe0\xa4\xaa'
p4942
sS'dsuf'
p4943
S'\xe0\xa4\xb5\xe0\xa4\xbe'
p4944
sS'vpos'
p4945
S'tam_2'
p4946
sS'chunktype'
p4947
S'head:VGNN'
p4948
ssbsg1533
I00
sg1536
I00
sg1547
Nsg1534
Nsg188
I5
sg175
I4
sg1853
Nsg1545
Nsg1854
S'VM'
p4949
sg240
(issf_api
FeatureSet
p4950
(dp4951
g243
(dp4952
S'posn'
p4953
S'100'
p4954
sS'droot'
p4955
S'\xe0\xa4\x95\xe0\xa4\xb0\xe0\xa4\xb5\xe0\xa4\xbe'
p4956
sS'dsuf'
p4957
S'\xe0\xa4\xb5\xe0\xa4\xbe'
p4958
sS'name'
p4959
S'\xe0\xa4\x95\xe0\xa4\xb0\xe0\xa4\xb5\xe0\xa4\xbe\xe0\xa4\xa8\xe0\xa5\x87'
p4960
sS'af'
p4961
S'\xe0\xa4\x95\xe0\xa4\xb0,v,any,any,any,o,\xe0\xa4\xa8\xe0\xa4\xbe,nA'
p4962
ssbsg1554
I00
sba(issf_api
Word
p4963
(dp4964
g1836
I00
sg1837
V\u0915\u093e
p4965
sg1839
(issf_api
FeatureSet
p4966
(dp4967
g243
(dp4968
S'posn'
p4969
S'110'
p4970
sS'name'
p4971
S'\xe0\xa4\x95\xe0\xa4\xbe'
p4972
sS'drel'
p4973
S'lwg__psp:\xe0\xa4\x95\xe0\xa4\xb0\xe0\xa4\xb5\xe0\xa4\xbe\xe0\xa4\xa8\xe0\xa5\x87'
p4974
sS'chunktype'
p4975
S'child:VGNN'
p4976
sS'af'
p4977
S'\xe0\xa4\x95\xe0\xa4\xbe,psp,m,sg,,d,,'
p4978
ssbsg1533
I00
sg1536
I00
sg1547
Nsg1534
Nsg188
I5
sg175
I4
sg1853
Nsg1545
Nsg1854
S'PSP'
p4979
sg240
(issf_api
FeatureSet
p4980
(dp4981
g243
(dp4982
S'posn'
p4983
S'110'
p4984
sS'name'
p4985
S'\xe0\xa4\x95\xe0\xa4\xbe'
p4986
sS'af'
p4987
S'\xe0\xa4\x95\xe0\xa4\xbe,psp,m,sg,,d,,'
p4988
ssbsg1554
I00
sba(issf_api
Word
p4989
(dp4990
g1836
I00
sg1837
V\u0906\u0930\u094b\u092a
p4991
sg1839
(issf_api
FeatureSet
p4992
(dp4993
g243
(dp4994
S'posn'
p4995
S'120'
p4996
sS'name'
p4997
S'\xe0\xa4\x86\xe0\xa4\xb0\xe0\xa5\x8b\xe0\xa4\xaa'
p4998
sS'af'
p4999
S'\xe0\xa4\x86\xe0\xa4\xb0\xe0\xa5\x8b\xe0\xa4\xaa,n,m,sg,3,d,0,0'
p5000
sS'chunkid'
p5001
S'NP5'
p5002
sS'drel'
p5003
S'k1:\xe0\xa4\xb9\xe0\xa5\x88'
p5004
sS'chunktype'
p5005
S'head:NP5'
p5006
ssbsg1533
I00
sg1536
I00
sg1547
Nsg1534
Nsg188
I6
sg175
I4
sg1853
Nsg1545
Nsg1854
S'NN'
p5007
sg240
(issf_api
FeatureSet
p5008
(dp5009
g243
(dp5010
S'posn'
p5011
S'120'
p5012
sS'name'
p5013
S'\xe0\xa4\x86\xe0\xa4\xb0\xe0\xa5\x8b\xe0\xa4\xaa'
p5014
sS'af'
p5015
S'\xe0\xa4\x86\xe0\xa4\xb0\xe0\xa5\x8b\xe0\xa4\xaa,n,m,sg,3,d,0,0'
p5016
ssbsg1554
I00
sba(issf_api
Word
p5017
(dp5018
g1836
I00
sg1837
V\u0939\u0948
p5019
sg1839
(issf_api
FeatureSet
p5020
(dp5021
g243
(dp5022
S'posn'
p5023
S'130'
p5024
sS'name'
p5025
S'\xe0\xa4\xb9\xe0\xa5\x88'
p5026
sS'af'
p5027
S'\xe0\xa4\xb9\xe0\xa5\x88,v,any,sg,3,,\xe0\xa4\xb9\xe0\xa5\x88,hE'
p5028
sS'chunkid'
p5029
S'VGF'
p5030
sS'chunktype'
p5031
S'head:VGF'
p5032
sS'voicetype'
p5033
S'active'
p5034
sS'stype'
p5035
S'declarative'
p5036
ssbsg1533
I00
sg1536
I00
sg1547
Nsg1534
Nsg188
I7
sg175
I4
sg1853
Nsg1545
Nsg1854
S'VM'
p5037
sg240
(issf_api
FeatureSet
p5038
(dp5039
g243
(dp5040
S'posn'
p5041
S'130'
p5042
sS'name'
p5043
S'\xe0\xa4\xb9\xe0\xa5\x88'
p5044
sS'af'
p5045
S'\xe0\xa4\xb9\xe0\xa5\x88,v,any,sg,3,,\xe0\xa4\xb9\xe0\xa5\x88,hE'
p5046
ssbsg1554
I00
sba(issf_api
Word
p5047
(dp5048
g1836
I00
sg1837
V\u0964
sg1839
(issf_api
FeatureSet
p5049
(dp5050
g243
(dp5051
S'posn'
p5052
S'140'
p5053
sS'name'
p5054
S'\xe0\xa5\xa4'
p5055
sS'af'
p5056
S'\xe0\xa5\xa4,punc,,,,,,'
p5057
sS'chunkid'
p5058
S'BLK'
p5059
sS'drel'
p5060
S'rsym:\xe0\xa4\xb9\xe0\xa5\x88'
p5061
sS'chunktype'
p5062
S'head:BLK'
p5063
ssbsg1533
I00
sg1536
I00
sg1547
Nsg1534
Nsg188
I8
sg175
I4
sg1853
Nsg1545
Nsg1854
S'SYM'
p5064
sg240
(issf_api
FeatureSet
p5065
(dp5066
g243
(dp5067
S'posn'
p5068
S'140'
p5069
sS'name'
p5070
S'\xe0\xa5\xa4'
p5071
sS'af'
p5072
S'\xe0\xa5\xa4,punc,,,,,,'
p5073
ssbsg1554
I00
sba(issf_api
Word
p5074
(dp5075
g1836
I00
sg1837
V\u092a\u0941\u0932\u093f\u0938
p5076
sg1839
(issf_api
FeatureSet
p5077
(dp5078
g243
(dp5079
S'posn'
p5080
S'10'
p5081
sS'name'
p5082
S'\xe0\xa4\xaa\xe0\xa5\x81\xe0\xa4\xb2\xe0\xa4\xbf\xe0\xa4\xb8'
p5083
sS'drel'
p5084
S'pof__cn:\xe0\xa4\x85\xe0\xa4\xa7\xe0\xa5\x80\xe0\xa4\x95\xe0\xa5\x8d\xe0\xa4\xb7\xe0\xa4\x95'
p5085
sS'chunktype'
p5086
S'child:NP'
p5087
sS'af'
p5088
S'\xe0\xa4\xaa\xe0\xa5\x81\xe0\xa4\xb2\xe0\xa4\xbf\xe0\xa4\xb8,n,f,sg,3,d,0,0'
p5089
ssbsg1533
I00
sg1536
I00
sg1547
Nsg1534
Nsg188
I0
sg175
I5
sg1853
Nsg1545
Nsg1854
S'NNC'
p5090
sg240
(issf_api
FeatureSet
p5091
(dp5092
g243
(dp5093
S'posn'
p5094
S'10'
p5095
sS'name'
p5096
S'\xe0\xa4\xaa\xe0\xa5\x81\xe0\xa4\xb2\xe0\xa4\xbf\xe0\xa4\xb8'
p5097
sS'af'
p5098
S'\xe0\xa4\xaa\xe0\xa5\x81\xe0\xa4\xb2\xe0\xa4\xbf\xe0\xa4\xb8,n,f,sg,3,d,0,0'
p5099
ssbsg1554
I00
sba(issf_api
Word
p5100
(dp5101
g1836
I00
sg1837
V\u0905\u0927\u0940\u0915\u094d\u0937\u0915
p5102
sg1839
(issf_api
FeatureSet
p5103
(dp5104
g243
(dp5105
S'posn'
p5106
S'20'
p5107
sS'name'
p5108
S'\xe0\xa4\x85\xe0\xa4\xa7\xe0\xa5\x80\xe0\xa4\x95\xe0\xa5\x8d\xe0\xa4\xb7\xe0\xa4\x95'
p5109
sS'af'
p5110
S'\xe0\xa4\x85\xe0\xa4\xa7\xe0\xa5\x80\xe0\xa4\x95\xe0\xa5\x8d\xe0\xa4\xb7\xe0\xa4\x95,n,m,sg,3,o,0_\xe0\xa4\xa8\xe0\xa5\x87,0'
p5111
sS'chunkid'
p5112
S'NP'
p5113
sS'drel'
p5114
S'k1:\xe0\xa4\xac\xe0\xa4\xa4\xe0\xa4\xbe\xe0\xa4\xaf\xe0\xa4\xbe'
p5115
sS'vpos'
p5116
S'vib_3'
p5117
sS'chunktype'
p5118
S'head:NP'
p5119
ssbsg1533
I00
sg1536
I00
sg1547
Nsg1534
Nsg188
I0
sg175
I5
sg1853
Nsg1545
Nsg1854
S'NN'
p5120
sg240
(issf_api
FeatureSet
p5121
(dp5122
g243
(dp5123
S'posn'
p5124
S'20'
p5125
sS'name'
p5126
S'\xe0\xa4\x85\xe0\xa4\xa7\xe0\xa5\x80\xe0\xa4\x95\xe0\xa5\x8d\xe0\xa4\xb7\xe0\xa4\x95'
p5127
sS'af'
p5128
S'\xe0\xa4\x85\xe0\xa4\xa7\xe0\xa5\x80\xe0\xa4\x95\xe0\xa5\x8d\xe0\xa4\xb7\xe0\xa4\x95,n,m,sg,3,o,0,0'
p5129
ssbsg1554
I00
sba(issf_api
Word
p5130
(dp5131
g1836
I00
sg1837
V\u0928\u0947
p5132
sg1839
(issf_api
FeatureSet
p5133
(dp5134
g243
(dp5135
S'posn'
p5136
S'30'
p5137
sS'name'
p5138
S'\xe0\xa4\xa8\xe0\xa5\x87'
p5139
sS'drel'
p5140
S'lwg__psp:\xe0\xa4\x85\xe0\xa4\xa7\xe0\xa5\x80\xe0\xa4\x95\xe0\xa5\x8d\xe0\xa4\xb7\xe0\xa4\x95'
p5141
sS'chunktype'
p5142
S'child:NP'
p5143
sS'af'
p5144
S'\xe0\xa4\xa8\xe0\xa5\x87,psp,,,,,,'
p5145
ssbsg1533
I00
sg1536
I00
sg1547
Nsg1534
Nsg188
I0
sg175
I5
sg1853
Nsg1545
Nsg1854
S'PSP'
p5146
sg240
(issf_api
FeatureSet
p5147
(dp5148
g243
(dp5149
S'posn'
p5150
S'30'
p5151
sS'name'
p5152
S'\xe0\xa4\xa8\xe0\xa5\x87'
p5153
sS'af'
p5154
S'\xe0\xa4\xa8\xe0\xa5\x87,psp,,,,,,'
p5155
ssbsg1554
I00
sba(issf_api
Word
p5156
(dp5157
g1836
I00
sg1837
V\u092c\u0924\u093e\u092f\u093e
p5158
sg1839
(issf_api
FeatureSet
p5159
(dp5160
g243
(dp5161
S'posn'
p5162
S'40'
p5163
sS'name'
p5164
S'\xe0\xa4\xac\xe0\xa4\xa4\xe0\xa4\xbe\xe0\xa4\xaf\xe0\xa4\xbe'
p5165
sS'af'
p5166
S'\xe0\xa4\xac\xe0\xa4\xa4\xe0\xa4\xbe,v,m,sg,any,,\xe0\xa4\xaf\xe0\xa4\xbe,yA'
p5167
sS'chunkid'
p5168
S'VGF'
p5169
sS'chunktype'
p5170
S'head:VGF'
p5171
sS'voicetype'
p5172
S'active'
p5173
sS'stype'
p5174
S'declarative'
p5175
ssbsg1533
I00
sg1536
I00
sg1547
Nsg1534
Nsg188
I1
sg175
I5
sg1853
Nsg1545
Nsg1854
S'VM'
p5176
sg240
(issf_api
FeatureSet
p5177
(dp5178
g243
(dp5179
S'posn'
p5180
S'40'
p5181
sS'name'
p5182
S'\xe0\xa4\xac\xe0\xa4\xa4\xe0\xa4\xbe\xe0\xa4\xaf\xe0\xa4\xbe'
p5183
sS'af'
p5184
S'\xe0\xa4\xac\xe0\xa4\xa4\xe0\xa4\xbe,v,m,sg,any,,\xe0\xa4\xaf\xe0\xa4\xbe,yA'
p5185
ssbsg1554
I00
sba(issf_api
Word
p5186
(dp5187
g1836
I00
sg1837
V\u0915\u093f
p5188
sg1839
(issf_api
FeatureSet
p5189
(dp5190
g243
(dp5191
S'posn'
p5192
S'50'
p5193
sS'name'
p5194
S'\xe0\xa4\x95\xe0\xa4\xbf'
p5195
sS'af'
p5196
S'\xe0\xa4\x95\xe0\xa4\xbf,avy,,,,,,'
p5197
sS'chunkid'
p5198
S'CCP'
p5199
sS'drel'
p5200
S'k2:\xe0\xa4\xac\xe0\xa4\xa4\xe0\xa4\xbe\xe0\xa4\xaf\xe0\xa4\xbe'
p5201
sS'chunktype'
p5202
S'head:CCP'
p5203
ssbsg1533
I00
sg1536
I00
sg1547
Nsg1534
Nsg188
I2
sg175
I5
sg1853
Nsg1545
Nsg1854
S'CC'
p5204
sg240
(issf_api
FeatureSet
p5205
(dp5206
g243
(dp5207
S'posn'
p5208
S'50'
p5209
sS'name'
p5210
S'\xe0\xa4\x95\xe0\xa4\xbf'
p5211
sS'af'
p5212
S'\xe0\xa4\x95\xe0\xa4\xbf,avy,,,,,,'
p5213
ssbsg1554
I00
sba(issf_api
Word
p5214
(dp5215
g1836
I00
sg1837
V\u0968\u0966\u0966\u0968
p5216
sg1839
(issf_api
FeatureSet
p5217
(dp5218
g243
(dp5219
S'posn'
p5220
S'60'
p5221
sS'name'
p5222
S'\xe0\xa5\xa8\xe0\xa5\xa6\xe0\xa5\xa6\xe0\xa5\xa8'
p5223
sS'af'
p5224
S'\xe0\xa5\xa8\xe0\xa5\xa6\xe0\xa5\xa6\xe0\xa5\xa8,n,any,sg,3,o,0_\xe0\xa4\xae\xe0\xa5\x87\xe0\xa4\x82,0'
p5225
sS'chunkid'
p5226
S'NP2'
p5227
sS'drel'
p5228
S'k7t:\xe0\xa4\x95\xe0\xa4\xbf\xe0\xa4\xaf\xe0\xa4\xbe'
p5229
sS'vpos'
p5230
S'vib_2'
p5231
sS'chunktype'
p5232
S'head:NP2'
p5233
ssbsg1533
I01
sg1536
I00
sg1547
Nsg1534
Nsg188
I3
sg175
I5
sg1853
I1
sg1545
Nsg1854
S'NNP'
p5234
sg240
(issf_api
FeatureSet
p5235
(dp5236
g243
(dp5237
S'posn'
p5238
S'60'
p5239
sS'name'
p5240
S'\xe0\xa5\xa8\xe0\xa5\xa6\xe0\xa5\xa6\xe0\xa5\xa8'
p5241
sS'af'
p5242
S'\xe0\xa5\xa8\xe0\xa5\xa6\xe0\xa5\xa6\xe0\xa5\xa8,n,any,sg,3,o,0,0'
p5243
ssbsg1554
I00
sba(issf_api
Word
p5244
(dp5245
g1836
I00
sg1837
V\u092e\u0947\u0902
p5246
sg1839
(issf_api
FeatureSet
p5247
(dp5248
g243
(dp5249
S'posn'
p5250
S'70'
p5251
sS'name'
p5252
S'\xe0\xa4\xae\xe0\xa5\x87\xe0\xa4\x82'
p5253
sS'drel'
p5254
S'lwg__psp:\xe0\xa5\xa8\xe0\xa5\xa6\xe0\xa5\xa6\xe0\xa5\xa8'
p5255
sS'chunktype'
p5256
S'child:NP2'
p5257
sS'af'
p5258
S'\xe0\xa4\xae\xe0\xa5\x87\xe0\xa4\x82,psp,,,,,,'
p5259
ssbsg1533
I01
sg1536
I00
sg1547
Nsg1534
Nsg188
I3
sg175
I5
sg1853
I1
sg1545
Nsg1854
S'PSP'
p5260
sg240
(issf_api
FeatureSet
p5261
(dp5262
g243
(dp5263
S'posn'
p5264
S'70'
p5265
sS'name'
p5266
S'\xe0\xa4\xae\xe0\xa5\x87\xe0\xa4\x82'
p5267
sS'af'
p5268
S'\xe0\xa4\xae\xe0\xa5\x87\xe0\xa4\x82,psp,,,,,,'
p5269
ssbsg1554
I00
sba(issf_api
Word
p5270
(dp5271
g1836
I00
sg1837
V\u0938\u0932\u0947\u092e
p5272
sg1839
(issf_api
FeatureSet
p5273
(dp5274
g243
(dp5275
S'posn'
p5276
S'80'
p5277
sS'name'
p5278
S'\xe0\xa4\xb8\xe0\xa4\xb2\xe0\xa5\x87\xe0\xa4\xae'
p5279
sS'af'
p5280
S'\xe0\xa4\xb8\xe0\xa4\xb2\xe0\xa5\x87\xe0\xa4\xae,n,m,sg,3,o,0,0'
p5281
sS'chunkid'
p5282
S'NP3'
p5283
sS'drel'
p5284
S'ccof:\xe0\xa4\x94\xe0\xa4\xb0'
p5285
sS'chunktype'
p5286
S'head:NP3'
p5287
ssbsg1533
I01
sg1536
I00
sg1547
Nsg1534
Nsg188
I4
sg175
I5
sg1853
I1
sg1545
Nsg1854
S'NNP'
p5288
sg240
(issf_api
FeatureSet
p5289
(dp5290
g243
(dp5291
S'posn'
p5292
S'80'
p5293
sS'name'
p5294
S'\xe0\xa4\xb8\xe0\xa4\xb2\xe0\xa5\x87\xe0\xa4\xae'
p5295
sS'af'
p5296
S'\xe0\xa4\xb8\xe0\xa4\xb2\xe0\xa5\x87\xe0\xa4\xae,n,m,sg,3,o,0,0'
p5297
ssbsg1554
I00
sba(issf_api
Word
p5298
(dp5299
g1836
I00
sg1837
V\u0914\u0930
p5300
sg1839
(issf_api
FeatureSet
p5301
(dp5302
g243
(dp5303
S'posn'
p5304
S'90'
p5305
sS'name'
p5306
S'\xe0\xa4\x94\xe0\xa4\xb0'
p5307
sS'af'
p5308
S'\xe0\xa4\x94\xe0\xa4\xb0,avy,,,,,,'
p5309
sS'chunkid'
p5310
S'CCP2'
p5311
sS'drel'
p5312
S'vmod:\xe0\xa4\x95\xe0\xa4\xbf\xe0\xa4\xaf\xe0\xa4\xbe'
p5313
sS'chunktype'
p5314
S'head:CCP2'
p5315
ssbsg1533
I01
sg1536
I00
sg1547
Nsg1534
Nsg188
I5
sg175
I5
sg1853
I1
sg1545
Nsg1854
S'CC'
p5316
sg240
(issf_api
FeatureSet
p5317
(dp5318
g243
(dp5319
S'posn'
p5320
S'90'
p5321
sS'name'
p5322
S'\xe0\xa4\x94\xe0\xa4\xb0'
p5323
sS'af'
p5324
S'\xe0\xa4\x94\xe0\xa4\xb0,avy,,,,,,'
p5325
ssbsg1554
I00
sba(issf_api
Word
p5326
(dp5327
g1836
I00
sg1837
V\u092e\u094b\u0928\u093f\u0915\u093e
p5328
sg1839
(issf_api
FeatureSet
p5329
(dp5330
g243
(dp5331
S'posn'
p5332
S'100'
p5333
sS'name'
p5334
S'\xe0\xa4\xae\xe0\xa5\x8b\xe0\xa4\xa8\xe0\xa4\xbf\xe0\xa4\x95\xe0\xa4\xbe'
p5335
sS'af'
p5336
S'\xe0\xa4\xae\xe0\xa5\x8b\xe0\xa4\xa8\xe0\xa4\xbf\xe0\xa4\x95\xe0\xa4\xbe,n,f,sg,3,o,0_\xe0\xa4\x95\xe0\xa5\x87_\xe0\xa4\x96\xe0\xa4\xbf\xe0\xa4\xb2\xe0\xa4\xbe\xe0\xa4\xab,0'
p5337
sS'chunkid'
p5338
S'NP4'
p5339
sS'drel'
p5340
S'ccof:\xe0\xa4\x94\xe0\xa4\xb0'
p5341
sS'vpos'
p5342
S'vib_2_3'
p5343
sS'chunktype'
p5344
S'head:NP4'
p5345
ssbsg1533
I01
sg1536
I00
sg1547
Nsg1534
Nsg188
I6
sg175
I5
sg1853
I1
sg1545
Nsg1854
S'NNP'
p5346
sg240
(issf_api
FeatureSet
p5347
(dp5348
g243
(dp5349
S'posn'
p5350
S'100'
p5351
sS'name'
p5352
S'\xe0\xa4\xae\xe0\xa5\x8b\xe0\xa4\xa8\xe0\xa4\xbf\xe0\xa4\x95\xe0\xa4\xbe'
p5353
sS'af'
p5354
S'\xe0\xa4\xae\xe0\xa5\x8b\xe0\xa4\xa8\xe0\xa4\xbf\xe0\xa4\x95\xe0\xa4\xbe,n,f,sg,3,o,0,0'
p5355
ssbsg1554
I00
sba(issf_api
Word
p5356
(dp5357
g1836
I00
sg1837
V\u0915\u0947
p5358
sg1839
(issf_api
FeatureSet
p5359
(dp5360
g243
(dp5361
S'posn'
p5362
S'110'
p5363
sS'name'
p5364
S'\xe0\xa4\x95\xe0\xa5\x87'
p5365
sS'drel'
p5366
S'lwg__psp:\xe0\xa4\xae\xe0\xa5\x8b\xe0\xa4\xa8\xe0\xa4\xbf\xe0\xa4\x95\xe0\xa4\xbe'
p5367
sS'chunktype'
p5368
S'child:NP4'
p5369
sS'af'
p5370
S'\xe0\xa4\x95\xe0\xa5\x87,psp,,,,,,'
p5371
ssbsg1533
I01
sg1536
I00
sg1547
Nsg1534
Nsg188
I6
sg175
I5
sg1853
I1
sg1545
Nsg1854
S'PSP'
p5372
sg240
(issf_api
FeatureSet
p5373
(dp5374
g243
(dp5375
S'posn'
p5376
S'110'
p5377
sS'name'
p5378
S'\xe0\xa4\x95\xe0\xa5\x87'
p5379
sS'af'
p5380
S'\xe0\xa4\x95\xe0\xa5\x87,psp,,,,,,'
p5381
ssbsg1554
I00
sba(issf_api
Word
p5382
(dp5383
g1836
I00
sg1837
V\u0916\u093f\u0932\u093e\u092b
p5384
sg1839
(issf_api
FeatureSet
p5385
(dp5386
g243
(dp5387
S'posn'
p5388
S'120'
p5389
sS'name'
p5390
S'\xe0\xa4\x96\xe0\xa4\xbf\xe0\xa4\xb2\xe0\xa4\xbe\xe0\xa4\xab'
p5391
sS'drel'
p5392
S'lwg__psp:\xe0\xa4\xae\xe0\xa5\x8b\xe0\xa4\xa8\xe0\xa4\xbf\xe0\xa4\x95\xe0\xa4\xbe'
p5393
sS'chunktype'
p5394
S'child:NP4'
p5395
sS'af'
p5396
S'\xe0\xa4\x96\xe0\xa4\xbf\xe0\xa4\xb2\xe0\xa4\xbe\xe0\xa4\xab,adj,,,,,,'
p5397
ssbsg1533
I01
sg1536
I00
sg1547
Nsg1534
Nsg188
I6
sg175
I5
sg1853
I1
sg1545
Nsg1854
S'PSP'
p5398
sg240
(issf_api
FeatureSet
p5399
(dp5400
g243
(dp5401
S'posn'
p5402
S'120'
p5403
sS'name'
p5404
S'\xe0\xa4\x96\xe0\xa4\xbf\xe0\xa4\xb2\xe0\xa4\xbe\xe0\xa4\xab'
p5405
sS'af'
p5406
S'\xe0\xa4\x96\xe0\xa4\xbf\xe0\xa4\xb2\xe0\xa4\xbe\xe0\xa4\xab,adj,,,,,,'
p5407
ssbsg1554
I00
sba(issf_api
Word
p5408
(dp5409
g1836
I00
sg1837
V\u092b\u0930\u094d\u091c\u0940
p5410
sg1839
(issf_api
FeatureSet
p5411
(dp5412
g243
(dp5413
S'posn'
p5414
S'130'
p5415
sS'name'
p5416
S'\xe0\xa4\xab\xe0\xa4\xb0\xe0\xa5\x8d\xe0\xa4\x9c\xe0\xa5\x80'
p5417
sS'drel'
p5418
S'nmod__adj:\xe0\xa4\xae\xe0\xa4\xbe\xe0\xa4\xae\xe0\xa4\xb2\xe0\xa5\x87'
p5419
sS'chunktype'
p5420
S'child:NP5'
p5421
sS'af'
p5422
S'\xe0\xa4\xab\xe0\xa4\xb0\xe0\xa5\x8d\xe0\xa4\x9c\xe0\xa5\x80,adj,any,any,,o,,'
p5423
ssbsg1533
I01
sg1536
I00
sg1547
Nsg1534
Nsg188
I7
sg175
I5
sg1853
I1
sg1545
Nsg1854
S'JJ'
p5424
sg240
(issf_api
FeatureSet
p5425
(dp5426
g243
(dp5427
S'posn'
p5428
S'130'
p5429
sS'name'
p5430
S'\xe0\xa4\xab\xe0\xa4\xb0\xe0\xa5\x8d\xe0\xa4\x9c\xe0\xa5\x80'
p5431
sS'af'
p5432
S'\xe0\xa4\xab\xe0\xa4\xb0\xe0\xa5\x8d\xe0\xa4\x9c\xe0\xa5\x80,adj,any,any,,o,,'
p5433
ssbsg1554
I00
sba(issf_api
Word
p5434
(dp5435
g1836
I00
sg1837
V\u092a\u093e\u0938\u092a\u094b\u0930\u094d\u091f
p5436
sg1839
(issf_api
FeatureSet
p5437
(dp5438
g243
(dp5439
S'posn'
p5440
S'140'
p5441
sS'name'
p5442
S'\xe0\xa4\xaa\xe0\xa4\xbe\xe0\xa4\xb8\xe0\xa4\xaa\xe0\xa5\x8b\xe0\xa4\xb0\xe0\xa5\x8d\xe0\xa4\x9f'
p5443
sS'drel'
p5444
S'pof__cn:\xe0\xa4\xae\xe0\xa4\xbe\xe0\xa4\xae\xe0\xa4\xb2\xe0\xa5\x87'
p5445
sS'chunktype'
p5446
S'child:NP5'
p5447
sS'af'
p5448
S'\xe0\xa4\xaa\xe0\xa4\xbe\xe0\xa4\xb8\xe0\xa4\xaa\xe0\xa5\x8b\xe0\xa4\xb0\xe0\xa5\x8d\xe0\xa4\x9f,n,m,sg,3,d,0,0'
p5449
ssbsg1533
I01
sg1536
I00
sg1547
Nsg1534
Nsg188
I7
sg175
I5
sg1853
I1
sg1545
Nsg1854
S'NNC'
p5450
sg240
(issf_api
FeatureSet
p5451
(dp5452
g243
(dp5453
S'posn'
p5454
S'140'
p5455
sS'name'
p5456
S'\xe0\xa4\xaa\xe0\xa4\xbe\xe0\xa4\xb8\xe0\xa4\xaa\xe0\xa5\x8b\xe0\xa4\xb0\xe0\xa5\x8d\xe0\xa4\x9f'
p5457
sS'af'
p5458
S'\xe0\xa4\xaa\xe0\xa4\xbe\xe0\xa4\xb8\xe0\xa4\xaa\xe0\xa5\x8b\xe0\xa4\xb0\xe0\xa5\x8d\xe0\xa4\x9f,n,m,sg,3,d,0,0'
p5459
ssbsg1554
I00
sba(issf_api
Word
p5460
(dp5461
g1836
I00
sg1837
V\u092e\u093e\u092e\u0932\u0947
p5462
sg1839
(issf_api
FeatureSet
p5463
(dp5464
g243
(dp5465
S'posn'
p5466
S'150'
p5467
sS'name'
p5468
S'\xe0\xa4\xae\xe0\xa4\xbe\xe0\xa4\xae\xe0\xa4\xb2\xe0\xa5\x87'
p5469
sS'af'
p5470
S'\xe0\xa4\xae\xe0\xa4\xbe\xe0\xa4\xae\xe0\xa4\xb2\xe0\xa4\xbe,n,m,sg,3,o,0_\xe0\xa4\xae\xe0\xa5\x87\xe0\xa4\x82,0'
p5471
sS'chunkid'
p5472
S'NP5'
p5473
sS'drel'
p5474
S'k7:\xe0\xa4\x95\xe0\xa4\xb0\xe0\xa4\xa8\xe0\xa5\x87'
p5475
sS'vpos'
p5476
S'vib_4'
p5477
sS'chunktype'
p5478
S'head:NP5'
p5479
ssbsg1533
I01
sg1536
I00
sg1547
Nsg1534
Nsg188
I7
sg175
I5
sg1853
I1
sg1545
Nsg1854
S'NN'
p5480
sg240
(issf_api
FeatureSet
p5481
(dp5482
g243
(dp5483
S'posn'
p5484
S'150'
p5485
sS'name'
p5486
S'\xe0\xa4\xae\xe0\xa4\xbe\xe0\xa4\xae\xe0\xa4\xb2\xe0\xa5\x87'
p5487
sS'af'
p5488
S'\xe0\xa4\xae\xe0\xa4\xbe\xe0\xa4\xae\xe0\xa4\xb2\xe0\xa4\xbe,n,m,sg,3,o,0,0'
p5489
ssbsg1554
I00
sba(issf_api
Word
p5490
(dp5491
g1836
I00
sg1837
V\u092e\u0947\u0902
p5492
sg1839
(issf_api
FeatureSet
p5493
(dp5494
g243
(dp5495
S'posn'
p5496
S'160'
p5497
sS'name'
p5498
S'\xe0\xa4\xae\xe0\xa5\x87\xe0\xa4\x822'
p5499
sS'drel'
p5500
S'lwg__psp:\xe0\xa4\xae\xe0\xa4\xbe\xe0\xa4\xae\xe0\xa4\xb2\xe0\xa5\x87'
p5501
sS'chunktype'
p5502
S'child:NP5'
p5503
sS'af'
p5504
S'\xe0\xa4\xae\xe0\xa5\x87\xe0\xa4\x82,psp,,,,,,'
p5505
ssbsg1533
I01
sg1536
I00
sg1547
Nsg1534
Nsg188
I7
sg175
I5
sg1853
I1
sg1545
Nsg1854
S'PSP'
p5506
sg240
(issf_api
FeatureSet
p5507
(dp5508
g243
(dp5509
S'posn'
p5510
S'160'
p5511
sS'name'
p5512
S'\xe0\xa4\xae\xe0\xa5\x87\xe0\xa4\x822'
p5513
sS'af'
p5514
S'\xe0\xa4\xae\xe0\xa5\x87\xe0\xa4\x82,psp,,,,,,'
p5515
ssbsg1554
I00
sba(issf_api
Word
p5516
(dp5517
g1836
I00
sg1837
V\u0906\u0930\u094b\u092a
p5518
sg1839
(issf_api
FeatureSet
p5519
(dp5520
g243
(dp5521
S'posn'
p5522
S'170'
p5523
sS'name'
p5524
S'\xe0\xa4\x86\xe0\xa4\xb0\xe0\xa5\x8b\xe0\xa4\xaa'
p5525
sS'af'
p5526
S'\xe0\xa4\x86\xe0\xa4\xb0\xe0\xa5\x8b\xe0\xa4\xaa,n,m,sg,3,d,0,0'
p5527
sS'chunkid'
p5528
S'NP6'
p5529
sS'drel'
p5530
S'k2:\xe0\xa4\x95\xe0\xa4\xb0\xe0\xa4\xa8\xe0\xa5\x87'
p5531
sS'chunktype'
p5532
S'head:NP6'
p5533
ssbsg1533
I01
sg1536
I00
sg1547
Nsg1534
Nsg188
I8
sg175
I5
sg1853
I1
sg1545
Nsg1854
S'NN'
p5534
sg240
(issf_api
FeatureSet
p5535
(dp5536
g243
(dp5537
S'posn'
p5538
S'170'
p5539
sS'name'
p5540
S'\xe0\xa4\x86\xe0\xa4\xb0\xe0\xa5\x8b\xe0\xa4\xaa'
p5541
sS'af'
p5542
S'\xe0\xa4\x86\xe0\xa4\xb0\xe0\xa5\x8b\xe0\xa4\xaa,n,m,sg,3,d,0,0'
p5543
ssbsg1554
I00
sba(issf_api
Word
p5544
(dp5545
g1836
I00
sg1837
V\u0926\u093e\u092f\u0930
p5546
sg1839
(issf_api
FeatureSet
p5547
(dp5548
g243
(dp5549
S'posn'
p5550
S'180'
p5551
sS'name'
p5552
S'\xe0\xa4\xa6\xe0\xa4\xbe\xe0\xa4\xaf\xe0\xa4\xb0'
p5553
sS'af'
p5554
S'\xe0\xa4\xa6\xe0\xa4\xbe\xe0\xa4\xaf\xe0\xa4\xb0,adj,any,any,,,,'
p5555
sS'chunkid'
p5556
S'JJP'
p5557
sS'drel'
p5558
S'pof:\xe0\xa4\x95\xe0\xa4\xb0\xe0\xa4\xa8\xe0\xa5\x87'
p5559
sS'chunktype'
p5560
S'head:JJP'
p5561
ssbsg1533
I01
sg1536
I00
sg1547
Nsg1534
Nsg188
I9
sg175
I5
sg1853
I1
sg1545
Nsg1854
S'JJ'
p5562
sg240
(issf_api
FeatureSet
p5563
(dp5564
g243
(dp5565
S'posn'
p5566
S'180'
p5567
sS'name'
p5568
S'\xe0\xa4\xa6\xe0\xa4\xbe\xe0\xa4\xaf\xe0\xa4\xb0'
p5569
sS'af'
p5570
S'\xe0\xa4\xa6\xe0\xa4\xbe\xe0\xa4\xaf\xe0\xa4\xb0,adj,any,any,,,,'
p5571
ssbsg1554
I00
sba(issf_api
Word
p5572
(dp5573
g1836
I00
sg1837
V\u0915\u0930\u0928\u0947
p5574
sg1839
(issf_api
FeatureSet
p5575
(dp5576
g243
(dp5577
S'posn'
p5578
S'190'
p5579
sS'name'
p5580
S'\xe0\xa4\x95\xe0\xa4\xb0\xe0\xa4\xa8\xe0\xa5\x87'
p5581
sS'af'
p5582
S'\xe0\xa4\x95\xe0\xa4\xb0,v,any,sg,3,o,\xe0\xa4\xa8\xe0\xa4\xbe_\xe0\xa4\x95\xe0\xa5\x87_\xe0\xa4\xac\xe0\xa4\xbe\xe0\xa4\xa6,nA'
p5583
sS'chunkid'
p5584
S'VGNN'
p5585
sS'drel'
p5586
S'k7t:\xe0\xa4\x95\xe0\xa4\xbf\xe0\xa4\xaf\xe0\xa4\xbe'
p5587
sS'vpos'
p5588
S'tam_2_3'
p5589
sS'chunktype'
p5590
S'head:VGNN'
p5591
ssbsg1533
I01
sg1536
I00
sg1547
Nsg1534
Nsg188
I10
sg175
I5
sg1853
I1
sg1545
Nsg1854
S'VM'
p5592
sg240
(issf_api
FeatureSet
p5593
(dp5594
g243
(dp5595
S'posn'
p5596
S'190'
p5597
sS'name'
p5598
S'\xe0\xa4\x95\xe0\xa4\xb0\xe0\xa4\xa8\xe0\xa5\x87'
p5599
sS'af'
p5600
S'\xe0\xa4\x95\xe0\xa4\xb0,v,any,any,any,o,\xe0\xa4\xa8\xe0\xa4\xbe,nA'
p5601
ssbsg1554
I00
sba(issf_api
Word
p5602
(dp5603
g1836
I00
sg1837
V\u0915\u0947
p5604
sg1839
(issf_api
FeatureSet
p5605
(dp5606
g243
(dp5607
S'posn'
p5608
S'200'
p5609
sS'name'
p5610
S'\xe0\xa4\x95\xe0\xa5\x872'
p5611
sS'drel'
p5612
S'lwg__psp:\xe0\xa4\x95\xe0\xa4\xb0\xe0\xa4\xa8\xe0\xa5\x87'
p5613
sS'chunktype'
p5614
S'child:VGNN'
p5615
sS'af'
p5616
S'\xe0\xa4\x95\xe0\xa5\x87,psp,,,,,,'
p5617
ssbsg1533
I00
sg1536
I00
sg1547
g1643
sg1534
(lp5618
I122
aI123
aI124
aI125
aI126
aI127
aI128
aI129
aI130
aI131
aI132
aI133
aI134
aI135
asg188
I10
sg175
I5
sg1853
I1
sg1545
(lp5619
I138
aI139
aI140
aI141
aI142
aI143
aI144
aI145
aI146
aI147
asg1854
S'PSP'
p5620
sg240
(issf_api
FeatureSet
p5621
(dp5622
g243
(dp5623
S'posn'
p5624
S'200'
p5625
sS'name'
p5626
S'\xe0\xa4\x95\xe0\xa5\x872'
p5627
sS'af'
p5628
S'\xe0\xa4\x95\xe0\xa5\x87,psp,,,,,,'
p5629
ssbsg1554
I01
sba(issf_api
Word
p5630
(dp5631
g1836
I00
sg1837
V\u092c\u093e\u0926
p5632
sg1839
(issf_api
FeatureSet
p5633
(dp5634
g243
(dp5635
S'posn'
p5636
S'210'
p5637
sS'name'
p5638
S'\xe0\xa4\xac\xe0\xa4\xbe\xe0\xa4\xa6'
p5639
sS'drel'
p5640
S'lwg__nst:\xe0\xa4\x95\xe0\xa4\xb0\xe0\xa4\xa8\xe0\xa5\x87'
p5641
sS'chunktype'
p5642
S'child:VGNN'
p5643
sS'af'
p5644
S'\xe0\xa4\xac\xe0\xa4\xbe\xe0\xa4\xa6,nst,m,sg,3,d,,'
p5645
ssbsg1533
I00
sg1536
I00
sg1547
g1643
sg1534
g5618
sg188
I10
sg175
I5
sg1853
I1
sg1545
g5619
sg1854
S'NST'
p5646
sg240
(issf_api
FeatureSet
p5647
(dp5648
g243
(dp5649
S'posn'
p5650
S'210'
p5651
sS'name'
p5652
S'\xe0\xa4\xac\xe0\xa4\xbe\xe0\xa4\xa6'
p5653
sS'af'
p5654
S'\xe0\xa4\xac\xe0\xa4\xbe\xe0\xa4\xa6,nst,m,sg,3,d,,'
p5655
ssbsg1554
I01
sba(issf_api
Word
p5656
(dp5657
g1836
I00
sg1837
V\u0905\u0926\u093e\u0932\u0924
p5658
sg1839
(issf_api
FeatureSet
p5659
(dp5660
g243
(dp5661
S'posn'
p5662
S'220'
p5663
sS'name'
p5664
S'\xe0\xa4\x85\xe0\xa4\xa6\xe0\xa4\xbe\xe0\xa4\xb2\xe0\xa4\xa4'
p5665
sS'af'
p5666
S'\xe0\xa4\x85\xe0\xa4\xa6\xe0\xa4\xbe\xe0\xa4\xb2\xe0\xa4\xa4,n,f,sg,3,o,0_\xe0\xa4\xa8\xe0\xa5\x87,0'
p5667
sS'chunkid'
p5668
S'NP7'
p5669
sS'drel'
p5670
S'k1:\xe0\xa4\x95\xe0\xa4\xbf\xe0\xa4\xaf\xe0\xa4\xbe'
p5671
sS'vpos'
p5672
S'vib_2'
p5673
sS'chunktype'
p5674
S'head:NP7'
p5675
ssbsg1533
I00
sg1536
I01
sg1547
Nsg1534
Nsg188
I11
sg175
I5
sg1853
I1
sg1545
Nsg1854
S'NN'
p5676
sg240
(issf_api
FeatureSet
p5677
(dp5678
g243
(dp5679
S'posn'
p5680
S'220'
p5681
sS'name'
p5682
S'\xe0\xa4\x85\xe0\xa4\xa6\xe0\xa4\xbe\xe0\xa4\xb2\xe0\xa4\xa4'
p5683
sS'af'
p5684
S'\xe0\xa4\x85\xe0\xa4\xa6\xe0\xa4\xbe\xe0\xa4\xb2\xe0\xa4\xa4,n,f,sg,3,o,0,0'
p5685
ssbsg1554
I00
sba(issf_api
Word
p5686
(dp5687
g1836
I00
sg1837
V\u0928\u0947
p5688
sg1839
(issf_api
FeatureSet
p5689
(dp5690
g243
(dp5691
S'posn'
p5692
S'230'
p5693
sS'name'
p5694
S'\xe0\xa4\xa8\xe0\xa5\x872'
p5695
sS'drel'
p5696
S'lwg__psp:\xe0\xa4\x85\xe0\xa4\xa6\xe0\xa4\xbe\xe0\xa4\xb2\xe0\xa4\xa4'
p5697
sS'chunktype'
p5698
S'child:NP7'
p5699
sS'af'
p5700
S'\xe0\xa4\xa8\xe0\xa5\x87,psp,,,,,,'
p5701
ssbsg1533
I00
sg1536
I01
sg1547
Nsg1534
Nsg188
I11
sg175
I5
sg1853
I1
sg1545
Nsg1854
S'PSP'
p5702
sg240
(issf_api
FeatureSet
p5703
(dp5704
g243
(dp5705
S'posn'
p5706
S'230'
p5707
sS'name'
p5708
S'\xe0\xa4\xa8\xe0\xa5\x872'
p5709
sS'af'
p5710
S'\xe0\xa4\xa8\xe0\xa5\x87,psp,,,,,,'
p5711
ssbsg1554
I00
sba(issf_api
Word
p5712
(dp5713
g1836
I00
sg1837
V\u0926\u094b\u0928\u094b\u0902
p5714
sg1839
(issf_api
FeatureSet
p5715
(dp5716
g243
(dp5717
S'posn'
p5718
S'240'
p5719
sS'name'
p5720
S'\xe0\xa4\xa6\xe0\xa5\x8b\xe0\xa4\xa8\xe0\xa5\x8b\xe0\xa4\x82'
p5721
sS'af'
p5722
S'\xe0\xa4\xa6\xe0\xa5\x8b,n,any,pl,any,o,0_\xe0\xa4\x95\xe0\xa5\x87_\xe0\xa4\x96\xe0\xa4\xbf\xe0\xa4\xb2\xe0\xa4\xbe\xe0\xa4\xab,0'
p5723
sS'chunkid'
p5724
S'NP8'
p5725
sS'drel'
p5726
S'vmod:\xe0\xa4\x95\xe0\xa4\xbf\xe0\xa4\xaf\xe0\xa4\xbe'
p5727
sS'vpos'
p5728
S'vib_2_3'
p5729
sS'chunktype'
p5730
S'head:NP8'
p5731
ssbsg1533
I00
sg1536
I01
sg1547
Nsg1534
Nsg188
I12
sg175
I5
sg1853
I1
sg1545
Nsg1854
S'NN'
p5732
sg240
(issf_api
FeatureSet
p5733
(dp5734
g243
(dp5735
S'posn'
p5736
S'240'
p5737
sS'name'
p5738
S'\xe0\xa4\xa6\xe0\xa5\x8b\xe0\xa4\xa8\xe0\xa5\x8b\xe0\xa4\x82'
p5739
sS'af'
p5740
S'\xe0\xa4\xa6\xe0\xa5\x8b,n,any,pl,any,o,0,0'
p5741
ssbsg1554
I00
sba(issf_api
Word
p5742
(dp5743
g1836
I00
sg1837
V\u0915\u0947
p5744
sg1839
(issf_api
FeatureSet
p5745
(dp5746
g243
(dp5747
S'posn'
p5748
S'250'
p5749
sS'name'
p5750
S'\xe0\xa4\x95\xe0\xa5\x873'
p5751
sS'drel'
p5752
S'lwg__psp:\xe0\xa4\xa6\xe0\xa5\x8b\xe0\xa4\xa8\xe0\xa5\x8b\xe0\xa4\x82'
p5753
sS'chunktype'
p5754
S'child:NP8'
p5755
sS'af'
p5756
S'\xe0\xa4\x95\xe0\xa5\x87,psp,,,,,,'
p5757
ssbsg1533
I00
sg1536
I01
sg1547
Nsg1534
Nsg188
I12
sg175
I5
sg1853
I1
sg1545
Nsg1854
S'PSP'
p5758
sg240
(issf_api
FeatureSet
p5759
(dp5760
g243
(dp5761
S'posn'
p5762
S'250'
p5763
sS'name'
p5764
S'\xe0\xa4\x95\xe0\xa5\x873'
p5765
sS'af'
p5766
S'\xe0\xa4\x95\xe0\xa5\x87,psp,,,,,,'
p5767
ssbsg1554
I00
sba(issf_api
Word
p5768
(dp5769
g1836
I00
sg1837
V\u0916\u093f\u0932\u093e\u092b
p5770
sg1839
(issf_api
FeatureSet
p5771
(dp5772
g243
(dp5773
S'posn'
p5774
S'260'
p5775
sS'name'
p5776
S'\xe0\xa4\x96\xe0\xa4\xbf\xe0\xa4\xb2\xe0\xa4\xbe\xe0\xa4\xab2'
p5777
sS'drel'
p5778
S'lwg__psp:\xe0\xa4\xa6\xe0\xa5\x8b\xe0\xa4\xa8\xe0\xa5\x8b\xe0\xa4\x82'
p5779
sS'chunktype'
p5780
S'child:NP8'
p5781
sS'af'
p5782
S'\xe0\xa4\x96\xe0\xa4\xbf\xe0\xa4\xb2\xe0\xa4\xbe\xe0\xa4\xab,adj,,,,,,'
p5783
ssbsg1533
I00
sg1536
I01
sg1547
Nsg1534
Nsg188
I12
sg175
I5
sg1853
I1
sg1545
Nsg1854
S'PSP'
p5784
sg240
(issf_api
FeatureSet
p5785
(dp5786
g243
(dp5787
S'posn'
p5788
S'260'
p5789
sS'name'
p5790
S'\xe0\xa4\x96\xe0\xa4\xbf\xe0\xa4\xb2\xe0\xa4\xbe\xe0\xa4\xab2'
p5791
sS'af'
p5792
S'\xe0\xa4\x96\xe0\xa4\xbf\xe0\xa4\xb2\xe0\xa4\xbe\xe0\xa4\xab,adj,,,,,,'
p5793
ssbsg1554
I00
sba(issf_api
Word
p5794
(dp5795
g1836
I00
sg1837
V\u0917\u093f\u0930\u092b\u094d\u0924\u093e\u0930\u0940
p5796
sg1839
(issf_api
FeatureSet
p5797
(dp5798
g243
(dp5799
S'posn'
p5800
S'270'
p5801
sS'name'
p5802
S'\xe0\xa4\x97\xe0\xa4\xbf\xe0\xa4\xb0\xe0\xa4\xab\xe0\xa5\x8d\xe0\xa4\xa4\xe0\xa4\xbe\xe0\xa4\xb0\xe0\xa5\x80'
p5803
sS'drel'
p5804
S'pof__cn:\xe0\xa4\xb5\xe0\xa4\xbe\xe0\xa4\xb0\xe0\xa4\x82\xe0\xa4\x9f'
p5805
sS'chunktype'
p5806
S'child:NP9'
p5807
sS'af'
p5808
S'\xe0\xa4\x97\xe0\xa4\xbf\xe0\xa4\xb0\xe0\xa4\xab\xe0\xa5\x8d\xe0\xa4\xa4\xe0\xa4\xbe\xe0\xa4\xb0\xe0\xa5\x80,n,f,sg,3,d,0,0'
p5809
ssbsg1533
I00
sg1536
I01
sg1547
Nsg1534
Nsg188
I13
sg175
I5
sg1853
I1
sg1545
Nsg1854
S'NNC'
p5810
sg240
(issf_api
FeatureSet
p5811
(dp5812
g243
(dp5813
S'posn'
p5814
S'270'
p5815
sS'name'
p5816
S'\xe0\xa4\x97\xe0\xa4\xbf\xe0\xa4\xb0\xe0\xa4\xab\xe0\xa5\x8d\xe0\xa4\xa4\xe0\xa4\xbe\xe0\xa4\xb0\xe0\xa5\x80'
p5817
sS'af'
p5818
S'\xe0\xa4\x97\xe0\xa4\xbf\xe0\xa4\xb0\xe0\xa4\xab\xe0\xa5\x8d\xe0\xa4\xa4\xe0\xa4\xbe\xe0\xa4\xb0\xe0\xa5\x80,n,f,sg,3,d,0,0'
p5819
ssbsg1554
I00
sba(issf_api
Word
p5820
(dp5821
g1836
I00
sg1837
V\u0935\u093e\u0930\u0902\u091f
p5822
sg1839
(issf_api
FeatureSet
p5823
(dp5824
g243
(dp5825
S'posn'
p5826
S'280'
p5827
sS'name'
p5828
S'\xe0\xa4\xb5\xe0\xa4\xbe\xe0\xa4\xb0\xe0\xa4\x82\xe0\xa4\x9f'
p5829
sS'af'
p5830
S'\xe0\xa4\xb5\xe0\xa4\xbe\xe0\xa4\xb0\xe0\xa4\x82\xe0\xa4\x9f,n,m,sg,3,d,0,0'
p5831
sS'chunkid'
p5832
S'NP9'
p5833
sS'drel'
p5834
S'k2:\xe0\xa4\x95\xe0\xa4\xbf\xe0\xa4\xaf\xe0\xa4\xbe'
p5835
sS'chunktype'
p5836
S'head:NP9'
p5837
ssbsg1533
I00
sg1536
I01
sg1547
Nsg1534
Nsg188
I13
sg175
I5
sg1853
I1
sg1545
Nsg1854
S'NN'
p5838
sg240
(issf_api
FeatureSet
p5839
(dp5840
g243
(dp5841
S'posn'
p5842
S'280'
p5843
sS'name'
p5844
S'\xe0\xa4\xb5\xe0\xa4\xbe\xe0\xa4\xb0\xe0\xa4\x82\xe0\xa4\x9f'
p5845
sS'af'
p5846
S'\xe0\xa4\xb5\xe0\xa4\xbe\xe0\xa4\xb0\xe0\xa4\x82\xe0\xa4\x9f,n,m,sg,3,d,0,0'
p5847
ssbsg1554
I00
sba(issf_api
Word
p5848
(dp5849
g1836
I00
sg1837
V\u091c\u093e\u0930\u0940
p5850
sg1839
(issf_api
FeatureSet
p5851
(dp5852
g243
(dp5853
S'posn'
p5854
S'290'
p5855
sS'name'
p5856
S'\xe0\xa4\x9c\xe0\xa4\xbe\xe0\xa4\xb0\xe0\xa5\x80'
p5857
sS'af'
p5858
S'\xe0\xa4\x9c\xe0\xa4\xbe\xe0\xa4\xb0\xe0\xa5\x80,adj,any,any,,,,'
p5859
sS'chunkid'
p5860
S'JJP2'
p5861
sS'drel'
p5862
S'pof:\xe0\xa4\x95\xe0\xa4\xbf\xe0\xa4\xaf\xe0\xa4\xbe'
p5863
sS'chunktype'
p5864
S'head:JJP2'
p5865
ssbsg1533
I00
sg1536
I01
sg1547
Nsg1534
Nsg188
I14
sg175
I5
sg1853
I1
sg1545
Nsg1854
S'JJ'
p5866
sg240
(issf_api
FeatureSet
p5867
(dp5868
g243
(dp5869
S'posn'
p5870
S'290'
p5871
sS'name'
p5872
S'\xe0\xa4\x9c\xe0\xa4\xbe\xe0\xa4\xb0\xe0\xa5\x80'
p5873
sS'af'
p5874
S'\xe0\xa4\x9c\xe0\xa4\xbe\xe0\xa4\xb0\xe0\xa5\x80,adj,any,any,,,,'
p5875
ssbsg1554
I00
sba(issf_api
Word
p5876
(dp5877
g1836
I00
sg1837
V\u0915\u093f\u092f\u093e
p5878
sg1839
(issf_api
FeatureSet
p5879
(dp5880
g243
(dp5881
S'posn'
p5882
S'300'
p5883
sS'name'
p5884
S'\xe0\xa4\x95\xe0\xa4\xbf\xe0\xa4\xaf\xe0\xa4\xbe'
p5885
sS'af'
p5886
S'\xe0\xa4\x95\xe0\xa4\xb0,v,m,sg,any,,\xe0\xa4\xaf\xe0\xa4\xbe_\xe0\xa4\xa5\xe0\xa4\xbe,yA'
p5887
sS'chunkid'
p5888
S'VGF2'
p5889
sS'stype'
p5890
S'declarative'
p5891
sS'drel'
p5892
S'ccof:\xe0\xa4\x95\xe0\xa4\xbf'
p5893
sS'voicetype'
p5894
S'active'
p5895
sS'vpos'
p5896
S'tam_2'
p5897
sS'chunktype'
p5898
S'head:VGF2'
p5899
ssbsg1533
I00
sg1536
I01
sg1547
Nsg1534
Nsg188
I15
sg175
I5
sg1853
I1
sg1545
Nsg1854
S'VM'
p5900
sg240
(issf_api
FeatureSet
p5901
(dp5902
g243
(dp5903
S'posn'
p5904
S'300'
p5905
sS'name'
p5906
S'\xe0\xa4\x95\xe0\xa4\xbf\xe0\xa4\xaf\xe0\xa4\xbe'
p5907
sS'af'
p5908
S'\xe0\xa4\x95\xe0\xa4\xb0,v,m,sg,any,,\xe0\xa4\xaf\xe0\xa4\xbe,yA'
p5909
ssbsg1554
I00
sba(issf_api
Word
p5910
(dp5911
g1836
I00
sg1837
V\u0925\u093e
p5912
sg1839
(issf_api
FeatureSet
p5913
(dp5914
g243
(dp5915
S'posn'
p5916
S'310'
p5917
sS'name'
p5918
S'\xe0\xa4\xa5\xe0\xa4\xbe'
p5919
sS'drel'
p5920
S'lwg__vaux:\xe0\xa4\x95\xe0\xa4\xbf\xe0\xa4\xaf\xe0\xa4\xbe'
p5921
sS'chunktype'
p5922
S'child:VGF2'
p5923
sS'af'
p5924
S'\xe0\xa4\xa5\xe0\xa4\xbe,v,m,sg,any,,\xe0\xa4\xa5\xe0\xa4\xbe,WA'
p5925
ssbsg1533
I00
sg1536
I01
sg1547
Nsg1534
Nsg188
I15
sg175
I5
sg1853
I1
sg1545
Nsg1854
S'VAUX'
p5926
sg240
(issf_api
FeatureSet
p5927
(dp5928
g243
(dp5929
S'posn'
p5930
S'310'
p5931
sS'name'
p5932
S'\xe0\xa4\xa5\xe0\xa4\xbe'
p5933
sS'af'
p5934
S'\xe0\xa4\xa5\xe0\xa4\xbe,v,m,sg,any,,\xe0\xa4\xa5\xe0\xa4\xbe,WA'
p5935
ssbsg1554
I00
sba(issf_api
Word
p5936
(dp5937
g1836
I00
sg1837
V\u0964
sg1839
(issf_api
FeatureSet
p5938
(dp5939
g243
(dp5940
S'posn'
p5941
S'320'
p5942
sS'name'
p5943
S'\xe0\xa5\xa4'
p5944
sS'af'
p5945
S'\xe0\xa5\xa4,punc,,,,,,'
p5946
sS'chunkid'
p5947
S'BLK'
p5948
sS'drel'
p5949
S'rsym:\xe0\xa4\xac\xe0\xa4\xa4\xe0\xa4\xbe\xe0\xa4\xaf\xe0\xa4\xbe'
p5950
sS'chunktype'
p5951
S'head:BLK'
p5952
ssbsg1533
I00
sg1536
I00
sg1547
Nsg1534
Nsg188
I16
sg175
I5
sg1853
Nsg1545
Nsg1854
S'SYM'
p5953
sg240
(issf_api
FeatureSet
p5954
(dp5955
g243
(dp5956
S'posn'
p5957
S'320'
p5958
sS'name'
p5959
S'\xe0\xa5\xa4'
p5960
sS'af'
p5961
S'\xe0\xa5\xa4,punc,,,,,,'
p5962
ssbsg1554
I00
sba(issf_api
Word
p5963
(dp5964
g1836
I00
sg1837
V\u0938\u094d\u0925\u093e\u0928\u0940\u092f
p5965
sg1839
(issf_api
FeatureSet
p5966
(dp5967
g243
(dp5968
S'posn'
p5969
S'10'
p5970
sS'name'
p5971
S'\xe0\xa4\xb8\xe0\xa5\x8d\xe0\xa4\xa5\xe0\xa4\xbe\xe0\xa4\xa8\xe0\xa5\x80\xe0\xa4\xaf'
p5972
sS'drel'
p5973
S'nmod__adj:\xe0\xa4\x85\xe0\xa4\xa6\xe0\xa4\xbe\xe0\xa4\xb2\xe0\xa4\xa4'
p5974
sS'chunktype'
p5975
S'child:NP'
p5976
sS'af'
p5977
S'\xe0\xa4\xb8\xe0\xa5\x8d\xe0\xa4\xa5\xe0\xa4\xbe\xe0\xa4\xa8\xe0\xa5\x80\xe0\xa4\xaf,adj,any,any,,o,,'
p5978
ssbsg1533
I00
sg1536
I00
sg1547
Nsg1534
Nsg188
I0
sg175
I6
sg1853
Nsg1545
Nsg1854
S'JJ'
p5979
sg240
(issf_api
FeatureSet
p5980
(dp5981
g243
(dp5982
S'posn'
p5983
S'10'
p5984
sS'name'
p5985
S'\xe0\xa4\xb8\xe0\xa5\x8d\xe0\xa4\xa5\xe0\xa4\xbe\xe0\xa4\xa8\xe0\xa5\x80\xe0\xa4\xaf'
p5986
sS'af'
p5987
S'\xe0\xa4\xb8\xe0\xa5\x8d\xe0\xa4\xa5\xe0\xa4\xbe\xe0\xa4\xa8\xe0\xa5\x80\xe0\xa4\xaf,adj,any,any,,o,,'
p5988
ssbsg1554
I00
sba(issf_api
Word
p5989
(dp5990
g1836
I00
sg1837
V\u0905\u0926\u093e\u0932\u0924
p5991
sg1839
(issf_api
FeatureSet
p5992
(dp5993
g243
(dp5994
S'posn'
p5995
S'20'
p5996
sS'name'
p5997
S'\xe0\xa4\x85\xe0\xa4\xa6\xe0\xa4\xbe\xe0\xa4\xb2\xe0\xa4\xa4'
p5998
sS'af'
p5999
S'\xe0\xa4\x85\xe0\xa4\xa6\xe0\xa4\xbe\xe0\xa4\xb2\xe0\xa4\xa4,n,f,sg,3,o,0_\xe0\xa4\xa8\xe0\xa5\x87,0'
p6000
sS'chunkid'
p6001
S'NP'
p6002
sS'drel'
p6003
S'k1:\xe0\xa4\x95\xe0\xa4\xbf\xe0\xa4\xaf\xe0\xa4\xbe'
p6004
sS'vpos'
p6005
S'vib_3'
p6006
sS'chunktype'
p6007
S'head:NP'
p6008
ssbsg1533
I00
sg1536
I00
sg1547
Nsg1534
Nsg188
I0
sg175
I6
sg1853
Nsg1545
Nsg1854
S'NN'
p6009
sg240
(issf_api
FeatureSet
p6010
(dp6011
g243
(dp6012
S'posn'
p6013
S'20'
p6014
sS'name'
p6015
S'\xe0\xa4\x85\xe0\xa4\xa6\xe0\xa4\xbe\xe0\xa4\xb2\xe0\xa4\xa4'
p6016
sS'af'
p6017
S'\xe0\xa4\x85\xe0\xa4\xa6\xe0\xa4\xbe\xe0\xa4\xb2\xe0\xa4\xa4,n,f,sg,3,o,0,0'
p6018
ssbsg1554
I00
sba(issf_api
Word
p6019
(dp6020
g1836
I00
sg1837
V\u0928\u0947
p6021
sg1839
(issf_api
FeatureSet
p6022
(dp6023
g243
(dp6024
S'posn'
p6025
S'30'
p6026
sS'name'
p6027
S'\xe0\xa4\xa8\xe0\xa5\x87'
p6028
sS'drel'
p6029
S'lwg__psp:\xe0\xa4\x85\xe0\xa4\xa6\xe0\xa4\xbe\xe0\xa4\xb2\xe0\xa4\xa4'
p6030
sS'chunktype'
p6031
S'child:NP'
p6032
sS'af'
p6033
S'\xe0\xa4\xa8\xe0\xa5\x87,psp,,,,,,'
p6034
ssbsg1533
I00
sg1536
I00
sg1547
Nsg1534
Nsg188
I0
sg175
I6
sg1853
Nsg1545
Nsg1854
S'PSP'
p6035
sg240
(issf_api
FeatureSet
p6036
(dp6037
g243
(dp6038
S'posn'
p6039
S'30'
p6040
sS'name'
p6041
S'\xe0\xa4\xa8\xe0\xa5\x87'
p6042
sS'af'
p6043
S'\xe0\xa4\xa8\xe0\xa5\x87,psp,,,,,,'
p6044
ssbsg1554
I00
sba(issf_api
Word
p6045
(dp6046
g1836
I00
sg1837
V\u0967\u096a
p6047
sg1839
(issf_api
FeatureSet
p6048
(dp6049
g243
(dp6050
S'posn'
p6051
S'40'
p6052
sS'name'
p6053
S'\xe0\xa5\xa7\xe0\xa5\xaa'
p6054
sS'drel'
p6055
S'pof__cn:\xe0\xa4\xa8\xe0\xa4\xb5\xe0\xa4\x82\xe0\xa4\xac\xe0\xa4\xb0'
p6056
sS'chunktype'
p6057
S'child:NP2'
p6058
sS'af'
p6059
S'\xe0\xa5\xa7\xe0\xa5\xaa,n,any,sg,3,d,0,0'
p6060
ssbsg1533
I00
sg1536
I00
sg1547
Nsg1534
Nsg188
I1
sg175
I6
sg1853
Nsg1545
Nsg1854
S'NNPC'
p6061
sg240
(issf_api
FeatureSet
p6062
(dp6063
g243
(dp6064
S'posn'
p6065
S'40'
p6066
sS'name'
p6067
S'\xe0\xa5\xa7\xe0\xa5\xaa'
p6068
sS'af'
p6069
S'\xe0\xa5\xa7\xe0\xa5\xaa,n,any,sg,3,d,0,0'
p6070
ssbsg1554
I00
sba(issf_api
Word
p6071
(dp6072
g1836
I00
sg1837
V\u0928\u0935\u0902\u092c\u0930
p6073
sg1839
(issf_api
FeatureSet
p6074
(dp6075
g243
(dp6076
S'posn'
p6077
S'50'
p6078
sS'name'
p6079
S'\xe0\xa4\xa8\xe0\xa4\xb5\xe0\xa4\x82\xe0\xa4\xac\xe0\xa4\xb0'
p6080
sS'af'
p6081
S'\xe0\xa4\xa8\xe0\xa4\xb5\xe0\xa4\x82\xe0\xa4\xac\xe0\xa4\xb0,n,m,sg,3,o,0_\xe0\xa4\x95\xe0\xa5\x8b,0'
p6082
sS'chunkid'
p6083
S'NP2'
p6084
sS'drel'
p6085
S'k7t:\xe0\xa4\x95\xe0\xa4\xbf\xe0\xa4\xaf\xe0\xa4\xbe'
p6086
sS'vpos'
p6087
S'vib_3'
p6088
sS'chunktype'
p6089
S'head:NP2'
p6090
ssbsg1533
I00
sg1536
I00
sg1547
Nsg1534
Nsg188
I1
sg175
I6
sg1853
Nsg1545
Nsg1854
S'NNP'
p6091
sg240
(issf_api
FeatureSet
p6092
(dp6093
g243
(dp6094
S'posn'
p6095
S'50'
p6096
sS'name'
p6097
S'\xe0\xa4\xa8\xe0\xa4\xb5\xe0\xa4\x82\xe0\xa4\xac\xe0\xa4\xb0'
p6098
sS'af'
p6099
S'\xe0\xa4\xa8\xe0\xa4\xb5\xe0\xa4\x82\xe0\xa4\xac\xe0\xa4\xb0,n,m,sg,3,o,0,0'
p6100
ssbsg1554
I00
sba(issf_api
Word
p6101
(dp6102
g1836
I00
sg1837
V\u0915\u094b
p6103
sg1839
(issf_api
FeatureSet
p6104
(dp6105
g243
(dp6106
S'posn'
p6107
S'60'
p6108
sS'name'
p6109
S'\xe0\xa4\x95\xe0\xa5\x8b'
p6110
sS'drel'
p6111
S'lwg__psp:\xe0\xa4\xa8\xe0\xa4\xb5\xe0\xa4\x82\xe0\xa4\xac\xe0\xa4\xb0'
p6112
sS'chunktype'
p6113
S'child:NP2'
p6114
sS'af'
p6115
S'\xe0\xa4\x95\xe0\xa5\x8b,psp,,,,,,'
p6116
ssbsg1533
I00
sg1536
I00
sg1547
Nsg1534
Nsg188
I1
sg175
I6
sg1853
Nsg1545
Nsg1854
S'PSP'
p6117
sg240
(issf_api
FeatureSet
p6118
(dp6119
g243
(dp6120
S'posn'
p6121
S'60'
p6122
sS'name'
p6123
S'\xe0\xa4\x95\xe0\xa5\x8b'
p6124
sS'af'
p6125
S'\xe0\xa4\x95\xe0\xa5\x8b,psp,,,,,,'
p6126
ssbsg1554
I00
sba(issf_api
Word
p6127
(dp6128
g1836
I00
sg1837
V\u0907\u0938
p6129
sg1839
(issf_api
FeatureSet
p6130
(dp6131
g243
(dp6132
S'posn'
p6133
S'70'
p6134
sS'name'
p6135
S'\xe0\xa4\x87\xe0\xa4\xb8'
p6136
sS'drel'
p6137
S'nmod__adj:\xe0\xa4\xae\xe0\xa4\xbe\xe0\xa4\xae\xe0\xa4\xb2\xe0\xa5\x87'
p6138
sS'chunktype'
p6139
S'child:NP3'
p6140
sS'af'
p6141
S'\xe0\xa4\xaf\xe0\xa4\xb9,pn,any,sg,3,o,,'
p6142
ssbsg1533
I00
sg1536
I00
sg1547
Nsg1534
Nsg188
I2
sg175
I6
sg1853
Nsg1545
Nsg1854
S'DEM'
p6143
sg240
(issf_api
FeatureSet
p6144
(dp6145
g243
(dp6146
S'posn'
p6147
S'70'
p6148
sS'name'
p6149
S'\xe0\xa4\x87\xe0\xa4\xb8'
p6150
sS'af'
p6151
S'\xe0\xa4\xaf\xe0\xa4\xb9,pn,any,sg,3,o,,'
p6152
ssbsg1554
I00
sba(issf_api
Word
p6153
(dp6154
g1836
I00
sg1837
V\u092e\u093e\u092e\u0932\u0947
p6155
sg1839
(issf_api
FeatureSet
p6156
(dp6157
g243
(dp6158
S'posn'
p6159
S'80'
p6160
sS'name'
p6161
S'\xe0\xa4\xae\xe0\xa4\xbe\xe0\xa4\xae\xe0\xa4\xb2\xe0\xa5\x87'
p6162
sS'af'
p6163
S'\xe0\xa4\xae\xe0\xa4\xbe\xe0\xa4\xae\xe0\xa4\xb2\xe0\xa4\xbe,n,m,sg,3,o,0_\xe0\xa4\xae\xe0\xa5\x87\xe0\xa4\x82,0'
p6164
sS'chunkid'
p6165
S'NP3'
p6166
sS'drel'
p6167
S'k7:\xe0\xa4\x95\xe0\xa4\xbf\xe0\xa4\xaf\xe0\xa4\xbe'
p6168
sS'vpos'
p6169
S'vib_3'
p6170
sS'chunktype'
p6171
S'head:NP3'
p6172
ssbsg1533
I00
sg1536
I00
sg1547
Nsg1534
Nsg188
I2
sg175
I6
sg1853
Nsg1545
Nsg1854
S'NN'
p6173
sg240
(issf_api
FeatureSet
p6174
(dp6175
g243
(dp6176
S'posn'
p6177
S'80'
p6178
sS'name'
p6179
S'\xe0\xa4\xae\xe0\xa4\xbe\xe0\xa4\xae\xe0\xa4\xb2\xe0\xa5\x87'
p6180
sS'af'
p6181
S'\xe0\xa4\xae\xe0\xa4\xbe\xe0\xa4\xae\xe0\xa4\xb2\xe0\xa4\xbe,n,m,sg,3,o,0,0'
p6182
ssbsg1554
I00
sba(issf_api
Word
p6183
(dp6184
g1836
I00
sg1837
V\u092e\u0947\u0902
p6185
sg1839
(issf_api
FeatureSet
p6186
(dp6187
g243
(dp6188
S'posn'
p6189
S'90'
p6190
sS'name'
p6191
S'\xe0\xa4\xae\xe0\xa5\x87\xe0\xa4\x82'
p6192
sS'drel'
p6193
S'lwg__psp:\xe0\xa4\xae\xe0\xa4\xbe\xe0\xa4\xae\xe0\xa4\xb2\xe0\xa5\x87'
p6194
sS'chunktype'
p6195
S'child:NP3'
p6196
sS'af'
p6197
S'\xe0\xa4\xae\xe0\xa5\x87\xe0\xa4\x82,psp,,,,,,'
p6198
ssbsg1533
I00
sg1536
I00
sg1547
Nsg1534
Nsg188
I2
sg175
I6
sg1853
Nsg1545
Nsg1854
S'PSP'
p6199
sg240
(issf_api
FeatureSet
p6200
(dp6201
g243
(dp6202
S'posn'
p6203
S'90'
p6204
sS'name'
p6205
S'\xe0\xa4\xae\xe0\xa5\x87\xe0\xa4\x82'
p6206
sS'af'
p6207
S'\xe0\xa4\xae\xe0\xa5\x87\xe0\xa4\x82,psp,,,,,,'
p6208
ssbsg1554
I00
sba(issf_api
Word
p6209
(dp6210
g1836
I00
sg1837
V\u092b\u093f\u0930
p6211
sg1839
(issf_api
FeatureSet
p6212
(dp6213
g243
(dp6214
S'posn'
p6215
S'100'
p6216
sS'name'
p6217
S'\xe0\xa4\xab\xe0\xa4\xbf\xe0\xa4\xb0'
p6218
sS'af'
p6219
S'\xe0\xa4\xab\xe0\xa4\xbf\xe0\xa4\xb0,adv,,,,,,'
p6220
sS'chunkid'
p6221
S'RBP'
p6222
sS'drel'
p6223
S'adv:\xe0\xa4\x95\xe0\xa4\xbf\xe0\xa4\xaf\xe0\xa4\xbe'
p6224
sS'chunktype'
p6225
S'head:RBP'
p6226
ssbsg1533
I00
sg1536
I00
sg1547
Nsg1534
Nsg188
I3
sg175
I6
sg1853
Nsg1545
Nsg1854
S'RB'
p6227
sg240
(issf_api
FeatureSet
p6228
(dp6229
g243
(dp6230
S'posn'
p6231
S'100'
p6232
sS'name'
p6233
S'\xe0\xa4\xab\xe0\xa4\xbf\xe0\xa4\xb0'
p6234
sS'af'
p6235
S'\xe0\xa4\xab\xe0\xa4\xbf\xe0\xa4\xb0,adv,,,,,,'
p6236
ssbsg1554
I00
sba(issf_api
Word
p6237
(dp6238
g1836
I00
sg1837
V\u0938\u0947
p6239
sg1839
(issf_api
FeatureSet
p6240
(dp6241
g243
(dp6242
S'posn'
p6243
S'110'
p6244
sS'name'
p6245
S'\xe0\xa4\xb8\xe0\xa5\x87'
p6246
sS'drel'
p6247
S'lwg__rp:\xe0\xa4\xab\xe0\xa4\xbf\xe0\xa4\xb0'
p6248
sS'chunktype'
p6249
S'child:RBP'
p6250
sS'af'
p6251
S'\xe0\xa4\xb8\xe0\xa5\x87,avy,,,,,,'
p6252
ssbsg1533
I00
sg1536
I00
sg1547
Nsg1534
Nsg188
I3
sg175
I6
sg1853
Nsg1545
Nsg1854
S'RP'
p6253
sg240
(issf_api
FeatureSet
p6254
(dp6255
g243
(dp6256
S'posn'
p6257
S'110'
p6258
sS'name'
p6259
S'\xe0\xa4\xb8\xe0\xa5\x87'
p6260
sS'af'
p6261
S'\xe0\xa4\xb8\xe0\xa5\x87,avy,,,,,,'
p6262
ssbsg1554
I00
sba(issf_api
Word
p6263
(dp6264
g1836
I00
sg1837
V\u0935\u093e\u0930\u0902\u091f
p6265
sg1839
(issf_api
FeatureSet
p6266
(dp6267
g243
(dp6268
S'posn'
p6269
S'120'
p6270
sS'name'
p6271
S'\xe0\xa4\xb5\xe0\xa4\xbe\xe0\xa4\xb0\xe0\xa4\x82\xe0\xa4\x9f'
p6272
sS'af'
p6273
S'\xe0\xa4\xb5\xe0\xa4\xbe\xe0\xa4\xb0\xe0\xa4\x82\xe0\xa4\x9f,n,m,sg,3,d,0,0'
p6274
sS'chunkid'
p6275
S'NP4'
p6276
sS'drel'
p6277
S'k2:\xe0\xa4\x95\xe0\xa4\xbf\xe0\xa4\xaf\xe0\xa4\xbe'
p6278
sS'chunktype'
p6279
S'head:NP4'
p6280
ssbsg1533
I00
sg1536
I00
sg1547
Nsg1534
Nsg188
I4
sg175
I6
sg1853
Nsg1545
Nsg1854
S'NN'
p6281
sg240
(issf_api
FeatureSet
p6282
(dp6283
g243
(dp6284
S'posn'
p6285
S'120'
p6286
sS'name'
p6287
S'\xe0\xa4\xb5\xe0\xa4\xbe\xe0\xa4\xb0\xe0\xa4\x82\xe0\xa4\x9f'
p6288
sS'af'
p6289
S'\xe0\xa4\xb5\xe0\xa4\xbe\xe0\xa4\xb0\xe0\xa4\x82\xe0\xa4\x9f,n,m,sg,3,d,0,0'
p6290
ssbsg1554
I00
sba(issf_api
Word
p6291
(dp6292
g1836
I00
sg1837
V\u091c\u093e\u0930\u0940
p6293
sg1839
(issf_api
FeatureSet
p6294
(dp6295
g243
(dp6296
S'posn'
p6297
S'130'
p6298
sS'name'
p6299
S'\xe0\xa4\x9c\xe0\xa4\xbe\xe0\xa4\xb0\xe0\xa5\x80'
p6300
sS'af'
p6301
S'\xe0\xa4\x9c\xe0\xa4\xbe\xe0\xa4\xb0\xe0\xa5\x80,adj,any,any,,,,'
p6302
sS'chunkid'
p6303
S'JJP'
p6304
sS'drel'
p6305
S'pof:\xe0\xa4\x95\xe0\xa4\xbf\xe0\xa4\xaf\xe0\xa4\xbe'
p6306
sS'chunktype'
p6307
S'head:JJP'
p6308
ssbsg1533
I00
sg1536
I00
sg1547
Nsg1534
Nsg188
I5
sg175
I6
sg1853
Nsg1545
Nsg1854
S'JJ'
p6309
sg240
(issf_api
FeatureSet
p6310
(dp6311
g243
(dp6312
S'posn'
p6313
S'130'
p6314
sS'name'
p6315
S'\xe0\xa4\x9c\xe0\xa4\xbe\xe0\xa4\xb0\xe0\xa5\x80'
p6316
sS'af'
p6317
S'\xe0\xa4\x9c\xe0\xa4\xbe\xe0\xa4\xb0\xe0\xa5\x80,adj,any,any,,,,'
p6318
ssbsg1554
I00
sba(issf_api
Word
p6319
(dp6320
g1836
I00
sg1837
V\u0915\u093f\u092f\u093e
p6321
sg1839
(issf_api
FeatureSet
p6322
(dp6323
g243
(dp6324
S'posn'
p6325
S'140'
p6326
sS'name'
p6327
S'\xe0\xa4\x95\xe0\xa4\xbf\xe0\xa4\xaf\xe0\xa4\xbe'
p6328
sS'af'
p6329
S'\xe0\xa4\x95\xe0\xa4\xb0,v,m,sg,any,,\xe0\xa4\xaf\xe0\xa4\xbe,yA'
p6330
sS'chunkid'
p6331
S'VGF'
p6332
sS'chunktype'
p6333
S'head:VGF'
p6334
sS'voicetype'
p6335
S'active'
p6336
sS'stype'
p6337
S'declarative'
p6338
ssbsg1533
I00
sg1536
I00
sg1547
Nsg1534
Nsg188
I6
sg175
I6
sg1853
Nsg1545
Nsg1854
S'VM'
p6339
sg240
(issf_api
FeatureSet
p6340
(dp6341
g243
(dp6342
S'posn'
p6343
S'140'
p6344
sS'name'
p6345
S'\xe0\xa4\x95\xe0\xa4\xbf\xe0\xa4\xaf\xe0\xa4\xbe'
p6346
sS'af'
p6347
S'\xe0\xa4\x95\xe0\xa4\xb0,v,m,sg,any,,\xe0\xa4\xaf\xe0\xa4\xbe,yA'
p6348
ssbsg1554
I00
sba(issf_api
Word
p6349
(dp6350
g1836
I00
sg1837
V\u0964
sg1839
(issf_api
FeatureSet
p6351
(dp6352
g243
(dp6353
S'posn'
p6354
S'150'
p6355
sS'name'
p6356
S'\xe0\xa5\xa4'
p6357
sS'af'
p6358
S'\xe0\xa5\xa4,punc,,,,,,'
p6359
sS'chunkid'
p6360
S'BLK'
p6361
sS'drel'
p6362
S'rsym:\xe0\xa4\x95\xe0\xa4\xbf\xe0\xa4\xaf\xe0\xa4\xbe'
p6363
sS'chunktype'
p6364
S'head:BLK'
p6365
ssbsg1533
I00
sg1536
I00
sg1547
Nsg1534
Nsg188
I7
sg175
I6
sg1853
Nsg1545
Nsg1854
S'SYM'
p6366
sg240
(issf_api
FeatureSet
p6367
(dp6368
g243
(dp6369
S'posn'
p6370
S'150'
p6371
sS'name'
p6372
S'\xe0\xa5\xa4'
p6373
sS'af'
p6374
S'\xe0\xa5\xa4,punc,,,,,,'
p6375
ssbsg1554
I00
sbasb.