(iannotated_data
discourseFile
p1
(dp2
S'annToRawMapping'
p3
(dp4
I0
(I0
tp5
sI1
(I1
tp6
sI2
(I2
tp7
sI3
(I3
tp8
sI4
(I4
tp9
sI5
(I5
tp10
sI6
(I6
tp11
sI7
(I7
tp12
sI8
(I8
tp13
sI9
(I9
tp14
sI10
(I10
tp15
sI11
(I11
tp16
sI12
(I12
tp17
sI13
(I13
tp18
sI14
(I14
tp19
sI15
(I15
tp20
sI16
(I16
tp21
sI17
(I17
tp22
sI18
(I18
tp23
sI19
(I19
tp24
sI20
(I20
tp25
sI21
(I21
tp26
sI22
(I22
tp27
sI23
(I23
tp28
sI24
(I24
tp29
sI25
(I25
tp30
sI26
(I26
tp31
sI27
(I27
tp32
sI28
(I28
tp33
sI29
(I29
tp34
sI30
(I30
tp35
sI31
(I31
tp36
sI32
(I32
tp37
sI33
(I33
tp38
sI34
(I34
tp39
sI35
(I35
tp40
sI36
(I36
tp41
sI37
(I37
tp42
sI38
(I38
tp43
sI39
(I39
tp44
sI40
(I40
tp45
sI41
(I41
tp46
sI42
(I42
tp47
sI43
(I43
tp48
sI44
(I44
tp49
sI45
(I45
tp50
sI46
(I46
tp51
sI47
(I47
tp52
sI48
(I48
tp53
sI49
(I49
tp54
sI50
(I50
tp55
sI51
(I51
tp56
sI52
(I52
tp57
sI53
(I53
tp58
sI54
(I54
tp59
sI55
(I55
tp60
sI56
(I56
tp61
sI57
(I57
tp62
sI58
(I58
tp63
sI59
(I59
tp64
sI60
(I60
tp65
sI61
(I61
tp66
sI62
(I62
tp67
sI63
(I63
tp68
sI64
(I64
tp69
sI65
(I65
tp70
sI66
(I66
tp71
sI67
(I67
tp72
sI68
(I68
tp73
sI69
(I69
tp74
sI70
(I70
tp75
sI71
(I71
tp76
sI72
(I72
tp77
sI73
(I73
tp78
sI74
(I74
tp79
sI75
(I75
tp80
sI76
(I76
tp81
sI77
(I77
tp82
sI78
(I78
tp83
sI79
(I79
tp84
sI80
(I80
tp85
sI81
(I81
tp86
sI82
(I82
tp87
sI83
(I83
tp88
sI84
(I84
tp89
sI85
(I85
tp90
sI86
(I86
tp91
sI87
(I87
tp92
sI88
(I88
tp93
sI89
(I89
tp94
sI90
(I90
tp95
sI91
(I91
tp96
sI92
(I92
tp97
sI93
(I93
tp98
sI94
(I94
tp99
sI95
(I95
tp100
sI96
(I96
tp101
sI97
(I97
tp102
sI98
(I98
tp103
sI99
(I99
tp104
sI100
(I100
tp105
sI101
(I101
tp106
sI102
(I102
tp107
sI103
(I103
tp108
sI104
(I104
tp109
sI105
(I105
tp110
sI106
(I106
tp111
sI107
(I107
tp112
sI108
(I108
tp113
sI109
(I109
tp114
sI110
(I110
tp115
sI111
(I111
tp116
sI112
(I112
tp117
sI113
(I113
tp118
sI114
(I114
tp119
sI115
(I115
tp120
sI116
(I116
tp121
sI117
(I117
tp122
sI118
(I118
tp123
sI119
(I119
tp124
sI120
(I120
tp125
sI121
(I121
tp126
sI122
(I122
tp127
sI123
(I123
tp128
sI124
(I124
tp129
sI125
(I125
tp130
sI126
(I126
tp131
sI127
(I127
tp132
sI128
(I128
tp133
sI129
(I129
tp134
sI130
(I130
tp135
sI131
(I131
tp136
sI132
(I132
tp137
sI133
(I133
tp138
sI134
(I134
tp139
sI135
(I135
tp140
sI136
(I136
tp141
sI137
(I137
tp142
sI138
(I138
tp143
sI139
(I139
tp144
sI140
(I140
tp145
sI141
(I141
tp146
sI142
(I142
tp147
sI143
(I143
tp148
sI144
(I144
tp149
sI145
(I145
tp150
sI146
(I146
tp151
sI147
(I147
tp152
sI148
(I148
tp153
sI149
(I149
tp154
sI150
(I150
tp155
sI151
(I151
tp156
sI152
(I152
tp157
sI153
(I153
tp158
sI154
(I154
tp159
sI155
(I155
tp160
sI156
(I156
tp161
sI157
(I157
tp162
sI158
(I158
tp163
sI159
(I159
tp164
sI160
(I160
tp165
sI161
(I161
tp166
sI162
(I162
tp167
ssS'sentenceList'
p168
(lp169
(issf_api
Sentence
p170
(dp171
S'rootNode'
p172
(lp173
sS'sentenceNum'
p174
I0
sS'wordNumList'
p175
(lp176
I0
aI1
aI2
aI3
aI4
aI5
aI6
aI7
aI8
aI9
aI10
aI11
aI12
aI13
aI14
aI15
aI16
aI17
aI18
aI19
aI20
aI21
aI22
aI23
aI24
aI25
aI26
aI27
aI28
aI29
aI30
asS'nodeDict'
p177
(dp178
S'VGNF'
p179
(issf_api
Node
p180
(dp181
S'nodeRelation'
p182
S'vmod'
p183
sS'nodeName'
p184
g179
sS'nodeParent'
p185
S'VGF'
p186
sS'nodeLevel'
p187
I-1
sS'chunkNum'
p188
I4
sS'childList'
p189
(lp190
sbsS'VGNN'
p191
(issf_api
Node
p192
(dp193
g182
S'k7t'
p194
sg184
g191
sg185
S'VGF'
p195
sg187
I-1
sg188
I8
sg189
(lp196
sbsS'VGF'
p197
(issf_api
Node
p198
(dp199
g182
S'None'
p200
sg184
g197
sg185
g200
sg187
I-1
sg188
I14
sg189
(lp201
sbsS'JJP'
p202
(issf_api
Node
p203
(dp204
g182
S'pof'
p205
sg184
g202
sg185
S'VGNN2'
p206
sg187
I-1
sg188
I11
sg189
(lp207
sbsS'VGNN2'
p208
(issf_api
Node
p209
(dp210
g182
S'r6-k2'
p211
sg184
g208
sg185
S'NP10'
p212
sg187
I-1
sg188
I12
sg189
(lp213
sbsS'NP5'
p214
(issf_api
Node
p215
(dp216
g182
S'k7t'
p217
sg184
g214
sg185
S'VGNN'
p218
sg187
I-1
sg188
I5
sg189
(lp219
sbsS'NP9'
p220
(issf_api
Node
p221
(dp222
g182
S'k2'
p223
sg184
g220
sg185
S'VGNN2'
p224
sg187
I-1
sg188
I10
sg189
(lp225
sbsS'NP8'
p226
(issf_api
Node
p227
(dp228
g182
S'r6'
p229
sg184
g226
sg185
S'NP9'
p230
sg187
I-1
sg188
I9
sg189
(lp231
sbsS'BLK'
p232
(issf_api
Node
p233
(dp234
g182
S'rsym'
p235
sg184
g232
sg185
S'VGF'
p236
sg187
I-1
sg188
I15
sg189
(lp237
sbsS'NP10'
p238
(issf_api
Node
p239
(dp240
g182
S'pof'
p241
sg184
g238
sg185
S'VGF'
p242
sg187
I-1
sg188
I13
sg189
(lp243
sbsS'NP'
p244
(issf_api
Node
p245
(dp246
g182
S'k7p'
p247
sg184
g244
sg185
S'VGF'
p248
sg187
I-1
sg188
I0
sg189
(lp249
sbsS'NP4'
p250
(issf_api
Node
p251
(dp252
g182
S'k2'
p253
sg184
g250
sg185
S'VGNF'
p254
sg187
I-1
sg188
I3
sg189
(lp255
sbsS'NP7'
p256
(issf_api
Node
p257
(dp258
g182
S'k2'
p259
sg184
g256
sg185
S'VGNN'
p260
sg187
I-1
sg188
I7
sg189
(lp261
sbsS'NP6'
p262
(issf_api
Node
p263
(dp264
g182
S'r6'
p265
sg184
g262
sg185
S'NP7'
p266
sg187
I-1
sg188
I6
sg189
(lp267
sbsS'NP3'
p268
(issf_api
Node
p269
(dp270
g182
S'r6'
p271
sg184
g268
sg185
S'NP4'
p272
sg187
I-1
sg188
I2
sg189
(lp273
sbsS'NP2'
p274
(issf_api
Node
p275
(dp276
g182
S'k1'
p277
sg184
g274
sg185
S'VGF'
p278
sg187
I-1
sg188
I1
sg189
(lp279
sbssS'chunkList'
p280
(lp281
(issf_api
Chunk
p282
(dp283
g184
g244
sg188
I0
sS'chunkTag'
p284
S'NP'
p285
sg174
I0
sg175
(lp286
I0
aI1
aI2
asS'featureSet'
p287
(issf_api
FeatureSet
p288
(dp289
S'featureDict'
p290
(dp291
S'drel'
p292
S'k7p:VGF'
p293
sS'name'
p294
g244
ssbsba(issf_api
Chunk
p295
(dp296
g184
g274
sg188
I1
sg284
S'NP'
p297
sg174
I0
sg175
(lp298
I3
aI4
aI5
asg287
(issf_api
FeatureSet
p299
(dp300
g290
(dp301
S'drel'
p302
S'k1:VGF'
p303
sS'name'
p304
g274
ssbsba(issf_api
Chunk
p305
(dp306
g184
g268
sg188
I2
sg284
S'NP'
p307
sg174
I0
sg175
(lp308
I6
aI7
aI8
asg287
(issf_api
FeatureSet
p309
(dp310
g290
(dp311
S'drel'
p312
S'r6:NP4'
p313
sS'name'
p314
g268
ssbsba(issf_api
Chunk
p315
(dp316
g184
g250
sg188
I3
sg284
S'NP'
p317
sg174
I0
sg175
(lp318
I9
aI10
asg287
(issf_api
FeatureSet
p319
(dp320
g290
(dp321
S'drel'
p322
S'k2:VGNF'
p323
sS'name'
p324
g250
ssbsba(issf_api
Chunk
p325
(dp326
g184
g179
sg188
I4
sg284
S'VGNF'
p327
sg174
I0
sg175
(lp328
I11
asg287
(issf_api
FeatureSet
p329
(dp330
g290
(dp331
S'drel'
p332
S'vmod:VGF'
p333
sS'name'
p334
g179
ssbsba(issf_api
Chunk
p335
(dp336
g184
g214
sg188
I5
sg284
S'NP'
p337
sg174
I0
sg175
(lp338
I12
aI13
asg287
(issf_api
FeatureSet
p339
(dp340
g290
(dp341
S'drel'
p342
S'k7t:VGNN'
p343
sS'name'
p344
g214
ssbsba(issf_api
Chunk
p345
(dp346
g184
g262
sg188
I6
sg284
S'NP'
p347
sg174
I0
sg175
(lp348
I14
aI15
aI16
asg287
(issf_api
FeatureSet
p349
(dp350
g290
(dp351
S'drel'
p352
S'r6:NP7'
p353
sS'name'
p354
g262
ssbsba(issf_api
Chunk
p355
(dp356
g184
g256
sg188
I7
sg284
S'NP'
p357
sg174
I0
sg175
(lp358
I17
asg287
(issf_api
FeatureSet
p359
(dp360
g290
(dp361
S'drel'
p362
S'k2:VGNN'
p363
sS'name'
p364
g256
ssbsba(issf_api
Chunk
p365
(dp366
g184
g191
sg188
I8
sg284
S'VGNN'
p367
sg174
I0
sg175
(lp368
I18
aI19
aI20
asg287
(issf_api
FeatureSet
p369
(dp370
g290
(dp371
S'drel'
p372
S'k7t:VGF'
p373
sS'name'
p374
g191
ssbsba(issf_api
Chunk
p375
(dp376
g184
g226
sg188
I9
sg284
S'NP'
p377
sg174
I0
sg175
(lp378
I21
asg287
(issf_api
FeatureSet
p379
(dp380
g290
(dp381
S'drel'
p382
S'r6:NP9'
p383
sS'name'
p384
g226
ssbsba(issf_api
Chunk
p385
(dp386
g184
g220
sg188
I10
sg284
S'NP'
p387
sg174
I0
sg175
(lp388
I22
aI23
asg287
(issf_api
FeatureSet
p389
(dp390
g290
(dp391
S'drel'
p392
S'k2:VGNN2'
p393
sS'name'
p394
g220
ssbsba(issf_api
Chunk
p395
(dp396
g184
g202
sg188
I11
sg284
S'JJP'
p397
sg174
I0
sg175
(lp398
I24
asg287
(issf_api
FeatureSet
p399
(dp400
g290
(dp401
S'drel'
p402
S'pof:VGNN2'
p403
sS'name'
p404
g202
ssbsba(issf_api
Chunk
p405
(dp406
g184
g208
sg188
I12
sg284
S'VGNN'
p407
sg174
I0
sg175
(lp408
I25
aI26
asg287
(issf_api
FeatureSet
p409
(dp410
g290
(dp411
S'drel'
p412
S'r6-k2:NP10'
p413
sS'name'
p414
g208
ssbsba(issf_api
Chunk
p415
(dp416
g184
g238
sg188
I13
sg284
S'NP'
p417
sg174
I0
sg175
(lp418
I27
asg287
(issf_api
FeatureSet
p419
(dp420
g290
(dp421
S'drel'
p422
S'pof:VGF'
p423
sS'name'
p424
g238
ssbsba(issf_api
Chunk
p425
(dp426
g184
g197
sg188
I14
sg284
S'VGF'
p427
sg174
I0
sg175
(lp428
I28
aI29
asg287
(issf_api
FeatureSet
p429
(dp430
g290
(dp431
S'name'
p432
g197
sS'stype'
p433
S'declarative'
p434
sS'voicetype'
p435
S'active'
p436
ssbsba(issf_api
Chunk
p437
(dp438
g184
g232
sg188
I15
sg284
S'BLK'
p439
sg174
I0
sg175
(lp440
I30
asg287
(issf_api
FeatureSet
p441
(dp442
g290
(dp443
S'drel'
p444
S'rsym:VGF'
p445
sS'name'
p446
g232
ssbsbasba(issf_api
Sentence
p447
(dp448
g172
(lp449
sg174
I1
sg175
(lp450
I31
aI32
aI33
aI34
aI35
aI36
aI37
aI38
aI39
aI40
aI41
aI42
aI43
aI44
aI45
aI46
aI47
aI48
aI49
aI50
aI51
asg177
(dp451
S'VGNN'
p452
(issf_api
Node
p453
(dp454
g182
S'r6-k2'
p455
sg184
g452
sg185
S'NP7'
p456
sg187
I-1
sg188
I9
sg189
(lp457
sbsS'VGF'
p458
(issf_api
Node
p459
(dp460
g182
S'ccof'
p461
sg184
g458
sg185
S'CCP'
p462
sg187
I-1
sg188
I11
sg189
(lp463
sbsS'CCP'
p464
(issf_api
Node
p465
(dp466
g182
g200
sg184
g464
sg185
g200
sg187
I-1
sg188
I0
sg189
(lp467
sbsS'JJP'
p468
(issf_api
Node
p469
(dp470
g182
S'pof'
p471
sg184
g468
sg185
S'VGNN'
p472
sg187
I-1
sg188
I8
sg189
(lp473
sbsS'NP5'
p474
(issf_api
Node
p475
(dp476
g182
S'k2'
p477
sg184
g474
sg185
S'VGNN'
p478
sg187
I-1
sg188
I6
sg189
(lp479
sbsS'BLK'
p480
(issf_api
Node
p481
(dp482
g182
S'rsym'
p483
sg184
g480
sg185
S'CCP'
p484
sg187
I-1
sg188
I12
sg189
(lp485
sbsS'NP'
p486
(issf_api
Node
p487
(dp488
g182
S'ccof'
p489
sg184
g486
sg185
S'CCP2'
p490
sg187
I-1
sg188
I1
sg189
(lp491
sbsS'NP4'
p492
(issf_api
Node
p493
(dp494
g182
S'r6'
p495
sg184
g492
sg185
S'NP5'
p496
sg187
I-1
sg188
I5
sg189
(lp497
sbsS'NP7'
p498
(issf_api
Node
p499
(dp500
g182
S'pof'
p501
sg184
g498
sg185
S'VGF'
p502
sg187
I-1
sg188
I10
sg189
(lp503
sbsS'NP6'
p504
(issf_api
Node
p505
(dp506
g182
S'k7a'
p507
sg184
g504
sg185
S'VGNN'
p508
sg187
I-1
sg188
I7
sg189
(lp509
sbsS'CCP2'
p510
(issf_api
Node
p511
(dp512
g182
S'nmod'
p513
sg184
g510
sg185
S'NP3'
p514
sg187
I-1
sg188
I2
sg189
(lp515
sbsS'NP3'
p516
(issf_api
Node
p517
(dp518
g182
S'k1'
p519
sg184
g516
sg185
S'VGF'
p520
sg187
I-1
sg188
I4
sg189
(lp521
sbsS'NP2'
p522
(issf_api
Node
p523
(dp524
g182
S'ccof'
p525
sg184
g522
sg185
S'CCP2'
p526
sg187
I-1
sg188
I3
sg189
(lp527
sbssg280
(lp528
(issf_api
Chunk
p529
(dp530
g184
g464
sg188
I0
sg284
S'CCP'
p531
sg174
I1
sg175
(lp532
I31
asg287
(issf_api
FeatureSet
p533
(dp534
g290
(dp535
S'name'
p536
g464
ssbsba(issf_api
Chunk
p537
(dp538
g184
g486
sg188
I1
sg284
S'NP'
p539
sg174
I1
sg175
(lp540
I32
aI33
asg287
(issf_api
FeatureSet
p541
(dp542
g290
(dp543
S'drel'
p544
S'ccof:CCP2'
p545
sS'name'
p546
g486
ssbsba(issf_api
Chunk
p547
(dp548
g184
g510
sg188
I2
sg284
S'CCP'
p549
sg174
I1
sg175
(lp550
I34
asg287
(issf_api
FeatureSet
p551
(dp552
g290
(dp553
S'drel'
p554
S'nmod:NP3'
p555
sS'name'
p556
g510
ssbsba(issf_api
Chunk
p557
(dp558
g184
g522
sg188
I3
sg284
S'NP'
p559
sg174
I1
sg175
(lp560
I35
aI36
asg287
(issf_api
FeatureSet
p561
(dp562
g290
(dp563
S'drel'
p564
S'ccof:CCP2'
p565
sS'name'
p566
g522
ssbsba(issf_api
Chunk
p567
(dp568
g184
g516
sg188
I4
sg284
S'NP'
p569
sg174
I1
sg175
(lp570
I37
aI38
asg287
(issf_api
FeatureSet
p571
(dp572
g290
(dp573
S'drel'
p574
S'k1:VGF'
p575
sS'name'
p576
g516
ssbsba(issf_api
Chunk
p577
(dp578
g184
g492
sg188
I5
sg284
S'NP'
p579
sg174
I1
sg175
(lp580
I39
asg287
(issf_api
FeatureSet
p581
(dp582
g290
(dp583
S'drel'
p584
S'r6:NP5'
p585
sS'name'
p586
g492
ssbsba(issf_api
Chunk
p587
(dp588
g184
g474
sg188
I6
sg284
S'NP'
p589
sg174
I1
sg175
(lp590
I40
asg287
(issf_api
FeatureSet
p591
(dp592
g290
(dp593
S'drel'
p594
S'k2:VGNN'
p595
sS'name'
p596
g474
ssbsba(issf_api
Chunk
p597
(dp598
g184
g504
sg188
I7
sg284
S'NP'
p599
sg174
I1
sg175
(lp600
I41
aI42
aI43
aI44
asg287
(issf_api
FeatureSet
p601
(dp602
g290
(dp603
S'drel'
p604
S'k7a:VGNN'
p605
sS'name'
p606
g504
ssbsba(issf_api
Chunk
p607
(dp608
g184
g468
sg188
I8
sg284
S'JJP'
p609
sg174
I1
sg175
(lp610
I45
asg287
(issf_api
FeatureSet
p611
(dp612
g290
(dp613
S'drel'
p614
S'pof:VGNN'
p615
sS'name'
p616
g468
ssbsba(issf_api
Chunk
p617
(dp618
g184
g452
sg188
I9
sg284
S'VGNN'
p619
sg174
I1
sg175
(lp620
I46
aI47
asg287
(issf_api
FeatureSet
p621
(dp622
g290
(dp623
S'drel'
p624
S'r6-k2:NP7'
p625
sS'name'
p626
g452
ssbsba(issf_api
Chunk
p627
(dp628
g184
g498
sg188
I10
sg284
S'NP'
p629
sg174
I1
sg175
(lp630
I48
asg287
(issf_api
FeatureSet
p631
(dp632
g290
(dp633
S'drel'
p634
S'pof:VGF'
p635
sS'name'
p636
g498
ssbsba(issf_api
Chunk
p637
(dp638
g184
g458
sg188
I11
sg284
S'VGF'
p639
sg174
I1
sg175
(lp640
I49
aI50
asg287
(issf_api
FeatureSet
p641
(dp642
g290
(dp643
S'voicetype'
p644
S"active'"
p645
sS'drel'
p646
S'ccof:CCP'
p647
sS'stype'
p648
S'declarative'
p649
sS'name'
p650
g458
ssbsba(issf_api
Chunk
p651
(dp652
g184
g480
sg188
I12
sg284
S'BLK'
p653
sg174
I1
sg175
(lp654
I51
asg287
(issf_api
FeatureSet
p655
(dp656
g290
(dp657
S'drel'
p658
S'rsym:CCP'
p659
sS'name'
p660
g480
ssbsbasba(issf_api
Sentence
p661
(dp662
g172
(lp663
sg174
I2
sg175
(lp664
I52
aI53
aI54
aI55
aI56
aI57
aI58
aI59
aI60
aI61
aI62
aI63
aI64
aI65
aI66
aI67
aI68
aI69
aI70
aI71
aI72
aI73
aI74
aI75
aI76
aI77
aI78
aI79
aI80
aI81
aI82
aI83
aI84
aI85
aI86
aI87
aI88
aI89
aI90
aI91
aI92
aI93
aI94
aI95
aI96
aI97
aI98
asg177
(dp665
S'CCP'
p666
(issf_api
Node
p667
(dp668
g182
S'r6'
p669
sg184
g666
sg185
S'NP7'
p670
sg187
I-1
sg188
I4
sg189
(lp671
sbsS'NP14'
p672
(issf_api
Node
p673
(dp674
g182
S'k2'
p675
sg184
g672
sg185
S'VGF2'
p676
sg187
I-1
sg188
I18
sg189
(lp677
sbsS'NP9'
p678
(issf_api
Node
p679
(dp680
g182
S'k2'
p681
sg184
g678
sg185
S'VGNN'
p682
sg187
I-1
sg188
I12
sg189
(lp683
sbsS'NP8'
p684
(issf_api
Node
p685
(dp686
g182
S'k1'
p687
sg184
g684
sg185
S'VGF2'
p688
sg187
I-1
sg188
I11
sg189
(lp689
sbsS'NP4'
p690
(issf_api
Node
p691
(dp692
g182
S'rs'
p693
sg184
g690
sg185
S'NP3'
p694
sg187
I-1
sg188
I3
sg189
(lp695
sbsS'NP5'
p696
(issf_api
Node
p697
(dp698
g182
S'ccof'
p699
sg184
g696
sg185
S'CCP'
p700
sg187
I-1
sg188
I5
sg189
(lp701
sbsS'FRAGP'
p702
(issf_api
Node
p703
(dp704
g182
S'fragof'
p705
sg184
g702
sg185
S'NP5'
p706
sg187
I-1
sg188
I7
sg189
(lp707
sbsS'NP7'
p708
(issf_api
Node
p709
(dp710
g182
S'k1'
p711
sg184
g708
sg185
S'VGF'
p712
sg187
I-1
sg188
I8
sg189
(lp713
sbsS'NP6'
p714
(issf_api
Node
p715
(dp716
g182
S'rs'
p717
sg184
g714
sg185
S'NP5'
p718
sg187
I-1
sg188
I6
sg189
(lp719
sbsS'CCP2'
p720
(issf_api
Node
p721
(dp722
g182
S'k2'
p723
sg184
g720
sg185
S'VGF'
p724
sg187
I-1
sg188
I10
sg189
(lp725
sbsS'NP3'
p726
(issf_api
Node
p727
(dp728
g182
S'ccof'
p729
sg184
g726
sg185
S'CCP'
p730
sg187
I-1
sg188
I2
sg189
(lp731
sbsS'NP2'
p732
(issf_api
Node
p733
(dp734
g182
S'k7t'
p735
sg184
g732
sg185
S'VGF'
p736
sg187
I-1
sg188
I1
sg189
(lp737
sbsS'NP11'
p738
(issf_api
Node
p739
(dp740
g182
S'k7t'
p741
sg184
g738
sg185
S'VGF2'
p742
sg187
I-1
sg188
I15
sg189
(lp743
sbsS'NP10'
p744
(issf_api
Node
p745
(dp746
g182
S'r6'
p747
sg184
g744
sg185
S'NP11'
p748
sg187
I-1
sg188
I14
sg189
(lp749
sbsS'NP13'
p750
(issf_api
Node
p751
(dp752
g182
S'r6'
p753
sg184
g750
sg185
S'NP14'
p754
sg187
I-1
sg188
I17
sg189
(lp755
sbsS'NP12'
p756
(issf_api
Node
p757
(dp758
g182
S'k7t'
p759
sg184
g756
sg185
S'VGF2'
p760
sg187
I-1
sg188
I16
sg189
(lp761
sbsS'VGF2'
p762
(issf_api
Node
p763
(dp764
g182
S'ccof'
p765
sg184
g762
sg185
S'CCP2'
p766
sg187
I-1
sg188
I20
sg189
(lp767
sbsS'NP'
p768
(issf_api
Node
p769
(dp770
g182
S'vmod'
p771
sg184
g768
sg185
S'VGF'
p772
sg187
I-1
sg188
I0
sg189
(lp773
sbsS'VGNN'
p774
(issf_api
Node
p775
(dp776
g182
S'r6'
p777
sg184
g774
sg185
S'NP10'
p778
sg187
I-1
sg188
I13
sg189
(lp779
sbsS'VGF'
p780
(issf_api
Node
p781
(dp782
g182
g200
sg184
g780
sg185
g200
sg187
I-1
sg188
I9
sg189
(lp783
sbsS'BLK'
p784
(issf_api
Node
p785
(dp786
g182
S'rsym'
p787
sg184
g784
sg185
S'VGF'
p788
sg187
I-1
sg188
I21
sg189
(lp789
sbsS'JJP'
p790
(issf_api
Node
p791
(dp792
g182
S'pof'
p793
sg184
g790
sg185
S'VGF2'
p794
sg187
I-1
sg188
I19
sg189
(lp795
sbssg280
(lp796
(issf_api
Chunk
p797
(dp798
g184
g768
sg188
I0
sg284
S'NP'
p799
sg174
I2
sg175
(lp800
I52
aI53
aI54
aI55
aI56
aI57
asg287
(issf_api
FeatureSet
p801
(dp802
g290
(dp803
S'drel'
p804
S'vmod:VGF'
p805
sS'name'
p806
g768
ssbsba(issf_api
Chunk
p807
(dp808
g184
g732
sg188
I1
sg284
S'NP'
p809
sg174
I2
sg175
(lp810
I58
aI59
aI60
asg287
(issf_api
FeatureSet
p811
(dp812
g290
(dp813
S'drel'
p814
S'k7t:VGF'
p815
sS'name'
p816
g732
ssbsba(issf_api
Chunk
p817
(dp818
g184
g726
sg188
I2
sg284
S'NP'
p819
sg174
I2
sg175
(lp820
I61
aI62
aI63
asg287
(issf_api
FeatureSet
p821
(dp822
g290
(dp823
S'drel'
p824
S'ccof:CCP'
p825
sS'name'
p826
g726
ssbsba(issf_api
Chunk
p827
(dp828
g184
g690
sg188
I3
sg284
S'NP'
p829
sg174
I2
sg175
(lp830
I64
aI65
aI66
asg287
(issf_api
FeatureSet
p831
(dp832
g290
(dp833
S'drel'
p834
S'rs:NP3'
p835
sS'name'
p836
g690
ssbsba(issf_api
Chunk
p837
(dp838
g184
g666
sg188
I4
sg284
S'CCP'
p839
sg174
I2
sg175
(lp840
I67
asg287
(issf_api
FeatureSet
p841
(dp842
g290
(dp843
S'drel'
p844
S'r6:NP7'
p845
sS'name'
p846
g666
ssbsba(issf_api
Chunk
p847
(dp848
g184
g696
sg188
I5
sg284
S'NP'
p849
sg174
I2
sg175
(lp850
I68
aI69
aI70
aI71
aI72
asg287
(issf_api
FeatureSet
p851
(dp852
g290
(dp853
S'drel'
p854
S'ccof:CCP'
p855
sS'name'
p856
g696
ssbsba(issf_api
Chunk
p857
(dp858
g184
g714
sg188
I6
sg284
S'NP'
p859
sg174
I2
sg175
(lp860
I73
aI74
aI75
asg287
(issf_api
FeatureSet
p861
(dp862
g290
(dp863
S'drel'
p864
S'rs:NP5'
p865
sS'name'
p866
g714
ssbsba(issf_api
Chunk
p867
(dp868
g184
g702
sg188
I7
sg284
S'FRAGP'
p869
sg174
I2
sg175
(lp870
I76
asg287
(issf_api
FeatureSet
p871
(dp872
g290
(dp873
S'drel'
p874
S'fragof:NP5'
p875
sS'name'
p876
g702
ssbsba(issf_api
Chunk
p877
(dp878
g184
g708
sg188
I8
sg284
S'NP'
p879
sg174
I2
sg175
(lp880
I77
aI78
asg287
(issf_api
FeatureSet
p881
(dp882
g290
(dp883
S'drel'
p884
S'k1:VGF'
p885
sS'name'
p886
g708
ssbsba(issf_api
Chunk
p887
(dp888
g184
g780
sg188
I9
sg284
S'VGF'
p889
sg174
I2
sg175
(lp890
I79
asg287
(issf_api
FeatureSet
p891
(dp892
g290
(dp893
S'name'
p894
g780
sS'stype'
p895
S'declarative'
p896
sS'voicetype'
p897
S'active'
p898
ssbsba(issf_api
Chunk
p899
(dp900
g184
g720
sg188
I10
sg284
S'CCP'
p901
sg174
I2
sg175
(lp902
I80
asg287
(issf_api
FeatureSet
p903
(dp904
g290
(dp905
S'drel'
p906
S'k2:VGF'
p907
sS'name'
p908
g720
ssbsba(issf_api
Chunk
p909
(dp910
g184
g684
sg188
I11
sg284
S'NP'
p911
sg174
I2
sg175
(lp912
I81
asg287
(issf_api
FeatureSet
p913
(dp914
g290
(dp915
S'drel'
p916
S'k1:VGF2'
p917
sS'name'
p918
g684
ssbsba(issf_api
Chunk
p919
(dp920
g184
g678
sg188
I12
sg284
S'NP'
p921
sg174
I2
sg175
(lp922
I82
asg287
(issf_api
FeatureSet
p923
(dp924
g290
(dp925
S'drel'
p926
S'k2:VGNN'
p927
sS'name'
p928
g678
ssbsba(issf_api
Chunk
p929
(dp930
g184
g774
sg188
I13
sg284
S'VGNN'
p931
sg174
I2
sg175
(lp932
I83
aI84
aI85
asg287
(issf_api
FeatureSet
p933
(dp934
g290
(dp935
S'drel'
p936
S'r6:NP10'
p937
sS'name'
p938
g774
ssbsba(issf_api
Chunk
p939
(dp940
g184
g744
sg188
I14
sg284
S'NP'
p941
sg174
I2
sg175
(lp942
I86
aI87
asg287
(issf_api
FeatureSet
p943
(dp944
g290
(dp945
S'drel'
p946
S'r6:NP11'
p947
sS'name'
p948
g744
ssbsba(issf_api
Chunk
p949
(dp950
g184
g738
sg188
I15
sg284
S'NP'
p951
sg174
I2
sg175
(lp952
I88
aI89
aI90
asg287
(issf_api
FeatureSet
p953
(dp954
g290
(dp955
S'drel'
p956
S'k7t:VGF2'
p957
sS'name'
p958
g738
ssbsba(issf_api
Chunk
p959
(dp960
g184
g756
sg188
I16
sg284
S'NP'
p961
sg174
I2
sg175
(lp962
I91
aI92
asg287
(issf_api
FeatureSet
p963
(dp964
g290
(dp965
S'drel'
p966
S'k7t:VGF2'
p967
sS'name'
p968
g756
ssbsba(issf_api
Chunk
p969
(dp970
g184
g750
sg188
I17
sg284
S'NP'
p971
sg174
I2
sg175
(lp972
I93
asg287
(issf_api
FeatureSet
p973
(dp974
g290
(dp975
S'drel'
p976
S'r6:NP14'
p977
sS'name'
p978
g750
ssbsba(issf_api
Chunk
p979
(dp980
g184
g672
sg188
I18
sg284
S'NP'
p981
sg174
I2
sg175
(lp982
I94
asg287
(issf_api
FeatureSet
p983
(dp984
g290
(dp985
S'drel'
p986
S'k2:VGF2'
p987
sS'name'
p988
g672
ssbsba(issf_api
Chunk
p989
(dp990
g184
g790
sg188
I19
sg284
S'JJP'
p991
sg174
I2
sg175
(lp992
I95
asg287
(issf_api
FeatureSet
p993
(dp994
g290
(dp995
S'drel'
p996
S'pof:VGF2'
p997
sS'name'
p998
g790
ssbsba(issf_api
Chunk
p999
(dp1000
g184
g762
sg188
I20
sg284
S'VGF'
p1001
sg174
I2
sg175
(lp1002
I96
aI97
asg287
(issf_api
FeatureSet
p1003
(dp1004
g290
(dp1005
S'voicetype'
p1006
S"active'"
p1007
sS'drel'
p1008
S'ccof:CCP2'
p1009
sS'stype'
p1010
S'declarative'
p1011
sS'name'
p1012
g762
ssbsba(issf_api
Chunk
p1013
(dp1014
g184
g784
sg188
I21
sg284
S'BLK'
p1015
sg174
I2
sg175
(lp1016
I98
asg287
(issf_api
FeatureSet
p1017
(dp1018
g290
(dp1019
S'drel'
p1020
S'rsym:VGF'
p1021
sS'name'
p1022
g784
ssbsbasba(issf_api
Sentence
p1023
(dp1024
g172
(lp1025
sg174
I3
sg175
(lp1026
I99
aI100
aI101
aI102
aI103
aI104
aI105
aI106
aI107
aI108
aI109
aI110
aI111
aI112
aI113
aI114
aI115
aI116
aI117
aI118
aI119
aI120
aI121
aI122
asg177
(dp1027
S'VGF2'
p1028
(issf_api
Node
p1029
(dp1030
g182
S'ccof'
p1031
sg184
g1028
sg185
S'CCP'
p1032
sg187
I-1
sg188
I14
sg189
(lp1033
sbsS'VGNN'
p1034
(issf_api
Node
p1035
(dp1036
g182
S'r6-k2'
p1037
sg184
g1034
sg185
S'NP9'
p1038
sg187
I-1
sg188
I12
sg189
(lp1039
sbsS'VGF'
p1040
(issf_api
Node
p1041
(dp1042
g182
g200
sg184
g1040
sg185
g200
sg187
I-1
sg188
I3
sg189
(lp1043
sbsS'CCP'
p1044
(issf_api
Node
p1045
(dp1046
g182
S'k2'
p1047
sg184
g1044
sg185
S'VGF'
p1048
sg187
I-1
sg188
I4
sg189
(lp1049
sbsS'JJP'
p1050
(issf_api
Node
p1051
(dp1052
g182
S'pof'
p1053
sg184
g1050
sg185
S'VGNN'
p1054
sg187
I-1
sg188
I11
sg189
(lp1055
sbsS'NP5'
p1056
(issf_api
Node
p1057
(dp1058
g182
S'ccof'
p1059
sg184
g1056
sg185
S'CCP2'
p1060
sg187
I-1
sg188
I7
sg189
(lp1061
sbsS'NP9'
p1062
(issf_api
Node
p1063
(dp1064
g182
S'pof'
p1065
sg184
g1062
sg185
S'VGF2'
p1066
sg187
I-1
sg188
I13
sg189
(lp1067
sbsS'NP8'
p1068
(issf_api
Node
p1069
(dp1070
g182
S'k2'
p1071
sg184
g1068
sg185
S'VGNN'
p1072
sg187
I-1
sg188
I10
sg189
(lp1073
sbsS'BLK'
p1074
(issf_api
Node
p1075
(dp1076
g182
S'rsym'
p1077
sg184
g1074
sg185
S'VGF'
p1078
sg187
I-1
sg188
I15
sg189
(lp1079
sbsS'NP'
p1080
(issf_api
Node
p1081
(dp1082
g182
S'sent-adv'
p1083
sg184
g1080
sg185
S'VGF'
p1084
sg187
I-1
sg188
I0
sg189
(lp1085
sbsS'NP4'
p1086
(issf_api
Node
p1087
(dp1088
g182
S'ccof'
p1089
sg184
g1086
sg185
S'CCP2'
p1090
sg187
I-1
sg188
I5
sg189
(lp1091
sbsS'NP7'
p1092
(issf_api
Node
p1093
(dp1094
g182
S'r6'
p1095
sg184
g1092
sg185
S'NP8'
p1096
sg187
I-1
sg188
I9
sg189
(lp1097
sbsS'NP6'
p1098
(issf_api
Node
p1099
(dp1100
g182
S'k5'
p1101
sg184
g1098
sg185
S'VGNN'
p1102
sg187
I-1
sg188
I8
sg189
(lp1103
sbsS'CCP2'
p1104
(issf_api
Node
p1105
(dp1106
g182
S'k1'
p1107
sg184
g1104
sg185
S'VGF2'
p1108
sg187
I-1
sg188
I6
sg189
(lp1109
sbsS'NP3'
p1110
(issf_api
Node
p1111
(dp1112
g182
S'k4'
p1113
sg184
g1110
sg185
S'VGF'
p1114
sg187
I-1
sg188
I2
sg189
(lp1115
sbsS'NP2'
p1116
(issf_api
Node
p1117
(dp1118
g182
S'k1'
p1119
sg184
g1116
sg185
S'VGF'
p1120
sg187
I-1
sg188
I1
sg189
(lp1121
sbssg280
(lp1122
(issf_api
Chunk
p1123
(dp1124
g184
g1080
sg188
I0
sg284
S'NP'
p1125
sg174
I3
sg175
(lp1126
I99
aI100
aI101
asg287
(issf_api
FeatureSet
p1127
(dp1128
g290
(dp1129
S'drel'
p1130
S'sent-adv:VGF'
p1131
sS'name'
p1132
g1080
ssbsba(issf_api
Chunk
p1133
(dp1134
g184
g1116
sg188
I1
sg284
S'NP'
p1135
sg174
I3
sg175
(lp1136
I102
aI103
asg287
(issf_api
FeatureSet
p1137
(dp1138
g290
(dp1139
S'drel'
p1140
S'k1:VGF'
p1141
sS'name'
p1142
g1116
ssbsba(issf_api
Chunk
p1143
(dp1144
g184
g1110
sg188
I2
sg284
S'NP'
p1145
sg174
I3
sg175
(lp1146
I104
aI105
asg287
(issf_api
FeatureSet
p1147
(dp1148
g290
(dp1149
S'drel'
p1150
S'k4:VGF'
p1151
sS'name'
p1152
g1110
ssbsba(issf_api
Chunk
p1153
(dp1154
g184
g1040
sg188
I3
sg284
S'VGF'
p1155
sg174
I3
sg175
(lp1156
I106
asg287
(issf_api
FeatureSet
p1157
(dp1158
g290
(dp1159
S'name'
p1160
g1040
sS'stype'
p1161
S'declarative'
p1162
sS'voicetype'
p1163
S'active'
p1164
ssbsba(issf_api
Chunk
p1165
(dp1166
g184
g1044
sg188
I4
sg284
S'CCP'
p1167
sg174
I3
sg175
(lp1168
I107
asg287
(issf_api
FeatureSet
p1169
(dp1170
g290
(dp1171
S'drel'
p1172
S'k2:VGF'
p1173
sS'name'
p1174
g1044
ssbsba(issf_api
Chunk
p1175
(dp1176
g184
g1086
sg188
I5
sg284
S'NP'
p1177
sg174
I3
sg175
(lp1178
I108
asg287
(issf_api
FeatureSet
p1179
(dp1180
g290
(dp1181
S'drel'
p1182
S'ccof:CCP2'
p1183
sS'name'
p1184
g1086
ssbsba(issf_api
Chunk
p1185
(dp1186
g184
g1104
sg188
I6
sg284
S'CCP'
p1187
sg174
I3
sg175
(lp1188
I109
asg287
(issf_api
FeatureSet
p1189
(dp1190
g290
(dp1191
S'drel'
p1192
S'k1:VGF2'
p1193
sS'name'
p1194
g1104
ssbsba(issf_api
Chunk
p1195
(dp1196
g184
g1056
sg188
I7
sg284
S'NP'
p1197
sg174
I3
sg175
(lp1198
I110
aI111
asg287
(issf_api
FeatureSet
p1199
(dp1200
g290
(dp1201
S'drel'
p1202
S'ccof:CCP2'
p1203
sS'name'
p1204
g1056
ssbsba(issf_api
Chunk
p1205
(dp1206
g184
g1098
sg188
I8
sg284
S'NP'
p1207
sg174
I3
sg175
(lp1208
I112
aI113
asg287
(issf_api
FeatureSet
p1209
(dp1210
g290
(dp1211
S'drel'
p1212
S'k5:VGNN'
p1213
sS'name'
p1214
g1098
ssbsba(issf_api
Chunk
p1215
(dp1216
g184
g1092
sg188
I9
sg284
S'NP'
p1217
sg174
I3
sg175
(lp1218
I114
asg287
(issf_api
FeatureSet
p1219
(dp1220
g290
(dp1221
S'drel'
p1222
S'r6:NP8'
p1223
sS'name'
p1224
g1092
ssbsba(issf_api
Chunk
p1225
(dp1226
g184
g1068
sg188
I10
sg284
S'NP'
p1227
sg174
I3
sg175
(lp1228
I115
asg287
(issf_api
FeatureSet
p1229
(dp1230
g290
(dp1231
S'drel'
p1232
S'k2:VGNN'
p1233
sS'name'
p1234
g1068
ssbsba(issf_api
Chunk
p1235
(dp1236
g184
g1050
sg188
I11
sg284
S'JJP'
p1237
sg174
I3
sg175
(lp1238
I116
asg287
(issf_api
FeatureSet
p1239
(dp1240
g290
(dp1241
S'drel'
p1242
S'pof:VGNN'
p1243
sS'name'
p1244
g1050
ssbsba(issf_api
Chunk
p1245
(dp1246
g184
g1034
sg188
I12
sg284
S'VGNN'
p1247
sg174
I3
sg175
(lp1248
I117
aI118
asg287
(issf_api
FeatureSet
p1249
(dp1250
g290
(dp1251
S'drel'
p1252
S'r6-k2:NP9'
p1253
sS'name'
p1254
g1034
ssbsba(issf_api
Chunk
p1255
(dp1256
g184
g1062
sg188
I13
sg284
S'NP'
p1257
sg174
I3
sg175
(lp1258
I119
asg287
(issf_api
FeatureSet
p1259
(dp1260
g290
(dp1261
S'drel'
p1262
S'pof:VGF2'
p1263
sS'name'
p1264
g1062
ssbsba(issf_api
Chunk
p1265
(dp1266
g184
g1028
sg188
I14
sg284
S'VGF'
p1267
sg174
I3
sg175
(lp1268
I120
aI121
asg287
(issf_api
FeatureSet
p1269
(dp1270
g290
(dp1271
S'voicetype'
p1272
S"active'"
p1273
sS'drel'
p1274
S'ccof:CCP'
p1275
sS'stype'
p1276
S'declarative'
p1277
sS'name'
p1278
g1028
ssbsba(issf_api
Chunk
p1279
(dp1280
g184
g1074
sg188
I15
sg284
S'BLK'
p1281
sg174
I3
sg175
(lp1282
I122
asg287
(issf_api
FeatureSet
p1283
(dp1284
g290
(dp1285
S'drel'
p1286
S'rsym:VGF'
p1287
sS'name'
p1288
g1074
ssbsbasba(issf_api
Sentence
p1289
(dp1290
g172
(lp1291
sg174
I4
sg175
(lp1292
I123
aI124
aI125
aI126
aI127
aI128
aI129
aI130
aI131
aI132
aI133
aI134
aI135
aI136
aI137
aI138
aI139
aI140
aI141
aI142
aI143
asg177
(dp1293
S'VGF2'
p1294
(issf_api
Node
p1295
(dp1296
g182
S'ccof'
p1297
sg184
g1294
sg185
S'CCP'
p1298
sg187
I-1
sg188
I11
sg189
(lp1299
sbsS'VGNN'
p1300
(issf_api
Node
p1301
(dp1302
g182
S'r6'
p1303
sg184
g1300
sg185
S'NP3'
p1304
sg187
I-1
sg188
I4
sg189
(lp1305
sbsS'VGF'
p1306
(issf_api
Node
p1307
(dp1308
g182
g200
sg184
g1306
sg185
g200
sg187
I-1
sg188
I1
sg189
(lp1309
sbsS'CCP'
p1310
(issf_api
Node
p1311
(dp1312
g182
S'k2'
p1313
sg184
g1310
sg185
S'VGF'
p1314
sg187
I-1
sg188
I2
sg189
(lp1315
sbsS'JJP'
p1316
(issf_api
Node
p1317
(dp1318
g182
S'ccof'
p1319
sg184
g1316
sg185
S'CCP2'
p1320
sg187
I-1
sg188
I6
sg189
(lp1321
sbsS'NP5'
p1322
(issf_api
Node
p1323
(dp1324
g182
S'pof'
p1325
sg184
g1322
sg185
S'VGF2'
p1326
sg187
I-1
sg188
I10
sg189
(lp1327
sbsS'JJP2'
p1328
(issf_api
Node
p1329
(dp1330
g182
S'ccof'
p1331
sg184
g1328
sg185
S'CCP2'
p1332
sg187
I-1
sg188
I8
sg189
(lp1333
sbsS'BLK'
p1334
(issf_api
Node
p1335
(dp1336
g182
S'rsym'
p1337
sg184
g1334
sg185
S'VGF'
p1338
sg187
I-1
sg188
I12
sg189
(lp1339
sbsS'NP'
p1340
(issf_api
Node
p1341
(dp1342
g182
S'k1'
p1343
sg184
g1340
sg185
S'VGF'
p1344
sg187
I-1
sg188
I0
sg189
(lp1345
sbsS'NP4'
p1346
(issf_api
Node
p1347
(dp1348
g182
S'rh'
p1349
sg184
g1346
sg185
S'VGF2'
p1350
sg187
I-1
sg188
I9
sg189
(lp1351
sbsS'CCP2'
p1352
(issf_api
Node
p1353
(dp1354
g182
S'nmod'
p1355
sg184
g1352
sg185
S'NP4'
p1356
sg187
I-1
sg188
I7
sg189
(lp1357
sbsS'NP3'
p1358
(issf_api
Node
p1359
(dp1360
g182
S'k7'
p1361
sg184
g1358
sg185
S'VGF2'
p1362
sg187
I-1
sg188
I5
sg189
(lp1363
sbsS'NP2'
p1364
(issf_api
Node
p1365
(dp1366
g182
S'k2'
p1367
sg184
g1364
sg185
S'VGNN'
p1368
sg187
I-1
sg188
I3
sg189
(lp1369
sbssg280
(lp1370
(issf_api
Chunk
p1371
(dp1372
g184
g1340
sg188
I0
sg284
S'NP'
p1373
sg174
I4
sg175
(lp1374
I123
asg287
(issf_api
FeatureSet
p1375
(dp1376
g290
(dp1377
S'drel'
p1378
S'k1:VGF'
p1379
sS'name'
p1380
g1340
ssbsba(issf_api
Chunk
p1381
(dp1382
g184
g1306
sg188
I1
sg284
S'VGF'
p1383
sg174
I4
sg175
(lp1384
I124
asg287
(issf_api
FeatureSet
p1385
(dp1386
g290
(dp1387
S'name'
p1388
g1306
sS'stype'
p1389
S'declarative'
p1390
sS'voicetype'
p1391
S'active'
p1392
ssbsba(issf_api
Chunk
p1393
(dp1394
g184
g1310
sg188
I2
sg284
S'CCP'
p1395
sg174
I4
sg175
(lp1396
I125
asg287
(issf_api
FeatureSet
p1397
(dp1398
g290
(dp1399
S'drel'
p1400
S'k2:VGF'
p1401
sS'name'
p1402
g1310
ssbsba(issf_api
Chunk
p1403
(dp1404
g184
g1364
sg188
I3
sg284
S'NP'
p1405
sg174
I4
sg175
(lp1406
I126
asg287
(issf_api
FeatureSet
p1407
(dp1408
g290
(dp1409
S'drel'
p1410
S'k2:VGNN'
p1411
sS'name'
p1412
g1364
ssbsba(issf_api
Chunk
p1413
(dp1414
g184
g1300
sg188
I4
sg284
S'VGNN'
p1415
sg174
I4
sg175
(lp1416
I127
aI128
aI129
asg287
(issf_api
FeatureSet
p1417
(dp1418
g290
(dp1419
S'drel'
p1420
S'r6:NP3'
p1421
sS'name'
p1422
g1300
ssbsba(issf_api
Chunk
p1423
(dp1424
g184
g1358
sg188
I5
sg284
S'NP'
p1425
sg174
I4
sg175
(lp1426
I130
aI131
asg287
(issf_api
FeatureSet
p1427
(dp1428
g290
(dp1429
S'drel'
p1430
S'k7:VGF2'
p1431
sS'name'
p1432
g1358
ssbsba(issf_api
Chunk
p1433
(dp1434
g184
g1316
sg188
I6
sg284
S'JJP'
p1435
sg174
I4
sg175
(lp1436
I132
asg287
(issf_api
FeatureSet
p1437
(dp1438
g290
(dp1439
S'drel'
p1440
S'ccof:CCP2'
p1441
sS'name'
p1442
g1316
ssbsba(issf_api
Chunk
p1443
(dp1444
g184
g1352
sg188
I7
sg284
S'CCP'
p1445
sg174
I4
sg175
(lp1446
I133
asg287
(issf_api
FeatureSet
p1447
(dp1448
g290
(dp1449
S'drel'
p1450
S'nmod:NP4'
p1451
sS'name'
p1452
g1352
ssbsba(issf_api
Chunk
p1453
(dp1454
g184
g1328
sg188
I8
sg284
S'JJP'
p1455
sg174
I4
sg175
(lp1456
I134
asg287
(issf_api
FeatureSet
p1457
(dp1458
g290
(dp1459
S'drel'
p1460
S'ccof:CCP2'
p1461
sS'name'
p1462
g1328
ssbsba(issf_api
Chunk
p1463
(dp1464
g184
g1346
sg188
I9
sg284
S'NP'
p1465
sg174
I4
sg175
(lp1466
I135
aI136
aI137
aI138
asg287
(issf_api
FeatureSet
p1467
(dp1468
g290
(dp1469
S'drel'
p1470
S'rh:VGF2'
p1471
sS'name'
p1472
g1346
ssbsba(issf_api
Chunk
p1473
(dp1474
g184
g1322
sg188
I10
sg284
S'NP'
p1475
sg174
I4
sg175
(lp1476
I139
asg287
(issf_api
FeatureSet
p1477
(dp1478
g290
(dp1479
S'drel'
p1480
S'pof:VGF2'
p1481
sS'name'
p1482
g1322
ssbsba(issf_api
Chunk
p1483
(dp1484
g184
g1294
sg188
I11
sg284
S'VGF'
p1485
sg174
I4
sg175
(lp1486
I140
aI141
aI142
asg287
(issf_api
FeatureSet
p1487
(dp1488
g290
(dp1489
S'voicetype'
p1490
S"active'"
p1491
sS'drel'
p1492
S'ccof:CCP'
p1493
sS'stype'
p1494
S'declarative'
p1495
sS'name'
p1496
g1294
ssbsba(issf_api
Chunk
p1497
(dp1498
g184
g1334
sg188
I12
sg284
S'BLK'
p1499
sg174
I4
sg175
(lp1500
I143
asg287
(issf_api
FeatureSet
p1501
(dp1502
g290
(dp1503
S'drel'
p1504
S'rsym:VGF'
p1505
sS'name'
p1506
g1334
ssbsbasba(issf_api
Sentence
p1507
(dp1508
g172
(lp1509
sg174
I5
sg175
(lp1510
I144
aI145
aI146
aI147
aI148
aI149
aI150
aI151
aI152
aI153
aI154
aI155
aI156
aI157
aI158
aI159
aI160
aI161
aI162
asg177
(dp1511
S'VGF'
p1512
(issf_api
Node
p1513
(dp1514
g182
S'ccof'
p1515
sg184
g1512
sg185
S'CCP'
p1516
sg187
I-1
sg188
I3
sg189
(lp1517
sbsS'CCP'
p1518
(issf_api
Node
p1519
(dp1520
g182
g200
sg184
g1518
sg185
g200
sg187
I-1
sg188
I0
sg189
(lp1521
sbsS'VGF2'
p1522
(issf_api
Node
p1523
(dp1524
g182
S'ccof'
p1525
sg184
g1522
sg185
S'CCP2'
p1526
sg187
I-1
sg188
I10
sg189
(lp1527
sbsS'NP5'
p1528
(issf_api
Node
p1529
(dp1530
g182
S'k7t'
p1531
sg184
g1528
sg185
S'VGF2'
p1532
sg187
I-1
sg188
I7
sg189
(lp1533
sbsS'BLK'
p1534
(issf_api
Node
p1535
(dp1536
g182
S'rsym'
p1537
sg184
g1534
sg185
S'CCP'
p1538
sg187
I-1
sg188
I11
sg189
(lp1539
sbsS'NP'
p1540
(issf_api
Node
p1541
(dp1542
g182
S'k1'
p1543
sg184
g1540
sg185
S'VGF'
p1544
sg187
I-1
sg188
I1
sg189
(lp1545
sbsS'NP4'
p1546
(issf_api
Node
p1547
(dp1548
g182
S'k7t'
p1549
sg184
g1546
sg185
S'VGF2'
p1550
sg187
I-1
sg188
I6
sg189
(lp1551
sbsS'NP7'
p1552
(issf_api
Node
p1553
(dp1554
g182
S'pof'
p1555
sg184
g1552
sg185
S'VGF2'
p1556
sg187
I-1
sg188
I9
sg189
(lp1557
sbsS'NP6'
p1558
(issf_api
Node
p1559
(dp1560
g182
S'k7'
p1561
sg184
g1558
sg185
S'VGF2'
p1562
sg187
I-1
sg188
I8
sg189
(lp1563
sbsS'CCP2'
p1564
(issf_api
Node
p1565
(dp1566
g182
S'k2'
p1567
sg184
g1564
sg185
S'VGF'
p1568
sg187
I-1
sg188
I4
sg189
(lp1569
sbsS'NP3'
p1570
(issf_api
Node
p1571
(dp1572
g182
S'k1'
p1573
sg184
g1570
sg185
S'VGF2'
p1574
sg187
I-1
sg188
I5
sg189
(lp1575
sbsS'NP2'
p1576
(issf_api
Node
p1577
(dp1578
g182
S'pof'
p1579
sg184
g1576
sg185
S'VGF'
p1580
sg187
I-1
sg188
I2
sg189
(lp1581
sbssg280
(lp1582
(issf_api
Chunk
p1583
(dp1584
g184
g1518
sg188
I0
sg284
S'CCP'
p1585
sg174
I5
sg175
(lp1586
I144
asg287
(issf_api
FeatureSet
p1587
(dp1588
g290
(dp1589
S'name'
p1590
g1518
ssbsba(issf_api
Chunk
p1591
(dp1592
g184
g1540
sg188
I1
sg284
S'NP'
p1593
sg174
I5
sg175
(lp1594
I145
asg287
(issf_api
FeatureSet
p1595
(dp1596
g290
(dp1597
S'drel'
p1598
S'k1:VGF'
p1599
sS'name'
p1600
g1540
ssbsba(issf_api
Chunk
p1601
(dp1602
g184
g1576
sg188
I2
sg284
S'NP'
p1603
sg174
I5
sg175
(lp1604
I146
asg287
(issf_api
FeatureSet
p1605
(dp1606
g290
(dp1607
S'drel'
p1608
S'pof:VGF'
p1609
sS'name'
p1610
g1576
ssbsba(issf_api
Chunk
p1611
(dp1612
g184
g1512
sg188
I3
sg284
S'VGF'
p1613
sg174
I5
sg175
(lp1614
I147
asg287
(issf_api
FeatureSet
p1615
(dp1616
g290
(dp1617
S'voicetype'
p1618
S"active'"
p1619
sS'drel'
p1620
S'ccof:CCP'
p1621
sS'stype'
p1622
S'declarative'
p1623
sS'name'
p1624
g1512
ssbsba(issf_api
Chunk
p1625
(dp1626
g184
g1564
sg188
I4
sg284
S'CCP'
p1627
sg174
I5
sg175
(lp1628
I148
asg287
(issf_api
FeatureSet
p1629
(dp1630
g290
(dp1631
S'drel'
p1632
S'k2:VGF'
p1633
sS'name'
p1634
g1564
ssbsba(issf_api
Chunk
p1635
(dp1636
g184
g1570
sg188
I5
sg284
S'NP'
p1637
sg174
I5
sg175
(lp1638
I149
asg287
(issf_api
FeatureSet
p1639
(dp1640
g290
(dp1641
S'drel'
p1642
S'k1:VGF2'
p1643
sS'name'
p1644
g1570
ssbsba(issf_api
Chunk
p1645
(dp1646
g184
g1546
sg188
I6
sg284
S'NP'
p1647
sg174
I5
sg175
(lp1648
I150
aI151
asg287
(issf_api
FeatureSet
p1649
(dp1650
g290
(dp1651
S'drel'
p1652
S'k7t:VGF2'
p1653
sS'name'
p1654
g1546
ssbsba(issf_api
Chunk
p1655
(dp1656
g184
g1528
sg188
I7
sg284
S'NP'
p1657
sg174
I5
sg175
(lp1658
I152
aI153
aI154
aI155
asg287
(issf_api
FeatureSet
p1659
(dp1660
g290
(dp1661
S'drel'
p1662
S'k7t:VGF2'
p1663
sS'name'
p1664
g1528
ssbsba(issf_api
Chunk
p1665
(dp1666
g184
g1558
sg188
I8
sg284
S'NP'
p1667
sg174
I5
sg175
(lp1668
I156
aI157
aI158
asg287
(issf_api
FeatureSet
p1669
(dp1670
g290
(dp1671
S'drel'
p1672
S'k7:VGF2'
p1673
sS'name'
p1674
g1558
ssbsba(issf_api
Chunk
p1675
(dp1676
g184
g1552
sg188
I9
sg284
S'NP'
p1677
sg174
I5
sg175
(lp1678
I159
asg287
(issf_api
FeatureSet
p1679
(dp1680
g290
(dp1681
S'drel'
p1682
S'pof:VGF2'
p1683
sS'name'
p1684
g1552
ssbsba(issf_api
Chunk
p1685
(dp1686
g184
g1522
sg188
I10
sg284
S'VGF'
p1687
sg174
I5
sg175
(lp1688
I160
aI161
asg287
(issf_api
FeatureSet
p1689
(dp1690
g290
(dp1691
S'voicetype'
p1692
S"active'"
p1693
sS'drel'
p1694
S'ccof:CCP2'
p1695
sS'stype'
p1696
S'declarative'
p1697
sS'name'
p1698
g1522
ssbsba(issf_api
Chunk
p1699
(dp1700
g184
g1534
sg188
I11
sg284
S'BLK'
p1701
sg174
I5
sg175
(lp1702
I162
asg287
(issf_api
FeatureSet
p1703
(dp1704
g290
(dp1705
S'drel'
p1706
S'rsym:CCP'
p1707
sS'name'
p1708
g1534
ssbsbasbasS'relationList'
p1709
(lp1710
(iextract_relations
discourseRelation
p1711
(dp1712
S'arg1Trees'
p1713
(lp1714
sS'arg2Sentence'
p1715
(lp1716
sS'arg1Sentence'
p1717
(lp1718
sS'connList'
p1719
(lp1720
I19
aI20
asS'isPaired'
p1721
I00
sS'arg1'
p1722
NsS'arg1Span'
p1723
V230..280
p1724
sS'arg2'
p1725
NsS'arg2Trees'
p1726
(lp1727
sS'fileName'
p1728
S'../data/raw/Section_17/fullnews_id_2610159_date_20_7_2004.utf8'
p1729
sS'connTrees'
p1730
(lp1731
sS'arg2List'
p1732
(lp1733
I0
aI1
aI2
aI3
aI4
aI5
aI6
aI7
aI8
aI9
aI10
aI11
aI12
aI13
aI14
aI15
aI16
aI17
aI18
asS'arg2Span'
p1734
V127..222
p1735
sS'sense'
p1736
VTemporal.Asynchronous.Precedence
p1737
sS'relationType'
p1738
VExplicit
p1739
sS'connSpan'
p1740
V223..229
p1741
sS'arg1List'
p1742
(lp1743
I21
aI22
aI23
aI24
aI25
aI26
aI27
aI28
aI29
asS'conn'
p1744
V\u0915\u0947 \u092c\u093e\u0926
p1745
sba(iextract_relations
discourseRelation
p1746
(dp1747
g1713
(lp1748
sg1715
(lp1749
sg1717
(lp1750
sg1719
(lp1751
I31
asg1721
I00
sg1722
Nsg1723
V127..281
p1752
sg1725
Nsg1726
(lp1753
sg1728
g1729
sg1730
(lp1754
sg1732
(lp1755
I32
aI33
aI34
aI35
aI36
aI37
aI38
aI39
aI40
aI41
aI42
aI43
aI44
aI45
aI46
aI47
aI48
aI49
aI50
asg1734
V287..378
p1756
sg1736
VComparison.Contrast.Opposition
p1757
sg1738
VExplicit
p1758
sg1740
V282..286
p1759
sg1742
(lp1760
I0
aI1
aI2
aI3
aI4
aI5
aI6
aI7
aI8
aI9
aI10
aI11
aI12
aI13
aI14
aI15
aI16
aI17
aI18
aI19
aI20
aI21
aI22
aI23
aI24
aI25
aI26
aI27
aI28
aI29
aI30
asg1744
V\u091c\u092c\u0915\u093f
p1761
sba(iextract_relations
discourseRelation
p1762
(dp1763
g1713
(lp1764
sg1715
(lp1765
sg1717
(lp1766
sg1719
(lp1767
sg1721
I00
sg1722
Nsg1723
V127..281
p1768
sg1725
Nsg1726
(lp1769
sg1728
g1729
sg1730
(lp1770
sg1732
(lp1771
sg1734
V379..629
p1772
sg1736
VContingency.Pragmatic cause
p1773
sg1738
VImplicit
p1774
sg1740
V
sg1742
(lp1775
sg1744
VkyoMki
p1776
sba(iextract_relations
discourseRelation
p1777
(dp1778
g1713
(lp1779
sg1715
(lp1780
sg1717
(lp1781
sg1719
(lp1782
I99
aI100
asg1721
I00
sg1722
Nsg1723
V428..629
p1783
sg1725
Nsg1726
(lp1784
sg1728
g1729
sg1730
(lp1785
sg1732
(lp1786
I102
aI103
aI104
aI105
aI106
aI107
aI108
aI109
aI110
aI111
aI112
aI113
aI114
aI115
aI116
aI117
aI118
aI119
aI120
aI121
aI122
asg1734
V640..740
p1787
sg1736
VComparison.Contrast.Juxtaposition
p1788
sg1738
VExplicit
p1789
sg1740
V630..638
p1790
sg1742
(lp1791
I61
aI62
aI63
aI64
aI65
aI66
aI67
aI68
aI69
aI70
aI71
aI72
aI73
aI74
aI75
aI76
aI77
aI78
aI79
aI80
aI81
aI82
aI83
aI84
aI85
aI86
aI87
aI88
aI89
aI90
aI91
aI92
aI93
aI94
aI95
aI96
aI97
aI98
asg1744
V\u0926\u0942\u0938\u0930\u0940 \u0913\u0930
p1792
sba(iextract_relations
discourseRelation
p1793
(dp1794
g1713
(lp1795
sg1715
(lp1796
sg1717
(lp1797
sg1719
(lp1798
sg1721
I00
sg1722
Nsg1723
V640..740
p1799
sg1725
Nsg1726
(lp1800
sg1728
g1729
sg1730
(lp1801
sg1732
(lp1802
sg1734
V741..837
p1803
sg1736
VExpansion.Conjunction
p1804
sg1738
VImplicit
p1805
sg1740
V
sg1742
(lp1806
sg1744
VsAWa hI
p1807
sba(iextract_relations
discourseRelation
p1808
(dp1809
g1713
(lp1810
sg1715
(lp1811
sg1717
(lp1812
sg1719
(lp1813
I144
asg1721
I00
sg1722
Nsg1723
V741..837
p1814
sg1725
Nsg1726
(lp1815
sg1728
g1729
sg1730
(lp1816
sg1732
(lp1817
I145
aI146
aI147
aI148
aI149
aI150
aI151
aI152
aI153
aI154
aI155
aI156
aI157
aI158
aI159
aI160
aI161
aI162
asg1734
V846..933
p1818
sg1736
VComparison.Pragmatic concession
p1819
sg1738
VExplicit
p1820
sg1740
V838..845
p1821
sg1742
(lp1822
I123
aI124
aI125
aI126
aI127
aI128
aI129
aI130
aI131
aI132
aI133
aI134
aI135
aI136
aI137
aI138
aI139
aI140
aI141
aI142
aI143
asg1744
V\u0939\u093e\u0932\u093e\u0902\u0915\u093f
p1823
sbasS'rawData'
p1824
V<DOC>\u000a<DOCNO>fullnews_id_2610159_date_20_7_2004.utf8</DOCNO>\u000a<TEXT>\u000a\u000a\u000a\u091f\u0948\u0915\u094d\u0938\u0940 \u092e\u093e\u0932\u093f\u0915\u094b\u0902 \u0928\u0947 \u0939\u095c\u0924\u093e\u0932 \u0935\u093e\u092a\u0938 \u0932\u0940\u000a\u000a\u000a\u000a\u092a\u094d\u0930\u0947\u000a\u000a\u0915\u094b\u0932\u0915\u093e\u0924\u093e\u0964  \u000a\u000a\u000a\u000a\u000a\u000a\u092a\u0936\u093f\u091a\u092e \u092c\u0902\u0917\u093e\u0932 \u092e\u0947\u0902 \u091f\u0948\u0915\u094d\u0938\u0940 \u092e\u093e\u0932\u093f\u0915\u094b\u0902 \u0928\u0947 \u0915\u093f\u0930\u093e\u092f\u093e \u0935\u0943\u0926\u094d\u0927\u093f \u0915\u0940 \u092e\u093e\u0902\u0917 \u0915\u094b \u0932\u0947\u0915\u0930 \u092e\u0902\u0917\u0932\u0935\u093e\u0930 \u0915\u094b \u090f\u0915 \u0926\u093f\u0928 \u0915\u0940 \u0939\u095c\u0924\u093e\u0932 \u0930\u0916\u0928\u0947 \u0915\u0947 \u092c\u093e\u0926 \u0905\u092a\u0928\u0940 \u0905\u0928\u093f\u0936\u093f\u091a\u0924\u0915\u093e\u0932\u0940\u0928 \u0939\u095c\u0924\u093e\u0932 \u0935\u093e\u092a\u0938 \u0932\u0947\u0928\u0947 \u0915\u093e \u092b\u0948\u0938\u0932\u093e \u0915\u093f\u092f\u093e \u0939\u0948\u0964 \u091c\u092c\u0915\u093f \u0928\u093f\u091c\u0940 \u092c\u0938 \u0914\u0930 \u092e\u093f\u0928\u0940 \u092c\u0938 \u092e\u093e\u0932\u093f\u0915\u094b\u0902 \u0928\u0947 \u0905\u092a\u0928\u093e \u0906\u0902\u0926\u094b\u0932\u0928 \u0924\u092f \u0915\u093e\u0930\u094d\u092f\u0915\u094d\u0930\u092e \u0915\u0947 \u0905\u0928\u0941\u0938\u093e\u0930 \u091c\u093e\u0930\u0940 \u0930\u0916\u0928\u0947 \u0915\u093e \u092b\u0948\u0938\u0932\u093e \u0915\u093f\u092f\u093e \u0939\u0948\u0964\u092a\u0930\u093f\u0935\u0939\u0928 \u092e\u0902\u0924\u094d\u0930\u0940 \u0938\u0941\u092d\u093e\u0937 \u091a\u0915\u094d\u0930\u0935\u0930\u094d\u0924\u0940 \u0915\u0947 \u0938\u093e\u0925 \u092c\u0948\u0920\u0915 \u0915\u0947 \u092c\u093e\u0926 \u092c\u0902\u0917\u093e\u0932 \u091f\u0948\u0915\u094d\u0938\u0940 \u090f\u0938\u094b\u0938\u093f\u090f\u0936\u0928 (\u092c\u0940\u091f\u0940\u090f) \u0914\u0930 \u0915\u0932\u0915\u0924\u094d\u0924\u093e \u092e\u0947\u091f\u094d\u0930\u094b\u092a\u0945\u0932\u093f\u091f\u0928 \u091f\u0948\u0915\u094d\u0938\u0940 \u0921\u094d\u0930\u093e\u0908\u0935\u0930\u094d\u0938 \u092f\u0942\u0928\u093f\u092f\u0928 (\u0938\u0940\u090f\u092e\u091f\u0940\u0921\u0940\u092f\u0942) \u0915\u0947 \u092a\u094d\u0930\u0924\u093f\u0928\u093f\u0927\u093f\u092f\u094b\u0902 \u0928\u0947 \u0915\u0939\u093e \u0915\u093f \u0935\u0947 \u0915\u093f\u0930\u093e\u092f\u093e \u092c\u095d\u093e\u092f\u0947 \u091c\u093e\u0928\u0947 \u0915\u0947 \u0938\u0930\u0915\u093e\u0930 \u0915\u0947 \u0906\u0936\u0935\u093e\u0938\u0928 \u0915\u0947 \u092c\u093e\u0926 \u092c\u0941\u0927\u0935\u093e\u0930 \u0938\u0947 \u0905\u092a\u0928\u0940 \u0939\u095c\u0924\u093e\u0932 \u0938\u092e\u093e\u092a\u094d\u0924 \u0915\u0930 \u0926\u0947\u0902\u0917\u0947\u0964 \u0926\u0942\u0938\u0930\u0940 \u0913\u0930, \u091a\u0915\u094d\u0930\u0935\u0930\u094d\u0924\u0940 \u0928\u0947 \u0915\u093e\u0930\u094b\u0902 \u0938\u0947 \u0915\u0939\u093e \u0915\u093f \u092c\u0940\u091f\u0940\u090f \u0914\u0930 \u0938\u0940\u090f\u092e\u091f\u0940\u0921\u0940\u092f\u0942 \u0928\u0947 \u092c\u0941\u0927\u0935\u093e\u0930 \u0938\u0947 \u0905\u092a\u0928\u0940 \u0939\u095c\u0924\u093e\u0932 \u0935\u093e\u092a\u0938 \u0932\u0947\u0928\u0947 \u0915\u093e \u092b\u0948\u0938\u0932\u093e \u0915\u093f\u092f\u093e \u0939\u0948\u0964 \u0909\u0928\u094d\u0939\u094b\u0902\u0928\u0947 \u0915\u0939\u093e \u0915\u093f \u0915\u093f\u0930\u093e\u092f\u093e \u092c\u095d\u093e\u090f \u091c\u093e\u0928\u0947 \u0915\u0947 \u092b\u0948\u0938\u0932\u0947 \u092a\u0930 \u0930\u093e\u091c\u0928\u0940\u0924\u093f\u0915 \u0914\u0930 \u0924\u0915\u0928\u0940\u0915\u0940 \u0915\u093e\u0930\u0923\u094b\u0902 \u0915\u0940 \u0935\u091c\u0939 \u0938\u0947 \u0926\u0947\u0930\u0940 \u0939\u094b \u0930\u0939\u0940 \u0939\u0948\u0964 \u0939\u093e\u0932\u093e\u0902\u0915\u093f \u0909\u0928\u094d\u0939\u094b\u0902\u0928\u0947 \u0909\u092e\u094d\u092e\u0940\u0926 \u091c\u0924\u093e\u0908 \u0915\u093f \u0938\u0930\u0915\u093e\u0930 \u0905\u0917\u0932\u0947 \u092e\u0939\u0940\u0928\u0947 \u0926\u0941\u0930\u094d\u0917\u093e \u092a\u0942\u091c\u093e \u0938\u0947 \u092a\u0939\u0932\u0947 \u0907\u0938 \u092c\u093e\u0930\u0947 \u092e\u0947\u0902 \u092b\u0948\u0938\u0932\u093e \u0932\u0947 \u0932\u0947\u0917\u0940\u0964 \u000a\u000a\u000a\u000a\u000a</TEXT>\u000a</DOC>
p1825
sS'rawFileName'
p1826
g1729
sS'rawToAnnMapping'
p1827
(dp1828
I0
(I0
tp1829
sI1
(I1
tp1830
sI2
(I2
tp1831
sI3
(I3
tp1832
sI4
(I4
tp1833
sI5
(I5
tp1834
sI6
(I6
tp1835
sI7
(I7
tp1836
sI8
(I8
tp1837
sI9
(I9
tp1838
sI10
(I10
tp1839
sI11
(I11
tp1840
sI12
(I12
tp1841
sI13
(I13
tp1842
sI14
(I14
tp1843
sI15
(I15
tp1844
sI16
(I16
tp1845
sI17
(I17
tp1846
sI18
(I18
tp1847
sI19
(I19
tp1848
sI20
(I20
tp1849
sI21
(I21
tp1850
sI22
(I22
tp1851
sI23
(I23
tp1852
sI24
(I24
tp1853
sI25
(I25
tp1854
sI26
(I26
tp1855
sI27
(I27
tp1856
sI28
(I28
tp1857
sI29
(I29
tp1858
sI30
(I30
tp1859
sI31
(I31
tp1860
sI32
(I32
tp1861
sI33
(I33
tp1862
sI34
(I34
tp1863
sI35
(I35
tp1864
sI36
(I36
tp1865
sI37
(I37
tp1866
sI38
(I38
tp1867
sI39
(I39
tp1868
sI40
(I40
tp1869
sI41
(I41
tp1870
sI42
(I42
tp1871
sI43
(I43
tp1872
sI44
(I44
tp1873
sI45
(I45
tp1874
sI46
(I46
tp1875
sI47
(I47
tp1876
sI48
(I48
tp1877
sI49
(I49
tp1878
sI50
(I50
tp1879
sI51
(I51
tp1880
sI52
(I52
tp1881
sI53
(I53
tp1882
sI54
(I54
tp1883
sI55
(I55
tp1884
sI56
(I56
tp1885
sI57
(I57
tp1886
sI58
(I58
tp1887
sI59
(I59
tp1888
sI60
(I60
tp1889
sI61
(I61
tp1890
sI62
(I62
tp1891
sI63
(I63
tp1892
sI64
(I64
tp1893
sI65
(I65
tp1894
sI66
(I66
tp1895
sI67
(I67
tp1896
sI68
(I68
tp1897
sI69
(I69
tp1898
sI70
(I70
tp1899
sI71
(I71
tp1900
sI72
(I72
tp1901
sI73
(I73
tp1902
sI74
(I74
tp1903
sI75
(I75
tp1904
sI76
(I76
tp1905
sI77
(I77
tp1906
sI78
(I78
tp1907
sI79
(I79
tp1908
sI80
(I80
tp1909
sI81
(I81
tp1910
sI82
(I82
tp1911
sI83
(I83
tp1912
sI84
(I84
tp1913
sI85
(I85
tp1914
sI86
(I86
tp1915
sI87
(I87
tp1916
sI88
(I88
tp1917
sI89
(I89
tp1918
sI90
(I90
tp1919
sI91
(I91
tp1920
sI92
(I92
tp1921
sI93
(I93
tp1922
sI94
(I94
tp1923
sI95
(I95
tp1924
sI96
(I96
tp1925
sI97
(I97
tp1926
sI98
(I98
tp1927
sI99
(I99
tp1928
sI100
(I100
tp1929
sI101
(I101
tp1930
sI102
(I102
tp1931
sI103
(I103
tp1932
sI104
(I104
tp1933
sI105
(I105
tp1934
sI106
(I106
tp1935
sI107
(I107
tp1936
sI108
(I108
tp1937
sI109
(I109
tp1938
sI110
(I110
tp1939
sI111
(I111
tp1940
sI112
(I112
tp1941
sI113
(I113
tp1942
sI114
(I114
tp1943
sI115
(I115
tp1944
sI116
(I116
tp1945
sI117
(I117
tp1946
sI118
(I118
tp1947
sI119
(I119
tp1948
sI120
(I120
tp1949
sI121
(I121
tp1950
sI122
(I122
tp1951
sI123
(I123
tp1952
sI124
(I124
tp1953
sI125
(I125
tp1954
sI126
(I126
tp1955
sI127
(I127
tp1956
sI128
(I128
tp1957
sI129
(I129
tp1958
sI130
(I130
tp1959
sI131
(I131
tp1960
sI132
(I132
tp1961
sI133
(I133
tp1962
sI134
(I134
tp1963
sI135
(I135
tp1964
sI136
(I136
tp1965
sI137
(I137
tp1966
sI138
(I138
tp1967
sI139
(I139
tp1968
sI140
(I140
tp1969
sI141
(I141
tp1970
sI142
(I142
tp1971
sI143
(I143
tp1972
sI144
(I144
tp1973
sI145
(I145
tp1974
sI146
(I146
tp1975
sI147
(I147
tp1976
sI148
(I148
tp1977
sI149
(I149
tp1978
sI150
(I150
tp1979
sI151
(I151
tp1980
sI152
(I152
tp1981
sI153
(I153
tp1982
sI154
(I154
tp1983
sI155
(I155
tp1984
sI156
(I156
tp1985
sI157
(I157
tp1986
sI158
(I158
tp1987
sI159
(I159
tp1988
sI160
(I160
tp1989
sI161
(I161
tp1990
sI162
(I162
tp1991
ssS'globalWordList'
p1992
(lp1993
(issf_api
Word
p1994
(dp1995
S'splitConn'
p1996
I00
sS'word'
p1997
V\u092a\u0936\u094d\u091a\u093f\u092e
p1998
sS'extraFeatureSet'
p1999
(issf_api
FeatureSet
p2000
(dp2001
g290
(dp2002
S'posn'
p2003
S'10'
p2004
sS'name'
p2005
S'\xe0\xa4\xaa\xe0\xa4\xb6\xe0\xa5\x8d\xe0\xa4\x9a\xe0\xa4\xbf\xe0\xa4\xae'
p2006
sS'drel'
p2007
S'pof__cn:\xe0\xa4\xac\xe0\xa4\x82\xe0\xa4\x97\xe0\xa4\xbe\xe0\xa4\xb2'
p2008
sS'chunktype'
p2009
S'child:NP'
p2010
sS'af'
p2011
S'\xe0\xa4\xaa\xe0\xa4\xb6\xe0\xa5\x8d\xe0\xa4\x9a\xe0\xa4\xbf\xe0\xa4\xae,n,m,sg,3,d,0,0'
p2012
ssbsg1722
I01
sg1725
I01
sg1736
Nsg1723
Nsg188
I0
sg174
I0
sS'relationNum'
p2013
I1
sg1734
NsS'wordTag'
p2014
S'NNPC'
p2015
sg287
(issf_api
FeatureSet
p2016
(dp2017
g290
(dp2018
S'posn'
p2019
S'10'
p2020
sS'name'
p2021
S'\xe0\xa4\xaa\xe0\xa4\xb6\xe0\xa5\x8d\xe0\xa4\x9a\xe0\xa4\xbf\xe0\xa4\xae'
p2022
sS'af'
p2023
S'\xe0\xa4\xaa\xe0\xa4\xb6\xe0\xa5\x8d\xe0\xa4\x9a\xe0\xa4\xbf\xe0\xa4\xae,n,m,sg,3,d,0,0'
p2024
ssbsg1744
I00
sba(issf_api
Word
p2025
(dp2026
g1996
I00
sg1997
V\u092c\u0902\u0917\u093e\u0932
p2027
sg1999
(issf_api
FeatureSet
p2028
(dp2029
g290
(dp2030
S'posn'
p2031
S'20'
p2032
sS'name'
p2033
S'\xe0\xa4\xac\xe0\xa4\x82\xe0\xa4\x97\xe0\xa4\xbe\xe0\xa4\xb2'
p2034
sS'af'
p2035
S'\xe0\xa4\xac\xe0\xa4\x82\xe0\xa4\x97\xe0\xa4\xbe\xe0\xa4\xb2,n,m,sg,3,o,0_\xe0\xa4\xae\xe0\xa5\x87\xe0\xa4\x82,0'
p2036
sS'chunkid'
p2037
S'NP'
p2038
sS'drel'
p2039
S'k7p:\xe0\xa4\x95\xe0\xa4\xbf\xe0\xa4\xaf\xe0\xa4\xbe'
p2040
sS'vpos'
p2041
S'vib_3'
p2042
sS'chunktype'
p2043
S'head:NP'
p2044
ssbsg1722
I01
sg1725
I01
sg1736
Nsg1723
Nsg188
I0
sg174
I0
sg2013
I1
sg1734
Nsg2014
S'NNP'
p2045
sg287
(issf_api
FeatureSet
p2046
(dp2047
g290
(dp2048
S'posn'
p2049
S'20'
p2050
sS'name'
p2051
S'\xe0\xa4\xac\xe0\xa4\x82\xe0\xa4\x97\xe0\xa4\xbe\xe0\xa4\xb2'
p2052
sS'af'
p2053
S'\xe0\xa4\xac\xe0\xa4\x82\xe0\xa4\x97\xe0\xa4\xbe\xe0\xa4\xb2,n,m,sg,3,o,0,0'
p2054
ssbsg1744
I00
sba(issf_api
Word
p2055
(dp2056
g1996
I00
sg1997
V\u092e\u0947\u0902
p2057
sg1999
(issf_api
FeatureSet
p2058
(dp2059
g290
(dp2060
S'posn'
p2061
S'30'
p2062
sS'name'
p2063
S'\xe0\xa4\xae\xe0\xa5\x87\xe0\xa4\x82'
p2064
sS'drel'
p2065
S'lwg__psp:\xe0\xa4\xac\xe0\xa4\x82\xe0\xa4\x97\xe0\xa4\xbe\xe0\xa4\xb2'
p2066
sS'chunktype'
p2067
S'child:NP'
p2068
sS'af'
p2069
S'\xe0\xa4\xae\xe0\xa5\x87\xe0\xa4\x82,psp,,,,,,'
p2070
ssbsg1722
I01
sg1725
I01
sg1736
Nsg1723
Nsg188
I0
sg174
I0
sg2013
I1
sg1734
Nsg2014
S'PSP'
p2071
sg287
(issf_api
FeatureSet
p2072
(dp2073
g290
(dp2074
S'posn'
p2075
S'30'
p2076
sS'name'
p2077
S'\xe0\xa4\xae\xe0\xa5\x87\xe0\xa4\x82'
p2078
sS'af'
p2079
S'\xe0\xa4\xae\xe0\xa5\x87\xe0\xa4\x82,psp,,,,,,'
p2080
ssbsg1744
I00
sba(issf_api
Word
p2081
(dp2082
g1996
I00
sg1997
V\u091f\u0948\u0915\u094d\u0938\u0940
p2083
sg1999
(issf_api
FeatureSet
p2084
(dp2085
g290
(dp2086
S'posn'
p2087
S'40'
p2088
sS'name'
p2089
S'\xe0\xa4\x9f\xe0\xa5\x88\xe0\xa4\x95\xe0\xa5\x8d\xe0\xa4\xb8\xe0\xa5\x80'
p2090
sS'drel'
p2091
S'pof__cn:\xe0\xa4\xae\xe0\xa4\xbe\xe0\xa4\xb2\xe0\xa4\xbf\xe0\xa4\x95\xe0\xa5\x8b\xe0\xa4\x82'
p2092
sS'chunktype'
p2093
S'child:NP2'
p2094
sS'af'
p2095
S'\xe0\xa4\x9f\xe0\xa5\x88\xe0\xa4\x95\xe0\xa5\x8d\xe0\xa4\xb8\xe0\xa5\x80,n,f,sg,3,d,0,0'
p2096
ssbsg1722
I01
sg1725
I01
sg1736
Nsg1723
Nsg188
I1
sg174
I0
sg2013
I1
sg1734
Nsg2014
S'NNC'
p2097
sg287
(issf_api
FeatureSet
p2098
(dp2099
g290
(dp2100
S'posn'
p2101
S'40'
p2102
sS'name'
p2103
S'\xe0\xa4\x9f\xe0\xa5\x88\xe0\xa4\x95\xe0\xa5\x8d\xe0\xa4\xb8\xe0\xa5\x80'
p2104
sS'af'
p2105
S'\xe0\xa4\x9f\xe0\xa5\x88\xe0\xa4\x95\xe0\xa5\x8d\xe0\xa4\xb8\xe0\xa5\x80,n,f,sg,3,d,0,0'
p2106
ssbsg1744
I00
sba(issf_api
Word
p2107
(dp2108
g1996
I00
sg1997
V\u092e\u093e\u0932\u093f\u0915\u094b\u0902
p2109
sg1999
(issf_api
FeatureSet
p2110
(dp2111
g290
(dp2112
S'posn'
p2113
S'50'
p2114
sS'name'
p2115
S'\xe0\xa4\xae\xe0\xa4\xbe\xe0\xa4\xb2\xe0\xa4\xbf\xe0\xa4\x95\xe0\xa5\x8b\xe0\xa4\x82'
p2116
sS'af'
p2117
S'\xe0\xa4\xae\xe0\xa4\xbe\xe0\xa4\xb2\xe0\xa4\xbf\xe0\xa4\x95,n,m,pl,3,o,0_\xe0\xa4\xa8\xe0\xa5\x87,0'
p2118
sS'chunkid'
p2119
S'NP2'
p2120
sS'drel'
p2121
S'k1:\xe0\xa4\x95\xe0\xa4\xbf\xe0\xa4\xaf\xe0\xa4\xbe'
p2122
sS'vpos'
p2123
S'vib_3'
p2124
sS'chunktype'
p2125
S'head:NP2'
p2126
ssbsg1722
I01
sg1725
I01
sg1736
Nsg1723
Nsg188
I1
sg174
I0
sg2013
I1
sg1734
Nsg2014
S'NN'
p2127
sg287
(issf_api
FeatureSet
p2128
(dp2129
g290
(dp2130
S'posn'
p2131
S'50'
p2132
sS'name'
p2133
S'\xe0\xa4\xae\xe0\xa4\xbe\xe0\xa4\xb2\xe0\xa4\xbf\xe0\xa4\x95\xe0\xa5\x8b\xe0\xa4\x82'
p2134
sS'af'
p2135
S'\xe0\xa4\xae\xe0\xa4\xbe\xe0\xa4\xb2\xe0\xa4\xbf\xe0\xa4\x95,n,m,pl,3,o,0,0'
p2136
ssbsg1744
I00
sba(issf_api
Word
p2137
(dp2138
g1996
I00
sg1997
V\u0928\u0947
p2139
sg1999
(issf_api
FeatureSet
p2140
(dp2141
g290
(dp2142
S'posn'
p2143
S'60'
p2144
sS'name'
p2145
S'\xe0\xa4\xa8\xe0\xa5\x87'
p2146
sS'drel'
p2147
S'lwg__psp:\xe0\xa4\xae\xe0\xa4\xbe\xe0\xa4\xb2\xe0\xa4\xbf\xe0\xa4\x95\xe0\xa5\x8b\xe0\xa4\x82'
p2148
sS'chunktype'
p2149
S'child:NP2'
p2150
sS'af'
p2151
S'\xe0\xa4\xa8\xe0\xa5\x87,psp,,,,,,'
p2152
ssbsg1722
I01
sg1725
I01
sg1736
Nsg1723
Nsg188
I1
sg174
I0
sg2013
I1
sg1734
Nsg2014
S'PSP'
p2153
sg287
(issf_api
FeatureSet
p2154
(dp2155
g290
(dp2156
S'posn'
p2157
S'60'
p2158
sS'name'
p2159
S'\xe0\xa4\xa8\xe0\xa5\x87'
p2160
sS'af'
p2161
S'\xe0\xa4\xa8\xe0\xa5\x87,psp,,,,,,'
p2162
ssbsg1744
I00
sba(issf_api
Word
p2163
(dp2164
g1996
I00
sg1997
V\u0915\u093f\u0930\u093e\u092f\u093e
p2165
sg1999
(issf_api
FeatureSet
p2166
(dp2167
g290
(dp2168
S'posn'
p2169
S'70'
p2170
sS'name'
p2171
S'\xe0\xa4\x95\xe0\xa4\xbf\xe0\xa4\xb0\xe0\xa4\xbe\xe0\xa4\xaf\xe0\xa4\xbe'
p2172
sS'drel'
p2173
S'pof__cn:\xe0\xa4\xb5\xe0\xa5\x83\xe0\xa4\xa6\xe0\xa5\x8d\xe0\xa4\xa7\xe0\xa4\xbf'
p2174
sS'chunktype'
p2175
S'child:NP3'
p2176
sS'af'
p2177
S'\xe0\xa4\x95\xe0\xa4\xbf\xe0\xa4\xb0\xe0\xa4\xbe\xe0\xa4\xaf\xe0\xa4\xbe,n,m,sg,3,d,0,0'
p2178
ssbsg1722
I01
sg1725
I01
sg1736
Nsg1723
Nsg188
I2
sg174
I0
sg2013
I1
sg1734
Nsg2014
S'NNC'
p2179
sg287
(issf_api
FeatureSet
p2180
(dp2181
g290
(dp2182
S'posn'
p2183
S'70'
p2184
sS'name'
p2185
S'\xe0\xa4\x95\xe0\xa4\xbf\xe0\xa4\xb0\xe0\xa4\xbe\xe0\xa4\xaf\xe0\xa4\xbe'
p2186
sS'af'
p2187
S'\xe0\xa4\x95\xe0\xa4\xbf\xe0\xa4\xb0\xe0\xa4\xbe\xe0\xa4\xaf\xe0\xa4\xbe,n,m,sg,3,d,0,0'
p2188
ssbsg1744
I00
sba(issf_api
Word
p2189
(dp2190
g1996
I00
sg1997
V\u0935\u0943\u0926\u094d\u0927\u093f
p2191
sg1999
(issf_api
FeatureSet
p2192
(dp2193
g290
(dp2194
S'posn'
p2195
S'80'
p2196
sS'name'
p2197
S'\xe0\xa4\xb5\xe0\xa5\x83\xe0\xa4\xa6\xe0\xa5\x8d\xe0\xa4\xa7\xe0\xa4\xbf'
p2198
sS'af'
p2199
S'\xe0\xa4\xb5\xe0\xa5\x83\xe0\xa4\xa6\xe0\xa5\x8d\xe0\xa4\xa7\xe0\xa4\xbf,n,f,sg,3,o,0_\xe0\xa4\x95\xe0\xa4\xbe,0'
p2200
sS'chunkid'
p2201
S'NP3'
p2202
sS'drel'
p2203
S'r6:\xe0\xa4\xae\xe0\xa4\xbe\xe0\xa4\x81\xe0\xa4\x97'
p2204
sS'vpos'
p2205
S'vib_3'
p2206
sS'chunktype'
p2207
S'head:NP3'
p2208
ssbsg1722
I01
sg1725
I01
sg1736
Nsg1723
Nsg188
I2
sg174
I0
sg2013
I1
sg1734
Nsg2014
S'NN'
p2209
sg287
(issf_api
FeatureSet
p2210
(dp2211
g290
(dp2212
S'posn'
p2213
S'80'
p2214
sS'name'
p2215
S'\xe0\xa4\xb5\xe0\xa5\x83\xe0\xa4\xa6\xe0\xa5\x8d\xe0\xa4\xa7\xe0\xa4\xbf'
p2216
sS'af'
p2217
S'\xe0\xa4\xb5\xe0\xa5\x83\xe0\xa4\xa6\xe0\xa5\x8d\xe0\xa4\xa7\xe0\xa4\xbf,n,f,sg,3,o,0,0'
p2218
ssbsg1744
I00
sba(issf_api
Word
p2219
(dp2220
g1996
I00
sg1997
V\u0915\u0940
p2221
sg1999
(issf_api
FeatureSet
p2222
(dp2223
g290
(dp2224
S'posn'
p2225
S'90'
p2226
sS'name'
p2227
S'\xe0\xa4\x95\xe0\xa5\x80'
p2228
sS'drel'
p2229
S'lwg__psp:\xe0\xa4\xb5\xe0\xa5\x83\xe0\xa4\xa6\xe0\xa5\x8d\xe0\xa4\xa7\xe0\xa4\xbf'
p2230
sS'chunktype'
p2231
S'child:NP3'
p2232
sS'af'
p2233
S'\xe0\xa4\x95\xe0\xa4\xbe,psp,f,sg,,o,,'
p2234
ssbsg1722
I01
sg1725
I01
sg1736
Nsg1723
Nsg188
I2
sg174
I0
sg2013
I1
sg1734
Nsg2014
S'PSP'
p2235
sg287
(issf_api
FeatureSet
p2236
(dp2237
g290
(dp2238
S'posn'
p2239
S'90'
p2240
sS'name'
p2241
S'\xe0\xa4\x95\xe0\xa5\x80'
p2242
sS'af'
p2243
S'\xe0\xa4\x95\xe0\xa4\xbe,psp,f,sg,,o,,'
p2244
ssbsg1744
I00
sba(issf_api
Word
p2245
(dp2246
g1996
I00
sg1997
V\u092e\u093e\u0901\u0917
p2247
sg1999
(issf_api
FeatureSet
p2248
(dp2249
g290
(dp2250
S'posn'
p2251
S'100'
p2252
sS'name'
p2253
S'\xe0\xa4\xae\xe0\xa4\xbe\xe0\xa4\x81\xe0\xa4\x97'
p2254
sS'af'
p2255
S'\xe0\xa4\xae\xe0\xa4\xbe\xe0\xa4\x81\xe0\xa4\x97,n,f,sg,3,o,0_\xe0\xa4\x95\xe0\xa5\x8b,0'
p2256
sS'chunkid'
p2257
S'NP4'
p2258
sS'drel'
p2259
S'k2:\xe0\xa4\xb2\xe0\xa5\x87\xe0\xa4\x95\xe0\xa4\xb0'
p2260
sS'vpos'
p2261
S'vib_2'
p2262
sS'chunktype'
p2263
S'head:NP4'
p2264
ssbsg1722
I01
sg1725
I01
sg1736
Nsg1723
Nsg188
I3
sg174
I0
sg2013
I1
sg1734
Nsg2014
S'NN'
p2265
sg287
(issf_api
FeatureSet
p2266
(dp2267
g290
(dp2268
S'posn'
p2269
S'100'
p2270
sS'name'
p2271
S'\xe0\xa4\xae\xe0\xa4\xbe\xe0\xa4\x81\xe0\xa4\x97'
p2272
sS'af'
p2273
S'\xe0\xa4\xae\xe0\xa4\xbe\xe0\xa4\x81\xe0\xa4\x97,n,f,sg,3,o,0,0'
p2274
ssbsg1744
I00
sba(issf_api
Word
p2275
(dp2276
g1996
I00
sg1997
V\u0915\u094b
p2277
sg1999
(issf_api
FeatureSet
p2278
(dp2279
g290
(dp2280
S'posn'
p2281
S'110'
p2282
sS'name'
p2283
S'\xe0\xa4\x95\xe0\xa5\x8b'
p2284
sS'drel'
p2285
S'lwg__psp:\xe0\xa4\xae\xe0\xa4\xbe\xe0\xa4\x81\xe0\xa4\x97'
p2286
sS'chunktype'
p2287
S'child:NP4'
p2288
sS'af'
p2289
S'\xe0\xa4\x95\xe0\xa5\x8b,psp,,,,,,'
p2290
ssbsg1722
I01
sg1725
I01
sg1736
Nsg1723
Nsg188
I3
sg174
I0
sg2013
I1
sg1734
Nsg2014
S'PSP'
p2291
sg287
(issf_api
FeatureSet
p2292
(dp2293
g290
(dp2294
S'posn'
p2295
S'110'
p2296
sS'name'
p2297
S'\xe0\xa4\x95\xe0\xa5\x8b'
p2298
sS'af'
p2299
S'\xe0\xa4\x95\xe0\xa5\x8b,psp,,,,,,'
p2300
ssbsg1744
I00
sba(issf_api
Word
p2301
(dp2302
g1996
I00
sg1997
V\u0932\u0947\u0915\u0930
p2303
sg1999
(issf_api
FeatureSet
p2304
(dp2305
g290
(dp2306
S'posn'
p2307
S'120'
p2308
sS'name'
p2309
S'\xe0\xa4\xb2\xe0\xa5\x87\xe0\xa4\x95\xe0\xa4\xb0'
p2310
sS'af'
p2311
S'\xe0\xa4\xb2\xe0\xa5\x87,v,any,any,any,,\xe0\xa4\x95\xe0\xa4\xb0,kara'
p2312
sS'chunkid'
p2313
S'VGNF'
p2314
sS'drel'
p2315
S'vmod:\xe0\xa4\x95\xe0\xa4\xbf\xe0\xa4\xaf\xe0\xa4\xbe'
p2316
sS'chunktype'
p2317
S'head:VGNF'
p2318
ssbsg1722
I01
sg1725
I01
sg1736
Nsg1723
Nsg188
I4
sg174
I0
sg2013
I1
sg1734
Nsg2014
S'VM'
p2319
sg287
(issf_api
FeatureSet
p2320
(dp2321
g290
(dp2322
S'posn'
p2323
S'120'
p2324
sS'name'
p2325
S'\xe0\xa4\xb2\xe0\xa5\x87\xe0\xa4\x95\xe0\xa4\xb0'
p2326
sS'af'
p2327
S'\xe0\xa4\xb2\xe0\xa5\x87,v,any,any,any,,\xe0\xa4\x95\xe0\xa4\xb0,kara'
p2328
ssbsg1744
I00
sba(issf_api
Word
p2329
(dp2330
g1996
I00
sg1997
V\u092e\u0902\u0917\u0932\u0935\u093e\u0930
p2331
sg1999
(issf_api
FeatureSet
p2332
(dp2333
g290
(dp2334
S'posn'
p2335
S'130'
p2336
sS'name'
p2337
S'\xe0\xa4\xae\xe0\xa4\x82\xe0\xa4\x97\xe0\xa4\xb2\xe0\xa4\xb5\xe0\xa4\xbe\xe0\xa4\xb0'
p2338
sS'af'
p2339
S'\xe0\xa4\xae\xe0\xa4\x82\xe0\xa4\x97\xe0\xa4\xb2\xe0\xa4\xb5\xe0\xa4\xbe\xe0\xa4\xb0,n,m,sg,3,o,0_\xe0\xa4\x95\xe0\xa5\x8b,0'
p2340
sS'chunkid'
p2341
S'NP5'
p2342
sS'drel'
p2343
S'k7t:\xe0\xa4\xb0\xe0\xa4\x96\xe0\xa4\xa8\xe0\xa5\x87'
p2344
sS'vpos'
p2345
S'vib_2'
p2346
sS'chunktype'
p2347
S'head:NP5'
p2348
ssbsg1722
I01
sg1725
I01
sg1736
Nsg1723
Nsg188
I5
sg174
I0
sg2013
I1
sg1734
Nsg2014
S'NNP'
p2349
sg287
(issf_api
FeatureSet
p2350
(dp2351
g290
(dp2352
S'posn'
p2353
S'130'
p2354
sS'name'
p2355
S'\xe0\xa4\xae\xe0\xa4\x82\xe0\xa4\x97\xe0\xa4\xb2\xe0\xa4\xb5\xe0\xa4\xbe\xe0\xa4\xb0'
p2356
sS'af'
p2357
S'\xe0\xa4\xae\xe0\xa4\x82\xe0\xa4\x97\xe0\xa4\xb2\xe0\xa4\xb5\xe0\xa4\xbe\xe0\xa4\xb0,n,m,sg,3,o,0,0'
p2358
ssbsg1744
I00
sba(issf_api
Word
p2359
(dp2360
g1996
I00
sg1997
V\u0915\u094b
p2361
sg1999
(issf_api
FeatureSet
p2362
(dp2363
g290
(dp2364
S'posn'
p2365
S'140'
p2366
sS'name'
p2367
S'\xe0\xa4\x95\xe0\xa5\x8b2'
p2368
sS'drel'
p2369
S'lwg__psp:\xe0\xa4\xae\xe0\xa4\x82\xe0\xa4\x97\xe0\xa4\xb2\xe0\xa4\xb5\xe0\xa4\xbe\xe0\xa4\xb0'
p2370
sS'chunktype'
p2371
S'child:NP5'
p2372
sS'af'
p2373
S'\xe0\xa4\x95\xe0\xa5\x8b,psp,,,,,,'
p2374
ssbsg1722
I01
sg1725
I01
sg1736
Nsg1723
Nsg188
I5
sg174
I0
sg2013
I1
sg1734
Nsg2014
S'PSP'
p2375
sg287
(issf_api
FeatureSet
p2376
(dp2377
g290
(dp2378
S'posn'
p2379
S'140'
p2380
sS'name'
p2381
S'\xe0\xa4\x95\xe0\xa5\x8b2'
p2382
sS'af'
p2383
S'\xe0\xa4\x95\xe0\xa5\x8b,psp,,,,,,'
p2384
ssbsg1744
I00
sba(issf_api
Word
p2385
(dp2386
g1996
I00
sg1997
V\u090f\u0915
p2387
sg1999
(issf_api
FeatureSet
p2388
(dp2389
g290
(dp2390
S'posn'
p2391
S'150'
p2392
sS'name'
p2393
S'\xe0\xa4\x8f\xe0\xa4\x95'
p2394
sS'drel'
p2395
S'nmod__adj:\xe0\xa4\xa6\xe0\xa4\xbf\xe0\xa4\xa8'
p2396
sS'chunktype'
p2397
S'child:NP6'
p2398
sS'af'
p2399
S'\xe0\xa4\x8f\xe0\xa4\x95,num,any,any,,any,,'
p2400
ssbsg1722
I01
sg1725
I01
sg1736
Nsg1723
Nsg188
I6
sg174
I0
sg2013
I1
sg1734
Nsg2014
S'QC'
p2401
sg287
(issf_api
FeatureSet
p2402
(dp2403
g290
(dp2404
S'posn'
p2405
S'150'
p2406
sS'name'
p2407
S'\xe0\xa4\x8f\xe0\xa4\x95'
p2408
sS'af'
p2409
S'\xe0\xa4\x8f\xe0\xa4\x95,num,any,any,,any,,'
p2410
ssbsg1744
I00
sba(issf_api
Word
p2411
(dp2412
g1996
I00
sg1997
V\u0926\u093f\u0928
p2413
sg1999
(issf_api
FeatureSet
p2414
(dp2415
g290
(dp2416
S'posn'
p2417
S'160'
p2418
sS'name'
p2419
S'\xe0\xa4\xa6\xe0\xa4\xbf\xe0\xa4\xa8'
p2420
sS'af'
p2421
S'\xe0\xa4\xa6\xe0\xa4\xbf\xe0\xa4\xa8,n,m,sg,3,o,0_\xe0\xa4\x95\xe0\xa4\xbe,0'
p2422
sS'chunkid'
p2423
S'NP6'
p2424
sS'drel'
p2425
S'r6:\xe0\xa4\xb9\xe0\xa5\x9c\xe0\xa4\xa4\xe0\xa4\xbe\xe0\xa4\xb2'
p2426
sS'vpos'
p2427
S'vib_3'
p2428
sS'chunktype'
p2429
S'head:NP6'
p2430
ssbsg1722
I01
sg1725
I01
sg1736
Nsg1723
Nsg188
I6
sg174
I0
sg2013
I1
sg1734
Nsg2014
S'NN'
p2431
sg287
(issf_api
FeatureSet
p2432
(dp2433
g290
(dp2434
S'posn'
p2435
S'160'
p2436
sS'name'
p2437
S'\xe0\xa4\xa6\xe0\xa4\xbf\xe0\xa4\xa8'
p2438
sS'af'
p2439
S'\xe0\xa4\xa6\xe0\xa4\xbf\xe0\xa4\xa8,n,m,sg,3,o,0,0'
p2440
ssbsg1744
I00
sba(issf_api
Word
p2441
(dp2442
g1996
I00
sg1997
V\u0915\u0940
p2443
sg1999
(issf_api
FeatureSet
p2444
(dp2445
g290
(dp2446
S'posn'
p2447
S'170'
p2448
sS'name'
p2449
S'\xe0\xa4\x95\xe0\xa5\x802'
p2450
sS'drel'
p2451
S'lwg__psp:\xe0\xa4\xa6\xe0\xa4\xbf\xe0\xa4\xa8'
p2452
sS'chunktype'
p2453
S'child:NP6'
p2454
sS'af'
p2455
S'\xe0\xa4\x95\xe0\xa4\xbe,psp,f,sg,,d,,'
p2456
ssbsg1722
I01
sg1725
I01
sg1736
Nsg1723
Nsg188
I6
sg174
I0
sg2013
I1
sg1734
Nsg2014
S'PSP'
p2457
sg287
(issf_api
FeatureSet
p2458
(dp2459
g290
(dp2460
S'posn'
p2461
S'170'
p2462
sS'name'
p2463
S'\xe0\xa4\x95\xe0\xa5\x802'
p2464
sS'af'
p2465
S'\xe0\xa4\x95\xe0\xa4\xbe,psp,f,sg,,d,,'
p2466
ssbsg1744
I00
sba(issf_api
Word
p2467
(dp2468
g1996
I00
sg1997
V\u0939\u095c\u0924\u093e\u0932
p2469
sg1999
(issf_api
FeatureSet
p2470
(dp2471
g290
(dp2472
S'posn'
p2473
S'180'
p2474
sS'name'
p2475
S'\xe0\xa4\xb9\xe0\xa5\x9c\xe0\xa4\xa4\xe0\xa4\xbe\xe0\xa4\xb2'
p2476
sS'af'
p2477
S'\xe0\xa4\xb9\xe0\xa5\x9c\xe0\xa4\xa4\xe0\xa4\xbe\xe0\xa4\xb2,n,f,sg,3,d,0,0'
p2478
sS'chunkid'
p2479
S'NP7'
p2480
sS'drel'
p2481
S'k2:\xe0\xa4\xb0\xe0\xa4\x96\xe0\xa4\xa8\xe0\xa5\x87'
p2482
sS'chunktype'
p2483
S'head:NP7'
p2484
ssbsg1722
I01
sg1725
I01
sg1736
Nsg1723
Nsg188
I7
sg174
I0
sg2013
I1
sg1734
Nsg2014
S'NN'
p2485
sg287
(issf_api
FeatureSet
p2486
(dp2487
g290
(dp2488
S'posn'
p2489
S'180'
p2490
sS'name'
p2491
S'\xe0\xa4\xb9\xe0\xa5\x9c\xe0\xa4\xa4\xe0\xa4\xbe\xe0\xa4\xb2'
p2492
sS'af'
p2493
S'\xe0\xa4\xb9\xe0\xa5\x9c\xe0\xa4\xa4\xe0\xa4\xbe\xe0\xa4\xb2,n,f,sg,3,d,0,0'
p2494
ssbsg1744
I00
sba(issf_api
Word
p2495
(dp2496
g1996
I00
sg1997
V\u0930\u0916\u0928\u0947
p2497
sg1999
(issf_api
FeatureSet
p2498
(dp2499
g290
(dp2500
S'posn'
p2501
S'190'
p2502
sS'name'
p2503
S'\xe0\xa4\xb0\xe0\xa4\x96\xe0\xa4\xa8\xe0\xa5\x87'
p2504
sS'af'
p2505
S'\xe0\xa4\xb0\xe0\xa4\x96,v,any,sg,3,o,\xe0\xa4\xa8\xe0\xa4\xbe_\xe0\xa4\x95\xe0\xa5\x87_\xe0\xa4\xac\xe0\xa4\xbe\xe0\xa4\xa6,nA'
p2506
sS'chunkid'
p2507
S'VGNN'
p2508
sS'drel'
p2509
S'k7t:\xe0\xa4\x95\xe0\xa4\xbf\xe0\xa4\xaf\xe0\xa4\xbe'
p2510
sS'vpos'
p2511
S'tam_2_3'
p2512
sS'chunktype'
p2513
S'head:VGNN'
p2514
ssbsg1722
I01
sg1725
I01
sg1736
Nsg1723
Nsg188
I8
sg174
I0
sg2013
I1
sg1734
Nsg2014
S'VM'
p2515
sg287
(issf_api
FeatureSet
p2516
(dp2517
g290
(dp2518
S'posn'
p2519
S'190'
p2520
sS'name'
p2521
S'\xe0\xa4\xb0\xe0\xa4\x96\xe0\xa4\xa8\xe0\xa5\x87'
p2522
sS'af'
p2523
S'\xe0\xa4\xb0\xe0\xa4\x96,v,any,any,any,o,\xe0\xa4\xa8\xe0\xa4\xbe,nA'
p2524
ssbsg1744
I00
sba(issf_api
Word
p2525
(dp2526
g1996
I00
sg1997
V\u0915\u0947
p2527
sg1999
(issf_api
FeatureSet
p2528
(dp2529
g290
(dp2530
S'posn'
p2531
S'200'
p2532
sS'name'
p2533
S'\xe0\xa4\x95\xe0\xa5\x87'
p2534
sS'drel'
p2535
S'lwg__psp:\xe0\xa4\xb0\xe0\xa4\x96\xe0\xa4\xa8\xe0\xa5\x87'
p2536
sS'chunktype'
p2537
S'child:VGNN'
p2538
sS'af'
p2539
S'\xe0\xa4\x95\xe0\xa5\x87,psp,,,,,,'
p2540
ssbsg1722
I01
sg1725
I00
sg1736
g1737
sg1723
(lp2541
I21
aI22
aI23
aI24
aI25
aI26
aI27
aI28
aI29
asg188
I8
sg174
I0
sg2013
I1
sg1734
(lp2542
I0
aI1
aI2
aI3
aI4
aI5
aI6
aI7
aI8
aI9
aI10
aI11
aI12
aI13
aI14
aI15
aI16
aI17
aI18
asg2014
S'PSP'
p2543
sg287
(issf_api
FeatureSet
p2544
(dp2545
g290
(dp2546
S'posn'
p2547
S'200'
p2548
sS'name'
p2549
S'\xe0\xa4\x95\xe0\xa5\x87'
p2550
sS'af'
p2551
S'\xe0\xa4\x95\xe0\xa5\x87,psp,,,,,,'
p2552
ssbsg1744
I01
sba(issf_api
Word
p2553
(dp2554
g1996
I00
sg1997
V\u092c\u093e\u0926
p2555
sg1999
(issf_api
FeatureSet
p2556
(dp2557
g290
(dp2558
S'posn'
p2559
S'210'
p2560
sS'name'
p2561
S'\xe0\xa4\xac\xe0\xa4\xbe\xe0\xa4\xa6'
p2562
sS'drel'
p2563
S'lwg__nst:\xe0\xa4\xb0\xe0\xa4\x96\xe0\xa4\xa8\xe0\xa5\x87'
p2564
sS'chunktype'
p2565
S'child:VGNN'
p2566
sS'af'
p2567
S'\xe0\xa4\xac\xe0\xa4\xbe\xe0\xa4\xa6,nst,m,sg,3,d,,'
p2568
ssbsg1722
I01
sg1725
I00
sg1736
g1737
sg1723
g2541
sg188
I8
sg174
I0
sg2013
I1
sg1734
g2542
sg2014
S'NST'
p2569
sg287
(issf_api
FeatureSet
p2570
(dp2571
g290
(dp2572
S'posn'
p2573
S'210'
p2574
sS'name'
p2575
S'\xe0\xa4\xac\xe0\xa4\xbe\xe0\xa4\xa6'
p2576
sS'af'
p2577
S'\xe0\xa4\xac\xe0\xa4\xbe\xe0\xa4\xa6,nst,m,sg,3,d,,'
p2578
ssbsg1744
I01
sba(issf_api
Word
p2579
(dp2580
g1996
I00
sg1997
V\u0905\u092a\u0928\u0940
p2581
sg1999
(issf_api
FeatureSet
p2582
(dp2583
g290
(dp2584
S'posn'
p2585
S'220'
p2586
sS'name'
p2587
S'\xe0\xa4\x85\xe0\xa4\xaa\xe0\xa4\xa8\xe0\xa5\x80'
p2588
sS'af'
p2589
S'\xe0\xa4\x85\xe0\xa4\xaa\xe0\xa4\xa8\xe0\xa4\xbe,pn,f,any,any,d,0,0'
p2590
sS'chunkid'
p2591
S'NP8'
p2592
sS'drel'
p2593
S'r6:\xe0\xa4\xb9\xe0\xa5\x9c\xe0\xa4\xa4\xe0\xa4\xbe\xe0\xa4\xb22'
p2594
sS'chunktype'
p2595
S'head:NP8'
p2596
ssbsg1722
I01
sg1725
I00
sg1736
Nsg1723
Nsg188
I9
sg174
I0
sg2013
I1
sg1734
Nsg2014
S'PRP'
p2597
sg287
(issf_api
FeatureSet
p2598
(dp2599
g290
(dp2600
S'posn'
p2601
S'220'
p2602
sS'name'
p2603
S'\xe0\xa4\x85\xe0\xa4\xaa\xe0\xa4\xa8\xe0\xa5\x80'
p2604
sS'af'
p2605
S'\xe0\xa4\x85\xe0\xa4\xaa\xe0\xa4\xa8\xe0\xa4\xbe,pn,f,any,any,d,0,0'
p2606
ssbsg1744
I00
sba(issf_api
Word
p2607
(dp2608
g1996
I00
sg1997
V\u0905\u0928\u093f\u0936\u094d\u091a\u093f\u0924\u0915\u093e\u0932\u0940\u0928
p2609
sg1999
(issf_api
FeatureSet
p2610
(dp2611
g290
(dp2612
S'posn'
p2613
S'230'
p2614
sS'name'
p2615
S'\xe0\xa4\x85\xe0\xa4\xa8\xe0\xa4\xbf\xe0\xa4\xb6\xe0\xa5\x8d\xe0\xa4\x9a\xe0\xa4\xbf\xe0\xa4\xa4\xe0\xa4\x95\xe0\xa4\xbe\xe0\xa4\xb2\xe0\xa5\x80\xe0\xa4\xa8'
p2616
sS'drel'
p2617
S'nmod__adj:\xe0\xa4\xb9\xe0\xa5\x9c\xe0\xa4\xa4\xe0\xa4\xbe\xe0\xa4\xb22'
p2618
sS'chunktype'
p2619
S'child:NP9'
p2620
sS'af'
p2621
S'\xe0\xa4\x85\xe0\xa4\xa8\xe0\xa4\xbf\xe0\xa4\xb6\xe0\xa5\x8d\xe0\xa4\x9a\xe0\xa4\xbf\xe0\xa4\xa4\xe0\xa4\x95\xe0\xa4\xbe\xe0\xa4\xb2\xe0\xa5\x80\xe0\xa4\xa8,adj,any,any,,d,,'
p2622
ssbsg1722
I01
sg1725
I00
sg1736
Nsg1723
Nsg188
I10
sg174
I0
sg2013
I1
sg1734
Nsg2014
S'JJ'
p2623
sg287
(issf_api
FeatureSet
p2624
(dp2625
g290
(dp2626
S'posn'
p2627
S'230'
p2628
sS'name'
p2629
S'\xe0\xa4\x85\xe0\xa4\xa8\xe0\xa4\xbf\xe0\xa4\xb6\xe0\xa5\x8d\xe0\xa4\x9a\xe0\xa4\xbf\xe0\xa4\xa4\xe0\xa4\x95\xe0\xa4\xbe\xe0\xa4\xb2\xe0\xa5\x80\xe0\xa4\xa8'
p2630
sS'af'
p2631
S'\xe0\xa4\x85\xe0\xa4\xa8\xe0\xa4\xbf\xe0\xa4\xb6\xe0\xa5\x8d\xe0\xa4\x9a\xe0\xa4\xbf\xe0\xa4\xa4\xe0\xa4\x95\xe0\xa4\xbe\xe0\xa4\xb2\xe0\xa5\x80\xe0\xa4\xa8,adj,any,any,,d,,'
p2632
ssbsg1744
I00
sba(issf_api
Word
p2633
(dp2634
g1996
I00
sg1997
V\u0939\u095c\u0924\u093e\u0932
p2635
sg1999
(issf_api
FeatureSet
p2636
(dp2637
g290
(dp2638
S'posn'
p2639
S'240'
p2640
sS'name'
p2641
S'\xe0\xa4\xb9\xe0\xa5\x9c\xe0\xa4\xa4\xe0\xa4\xbe\xe0\xa4\xb22'
p2642
sS'af'
p2643
S'\xe0\xa4\xb9\xe0\xa5\x9c\xe0\xa4\xa4\xe0\xa4\xbe\xe0\xa4\xb2,n,f,sg,3,d,0,0'
p2644
sS'chunkid'
p2645
S'NP9'
p2646
sS'drel'
p2647
S'k2:\xe0\xa4\xb2\xe0\xa5\x87\xe0\xa4\xa8\xe0\xa5\x87'
p2648
sS'chunktype'
p2649
S'head:NP9'
p2650
ssbsg1722
I01
sg1725
I00
sg1736
Nsg1723
Nsg188
I10
sg174
I0
sg2013
I1
sg1734
Nsg2014
S'NN'
p2651
sg287
(issf_api
FeatureSet
p2652
(dp2653
g290
(dp2654
S'posn'
p2655
S'240'
p2656
sS'name'
p2657
S'\xe0\xa4\xb9\xe0\xa5\x9c\xe0\xa4\xa4\xe0\xa4\xbe\xe0\xa4\xb22'
p2658
sS'af'
p2659
S'\xe0\xa4\xb9\xe0\xa5\x9c\xe0\xa4\xa4\xe0\xa4\xbe\xe0\xa4\xb2,n,f,sg,3,d,0,0'
p2660
ssbsg1744
I00
sba(issf_api
Word
p2661
(dp2662
g1996
I00
sg1997
V\u0935\u093e\u092a\u0938
p2663
sg1999
(issf_api
FeatureSet
p2664
(dp2665
g290
(dp2666
S'posn'
p2667
S'250'
p2668
sS'name'
p2669
S'\xe0\xa4\xb5\xe0\xa4\xbe\xe0\xa4\xaa\xe0\xa4\xb8'
p2670
sS'af'
p2671
S'\xe0\xa4\xb5\xe0\xa4\xbe\xe0\xa4\xaa\xe0\xa4\xb8,adj,any,any,,,,'
p2672
sS'chunkid'
p2673
S'JJP'
p2674
sS'drel'
p2675
S'pof:\xe0\xa4\xb2\xe0\xa5\x87\xe0\xa4\xa8\xe0\xa5\x87'
p2676
sS'chunktype'
p2677
S'head:JJP'
p2678
ssbsg1722
I01
sg1725
I00
sg1736
Nsg1723
Nsg188
I11
sg174
I0
sg2013
I1
sg1734
Nsg2014
S'JJ'
p2679
sg287
(issf_api
FeatureSet
p2680
(dp2681
g290
(dp2682
S'posn'
p2683
S'250'
p2684
sS'name'
p2685
S'\xe0\xa4\xb5\xe0\xa4\xbe\xe0\xa4\xaa\xe0\xa4\xb8'
p2686
sS'af'
p2687
S'\xe0\xa4\xb5\xe0\xa4\xbe\xe0\xa4\xaa\xe0\xa4\xb8,adj,any,any,,,,'
p2688
ssbsg1744
I00
sba(issf_api
Word
p2689
(dp2690
g1996
I00
sg1997
V\u0932\u0947\u0928\u0947
p2691
sg1999
(issf_api
FeatureSet
p2692
(dp2693
g290
(dp2694
S'posn'
p2695
S'260'
p2696
sS'name'
p2697
S'\xe0\xa4\xb2\xe0\xa5\x87\xe0\xa4\xa8\xe0\xa5\x87'
p2698
sS'af'
p2699
S'\xe0\xa4\xb2\xe0\xa5\x87,v,any,sg,any,o,\xe0\xa4\xa8\xe0\xa4\xbe_\xe0\xa4\x95\xe0\xa4\xbe,nA'
p2700
sS'chunkid'
p2701
S'VGNN2'
p2702
sS'drel'
p2703
S'r6-k2:\xe0\xa4\xab\xe0\xa5\x88\xe0\xa4\xb8\xe0\xa4\xb2\xe0\xa4\xbe'
p2704
sS'vpos'
p2705
S'tam_2'
p2706
sS'chunktype'
p2707
S'head:VGNN2'
p2708
ssbsg1722
I01
sg1725
I00
sg1736
Nsg1723
Nsg188
I12
sg174
I0
sg2013
I1
sg1734
Nsg2014
S'VM'
p2709
sg287
(issf_api
FeatureSet
p2710
(dp2711
g290
(dp2712
S'posn'
p2713
S'260'
p2714
sS'name'
p2715
S'\xe0\xa4\xb2\xe0\xa5\x87\xe0\xa4\xa8\xe0\xa5\x87'
p2716
sS'af'
p2717
S'\xe0\xa4\xb2\xe0\xa5\x87,v,any,any,any,o,\xe0\xa4\xa8\xe0\xa4\xbe,nA'
p2718
ssbsg1744
I00
sba(issf_api
Word
p2719
(dp2720
g1996
I00
sg1997
V\u0915\u093e
p2721
sg1999
(issf_api
FeatureSet
p2722
(dp2723
g290
(dp2724
S'posn'
p2725
S'270'
p2726
sS'name'
p2727
S'\xe0\xa4\x95\xe0\xa4\xbe'
p2728
sS'drel'
p2729
S'lwg__psp:\xe0\xa4\xb2\xe0\xa5\x87\xe0\xa4\xa8\xe0\xa5\x87'
p2730
sS'chunktype'
p2731
S'child:VGNN2'
p2732
sS'af'
p2733
S'\xe0\xa4\x95\xe0\xa4\xbe,psp,m,sg,,d,,'
p2734
ssbsg1722
I01
sg1725
I00
sg1736
Nsg1723
Nsg188
I12
sg174
I0
sg2013
I1
sg1734
Nsg2014
S'PSP'
p2735
sg287
(issf_api
FeatureSet
p2736
(dp2737
g290
(dp2738
S'posn'
p2739
S'270'
p2740
sS'name'
p2741
S'\xe0\xa4\x95\xe0\xa4\xbe'
p2742
sS'af'
p2743
S'\xe0\xa4\x95\xe0\xa4\xbe,psp,m,sg,,d,,'
p2744
ssbsg1744
I00
sba(issf_api
Word
p2745
(dp2746
g1996
I00
sg1997
V\u092b\u0948\u0938\u0932\u093e
p2747
sg1999
(issf_api
FeatureSet
p2748
(dp2749
g290
(dp2750
S'posn'
p2751
S'280'
p2752
sS'name'
p2753
S'\xe0\xa4\xab\xe0\xa5\x88\xe0\xa4\xb8\xe0\xa4\xb2\xe0\xa4\xbe'
p2754
sS'af'
p2755
S'\xe0\xa4\xab\xe0\xa5\x88\xe0\xa4\xb8\xe0\xa4\xb2\xe0\xa4\xbe,n,m,sg,3,d,0,0'
p2756
sS'chunkid'
p2757
S'NP10'
p2758
sS'drel'
p2759
S'pof:\xe0\xa4\x95\xe0\xa4\xbf\xe0\xa4\xaf\xe0\xa4\xbe'
p2760
sS'chunktype'
p2761
S'head:NP10'
p2762
ssbsg1722
I01
sg1725
I00
sg1736
Nsg1723
Nsg188
I13
sg174
I0
sg2013
I1
sg1734
Nsg2014
S'NN'
p2763
sg287
(issf_api
FeatureSet
p2764
(dp2765
g290
(dp2766
S'posn'
p2767
S'280'
p2768
sS'name'
p2769
S'\xe0\xa4\xab\xe0\xa5\x88\xe0\xa4\xb8\xe0\xa4\xb2\xe0\xa4\xbe'
p2770
sS'af'
p2771
S'\xe0\xa4\xab\xe0\xa5\x88\xe0\xa4\xb8\xe0\xa4\xb2\xe0\xa4\xbe,n,m,sg,3,d,0,0'
p2772
ssbsg1744
I00
sba(issf_api
Word
p2773
(dp2774
g1996
I00
sg1997
V\u0915\u093f\u092f\u093e
p2775
sg1999
(issf_api
FeatureSet
p2776
(dp2777
g290
(dp2778
S'posn'
p2779
S'290'
p2780
sS'name'
p2781
S'\xe0\xa4\x95\xe0\xa4\xbf\xe0\xa4\xaf\xe0\xa4\xbe'
p2782
sS'af'
p2783
S'\xe0\xa4\x95\xe0\xa4\xb0,v,m,sg,3,,\xe0\xa4\xaf\xe0\xa4\xbe_\xe0\xa4\xb9\xe0\xa5\x88,yA'
p2784
sS'chunkid'
p2785
S'VGF'
p2786
sS'chunktype'
p2787
S'head:VGF'
p2788
sS'voicetype'
p2789
S'active'
p2790
sS'vpos'
p2791
S'tam_2'
p2792
sS'stype'
p2793
S'declarative'
p2794
ssbsg1722
I01
sg1725
I00
sg1736
Nsg1723
Nsg188
I14
sg174
I0
sg2013
I1
sg1734
Nsg2014
S'VM'
p2795
sg287
(issf_api
FeatureSet
p2796
(dp2797
g290
(dp2798
S'posn'
p2799
S'290'
p2800
sS'name'
p2801
S'\xe0\xa4\x95\xe0\xa4\xbf\xe0\xa4\xaf\xe0\xa4\xbe'
p2802
sS'af'
p2803
S'\xe0\xa4\x95\xe0\xa4\xb0,v,m,sg,any,,\xe0\xa4\xaf\xe0\xa4\xbe,yA'
p2804
ssbsg1744
I00
sba(issf_api
Word
p2805
(dp2806
g1996
I00
sg1997
V\u0939\u0948
p2807
sg1999
(issf_api
FeatureSet
p2808
(dp2809
g290
(dp2810
S'posn'
p2811
S'300'
p2812
sS'name'
p2813
S'\xe0\xa4\xb9\xe0\xa5\x88'
p2814
sS'drel'
p2815
S'lwg__vaux:\xe0\xa4\x95\xe0\xa4\xbf\xe0\xa4\xaf\xe0\xa4\xbe'
p2816
sS'chunktype'
p2817
S'child:VGF'
p2818
sS'af'
p2819
S'\xe0\xa4\xb9\xe0\xa5\x88,v,any,sg,3,,\xe0\xa4\xb9\xe0\xa5\x88,hE'
p2820
ssbsg1722
I01
sg1725
I00
sg1736
Nsg1723
Nsg188
I14
sg174
I0
sg2013
I1
sg1734
Nsg2014
S'VAUX'
p2821
sg287
(issf_api
FeatureSet
p2822
(dp2823
g290
(dp2824
S'posn'
p2825
S'300'
p2826
sS'name'
p2827
S'\xe0\xa4\xb9\xe0\xa5\x88'
p2828
sS'af'
p2829
S'\xe0\xa4\xb9\xe0\xa5\x88,v,any,sg,3,,\xe0\xa4\xb9\xe0\xa5\x88,hE'
p2830
ssbsg1744
I00
sba(issf_api
Word
p2831
(dp2832
g1996
I00
sg1997
V\u0964
sg1999
(issf_api
FeatureSet
p2833
(dp2834
g290
(dp2835
S'posn'
p2836
S'310'
p2837
sS'name'
p2838
S'\xe0\xa5\xa4'
p2839
sS'af'
p2840
S'\xe0\xa5\xa4,punc,,,,,,'
p2841
sS'chunkid'
p2842
S'BLK'
p2843
sS'drel'
p2844
S'rsym:\xe0\xa4\x95\xe0\xa4\xbf\xe0\xa4\xaf\xe0\xa4\xbe'
p2845
sS'chunktype'
p2846
S'head:BLK'
p2847
ssbsg1722
I01
sg1725
I00
sg1736
Nsg1723
Nsg188
I15
sg174
I0
sg2013
I1
sg1734
Nsg2014
S'SYM'
p2848
sg287
(issf_api
FeatureSet
p2849
(dp2850
g290
(dp2851
S'posn'
p2852
S'310'
p2853
sS'name'
p2854
S'\xe0\xa5\xa4'
p2855
sS'af'
p2856
S'\xe0\xa5\xa4,punc,,,,,,'
p2857
ssbsg1744
I00
sba(issf_api
Word
p2858
(dp2859
g1996
I00
sg1997
V\u091c\u092c\u0915\u093f
p2860
sg1999
(issf_api
FeatureSet
p2861
(dp2862
g290
(dp2863
S'posn'
p2864
S'10'
p2865
sS'chunkid'
p2866
S'CCP'
p2867
sS'name'
p2868
S'\xe0\xa4\x9c\xe0\xa4\xac\xe0\xa4\x95\xe0\xa4\xbf'
p2869
sS'chunktype'
p2870
S'head:CCP'
p2871
sS'af'
p2872
S'\xe0\xa4\x9c\xe0\xa4\xac\xe0\xa4\x95\xe0\xa4\xbf,avy,,,,,,'
p2873
ssbsg1722
I00
sg1725
I00
sg1736
g1757
sg1723
(lp2874
I0
aI1
aI2
aI3
aI4
aI5
aI6
aI7
aI8
aI9
aI10
aI11
aI12
aI13
aI14
aI15
aI16
aI17
aI18
aI19
aI20
aI21
aI22
aI23
aI24
aI25
aI26
aI27
aI28
aI29
aI30
asg188
I0
sg174
I1
sg2013
I1
sg1734
(lp2875
I32
aI33
aI34
aI35
aI36
aI37
aI38
aI39
aI40
aI41
aI42
aI43
aI44
aI45
aI46
aI47
aI48
aI49
aI50
asg2014
S'CC'
p2876
sg287
(issf_api
FeatureSet
p2877
(dp2878
g290
(dp2879
S'posn'
p2880
S'10'
p2881
sS'name'
p2882
S'\xe0\xa4\x9c\xe0\xa4\xac\xe0\xa4\x95\xe0\xa4\xbf'
p2883
sS'af'
p2884
S'\xe0\xa4\x9c\xe0\xa4\xac\xe0\xa4\x95\xe0\xa4\xbf,avy,,,,,,'
p2885
ssbsg1744
I01
sba(issf_api
Word
p2886
(dp2887
g1996
I00
sg1997
V\u0928\u093f\u091c\u0940
p2888
sg1999
(issf_api
FeatureSet
p2889
(dp2890
g290
(dp2891
S'posn'
p2892
S'20'
p2893
sS'name'
p2894
S'\xe0\xa4\xa8\xe0\xa4\xbf\xe0\xa4\x9c\xe0\xa5\x80'
p2895
sS'drel'
p2896
S'nmod__adj:\xe0\xa4\xac\xe0\xa4\xb8'
p2897
sS'chunktype'
p2898
S'child:NP'
p2899
sS'af'
p2900
S'\xe0\xa4\xa8\xe0\xa4\xbf\xe0\xa4\x9c\xe0\xa5\x80,adj,any,any,,d,,'
p2901
ssbsg1722
I00
sg1725
I01
sg1736
Nsg1723
Nsg188
I1
sg174
I1
sg2013
I1
sg1734
Nsg2014
S'JJ'
p2902
sg287
(issf_api
FeatureSet
p2903
(dp2904
g290
(dp2905
S'posn'
p2906
S'20'
p2907
sS'name'
p2908
S'\xe0\xa4\xa8\xe0\xa4\xbf\xe0\xa4\x9c\xe0\xa5\x80'
p2909
sS'af'
p2910
S'\xe0\xa4\xa8\xe0\xa4\xbf\xe0\xa4\x9c\xe0\xa5\x80,adj,any,any,,d,,'
p2911
ssbsg1744
I00
sba(issf_api
Word
p2912
(dp2913
g1996
I00
sg1997
V\u092c\u0938
p2914
sg1999
(issf_api
FeatureSet
p2915
(dp2916
g290
(dp2917
S'posn'
p2918
S'30'
p2919
sS'name'
p2920
S'\xe0\xa4\xac\xe0\xa4\xb8'
p2921
sS'af'
p2922
S'\xe0\xa4\xac\xe0\xa4\xb8,n,f,sg,3,d,0,0'
p2923
sS'chunkid'
p2924
S'NP'
p2925
sS'drel'
p2926
S'ccof:\xe0\xa4\x94\xe0\xa4\xb0'
p2927
sS'chunktype'
p2928
S'head:NP'
p2929
ssbsg1722
I00
sg1725
I01
sg1736
Nsg1723
Nsg188
I1
sg174
I1
sg2013
I1
sg1734
Nsg2014
S'NN'
p2930
sg287
(issf_api
FeatureSet
p2931
(dp2932
g290
(dp2933
S'posn'
p2934
S'30'
p2935
sS'name'
p2936
S'\xe0\xa4\xac\xe0\xa4\xb8'
p2937
sS'af'
p2938
S'\xe0\xa4\xac\xe0\xa4\xb8,n,f,sg,3,d,0,0'
p2939
ssbsg1744
I00
sba(issf_api
Word
p2940
(dp2941
g1996
I00
sg1997
V\u0914\u0930
p2942
sg1999
(issf_api
FeatureSet
p2943
(dp2944
g290
(dp2945
S'posn'
p2946
S'40'
p2947
sS'name'
p2948
S'\xe0\xa4\x94\xe0\xa4\xb0'
p2949
sS'af'
p2950
S'\xe0\xa4\x94\xe0\xa4\xb0,avy,,,,,,'
p2951
sS'chunkid'
p2952
S'CCP2'
p2953
sS'drel'
p2954
S'nmod:\xe0\xa4\xae\xe0\xa4\xbe\xe0\xa4\xb2\xe0\xa4\xbf\xe0\xa4\x95\xe0\xa5\x8b\xe0\xa4\x82'
p2955
sS'chunktype'
p2956
S'head:CCP2'
p2957
ssbsg1722
I00
sg1725
I01
sg1736
Nsg1723
Nsg188
I2
sg174
I1
sg2013
I1
sg1734
Nsg2014
S'CC'
p2958
sg287
(issf_api
FeatureSet
p2959
(dp2960
g290
(dp2961
S'posn'
p2962
S'40'
p2963
sS'name'
p2964
S'\xe0\xa4\x94\xe0\xa4\xb0'
p2965
sS'af'
p2966
S'\xe0\xa4\x94\xe0\xa4\xb0,avy,,,,,,'
p2967
ssbsg1744
I00
sba(issf_api
Word
p2968
(dp2969
g1996
I00
sg1997
V\u092e\u093f\u0928\u0940
p2970
sg1999
(issf_api
FeatureSet
p2971
(dp2972
g290
(dp2973
S'posn'
p2974
S'50'
p2975
sS'name'
p2976
S'\xe0\xa4\xae\xe0\xa4\xbf\xe0\xa4\xa8\xe0\xa5\x80'
p2977
sS'drel'
p2978
S'pof__cn:\xe0\xa4\xac\xe0\xa4\xb82'
p2979
sS'chunktype'
p2980
S'child:NP2'
p2981
sS'af'
p2982
S'\xe0\xa4\xae\xe0\xa4\xbf\xe0\xa4\xa8\xe0\xa5\x80,adj,any,any,,d,,'
p2983
ssbsg1722
I00
sg1725
I01
sg1736
Nsg1723
Nsg188
I3
sg174
I1
sg2013
I1
sg1734
Nsg2014
S'NNC'
p2984
sg287
(issf_api
FeatureSet
p2985
(dp2986
g290
(dp2987
S'posn'
p2988
S'50'
p2989
sS'name'
p2990
S'\xe0\xa4\xae\xe0\xa4\xbf\xe0\xa4\xa8\xe0\xa5\x80'
p2991
sS'af'
p2992
S'\xe0\xa4\xae\xe0\xa4\xbf\xe0\xa4\xa8\xe0\xa5\x80,adj,any,any,,d,,'
p2993
ssbsg1744
I00
sba(issf_api
Word
p2994
(dp2995
g1996
I00
sg1997
V\u092c\u0938
p2996
sg1999
(issf_api
FeatureSet
p2997
(dp2998
g290
(dp2999
S'posn'
p3000
S'60'
p3001
sS'name'
p3002
S'\xe0\xa4\xac\xe0\xa4\xb82'
p3003
sS'af'
p3004
S'\xe0\xa4\xac\xe0\xa4\xb8,n,f,sg,3,d,0,0'
p3005
sS'chunkid'
p3006
S'NP2'
p3007
sS'drel'
p3008
S'ccof:\xe0\xa4\x94\xe0\xa4\xb0'
p3009
sS'chunktype'
p3010
S'head:NP2'
p3011
ssbsg1722
I00
sg1725
I01
sg1736
Nsg1723
Nsg188
I3
sg174
I1
sg2013
I1
sg1734
Nsg2014
S'NN'
p3012
sg287
(issf_api
FeatureSet
p3013
(dp3014
g290
(dp3015
S'posn'
p3016
S'60'
p3017
sS'name'
p3018
S'\xe0\xa4\xac\xe0\xa4\xb82'
p3019
sS'af'
p3020
S'\xe0\xa4\xac\xe0\xa4\xb8,n,f,sg,3,d,0,0'
p3021
ssbsg1744
I00
sba(issf_api
Word
p3022
(dp3023
g1996
I00
sg1997
V\u092e\u093e\u0932\u093f\u0915\u094b\u0902
p3024
sg1999
(issf_api
FeatureSet
p3025
(dp3026
g290
(dp3027
S'posn'
p3028
S'70'
p3029
sS'name'
p3030
S'\xe0\xa4\xae\xe0\xa4\xbe\xe0\xa4\xb2\xe0\xa4\xbf\xe0\xa4\x95\xe0\xa5\x8b\xe0\xa4\x82'
p3031
sS'af'
p3032
S'\xe0\xa4\xae\xe0\xa4\xbe\xe0\xa4\xb2\xe0\xa4\xbf\xe0\xa4\x95,n,m,pl,3,o,0_\xe0\xa4\xa8\xe0\xa5\x87,0'
p3033
sS'chunkid'
p3034
S'NP3'
p3035
sS'drel'
p3036
S'k1:\xe0\xa4\x95\xe0\xa4\xbf\xe0\xa4\xaf\xe0\xa4\xbe'
p3037
sS'vpos'
p3038
S'vib_2'
p3039
sS'chunktype'
p3040
S'head:NP3'
p3041
ssbsg1722
I00
sg1725
I01
sg1736
Nsg1723
Nsg188
I4
sg174
I1
sg2013
I1
sg1734
Nsg2014
S'NN'
p3042
sg287
(issf_api
FeatureSet
p3043
(dp3044
g290
(dp3045
S'posn'
p3046
S'70'
p3047
sS'name'
p3048
S'\xe0\xa4\xae\xe0\xa4\xbe\xe0\xa4\xb2\xe0\xa4\xbf\xe0\xa4\x95\xe0\xa5\x8b\xe0\xa4\x82'
p3049
sS'af'
p3050
S'\xe0\xa4\xae\xe0\xa4\xbe\xe0\xa4\xb2\xe0\xa4\xbf\xe0\xa4\x95,n,m,pl,3,o,0,0'
p3051
ssbsg1744
I00
sba(issf_api
Word
p3052
(dp3053
g1996
I00
sg1997
V\u0928\u0947
p3054
sg1999
(issf_api
FeatureSet
p3055
(dp3056
g290
(dp3057
S'posn'
p3058
S'80'
p3059
sS'name'
p3060
S'\xe0\xa4\xa8\xe0\xa5\x87'
p3061
sS'drel'
p3062
S'lwg__psp:\xe0\xa4\xae\xe0\xa4\xbe\xe0\xa4\xb2\xe0\xa4\xbf\xe0\xa4\x95\xe0\xa5\x8b\xe0\xa4\x82'
p3063
sS'chunktype'
p3064
S'child:NP3'
p3065
sS'af'
p3066
S'\xe0\xa4\xa8\xe0\xa5\x87,psp,,,,,,'
p3067
ssbsg1722
I00
sg1725
I01
sg1736
Nsg1723
Nsg188
I4
sg174
I1
sg2013
I1
sg1734
Nsg2014
S'PSP'
p3068
sg287
(issf_api
FeatureSet
p3069
(dp3070
g290
(dp3071
S'posn'
p3072
S'80'
p3073
sS'name'
p3074
S'\xe0\xa4\xa8\xe0\xa5\x87'
p3075
sS'af'
p3076
S'\xe0\xa4\xa8\xe0\xa5\x87,psp,,,,,,'
p3077
ssbsg1744
I00
sba(issf_api
Word
p3078
(dp3079
g1996
I00
sg1997
V\u0905\u092a\u0928\u093e
p3080
sg1999
(issf_api
FeatureSet
p3081
(dp3082
g290
(dp3083
S'posn'
p3084
S'90'
p3085
sS'name'
p3086
S'\xe0\xa4\x85\xe0\xa4\xaa\xe0\xa4\xa8\xe0\xa4\xbe'
p3087
sS'af'
p3088
S'\xe0\xa4\x85\xe0\xa4\xaa\xe0\xa4\xa8\xe0\xa4\xbe,pn,m,sg,any,d,0,0'
p3089
sS'chunkid'
p3090
S'NP4'
p3091
sS'drel'
p3092
S'r6:\xe0\xa4\x86\xe0\xa4\x82\xe0\xa4\xa6\xe0\xa5\x8b\xe0\xa4\xb2\xe0\xa4\xa8'
p3093
sS'chunktype'
p3094
S'head:NP4'
p3095
ssbsg1722
I00
sg1725
I01
sg1736
Nsg1723
Nsg188
I5
sg174
I1
sg2013
I1
sg1734
Nsg2014
S'PRP'
p3096
sg287
(issf_api
FeatureSet
p3097
(dp3098
g290
(dp3099
S'posn'
p3100
S'90'
p3101
sS'name'
p3102
S'\xe0\xa4\x85\xe0\xa4\xaa\xe0\xa4\xa8\xe0\xa4\xbe'
p3103
sS'af'
p3104
S'\xe0\xa4\x85\xe0\xa4\xaa\xe0\xa4\xa8\xe0\xa4\xbe,pn,m,sg,any,d,0,0'
p3105
ssbsg1744
I00
sba(issf_api
Word
p3106
(dp3107
g1996
I00
sg1997
V\u0906\u0902\u0926\u094b\u0932\u0928
p3108
sg1999
(issf_api
FeatureSet
p3109
(dp3110
g290
(dp3111
S'posn'
p3112
S'100'
p3113
sS'name'
p3114
S'\xe0\xa4\x86\xe0\xa4\x82\xe0\xa4\xa6\xe0\xa5\x8b\xe0\xa4\xb2\xe0\xa4\xa8'
p3115
sS'af'
p3116
S'\xe0\xa4\x86\xe0\xa4\x82\xe0\xa4\xa6\xe0\xa5\x8b\xe0\xa4\xb2\xe0\xa4\xa8,n,m,sg,3,d,0,0'
p3117
sS'chunkid'
p3118
S'NP5'
p3119
sS'drel'
p3120
S'k2:\xe0\xa4\xb0\xe0\xa4\x96\xe0\xa4\xa8\xe0\xa5\x87'
p3121
sS'chunktype'
p3122
S'head:NP5'
p3123
ssbsg1722
I00
sg1725
I01
sg1736
Nsg1723
Nsg188
I6
sg174
I1
sg2013
I1
sg1734
Nsg2014
S'NN'
p3124
sg287
(issf_api
FeatureSet
p3125
(dp3126
g290
(dp3127
S'posn'
p3128
S'100'
p3129
sS'name'
p3130
S'\xe0\xa4\x86\xe0\xa4\x82\xe0\xa4\xa6\xe0\xa5\x8b\xe0\xa4\xb2\xe0\xa4\xa8'
p3131
sS'af'
p3132
S'\xe0\xa4\x86\xe0\xa4\x82\xe0\xa4\xa6\xe0\xa5\x8b\xe0\xa4\xb2\xe0\xa4\xa8,n,m,sg,3,d,0,0'
p3133
ssbsg1744
I00
sba(issf_api
Word
p3134
(dp3135
g1996
I00
sg1997
V\u0924\u092f
p3136
sg1999
(issf_api
FeatureSet
p3137
(dp3138
g290
(dp3139
S'posn'
p3140
S'110'
p3141
sS'name'
p3142
S'\xe0\xa4\xa4\xe0\xa4\xaf'
p3143
sS'drel'
p3144
S'nmod__adj:\xe0\xa4\x95\xe0\xa4\xbe\xe0\xa4\xb0\xe0\xa5\x8d\xe0\xa4\xaf\xe0\xa4\x95\xe0\xa5\x8d\xe0\xa4\xb0\xe0\xa4\xae'
p3145
sS'chunktype'
p3146
S'child:NP6'
p3147
sS'af'
p3148
S'\xe0\xa4\xa4\xe0\xa4\xaf,adj,any,any,,o,,'
p3149
ssbsg1722
I00
sg1725
I01
sg1736
Nsg1723
Nsg188
I7
sg174
I1
sg2013
I1
sg1734
Nsg2014
S'JJ'
p3150
sg287
(issf_api
FeatureSet
p3151
(dp3152
g290
(dp3153
S'posn'
p3154
S'110'
p3155
sS'name'
p3156
S'\xe0\xa4\xa4\xe0\xa4\xaf'
p3157
sS'af'
p3158
S'\xe0\xa4\xa4\xe0\xa4\xaf,adj,any,any,,o,,'
p3159
ssbsg1744
I00
sba(issf_api
Word
p3160
(dp3161
g1996
I00
sg1997
V\u0915\u093e\u0930\u094d\u092f\u0915\u094d\u0930\u092e
p3162
sg1999
(issf_api
FeatureSet
p3163
(dp3164
g290
(dp3165
S'posn'
p3166
S'120'
p3167
sS'name'
p3168
S'\xe0\xa4\x95\xe0\xa4\xbe\xe0\xa4\xb0\xe0\xa5\x8d\xe0\xa4\xaf\xe0\xa4\x95\xe0\xa5\x8d\xe0\xa4\xb0\xe0\xa4\xae'
p3169
sS'af'
p3170
S'\xe0\xa4\x95\xe0\xa4\xbe\xe0\xa4\xb0\xe0\xa5\x8d\xe0\xa4\xaf\xe0\xa4\x95\xe0\xa5\x8d\xe0\xa4\xb0\xe0\xa4\xae,n,m,sg,3,o,0_\xe0\xa4\x95\xe0\xa5\x87_\xe0\xa4\x85\xe0\xa4\xa8\xe0\xa5\x81\xe0\xa4\xb8\xe0\xa4\xbe\xe0\xa4\xb0,0'
p3171
sS'chunkid'
p3172
S'NP6'
p3173
sS'drel'
p3174
S'k7a:\xe0\xa4\xb0\xe0\xa4\x96\xe0\xa4\xa8\xe0\xa5\x87'
p3175
sS'vpos'
p3176
S'vib_3_4'
p3177
sS'chunktype'
p3178
S'head:NP6'
p3179
ssbsg1722
I00
sg1725
I01
sg1736
Nsg1723
Nsg188
I7
sg174
I1
sg2013
I1
sg1734
Nsg2014
S'NN'
p3180
sg287
(issf_api
FeatureSet
p3181
(dp3182
g290
(dp3183
S'posn'
p3184
S'120'
p3185
sS'name'
p3186
S'\xe0\xa4\x95\xe0\xa4\xbe\xe0\xa4\xb0\xe0\xa5\x8d\xe0\xa4\xaf\xe0\xa4\x95\xe0\xa5\x8d\xe0\xa4\xb0\xe0\xa4\xae'
p3187
sS'af'
p3188
S'\xe0\xa4\x95\xe0\xa4\xbe\xe0\xa4\xb0\xe0\xa5\x8d\xe0\xa4\xaf\xe0\xa4\x95\xe0\xa5\x8d\xe0\xa4\xb0\xe0\xa4\xae,n,m,sg,3,o,0,0'
p3189
ssbsg1744
I00
sba(issf_api
Word
p3190
(dp3191
g1996
I00
sg1997
V\u0915\u0947
p3192
sg1999
(issf_api
FeatureSet
p3193
(dp3194
g290
(dp3195
S'posn'
p3196
S'130'
p3197
sS'name'
p3198
S'\xe0\xa4\x95\xe0\xa5\x87'
p3199
sS'drel'
p3200
S'lwg__psp:\xe0\xa4\x95\xe0\xa4\xbe\xe0\xa4\xb0\xe0\xa5\x8d\xe0\xa4\xaf\xe0\xa4\x95\xe0\xa5\x8d\xe0\xa4\xb0\xe0\xa4\xae'
p3201
sS'chunktype'
p3202
S'child:NP6'
p3203
sS'af'
p3204
S'\xe0\xa4\x95\xe0\xa5\x87,psp,,,,,,'
p3205
ssbsg1722
I00
sg1725
I01
sg1736
Nsg1723
Nsg188
I7
sg174
I1
sg2013
I1
sg1734
Nsg2014
S'PSP'
p3206
sg287
(issf_api
FeatureSet
p3207
(dp3208
g290
(dp3209
S'posn'
p3210
S'130'
p3211
sS'name'
p3212
S'\xe0\xa4\x95\xe0\xa5\x87'
p3213
sS'af'
p3214
S'\xe0\xa4\x95\xe0\xa5\x87,psp,,,,,,'
p3215
ssbsg1744
I00
sba(issf_api
Word
p3216
(dp3217
g1996
I00
sg1997
V\u0905\u0928\u0941\u0938\u093e\u0930
p3218
sg1999
(issf_api
FeatureSet
p3219
(dp3220
g290
(dp3221
S'posn'
p3222
S'140'
p3223
sS'name'
p3224
S'\xe0\xa4\x85\xe0\xa4\xa8\xe0\xa5\x81\xe0\xa4\xb8\xe0\xa4\xbe\xe0\xa4\xb0'
p3225
sS'drel'
p3226
S'lwg__psp:\xe0\xa4\x95\xe0\xa4\xbe\xe0\xa4\xb0\xe0\xa5\x8d\xe0\xa4\xaf\xe0\xa4\x95\xe0\xa5\x8d\xe0\xa4\xb0\xe0\xa4\xae'
p3227
sS'chunktype'
p3228
S'child:NP6'
p3229
sS'af'
p3230
S'\xe0\xa4\x85\xe0\xa4\xa8\xe0\xa5\x81\xe0\xa4\xb8\xe0\xa4\xbe\xe0\xa4\xb0,psp,,,,,,'
p3231
ssbsg1722
I00
sg1725
I01
sg1736
Nsg1723
Nsg188
I7
sg174
I1
sg2013
I1
sg1734
Nsg2014
S'PSP'
p3232
sg287
(issf_api
FeatureSet
p3233
(dp3234
g290
(dp3235
S'posn'
p3236
S'140'
p3237
sS'name'
p3238
S'\xe0\xa4\x85\xe0\xa4\xa8\xe0\xa5\x81\xe0\xa4\xb8\xe0\xa4\xbe\xe0\xa4\xb0'
p3239
sS'af'
p3240
S'\xe0\xa4\x85\xe0\xa4\xa8\xe0\xa5\x81\xe0\xa4\xb8\xe0\xa4\xbe\xe0\xa4\xb0,psp,,,,,,'
p3241
ssbsg1744
I00
sba(issf_api
Word
p3242
(dp3243
g1996
I00
sg1997
V\u091c\u093e\u0930\u0940
p3244
sg1999
(issf_api
FeatureSet
p3245
(dp3246
g290
(dp3247
S'posn'
p3248
S'150'
p3249
sS'name'
p3250
S'\xe0\xa4\x9c\xe0\xa4\xbe\xe0\xa4\xb0\xe0\xa5\x80'
p3251
sS'af'
p3252
S'\xe0\xa4\x9c\xe0\xa4\xbe\xe0\xa4\xb0\xe0\xa5\x80,adj,any,any,,,,'
p3253
sS'chunkid'
p3254
S'JJP'
p3255
sS'drel'
p3256
S'pof:\xe0\xa4\xb0\xe0\xa4\x96\xe0\xa4\xa8\xe0\xa5\x87'
p3257
sS'chunktype'
p3258
S'head:JJP'
p3259
ssbsg1722
I00
sg1725
I01
sg1736
Nsg1723
Nsg188
I8
sg174
I1
sg2013
I1
sg1734
Nsg2014
S'JJ'
p3260
sg287
(issf_api
FeatureSet
p3261
(dp3262
g290
(dp3263
S'posn'
p3264
S'150'
p3265
sS'name'
p3266
S'\xe0\xa4\x9c\xe0\xa4\xbe\xe0\xa4\xb0\xe0\xa5\x80'
p3267
sS'af'
p3268
S'\xe0\xa4\x9c\xe0\xa4\xbe\xe0\xa4\xb0\xe0\xa5\x80,adj,any,any,,,,'
p3269
ssbsg1744
I00
sba(issf_api
Word
p3270
(dp3271
g1996
I00
sg1997
V\u0930\u0916\u0928\u0947
p3272
sg1999
(issf_api
FeatureSet
p3273
(dp3274
g290
(dp3275
S'posn'
p3276
S'160'
p3277
sS'name'
p3278
S'\xe0\xa4\xb0\xe0\xa4\x96\xe0\xa4\xa8\xe0\xa5\x87'
p3279
sS'af'
p3280
S'\xe0\xa4\xb0\xe0\xa4\x96,v,any,sg,any,o,\xe0\xa4\xa8\xe0\xa4\xbe_\xe0\xa4\x95\xe0\xa4\xbe,nA'
p3281
sS'chunkid'
p3282
S'VGNN'
p3283
sS'drel'
p3284
S'r6-k2:\xe0\xa4\xab\xe0\xa5\x88\xe0\xa4\xb8\xe0\xa4\xb2\xe0\xa4\xbe'
p3285
sS'vpos'
p3286
S'tam_2'
p3287
sS'chunktype'
p3288
S'head:VGNN'
p3289
ssbsg1722
I00
sg1725
I01
sg1736
Nsg1723
Nsg188
I9
sg174
I1
sg2013
I1
sg1734
Nsg2014
S'VM'
p3290
sg287
(issf_api
FeatureSet
p3291
(dp3292
g290
(dp3293
S'posn'
p3294
S'160'
p3295
sS'name'
p3296
S'\xe0\xa4\xb0\xe0\xa4\x96\xe0\xa4\xa8\xe0\xa5\x87'
p3297
sS'af'
p3298
S'\xe0\xa4\xb0\xe0\xa4\x96,v,any,any,any,o,\xe0\xa4\xa8\xe0\xa4\xbe,nA'
p3299
ssbsg1744
I00
sba(issf_api
Word
p3300
(dp3301
g1996
I00
sg1997
V\u0915\u093e
p3302
sg1999
(issf_api
FeatureSet
p3303
(dp3304
g290
(dp3305
S'posn'
p3306
S'170'
p3307
sS'name'
p3308
S'\xe0\xa4\x95\xe0\xa4\xbe'
p3309
sS'drel'
p3310
S'lwg__psp:\xe0\xa4\xb0\xe0\xa4\x96\xe0\xa4\xa8\xe0\xa5\x87'
p3311
sS'chunktype'
p3312
S'child:VGNN'
p3313
sS'af'
p3314
S'\xe0\xa4\x95\xe0\xa4\xbe,psp,m,sg,,d,,'
p3315
ssbsg1722
I00
sg1725
I01
sg1736
Nsg1723
Nsg188
I9
sg174
I1
sg2013
I1
sg1734
Nsg2014
S'PSP'
p3316
sg287
(issf_api
FeatureSet
p3317
(dp3318
g290
(dp3319
S'posn'
p3320
S'170'
p3321
sS'name'
p3322
S'\xe0\xa4\x95\xe0\xa4\xbe'
p3323
sS'af'
p3324
S'\xe0\xa4\x95\xe0\xa4\xbe,psp,m,sg,,d,,'
p3325
ssbsg1744
I00
sba(issf_api
Word
p3326
(dp3327
g1996
I00
sg1997
V\u092b\u0948\u0938\u0932\u093e
p3328
sg1999
(issf_api
FeatureSet
p3329
(dp3330
g290
(dp3331
S'posn'
p3332
S'180'
p3333
sS'name'
p3334
S'\xe0\xa4\xab\xe0\xa5\x88\xe0\xa4\xb8\xe0\xa4\xb2\xe0\xa4\xbe'
p3335
sS'af'
p3336
S'\xe0\xa4\xab\xe0\xa5\x88\xe0\xa4\xb8\xe0\xa4\xb2\xe0\xa4\xbe,n,m,sg,3,d,0,0'
p3337
sS'chunkid'
p3338
S'NP7'
p3339
sS'drel'
p3340
S'pof:\xe0\xa4\x95\xe0\xa4\xbf\xe0\xa4\xaf\xe0\xa4\xbe'
p3341
sS'chunktype'
p3342
S'head:NP7'
p3343
ssbsg1722
I00
sg1725
I01
sg1736
Nsg1723
Nsg188
I10
sg174
I1
sg2013
I1
sg1734
Nsg2014
S'NN'
p3344
sg287
(issf_api
FeatureSet
p3345
(dp3346
g290
(dp3347
S'posn'
p3348
S'180'
p3349
sS'name'
p3350
S'\xe0\xa4\xab\xe0\xa5\x88\xe0\xa4\xb8\xe0\xa4\xb2\xe0\xa4\xbe'
p3351
sS'af'
p3352
S'\xe0\xa4\xab\xe0\xa5\x88\xe0\xa4\xb8\xe0\xa4\xb2\xe0\xa4\xbe,n,m,sg,3,d,0,0'
p3353
ssbsg1744
I00
sba(issf_api
Word
p3354
(dp3355
g1996
I00
sg1997
V\u0915\u093f\u092f\u093e
p3356
sg1999
(issf_api
FeatureSet
p3357
(dp3358
g290
(dp3359
S'posn'
p3360
S'190'
p3361
sS'name'
p3362
S'\xe0\xa4\x95\xe0\xa4\xbf\xe0\xa4\xaf\xe0\xa4\xbe'
p3363
sS'af'
p3364
S'\xe0\xa4\x95\xe0\xa4\xb0,v,m,sg,3,,\xe0\xa4\xaf\xe0\xa4\xbe_\xe0\xa4\xb9\xe0\xa5\x88,yA'
p3365
sS'chunkid'
p3366
S'VGF'
p3367
sS'stype'
p3368
S'declarative'
p3369
sS'drel'
p3370
S'ccof:\xe0\xa4\x9c\xe0\xa4\xac\xe0\xa4\x95\xe0\xa4\xbf'
p3371
sS'voicetype'
p3372
S'active'
p3373
sS'vpos'
p3374
S'tam_2'
p3375
sS'chunktype'
p3376
S'head:VGF'
p3377
ssbsg1722
I00
sg1725
I01
sg1736
Nsg1723
Nsg188
I11
sg174
I1
sg2013
I1
sg1734
Nsg2014
S'VM'
p3378
sg287
(issf_api
FeatureSet
p3379
(dp3380
g290
(dp3381
S'posn'
p3382
S'190'
p3383
sS'name'
p3384
S'\xe0\xa4\x95\xe0\xa4\xbf\xe0\xa4\xaf\xe0\xa4\xbe'
p3385
sS'af'
p3386
S'\xe0\xa4\x95\xe0\xa4\xb0,v,m,sg,any,,\xe0\xa4\xaf\xe0\xa4\xbe,yA'
p3387
ssbsg1744
I00
sba(issf_api
Word
p3388
(dp3389
g1996
I00
sg1997
V\u0939\u0948
p3390
sg1999
(issf_api
FeatureSet
p3391
(dp3392
g290
(dp3393
S'posn'
p3394
S'200'
p3395
sS'name'
p3396
S'\xe0\xa4\xb9\xe0\xa5\x88'
p3397
sS'drel'
p3398
S'lwg__vaux:\xe0\xa4\x95\xe0\xa4\xbf\xe0\xa4\xaf\xe0\xa4\xbe'
p3399
sS'chunktype'
p3400
S'child:VGF'
p3401
sS'af'
p3402
S'\xe0\xa4\xb9\xe0\xa5\x88,v,any,sg,3,,\xe0\xa4\xb9\xe0\xa5\x88,hE'
p3403
ssbsg1722
I00
sg1725
I01
sg1736
Nsg1723
Nsg188
I11
sg174
I1
sg2013
I1
sg1734
Nsg2014
S'VAUX'
p3404
sg287
(issf_api
FeatureSet
p3405
(dp3406
g290
(dp3407
S'posn'
p3408
S'200'
p3409
sS'name'
p3410
S'\xe0\xa4\xb9\xe0\xa5\x88'
p3411
sS'af'
p3412
S'\xe0\xa4\xb9\xe0\xa5\x88,v,any,sg,3,,\xe0\xa4\xb9\xe0\xa5\x88,hE'
p3413
ssbsg1744
I00
sba(issf_api
Word
p3414
(dp3415
g1996
I00
sg1997
V\u0964
sg1999
(issf_api
FeatureSet
p3416
(dp3417
g290
(dp3418
S'posn'
p3419
S'210'
p3420
sS'name'
p3421
S'\xe0\xa5\xa4'
p3422
sS'af'
p3423
S'\xe0\xa5\xa4,punc,,,,,,'
p3424
sS'chunkid'
p3425
S'BLK'
p3426
sS'drel'
p3427
S'rsym:\xe0\xa4\x9c\xe0\xa4\xac\xe0\xa4\x95\xe0\xa4\xbf'
p3428
sS'chunktype'
p3429
S'head:BLK'
p3430
ssbsg1722
I00
sg1725
I00
sg1736
Nsg1723
Nsg188
I12
sg174
I1
sg2013
Nsg1734
Nsg2014
S'SYM'
p3431
sg287
(issf_api
FeatureSet
p3432
(dp3433
g290
(dp3434
S'posn'
p3435
S'210'
p3436
sS'name'
p3437
S'\xe0\xa5\xa4'
p3438
sS'af'
p3439
S'\xe0\xa5\xa4,punc,,,,,,'
p3440
ssbsg1744
I00
sba(issf_api
Word
p3441
(dp3442
g1996
I00
sg1997
V\u092a\u0930\u093f\u0935\u0939\u0928
p3443
sg1999
(issf_api
FeatureSet
p3444
(dp3445
g290
(dp3446
S'posn'
p3447
S'10'
p3448
sS'name'
p3449
S'\xe0\xa4\xaa\xe0\xa4\xb0\xe0\xa4\xbf\xe0\xa4\xb5\xe0\xa4\xb9\xe0\xa4\xa8'
p3450
sS'drel'
p3451
S'pof__cn:\xe0\xa4\xae\xe0\xa4\x82\xe0\xa4\xa4\xe0\xa5\x8d\xe0\xa4\xb0\xe0\xa5\x80'
p3452
sS'chunktype'
p3453
S'child:NP'
p3454
sS'af'
p3455
S'\xe0\xa4\xaa\xe0\xa4\xb0\xe0\xa4\xbf\xe0\xa4\xb5\xe0\xa4\xb9\xe0\xa4\xa8,n,m,sg,3,d,0,0'
p3456
ssbsg1722
I00
sg1725
I00
sg1736
Nsg1723
Nsg188
I0
sg174
I2
sg2013
Nsg1734
Nsg2014
S'NNPC'
p3457
sg287
(issf_api
FeatureSet
p3458
(dp3459
g290
(dp3460
S'posn'
p3461
S'10'
p3462
sS'name'
p3463
S'\xe0\xa4\xaa\xe0\xa4\xb0\xe0\xa4\xbf\xe0\xa4\xb5\xe0\xa4\xb9\xe0\xa4\xa8'
p3464
sS'af'
p3465
S'\xe0\xa4\xaa\xe0\xa4\xb0\xe0\xa4\xbf\xe0\xa4\xb5\xe0\xa4\xb9\xe0\xa4\xa8,n,m,sg,3,d,0,0'
p3466
ssbsg1744
I00
sba(issf_api
Word
p3467
(dp3468
g1996
I00
sg1997
V\u092e\u0902\u0924\u094d\u0930\u0940
p3469
sg1999
(issf_api
FeatureSet
p3470
(dp3471
g290
(dp3472
S'posn'
p3473
S'20'
p3474
sS'name'
p3475
S'\xe0\xa4\xae\xe0\xa4\x82\xe0\xa4\xa4\xe0\xa5\x8d\xe0\xa4\xb0\xe0\xa5\x80'
p3476
sS'drel'
p3477
S'nmod__adj:\xe0\xa4\x9a\xe0\xa4\x95\xe0\xa5\x8d\xe0\xa4\xb0\xe0\xa4\xb5\xe0\xa4\xb0\xe0\xa5\x8d\xe0\xa4\xa4\xe0\xa5\x80'
p3478
sS'chunktype'
p3479
S'child:NP'
p3480
sS'af'
p3481
S'\xe0\xa4\xae\xe0\xa4\x82\xe0\xa4\xa4\xe0\xa5\x8d\xe0\xa4\xb0\xe0\xa5\x80,n,m,sg,3,d,0,0'
p3482
ssbsg1722
I00
sg1725
I00
sg1736
Nsg1723
Nsg188
I0
sg174
I2
sg2013
Nsg1734
Nsg2014
S'NNP'
p3483
sg287
(issf_api
FeatureSet
p3484
(dp3485
g290
(dp3486
S'posn'
p3487
S'20'
p3488
sS'name'
p3489
S'\xe0\xa4\xae\xe0\xa4\x82\xe0\xa4\xa4\xe0\xa5\x8d\xe0\xa4\xb0\xe0\xa5\x80'
p3490
sS'af'
p3491
S'\xe0\xa4\xae\xe0\xa4\x82\xe0\xa4\xa4\xe0\xa5\x8d\xe0\xa4\xb0\xe0\xa5\x80,n,m,sg,3,d,0,0'
p3492
ssbsg1744
I00
sba(issf_api
Word
p3493
(dp3494
g1996
I00
sg1997
V\u0938\u0941\u092d\u093e\u0937
p3495
sg1999
(issf_api
FeatureSet
p3496
(dp3497
g290
(dp3498
S'posn'
p3499
S'30'
p3500
sS'name'
p3501
S'\xe0\xa4\xb8\xe0\xa5\x81\xe0\xa4\xad\xe0\xa4\xbe\xe0\xa4\xb7'
p3502
sS'drel'
p3503
S'pof__cn:\xe0\xa4\x9a\xe0\xa4\x95\xe0\xa5\x8d\xe0\xa4\xb0\xe0\xa4\xb5\xe0\xa4\xb0\xe0\xa5\x8d\xe0\xa4\xa4\xe0\xa5\x80'
p3504
sS'chunktype'
p3505
S'child:NP'
p3506
sS'af'
p3507
S'\xe0\xa4\xb8\xe0\xa5\x81\xe0\xa4\xad\xe0\xa4\xbe\xe0\xa4\xb7,n,m,sg,3,d,0,0'
p3508
ssbsg1722
I00
sg1725
I00
sg1736
Nsg1723
Nsg188
I0
sg174
I2
sg2013
Nsg1734
Nsg2014
S'NNPC'
p3509
sg287
(issf_api
FeatureSet
p3510
(dp3511
g290
(dp3512
S'posn'
p3513
S'30'
p3514
sS'name'
p3515
S'\xe0\xa4\xb8\xe0\xa5\x81\xe0\xa4\xad\xe0\xa4\xbe\xe0\xa4\xb7'
p3516
sS'af'
p3517
S'\xe0\xa4\xb8\xe0\xa5\x81\xe0\xa4\xad\xe0\xa4\xbe\xe0\xa4\xb7,n,m,sg,3,d,0,0'
p3518
ssbsg1744
I00
sba(issf_api
Word
p3519
(dp3520
g1996
I00
sg1997
V\u091a\u0915\u094d\u0930\u0935\u0930\u094d\u0924\u0940
p3521
sg1999
(issf_api
FeatureSet
p3522
(dp3523
g290
(dp3524
S'posn'
p3525
S'40'
p3526
sS'name'
p3527
S'\xe0\xa4\x9a\xe0\xa4\x95\xe0\xa5\x8d\xe0\xa4\xb0\xe0\xa4\xb5\xe0\xa4\xb0\xe0\xa5\x8d\xe0\xa4\xa4\xe0\xa5\x80'
p3528
sS'af'
p3529
S'\xe0\xa4\x9a\xe0\xa4\x95\xe0\xa5\x8d\xe0\xa4\xb0\xe0\xa4\xb5\xe0\xa4\xb0\xe0\xa5\x8d\xe0\xa4\xa4\xe0\xa5\x80,n,any,sg,3,o,0_\xe0\xa4\x95\xe0\xa5\x87_\xe0\xa4\xb8\xe0\xa4\xbe\xe0\xa4\xa5,0'
p3530
sS'chunkid'
p3531
S'NP'
p3532
sS'drel'
p3533
S'vmod:\xe0\xa4\x95\xe0\xa4\xb9\xe0\xa4\xbe'
p3534
sS'vpos'
p3535
S'vib_vib_5_6'
p3536
sS'chunktype'
p3537
S'head:NP'
p3538
ssbsg1722
I00
sg1725
I00
sg1736
Nsg1723
Nsg188
I0
sg174
I2
sg2013
Nsg1734
Nsg2014
S'NNP'
p3539
sg287
(issf_api
FeatureSet
p3540
(dp3541
g290
(dp3542
S'posn'
p3543
S'40'
p3544
sS'name'
p3545
S'\xe0\xa4\x9a\xe0\xa4\x95\xe0\xa5\x8d\xe0\xa4\xb0\xe0\xa4\xb5\xe0\xa4\xb0\xe0\xa5\x8d\xe0\xa4\xa4\xe0\xa5\x80'
p3546
sS'af'
p3547
S'\xe0\xa4\x9a\xe0\xa4\x95\xe0\xa5\x8d\xe0\xa4\xb0\xe0\xa4\xb5\xe0\xa4\xb0\xe0\xa5\x8d\xe0\xa4\xa4\xe0\xa5\x80,n,any,sg,3,o,0,0'
p3548
ssbsg1744
I00
sba(issf_api
Word
p3549
(dp3550
g1996
I00
sg1997
V\u0915\u0947
p3551
sg1999
(issf_api
FeatureSet
p3552
(dp3553
g290
(dp3554
S'posn'
p3555
S'50'
p3556
sS'name'
p3557
S'\xe0\xa4\x95\xe0\xa5\x87'
p3558
sS'drel'
p3559
S'lwg__psp:\xe0\xa4\x9a\xe0\xa4\x95\xe0\xa5\x8d\xe0\xa4\xb0\xe0\xa4\xb5\xe0\xa4\xb0\xe0\xa5\x8d\xe0\xa4\xa4\xe0\xa5\x80'
p3560
sS'chunktype'
p3561
S'child:NP'
p3562
sS'af'
p3563
S'\xe0\xa4\x95\xe0\xa5\x87,psp,,,,,,'
p3564
ssbsg1722
I00
sg1725
I00
sg1736
Nsg1723
Nsg188
I0
sg174
I2
sg2013
Nsg1734
Nsg2014
S'PSP'
p3565
sg287
(issf_api
FeatureSet
p3566
(dp3567
g290
(dp3568
S'posn'
p3569
S'50'
p3570
sS'name'
p3571
S'\xe0\xa4\x95\xe0\xa5\x87'
p3572
sS'af'
p3573
S'\xe0\xa4\x95\xe0\xa5\x87,psp,,,,,,'
p3574
ssbsg1744
I00
sba(issf_api
Word
p3575
(dp3576
g1996
I00
sg1997
V\u0938\u093e\u0925
p3577
sg1999
(issf_api
FeatureSet
p3578
(dp3579
g290
(dp3580
S'posn'
p3581
S'60'
p3582
sS'name'
p3583
S'\xe0\xa4\xb8\xe0\xa4\xbe\xe0\xa4\xa5'
p3584
sS'drel'
p3585
S'lwg__psp:\xe0\xa4\x9a\xe0\xa4\x95\xe0\xa5\x8d\xe0\xa4\xb0\xe0\xa4\xb5\xe0\xa4\xb0\xe0\xa5\x8d\xe0\xa4\xa4\xe0\xa5\x80'
p3586
sS'chunktype'
p3587
S'child:NP'
p3588
sS'af'
p3589
S'\xe0\xa4\xb8\xe0\xa4\xbe\xe0\xa4\xa5,nst,m,sg,3,d,,'
p3590
ssbsg1722
I00
sg1725
I00
sg1736
Nsg1723
Nsg188
I0
sg174
I2
sg2013
Nsg1734
Nsg2014
S'NST'
p3591
sg287
(issf_api
FeatureSet
p3592
(dp3593
g290
(dp3594
S'posn'
p3595
S'60'
p3596
sS'name'
p3597
S'\xe0\xa4\xb8\xe0\xa4\xbe\xe0\xa4\xa5'
p3598
sS'af'
p3599
S'\xe0\xa4\xb8\xe0\xa4\xbe\xe0\xa4\xa5,nst,m,sg,3,d,,'
p3600
ssbsg1744
I00
sba(issf_api
Word
p3601
(dp3602
g1996
I00
sg1997
V\u092c\u0948\u0920\u0915
p3603
sg1999
(issf_api
FeatureSet
p3604
(dp3605
g290
(dp3606
S'posn'
p3607
S'70'
p3608
sS'name'
p3609
S'\xe0\xa4\xac\xe0\xa5\x88\xe0\xa4\xa0\xe0\xa4\x95'
p3610
sS'af'
p3611
S'\xe0\xa4\xac\xe0\xa5\x88\xe0\xa4\xa0\xe0\xa4\x95,n,f,sg,3,o,0_\xe0\xa4\x95\xe0\xa5\x87_\xe0\xa4\xac\xe0\xa4\xbe\xe0\xa4\xa6,0'
p3612
sS'chunkid'
p3613
S'NP2'
p3614
sS'drel'
p3615
S'k7t:\xe0\xa4\x95\xe0\xa4\xb9\xe0\xa4\xbe'
p3616
sS'vpos'
p3617
S'vib_2_3'
p3618
sS'chunktype'
p3619
S'head:NP2'
p3620
ssbsg1722
I00
sg1725
I00
sg1736
Nsg1723
Nsg188
I1
sg174
I2
sg2013
Nsg1734
Nsg2014
S'NN'
p3621
sg287
(issf_api
FeatureSet
p3622
(dp3623
g290
(dp3624
S'posn'
p3625
S'70'
p3626
sS'name'
p3627
S'\xe0\xa4\xac\xe0\xa5\x88\xe0\xa4\xa0\xe0\xa4\x95'
p3628
sS'af'
p3629
S'\xe0\xa4\xac\xe0\xa5\x88\xe0\xa4\xa0\xe0\xa4\x95,n,f,sg,3,o,0,0'
p3630
ssbsg1744
I00
sba(issf_api
Word
p3631
(dp3632
g1996
I00
sg1997
V\u0915\u0947
p3633
sg1999
(issf_api
FeatureSet
p3634
(dp3635
g290
(dp3636
S'posn'
p3637
S'80'
p3638
sS'name'
p3639
S'\xe0\xa4\x95\xe0\xa5\x872'
p3640
sS'drel'
p3641
S'lwg__psp:\xe0\xa4\xac\xe0\xa5\x88\xe0\xa4\xa0\xe0\xa4\x95'
p3642
sS'chunktype'
p3643
S'child:NP2'
p3644
sS'af'
p3645
S'\xe0\xa4\x95\xe0\xa5\x87,psp,,,,,,'
p3646
ssbsg1722
I00
sg1725
I00
sg1736
Nsg1723
Nsg188
I1
sg174
I2
sg2013
Nsg1734
Nsg2014
S'PSP'
p3647
sg287
(issf_api
FeatureSet
p3648
(dp3649
g290
(dp3650
S'posn'
p3651
S'80'
p3652
sS'name'
p3653
S'\xe0\xa4\x95\xe0\xa5\x872'
p3654
sS'af'
p3655
S'\xe0\xa4\x95\xe0\xa5\x87,psp,,,,,,'
p3656
ssbsg1744
I00
sba(issf_api
Word
p3657
(dp3658
g1996
I00
sg1997
V\u092c\u093e\u0926
p3659
sg1999
(issf_api
FeatureSet
p3660
(dp3661
g290
(dp3662
S'posn'
p3663
S'90'
p3664
sS'name'
p3665
S'\xe0\xa4\xac\xe0\xa4\xbe\xe0\xa4\xa6'
p3666
sS'drel'
p3667
S'lwg__psp:\xe0\xa4\xac\xe0\xa5\x88\xe0\xa4\xa0\xe0\xa4\x95'
p3668
sS'chunktype'
p3669
S'child:NP2'
p3670
sS'af'
p3671
S'\xe0\xa4\xac\xe0\xa4\xbe\xe0\xa4\xa6,nst,m,sg,3,d,,'
p3672
ssbsg1722
I00
sg1725
I00
sg1736
Nsg1723
Nsg188
I1
sg174
I2
sg2013
Nsg1734
Nsg2014
S'NST'
p3673
sg287
(issf_api
FeatureSet
p3674
(dp3675
g290
(dp3676
S'posn'
p3677
S'90'
p3678
sS'name'
p3679
S'\xe0\xa4\xac\xe0\xa4\xbe\xe0\xa4\xa6'
p3680
sS'af'
p3681
S'\xe0\xa4\xac\xe0\xa4\xbe\xe0\xa4\xa6,nst,m,sg,3,d,,'
p3682
ssbsg1744
I00
sba(issf_api
Word
p3683
(dp3684
g1996
I00
sg1997
V\u092c\u0902\u0917\u093e\u0932
p3685
sg1999
(issf_api
FeatureSet
p3686
(dp3687
g290
(dp3688
S'posn'
p3689
S'100'
p3690
sS'name'
p3691
S'\xe0\xa4\xac\xe0\xa4\x82\xe0\xa4\x97\xe0\xa4\xbe\xe0\xa4\xb2'
p3692
sS'drel'
p3693
S'pof__cn:\xe0\xa4\x8f\xe0\xa4\xb8\xe0\xa5\x8b\xe0\xa4\xb8\xe0\xa4\xbf\xe0\xa4\x8f\xe0\xa4\xb6\xe0\xa4\xa8'
p3694
sS'chunktype'
p3695
S'child:NP3'
p3696
sS'af'
p3697
S'\xe0\xa4\xac\xe0\xa4\x82\xe0\xa4\x97\xe0\xa4\xbe\xe0\xa4\xb2,n,m,sg,3,d,0,0'
p3698
ssbsg1722
I01
sg1725
I00
sg1736
Nsg1723
Nsg188
I2
sg174
I2
sg2013
I2
sg1734
Nsg2014
S'NNPC'
p3699
sg287
(issf_api
FeatureSet
p3700
(dp3701
g290
(dp3702
S'posn'
p3703
S'100'
p3704
sS'name'
p3705
S'\xe0\xa4\xac\xe0\xa4\x82\xe0\xa4\x97\xe0\xa4\xbe\xe0\xa4\xb2'
p3706
sS'af'
p3707
S'\xe0\xa4\xac\xe0\xa4\x82\xe0\xa4\x97\xe0\xa4\xbe\xe0\xa4\xb2,n,m,sg,3,d,0,0'
p3708
ssbsg1744
I00
sba(issf_api
Word
p3709
(dp3710
g1996
I00
sg1997
V\u091f\u0948\u0915\u094d\u0938\u0940
p3711
sg1999
(issf_api
FeatureSet
p3712
(dp3713
g290
(dp3714
S'posn'
p3715
S'110'
p3716
sS'name'
p3717
S'\xe0\xa4\x9f\xe0\xa5\x88\xe0\xa4\x95\xe0\xa5\x8d\xe0\xa4\xb8\xe0\xa5\x80'
p3718
sS'drel'
p3719
S'pof__cn:\xe0\xa4\x8f\xe0\xa4\xb8\xe0\xa5\x8b\xe0\xa4\xb8\xe0\xa4\xbf\xe0\xa4\x8f\xe0\xa4\xb6\xe0\xa4\xa8'
p3720
sS'chunktype'
p3721
S'child:NP3'
p3722
sS'af'
p3723
S'\xe0\xa4\x9f\xe0\xa5\x88\xe0\xa4\x95\xe0\xa5\x8d\xe0\xa4\xb8\xe0\xa5\x80,n,f,sg,3,d,0,0'
p3724
ssbsg1722
I01
sg1725
I00
sg1736
Nsg1723
Nsg188
I2
sg174
I2
sg2013
I2
sg1734
Nsg2014
S'NNPC'
p3725
sg287
(issf_api
FeatureSet
p3726
(dp3727
g290
(dp3728
S'posn'
p3729
S'110'
p3730
sS'name'
p3731
S'\xe0\xa4\x9f\xe0\xa5\x88\xe0\xa4\x95\xe0\xa5\x8d\xe0\xa4\xb8\xe0\xa5\x80'
p3732
sS'af'
p3733
S'\xe0\xa4\x9f\xe0\xa5\x88\xe0\xa4\x95\xe0\xa5\x8d\xe0\xa4\xb8\xe0\xa5\x80,n,f,sg,3,d,0,0'
p3734
ssbsg1744
I00
sba(issf_api
Word
p3735
(dp3736
g1996
I00
sg1997
V\u090f\u0938\u094b\u0938\u093f\u090f\u0936\u0928
p3737
sg1999
(issf_api
FeatureSet
p3738
(dp3739
g290
(dp3740
S'posn'
p3741
S'120'
p3742
sS'name'
p3743
S'\xe0\xa4\x8f\xe0\xa4\xb8\xe0\xa5\x8b\xe0\xa4\xb8\xe0\xa4\xbf\xe0\xa4\x8f\xe0\xa4\xb6\xe0\xa4\xa8'
p3744
sS'af'
p3745
S'\xe0\xa4\x8f\xe0\xa4\xb8\xe0\xa5\x8b\xe0\xa4\xb8\xe0\xa4\xbf\xe0\xa4\x8f\xe0\xa4\xb6\xe0\xa4\xa8,n,f,sg,3,o,0,0'
p3746
sS'chunkid'
p3747
S'NP3'
p3748
sS'drel'
p3749
S'ccof:\xe0\xa4\x94\xe0\xa4\xb0'
p3750
sS'chunktype'
p3751
S'head:NP3'
p3752
ssbsg1722
I01
sg1725
I00
sg1736
Nsg1723
Nsg188
I2
sg174
I2
sg2013
I2
sg1734
Nsg2014
S'NNP'
p3753
sg287
(issf_api
FeatureSet
p3754
(dp3755
g290
(dp3756
S'posn'
p3757
S'120'
p3758
sS'name'
p3759
S'\xe0\xa4\x8f\xe0\xa4\xb8\xe0\xa5\x8b\xe0\xa4\xb8\xe0\xa4\xbf\xe0\xa4\x8f\xe0\xa4\xb6\xe0\xa4\xa8'
p3760
sS'af'
p3761
S'\xe0\xa4\x8f\xe0\xa4\xb8\xe0\xa5\x8b\xe0\xa4\xb8\xe0\xa4\xbf\xe0\xa4\x8f\xe0\xa4\xb6\xe0\xa4\xa8,n,f,sg,3,o,0,0'
p3762
ssbsg1744
I00
sba(issf_api
Word
p3763
(dp3764
g1996
I00
sg1997
V(
sg1999
(issf_api
FeatureSet
p3765
(dp3766
g290
(dp3767
S'posn'
p3768
S'130'
p3769
sS'name'
p3770
S'('
sS'drel'
p3771
S'rsym:\xe0\xa4\xac\xe0\xa5\x80\xe0\xa4\x9f\xe0\xa5\x80\xe0\xa4\x8f'
p3772
sS'chunktype'
p3773
S'child:NP4'
p3774
sS'af'
p3775
S',punc,,,,,,'
p3776
ssbsg1722
I01
sg1725
I00
sg1736
Nsg1723
Nsg188
I3
sg174
I2
sg2013
I2
sg1734
Nsg2014
S'SYM'
p3777
sg287
(issf_api
FeatureSet
p3778
(dp3779
g290
(dp3780
S'posn'
p3781
S'130'
p3782
sS'name'
p3783
S'('
sS'af'
p3784
S',punc,,,,,,'
p3785
ssbsg1744
I00
sba(issf_api
Word
p3786
(dp3787
g1996
I00
sg1997
V\u092c\u0940\u091f\u0940\u090f
p3788
sg1999
(issf_api
FeatureSet
p3789
(dp3790
g290
(dp3791
S'posn'
p3792
S'140'
p3793
sS'name'
p3794
S'\xe0\xa4\xac\xe0\xa5\x80\xe0\xa4\x9f\xe0\xa5\x80\xe0\xa4\x8f'
p3795
sS'af'
p3796
S'\xe0\xa4\xac\xe0\xa5\x80\xe0\xa4\x9f\xe0\xa5\x80\xe0\xa4\x8f,n,m,sg,3,o,0,0'
p3797
sS'chunkid'
p3798
S'NP4'
p3799
sS'drel'
p3800
S'rs:\xe0\xa4\x8f\xe0\xa4\xb8\xe0\xa5\x8b\xe0\xa4\xb8\xe0\xa4\xbf\xe0\xa4\x8f\xe0\xa4\xb6\xe0\xa4\xa8'
p3801
sS'chunktype'
p3802
S'head:NP4'
p3803
ssbsg1722
I01
sg1725
I00
sg1736
Nsg1723
Nsg188
I3
sg174
I2
sg2013
I2
sg1734
Nsg2014
S'NNP'
p3804
sg287
(issf_api
FeatureSet
p3805
(dp3806
g290
(dp3807
S'posn'
p3808
S'140'
p3809
sS'name'
p3810
S'\xe0\xa4\xac\xe0\xa5\x80\xe0\xa4\x9f\xe0\xa5\x80\xe0\xa4\x8f'
p3811
sS'af'
p3812
S'\xe0\xa4\xac\xe0\xa5\x80\xe0\xa4\x9f\xe0\xa5\x80\xe0\xa4\x8f,n,m,sg,3,o,0,0'
p3813
ssbsg1744
I00
sba(issf_api
Word
p3814
(dp3815
g1996
I00
sg1997
V)
sg1999
(issf_api
FeatureSet
p3816
(dp3817
g290
(dp3818
S'posn'
p3819
S'150'
p3820
sS'name'
p3821
S')'
sS'drel'
p3822
S'rsym:\xe0\xa4\xac\xe0\xa5\x80\xe0\xa4\x9f\xe0\xa5\x80\xe0\xa4\x8f'
p3823
sS'chunktype'
p3824
S'child:NP4'
p3825
sS'af'
p3826
S',punc,,,,,,'
p3827
ssbsg1722
I01
sg1725
I00
sg1736
Nsg1723
Nsg188
I3
sg174
I2
sg2013
I2
sg1734
Nsg2014
S'SYM'
p3828
sg287
(issf_api
FeatureSet
p3829
(dp3830
g290
(dp3831
S'posn'
p3832
S'150'
p3833
sS'name'
p3834
S')'
sS'af'
p3835
S',punc,,,,,,'
p3836
ssbsg1744
I00
sba(issf_api
Word
p3837
(dp3838
g1996
I00
sg1997
V\u0914\u0930
p3839
sg1999
(issf_api
FeatureSet
p3840
(dp3841
g290
(dp3842
S'posn'
p3843
S'160'
p3844
sS'name'
p3845
S'\xe0\xa4\x94\xe0\xa4\xb0'
p3846
sS'af'
p3847
S'\xe0\xa4\x94\xe0\xa4\xb0,avy,,,,,,'
p3848
sS'chunkid'
p3849
S'CCP'
p3850
sS'drel'
p3851
S'r6:\xe0\xa4\xaa\xe0\xa5\x8d\xe0\xa4\xb0\xe0\xa4\xa4\xe0\xa4\xbf\xe0\xa4\xa8\xe0\xa4\xbf\xe0\xa4\xa7\xe0\xa4\xbf\xe0\xa4\xaf\xe0\xa5\x8b\xe0\xa4\x82'
p3852
sS'chunktype'
p3853
S'head:CCP'
p3854
ssbsg1722
I01
sg1725
I00
sg1736
Nsg1723
Nsg188
I4
sg174
I2
sg2013
I2
sg1734
Nsg2014
S'CC'
p3855
sg287
(issf_api
FeatureSet
p3856
(dp3857
g290
(dp3858
S'posn'
p3859
S'160'
p3860
sS'name'
p3861
S'\xe0\xa4\x94\xe0\xa4\xb0'
p3862
sS'af'
p3863
S'\xe0\xa4\x94\xe0\xa4\xb0,avy,,,,,,'
p3864
ssbsg1744
I00
sba(issf_api
Word
p3865
(dp3866
g1996
I00
sg1997
V\u0915\u0932\u0915\u0924\u094d\u0924\u093e
p3867
sg1999
(issf_api
FeatureSet
p3868
(dp3869
g290
(dp3870
S'posn'
p3871
S'170'
p3872
sS'name'
p3873
S'\xe0\xa4\x95\xe0\xa4\xb2\xe0\xa4\x95\xe0\xa4\xa4\xe0\xa5\x8d\xe0\xa4\xa4\xe0\xa4\xbe'
p3874
sS'drel'
p3875
S'pof__cn:\xe0\xa4\xaf\xe0\xa5\x82\xe0\xa4\xa8\xe0\xa4\xbf\xe0\xa4\xaf\xe0\xa4\xa8'
p3876
sS'chunktype'
p3877
S'child:NP5'
p3878
sS'af'
p3879
S'\xe0\xa4\x95\xe0\xa4\xb2\xe0\xa4\x95\xe0\xa4\xa4\xe0\xa5\x8d\xe0\xa4\xa4\xe0\xa4\xbe,n,m,sg,3,d,0,0'
p3880
ssbsg1722
I01
sg1725
I00
sg1736
Nsg1723
Nsg188
I5
sg174
I2
sg2013
I2
sg1734
Nsg2014
S'NNPC'
p3881
sg287
(issf_api
FeatureSet
p3882
(dp3883
g290
(dp3884
S'posn'
p3885
S'170'
p3886
sS'name'
p3887
S'\xe0\xa4\x95\xe0\xa4\xb2\xe0\xa4\x95\xe0\xa4\xa4\xe0\xa5\x8d\xe0\xa4\xa4\xe0\xa4\xbe'
p3888
sS'af'
p3889
S'\xe0\xa4\x95\xe0\xa4\xb2\xe0\xa4\x95\xe0\xa4\xa4\xe0\xa5\x8d\xe0\xa4\xa4\xe0\xa4\xbe,n,m,sg,3,d,0,0'
p3890
ssbsg1744
I00
sba(issf_api
Word
p3891
(dp3892
g1996
I00
sg1997
V\u092e\u0947\u091f\u094d\u0930\u094b\u092a\u0949\u0932\u093f\u091f\u0928
p3893
sg1999
(issf_api
FeatureSet
p3894
(dp3895
g290
(dp3896
S'posn'
p3897
S'180'
p3898
sS'name'
p3899
S'\xe0\xa4\xae\xe0\xa5\x87\xe0\xa4\x9f\xe0\xa5\x8d\xe0\xa4\xb0\xe0\xa5\x8b\xe0\xa4\xaa\xe0\xa5\x89\xe0\xa4\xb2\xe0\xa4\xbf\xe0\xa4\x9f\xe0\xa4\xa8'
p3900
sS'drel'
p3901
S'pof__cn:\xe0\xa4\xaf\xe0\xa5\x82\xe0\xa4\xa8\xe0\xa4\xbf\xe0\xa4\xaf\xe0\xa4\xa8'
p3902
sS'chunktype'
p3903
S'child:NP5'
p3904
sS'af'
p3905
S'\xe0\xa4\xae\xe0\xa5\x87\xe0\xa4\x9f\xe0\xa5\x8d\xe0\xa4\xb0\xe0\xa5\x8b\xe0\xa4\xaa\xe0\xa5\x89\xe0\xa4\xb2\xe0\xa4\xbf\xe0\xa4\x9f\xe0\xa4\xa8,n,m,sg,3,d,0,0'
p3906
ssbsg1722
I01
sg1725
I00
sg1736
Nsg1723
Nsg188
I5
sg174
I2
sg2013
I2
sg1734
Nsg2014
S'NNPC'
p3907
sg287
(issf_api
FeatureSet
p3908
(dp3909
g290
(dp3910
S'posn'
p3911
S'180'
p3912
sS'name'
p3913
S'\xe0\xa4\xae\xe0\xa5\x87\xe0\xa4\x9f\xe0\xa5\x8d\xe0\xa4\xb0\xe0\xa5\x8b\xe0\xa4\xaa\xe0\xa5\x89\xe0\xa4\xb2\xe0\xa4\xbf\xe0\xa4\x9f\xe0\xa4\xa8'
p3914
sS'af'
p3915
S'\xe0\xa4\xae\xe0\xa5\x87\xe0\xa4\x9f\xe0\xa5\x8d\xe0\xa4\xb0\xe0\xa5\x8b\xe0\xa4\xaa\xe0\xa5\x89\xe0\xa4\xb2\xe0\xa4\xbf\xe0\xa4\x9f\xe0\xa4\xa8,n,m,sg,3,d,0,0'
p3916
ssbsg1744
I00
sba(issf_api
Word
p3917
(dp3918
g1996
I00
sg1997
V\u091f\u0948\u0915\u094d\u0938\u0940
p3919
sg1999
(issf_api
FeatureSet
p3920
(dp3921
g290
(dp3922
S'posn'
p3923
S'190'
p3924
sS'name'
p3925
S'\xe0\xa4\x9f\xe0\xa5\x88\xe0\xa4\x95\xe0\xa5\x8d\xe0\xa4\xb8\xe0\xa5\x802'
p3926
sS'drel'
p3927
S'pof__cn:\xe0\xa4\xaf\xe0\xa5\x82\xe0\xa4\xa8\xe0\xa4\xbf\xe0\xa4\xaf\xe0\xa4\xa8'
p3928
sS'chunktype'
p3929
S'child:NP5'
p3930
sS'af'
p3931
S'\xe0\xa4\x9f\xe0\xa5\x88\xe0\xa4\x95\xe0\xa5\x8d\xe0\xa4\xb8\xe0\xa5\x80,n,f,sg,3,d,0,0'
p3932
ssbsg1722
I01
sg1725
I00
sg1736
Nsg1723
Nsg188
I5
sg174
I2
sg2013
I2
sg1734
Nsg2014
S'NNPC'
p3933
sg287
(issf_api
FeatureSet
p3934
(dp3935
g290
(dp3936
S'posn'
p3937
S'190'
p3938
sS'name'
p3939
S'\xe0\xa4\x9f\xe0\xa5\x88\xe0\xa4\x95\xe0\xa5\x8d\xe0\xa4\xb8\xe0\xa5\x802'
p3940
sS'af'
p3941
S'\xe0\xa4\x9f\xe0\xa5\x88\xe0\xa4\x95\xe0\xa5\x8d\xe0\xa4\xb8\xe0\xa5\x80,n,f,sg,3,d,0,0'
p3942
ssbsg1744
I00
sba(issf_api
Word
p3943
(dp3944
g1996
I00
sg1997
V\u0921\u094d\u0930\u093e\u0908\u0935\u0930\u094d\u0938
p3945
sg1999
(issf_api
FeatureSet
p3946
(dp3947
g290
(dp3948
S'posn'
p3949
S'200'
p3950
sS'name'
p3951
S'\xe0\xa4\xa1\xe0\xa5\x8d\xe0\xa4\xb0\xe0\xa4\xbe\xe0\xa4\x88\xe0\xa4\xb5\xe0\xa4\xb0\xe0\xa5\x8d\xe0\xa4\xb8'
p3952
sS'drel'
p3953
S'pof__cn:\xe0\xa4\xaf\xe0\xa5\x82\xe0\xa4\xa8\xe0\xa4\xbf\xe0\xa4\xaf\xe0\xa4\xa8'
p3954
sS'chunktype'
p3955
S'child:NP5'
p3956
sS'af'
p3957
S'\xe0\xa4\xa1\xe0\xa5\x8d\xe0\xa4\xb0\xe0\xa4\xbe\xe0\xa4\x88\xe0\xa4\xb5\xe0\xa4\xb0,n,m,pl,3,d,0,0'
p3958
ssbsg1722
I01
sg1725
I00
sg1736
Nsg1723
Nsg188
I5
sg174
I2
sg2013
I2
sg1734
Nsg2014
S'NNPC'
p3959
sg287
(issf_api
FeatureSet
p3960
(dp3961
g290
(dp3962
S'posn'
p3963
S'200'
p3964
sS'name'
p3965
S'\xe0\xa4\xa1\xe0\xa5\x8d\xe0\xa4\xb0\xe0\xa4\xbe\xe0\xa4\x88\xe0\xa4\xb5\xe0\xa4\xb0\xe0\xa5\x8d\xe0\xa4\xb8'
p3966
sS'af'
p3967
S'\xe0\xa4\xa1\xe0\xa5\x8d\xe0\xa4\xb0\xe0\xa4\xbe\xe0\xa4\x88\xe0\xa4\xb5\xe0\xa4\xb0,n,m,pl,3,d,0,0'
p3968
ssbsg1744
I00
sba(issf_api
Word
p3969
(dp3970
g1996
I00
sg1997
V\u092f\u0942\u0928\u093f\u092f\u0928
p3971
sg1999
(issf_api
FeatureSet
p3972
(dp3973
g290
(dp3974
S'posn'
p3975
S'210'
p3976
sS'name'
p3977
S'\xe0\xa4\xaf\xe0\xa5\x82\xe0\xa4\xa8\xe0\xa4\xbf\xe0\xa4\xaf\xe0\xa4\xa8'
p3978
sS'af'
p3979
S'\xe0\xa4\xaf\xe0\xa5\x82\xe0\xa4\xa8\xe0\xa4\xbf\xe0\xa4\xaf\xe0\xa4\xa8,n,f,sg,3,o,0,0'
p3980
sS'chunkid'
p3981
S'NP5'
p3982
sS'drel'
p3983
S'ccof:\xe0\xa4\x94\xe0\xa4\xb0'
p3984
sS'chunktype'
p3985
S'head:NP5'
p3986
ssbsg1722
I01
sg1725
I00
sg1736
Nsg1723
Nsg188
I5
sg174
I2
sg2013
I2
sg1734
Nsg2014
S'NNP'
p3987
sg287
(issf_api
FeatureSet
p3988
(dp3989
g290
(dp3990
S'posn'
p3991
S'210'
p3992
sS'name'
p3993
S'\xe0\xa4\xaf\xe0\xa5\x82\xe0\xa4\xa8\xe0\xa4\xbf\xe0\xa4\xaf\xe0\xa4\xa8'
p3994
sS'af'
p3995
S'\xe0\xa4\xaf\xe0\xa5\x82\xe0\xa4\xa8\xe0\xa4\xbf\xe0\xa4\xaf\xe0\xa4\xa8,n,f,sg,3,o,0,0'
p3996
ssbsg1744
I00
sba(issf_api
Word
p3997
(dp3998
g1996
I00
sg1997
V(
sg1999
(issf_api
FeatureSet
p3999
(dp4000
g290
(dp4001
S'posn'
p4002
S'220'
p4003
sS'name'
p4004
S'(2'
p4005
sS'drel'
p4006
S'rsym:\xe0\xa4\xb8\xe0\xa5\x80\xe0\xa4\x8f\xe0\xa4\xae\xe0\xa4\x9f\xe0\xa5\x80\xe0\xa4\xa1\xe0\xa5\x80\xe0\xa4\xaf\xe0\xa5\x82'
p4007
sS'chunktype'
p4008
S'child:NP6'
p4009
sS'af'
p4010
S',punc,,,,,,'
p4011
ssbsg1722
I01
sg1725
I00
sg1736
Nsg1723
Nsg188
I6
sg174
I2
sg2013
I2
sg1734
Nsg2014
S'SYM'
p4012
sg287
(issf_api
FeatureSet
p4013
(dp4014
g290
(dp4015
S'posn'
p4016
S'220'
p4017
sS'name'
p4018
S'(2'
p4019
sS'af'
p4020
S',punc,,,,,,'
p4021
ssbsg1744
I00
sba(issf_api
Word
p4022
(dp4023
g1996
I00
sg1997
V\u0938\u0940\u090f\u092e\u091f\u0940\u0921\u0940\u092f\u0942
p4024
sg1999
(issf_api
FeatureSet
p4025
(dp4026
g290
(dp4027
S'posn'
p4028
S'230'
p4029
sS'name'
p4030
S'\xe0\xa4\xb8\xe0\xa5\x80\xe0\xa4\x8f\xe0\xa4\xae\xe0\xa4\x9f\xe0\xa5\x80\xe0\xa4\xa1\xe0\xa5\x80\xe0\xa4\xaf\xe0\xa5\x82'
p4031
sS'af'
p4032
S'\xe0\xa4\xb8\xe0\xa5\x80\xe0\xa4\x8f\xe0\xa4\xae\xe0\xa4\x9f\xe0\xa5\x80\xe0\xa4\xa1\xe0\xa5\x80\xe0\xa4\xaf\xe0\xa5\x82,n,f,sg,3,o,0,0'
p4033
sS'chunkid'
p4034
S'NP6'
p4035
sS'drel'
p4036
S'rs:\xe0\xa4\xaf\xe0\xa5\x82\xe0\xa4\xa8\xe0\xa4\xbf\xe0\xa4\xaf\xe0\xa4\xa8'
p4037
sS'chunktype'
p4038
S'head:NP6'
p4039
ssbsg1722
I01
sg1725
I00
sg1736
Nsg1723
Nsg188
I6
sg174
I2
sg2013
I2
sg1734
Nsg2014
S'NNP'
p4040
sg287
(issf_api
FeatureSet
p4041
(dp4042
g290
(dp4043
S'posn'
p4044
S'230'
p4045
sS'name'
p4046
S'\xe0\xa4\xb8\xe0\xa5\x80\xe0\xa4\x8f\xe0\xa4\xae\xe0\xa4\x9f\xe0\xa5\x80\xe0\xa4\xa1\xe0\xa5\x80\xe0\xa4\xaf\xe0\xa5\x82'
p4047
sS'af'
p4048
S'\xe0\xa4\xb8\xe0\xa5\x80\xe0\xa4\x8f\xe0\xa4\xae\xe0\xa4\x9f\xe0\xa5\x80\xe0\xa4\xa1\xe0\xa5\x80\xe0\xa4\xaf\xe0\xa5\x82,n,f,sg,3,o,0,0'
p4049
ssbsg1744
I00
sba(issf_api
Word
p4050
(dp4051
g1996
I00
sg1997
V)
sg1999
(issf_api
FeatureSet
p4052
(dp4053
g290
(dp4054
S'posn'
p4055
S'240'
p4056
sS'name'
p4057
S')2'
p4058
sS'drel'
p4059
S'rsym:\xe0\xa4\xb8\xe0\xa5\x80\xe0\xa4\x8f\xe0\xa4\xae\xe0\xa4\x9f\xe0\xa5\x80\xe0\xa4\xa1\xe0\xa5\x80\xe0\xa4\xaf\xe0\xa5\x82'
p4060
sS'chunktype'
p4061
S'child:NP6'
p4062
sS'af'
p4063
S',punc,,,,,,'
p4064
ssbsg1722
I01
sg1725
I00
sg1736
Nsg1723
Nsg188
I6
sg174
I2
sg2013
I2
sg1734
Nsg2014
S'SYM'
p4065
sg287
(issf_api
FeatureSet
p4066
(dp4067
g290
(dp4068
S'posn'
p4069
S'240'
p4070
sS'name'
p4071
S')2'
p4072
sS'af'
p4073
S',punc,,,,,,'
p4074
ssbsg1744
I00
sba(issf_api
Word
p4075
(dp4076
g1996
I00
sg1997
V\u0915\u0947
p4077
sg1999
(issf_api
FeatureSet
p4078
(dp4079
g290
(dp4080
S'name'
p4081
S'\xe0\xa4\x95\xe0\xa5\x873'
p4082
sS'drel'
p4083
S'fragof:\xe0\xa4\xaf\xe0\xa5\x82\xe0\xa4\xa8\xe0\xa4\xbf\xe0\xa4\xaf\xe0\xa4\xa8'
p4084
sS'chunktype'
p4085
S'head:FRAGP'
p4086
sS'chunkid'
p4087
S'FRAGP'
p4088
ssbsg1722
I01
sg1725
I00
sg1736
Nsg1723
Nsg188
I7
sg174
I2
sg2013
I2
sg1734
Nsg2014
S'PSP'
p4089
sg287
(issf_api
FeatureSet
p4090
(dp4091
g290
(dp4092
S'posn'
p4093
S'250'
p4094
sS'name'
p4095
S'\xe0\xa4\x95\xe0\xa5\x873'
p4096
sS'af'
p4097
S'\xe0\xa4\x95\xe0\xa4\xbe,psp,m,pl,,o,,'
p4098
ssbsg1744
I00
sba(issf_api
Word
p4099
(dp4100
g1996
I00
sg1997
V\u092a\u094d\u0930\u0924\u093f\u0928\u093f\u0927\u093f\u092f\u094b\u0902
p4101
sg1999
(issf_api
FeatureSet
p4102
(dp4103
g290
(dp4104
S'posn'
p4105
S'260'
p4106
sS'name'
p4107
S'\xe0\xa4\xaa\xe0\xa5\x8d\xe0\xa4\xb0\xe0\xa4\xa4\xe0\xa4\xbf\xe0\xa4\xa8\xe0\xa4\xbf\xe0\xa4\xa7\xe0\xa4\xbf\xe0\xa4\xaf\xe0\xa5\x8b\xe0\xa4\x82'
p4108
sS'af'
p4109
S'\xe0\xa4\xaa\xe0\xa5\x8d\xe0\xa4\xb0\xe0\xa4\xa4\xe0\xa4\xbf\xe0\xa4\xa8\xe0\xa4\xbf\xe0\xa4\xa7\xe0\xa4\xbf,n,m,pl,3,o,0_\xe0\xa4\xa8\xe0\xa5\x87,0'
p4110
sS'chunkid'
p4111
S'NP7'
p4112
sS'drel'
p4113
S'k1:\xe0\xa4\x95\xe0\xa4\xb9\xe0\xa4\xbe'
p4114
sS'vpos'
p4115
S'vib_2'
p4116
sS'chunktype'
p4117
S'head:NP7'
p4118
ssbsg1722
I01
sg1725
I00
sg1736
Nsg1723
Nsg188
I8
sg174
I2
sg2013
I2
sg1734
Nsg2014
S'NN'
p4119
sg287
(issf_api
FeatureSet
p4120
(dp4121
g290
(dp4122
S'posn'
p4123
S'260'
p4124
sS'name'
p4125
S'\xe0\xa4\xaa\xe0\xa5\x8d\xe0\xa4\xb0\xe0\xa4\xa4\xe0\xa4\xbf\xe0\xa4\xa8\xe0\xa4\xbf\xe0\xa4\xa7\xe0\xa4\xbf\xe0\xa4\xaf\xe0\xa5\x8b\xe0\xa4\x82'
p4126
sS'af'
p4127
S'\xe0\xa4\xaa\xe0\xa5\x8d\xe0\xa4\xb0\xe0\xa4\xa4\xe0\xa4\xbf\xe0\xa4\xa8\xe0\xa4\xbf\xe0\xa4\xa7\xe0\xa4\xbf,n,m,pl,3,o,0,0'
p4128
ssbsg1744
I00
sba(issf_api
Word
p4129
(dp4130
g1996
I00
sg1997
V\u0928\u0947
p4131
sg1999
(issf_api
FeatureSet
p4132
(dp4133
g290
(dp4134
S'posn'
p4135
S'270'
p4136
sS'name'
p4137
S'\xe0\xa4\xa8\xe0\xa5\x87'
p4138
sS'drel'
p4139
S'lwg__psp:\xe0\xa4\xaa\xe0\xa5\x8d\xe0\xa4\xb0\xe0\xa4\xa4\xe0\xa4\xbf\xe0\xa4\xa8\xe0\xa4\xbf\xe0\xa4\xa7\xe0\xa4\xbf\xe0\xa4\xaf\xe0\xa5\x8b\xe0\xa4\x82'
p4140
sS'chunktype'
p4141
S'child:NP7'
p4142
sS'af'
p4143
S'\xe0\xa4\xa8\xe0\xa5\x87,psp,,,,,,'
p4144
ssbsg1722
I01
sg1725
I00
sg1736
Nsg1723
Nsg188
I8
sg174
I2
sg2013
I2
sg1734
Nsg2014
S'PSP'
p4145
sg287
(issf_api
FeatureSet
p4146
(dp4147
g290
(dp4148
S'posn'
p4149
S'270'
p4150
sS'name'
p4151
S'\xe0\xa4\xa8\xe0\xa5\x87'
p4152
sS'af'
p4153
S'\xe0\xa4\xa8\xe0\xa5\x87,psp,,,,,,'
p4154
ssbsg1744
I00
sba(issf_api
Word
p4155
(dp4156
g1996
I00
sg1997
V\u0915\u0939\u093e
p4157
sg1999
(issf_api
FeatureSet
p4158
(dp4159
g290
(dp4160
S'posn'
p4161
S'280'
p4162
sS'name'
p4163
S'\xe0\xa4\x95\xe0\xa4\xb9\xe0\xa4\xbe'
p4164
sS'af'
p4165
S'\xe0\xa4\x95\xe0\xa4\xb9,v,m,sg,any,,\xe0\xa4\xaf\xe0\xa4\xbe,yA'
p4166
sS'chunkid'
p4167
S'VGF'
p4168
sS'chunktype'
p4169
S'head:VGF'
p4170
sS'voicetype'
p4171
S'active'
p4172
sS'stype'
p4173
S'declarative'
p4174
ssbsg1722
I01
sg1725
I00
sg1736
Nsg1723
Nsg188
I9
sg174
I2
sg2013
I2
sg1734
Nsg2014
S'VM'
p4175
sg287
(issf_api
FeatureSet
p4176
(dp4177
g290
(dp4178
S'posn'
p4179
S'280'
p4180
sS'name'
p4181
S'\xe0\xa4\x95\xe0\xa4\xb9\xe0\xa4\xbe'
p4182
sS'af'
p4183
S'\xe0\xa4\x95\xe0\xa4\xb9,v,m,sg,any,,\xe0\xa4\xaf\xe0\xa4\xbe,yA'
p4184
ssbsg1744
I00
sba(issf_api
Word
p4185
(dp4186
g1996
I00
sg1997
V\u0915\u093f
p4187
sg1999
(issf_api
FeatureSet
p4188
(dp4189
g290
(dp4190
S'posn'
p4191
S'290'
p4192
sS'name'
p4193
S'\xe0\xa4\x95\xe0\xa4\xbf'
p4194
sS'af'
p4195
S'\xe0\xa4\x95\xe0\xa4\xbf,avy,,,,,,'
p4196
sS'chunkid'
p4197
S'CCP2'
p4198
sS'drel'
p4199
S'k2:\xe0\xa4\x95\xe0\xa4\xb9\xe0\xa4\xbe'
p4200
sS'chunktype'
p4201
S'head:CCP2'
p4202
ssbsg1722
I01
sg1725
I00
sg1736
Nsg1723
Nsg188
I10
sg174
I2
sg2013
I2
sg1734
Nsg2014
S'CC'
p4203
sg287
(issf_api
FeatureSet
p4204
(dp4205
g290
(dp4206
S'posn'
p4207
S'290'
p4208
sS'name'
p4209
S'\xe0\xa4\x95\xe0\xa4\xbf'
p4210
sS'af'
p4211
S'\xe0\xa4\x95\xe0\xa4\xbf,avy,,,,,,'
p4212
ssbsg1744
I00
sba(issf_api
Word
p4213
(dp4214
g1996
I00
sg1997
V\u0935\u0947
p4215
sg1999
(issf_api
FeatureSet
p4216
(dp4217
g290
(dp4218
S'posn'
p4219
S'300'
p4220
sS'name'
p4221
S'\xe0\xa4\xb5\xe0\xa5\x87'
p4222
sS'af'
p4223
S'\xe0\xa4\xb5\xe0\xa4\xb9,pn,any,pl,3,d,0,0'
p4224
sS'chunkid'
p4225
S'NP8'
p4226
sS'drel'
p4227
S'k1:\xe0\xa4\x95\xe0\xa4\xb0'
p4228
sS'chunktype'
p4229
S'head:NP8'
p4230
ssbsg1722
I01
sg1725
I00
sg1736
Nsg1723
Nsg188
I11
sg174
I2
sg2013
I2
sg1734
Nsg2014
S'PRP'
p4231
sg287
(issf_api
FeatureSet
p4232
(dp4233
g290
(dp4234
S'posn'
p4235
S'300'
p4236
sS'name'
p4237
S'\xe0\xa4\xb5\xe0\xa5\x87'
p4238
sS'af'
p4239
S'\xe0\xa4\xb5\xe0\xa4\xb9,pn,any,pl,3,d,0,0'
p4240
ssbsg1744
I00
sba(issf_api
Word
p4241
(dp4242
g1996
I00
sg1997
V\u0915\u093f\u0930\u093e\u092f\u093e
p4243
sg1999
(issf_api
FeatureSet
p4244
(dp4245
g290
(dp4246
S'posn'
p4247
S'310'
p4248
sS'name'
p4249
S'\xe0\xa4\x95\xe0\xa4\xbf\xe0\xa4\xb0\xe0\xa4\xbe\xe0\xa4\xaf\xe0\xa4\xbe'
p4250
sS'af'
p4251
S'\xe0\xa4\x95\xe0\xa4\xbf\xe0\xa4\xb0\xe0\xa4\xbe\xe0\xa4\xaf\xe0\xa4\xbe,n,m,sg,3,d,0,0'
p4252
sS'chunkid'
p4253
S'NP9'
p4254
sS'drel'
p4255
S'k2:\xe0\xa4\xac\xe0\xa5\x9d\xe0\xa4\xbe\xe0\xa4\xaf\xe0\xa5\x87'
p4256
sS'chunktype'
p4257
S'head:NP9'
p4258
ssbsg1722
I01
sg1725
I00
sg1736
Nsg1723
Nsg188
I12
sg174
I2
sg2013
I2
sg1734
Nsg2014
S'NN'
p4259
sg287
(issf_api
FeatureSet
p4260
(dp4261
g290
(dp4262
S'posn'
p4263
S'310'
p4264
sS'name'
p4265
S'\xe0\xa4\x95\xe0\xa4\xbf\xe0\xa4\xb0\xe0\xa4\xbe\xe0\xa4\xaf\xe0\xa4\xbe'
p4266
sS'af'
p4267
S'\xe0\xa4\x95\xe0\xa4\xbf\xe0\xa4\xb0\xe0\xa4\xbe\xe0\xa4\xaf\xe0\xa4\xbe,n,m,sg,3,d,0,0'
p4268
ssbsg1744
I00
sba(issf_api
Word
p4269
(dp4270
g1996
I00
sg1997
V\u092c\u095d\u093e\u092f\u0947
p4271
sg1999
(issf_api
FeatureSet
p4272
(dp4273
g290
(dp4274
S'posn'
p4275
S'320'
p4276
sS'name'
p4277
S'\xe0\xa4\xac\xe0\xa5\x9d\xe0\xa4\xbe\xe0\xa4\xaf\xe0\xa5\x87'
p4278
sS'af'
p4279
S'\xe0\xa4\xac\xe0\xa5\x9d\xe0\xa4\xbe,v,any,sg,any,,\xe0\xa4\xaf\xe0\xa4\xbe_\xe0\xa4\x9c\xe0\xa4\xbe+\xe0\xa4\xa8\xe0\xa4\xbe_\xe0\xa4\x95\xe0\xa4\xbe,yA'
p4280
sS'chunkid'
p4281
S'VGNN'
p4282
sS'drel'
p4283
S'r6:\xe0\xa4\xb8\xe0\xa4\xb0\xe0\xa4\x95\xe0\xa4\xbe\xe0\xa4\xb0'
p4284
sS'vpos'
p4285
S'tam_2_3'
p4286
sS'chunktype'
p4287
S'head:VGNN'
p4288
ssbsg1722
I01
sg1725
I00
sg1736
Nsg1723
Nsg188
I13
sg174
I2
sg2013
I2
sg1734
Nsg2014
S'VM'
p4289
sg287
(issf_api
FeatureSet
p4290
(dp4291
g290
(dp4292
S'posn'
p4293
S'320'
p4294
sS'name'
p4295
S'\xe0\xa4\xac\xe0\xa5\x9d\xe0\xa4\xbe\xe0\xa4\xaf\xe0\xa5\x87'
p4296
sS'af'
p4297
S'\xe0\xa4\xac\xe0\xa5\x9d\xe0\xa4\xbe,v,m,sg,any,,\xe0\xa4\xaf\xe0\xa4\xbe,yA'
p4298
ssbsg1744
I00
sba(issf_api
Word
p4299
(dp4300
g1996
I00
sg1997
V\u091c\u093e\u0928\u0947
p4301
sg1999
(issf_api
FeatureSet
p4302
(dp4303
g290
(dp4304
S'posn'
p4305
S'330'
p4306
sS'name'
p4307
S'\xe0\xa4\x9c\xe0\xa4\xbe\xe0\xa4\xa8\xe0\xa5\x87'
p4308
sS'drel'
p4309
S'lwg__vaux:\xe0\xa4\xac\xe0\xa5\x9d\xe0\xa4\xbe\xe0\xa4\xaf\xe0\xa5\x87'
p4310
sS'chunktype'
p4311
S'child:VGNN'
p4312
sS'af'
p4313
S'\xe0\xa4\x9c\xe0\xa4\xbe,v,any,any,any,o,\xe0\xa4\xa8\xe0\xa4\xbe,nA'
p4314
ssbsg1722
I01
sg1725
I00
sg1736
Nsg1723
Nsg188
I13
sg174
I2
sg2013
I2
sg1734
Nsg2014
S'VAUX'
p4315
sg287
(issf_api
FeatureSet
p4316
(dp4317
g290
(dp4318
S'posn'
p4319
S'330'
p4320
sS'name'
p4321
S'\xe0\xa4\x9c\xe0\xa4\xbe\xe0\xa4\xa8\xe0\xa5\x87'
p4322
sS'af'
p4323
S'\xe0\xa4\x9c\xe0\xa4\xbe,v,any,any,any,o,\xe0\xa4\xa8\xe0\xa4\xbe,nA'
p4324
ssbsg1744
I00
sba(issf_api
Word
p4325
(dp4326
g1996
I00
sg1997
V\u0915\u0947
p4327
sg1999
(issf_api
FeatureSet
p4328
(dp4329
g290
(dp4330
S'posn'
p4331
S'340'
p4332
sS'name'
p4333
S'\xe0\xa4\x95\xe0\xa5\x874'
p4334
sS'drel'
p4335
S'lwg__psp:\xe0\xa4\xac\xe0\xa5\x9d\xe0\xa4\xbe\xe0\xa4\xaf\xe0\xa5\x87'
p4336
sS'chunktype'
p4337
S'child:VGNN'
p4338
sS'af'
p4339
S'\xe0\xa4\x95\xe0\xa4\xbe,psp,m,sg,,o,,'
p4340
ssbsg1722
I01
sg1725
I00
sg1736
Nsg1723
Nsg188
I13
sg174
I2
sg2013
I2
sg1734
Nsg2014
S'PSP'
p4341
sg287
(issf_api
FeatureSet
p4342
(dp4343
g290
(dp4344
S'posn'
p4345
S'340'
p4346
sS'name'
p4347
S'\xe0\xa4\x95\xe0\xa5\x874'
p4348
sS'af'
p4349
S'\xe0\xa4\x95\xe0\xa4\xbe,psp,m,sg,,o,,'
p4350
ssbsg1744
I00
sba(issf_api
Word
p4351
(dp4352
g1996
I00
sg1997
V\u0938\u0930\u0915\u093e\u0930
p4353
sg1999
(issf_api
FeatureSet
p4354
(dp4355
g290
(dp4356
S'posn'
p4357
S'350'
p4358
sS'name'
p4359
S'\xe0\xa4\xb8\xe0\xa4\xb0\xe0\xa4\x95\xe0\xa4\xbe\xe0\xa4\xb0'
p4360
sS'af'
p4361
S'\xe0\xa4\xb8\xe0\xa4\xb0\xe0\xa4\x95\xe0\xa4\xbe\xe0\xa4\xb0,n,f,sg,3,o,0_\xe0\xa4\x95\xe0\xa4\xbe,0'
p4362
sS'chunkid'
p4363
S'NP10'
p4364
sS'drel'
p4365
S'r6:\xe0\xa4\x86\xe0\xa4\xb6\xe0\xa5\x8d\xe0\xa4\xb5\xe0\xa4\xbe\xe0\xa4\xb8\xe0\xa4\xa8'
p4366
sS'vpos'
p4367
S'vib_2'
p4368
sS'chunktype'
p4369
S'head:NP10'
p4370
ssbsg1722
I01
sg1725
I00
sg1736
Nsg1723
Nsg188
I14
sg174
I2
sg2013
I2
sg1734
Nsg2014
S'NN'
p4371
sg287
(issf_api
FeatureSet
p4372
(dp4373
g290
(dp4374
S'posn'
p4375
S'350'
p4376
sS'name'
p4377
S'\xe0\xa4\xb8\xe0\xa4\xb0\xe0\xa4\x95\xe0\xa4\xbe\xe0\xa4\xb0'
p4378
sS'af'
p4379
S'\xe0\xa4\xb8\xe0\xa4\xb0\xe0\xa4\x95\xe0\xa4\xbe\xe0\xa4\xb0,n,f,sg,3,o,0,0'
p4380
ssbsg1744
I00
sba(issf_api
Word
p4381
(dp4382
g1996
I00
sg1997
V\u0915\u0947
p4383
sg1999
(issf_api
FeatureSet
p4384
(dp4385
g290
(dp4386
S'posn'
p4387
S'360'
p4388
sS'name'
p4389
S'\xe0\xa4\x95\xe0\xa5\x875'
p4390
sS'drel'
p4391
S'lwg__psp:\xe0\xa4\xb8\xe0\xa4\xb0\xe0\xa4\x95\xe0\xa4\xbe\xe0\xa4\xb0'
p4392
sS'chunktype'
p4393
S'child:NP10'
p4394
sS'af'
p4395
S'\xe0\xa4\x95\xe0\xa4\xbe,psp,m,sg,,o,,'
p4396
ssbsg1722
I01
sg1725
I00
sg1736
Nsg1723
Nsg188
I14
sg174
I2
sg2013
I2
sg1734
Nsg2014
S'PSP'
p4397
sg287
(issf_api
FeatureSet
p4398
(dp4399
g290
(dp4400
S'posn'
p4401
S'360'
p4402
sS'name'
p4403
S'\xe0\xa4\x95\xe0\xa5\x875'
p4404
sS'af'
p4405
S'\xe0\xa4\x95\xe0\xa4\xbe,psp,m,sg,,o,,'
p4406
ssbsg1744
I00
sba(issf_api
Word
p4407
(dp4408
g1996
I00
sg1997
V\u0906\u0936\u094d\u0935\u093e\u0938\u0928
p4409
sg1999
(issf_api
FeatureSet
p4410
(dp4411
g290
(dp4412
S'posn'
p4413
S'370'
p4414
sS'name'
p4415
S'\xe0\xa4\x86\xe0\xa4\xb6\xe0\xa5\x8d\xe0\xa4\xb5\xe0\xa4\xbe\xe0\xa4\xb8\xe0\xa4\xa8'
p4416
sS'af'
p4417
S'\xe0\xa4\x86\xe0\xa4\xb6\xe0\xa5\x8d\xe0\xa4\xb5\xe0\xa4\xbe\xe0\xa4\xb8\xe0\xa4\xa8,n,m,sg,3,o,0_\xe0\xa4\x95\xe0\xa5\x87_\xe0\xa4\xac\xe0\xa4\xbe\xe0\xa4\xa6,0'
p4418
sS'chunkid'
p4419
S'NP11'
p4420
sS'drel'
p4421
S'k7t:\xe0\xa4\x95\xe0\xa4\xb0'
p4422
sS'vpos'
p4423
S'vib_2_3'
p4424
sS'chunktype'
p4425
S'head:NP11'
p4426
ssbsg1722
I01
sg1725
I00
sg1736
Nsg1723
Nsg188
I15
sg174
I2
sg2013
I2
sg1734
Nsg2014
S'NN'
p4427
sg287
(issf_api
FeatureSet
p4428
(dp4429
g290
(dp4430
S'posn'
p4431
S'370'
p4432
sS'name'
p4433
S'\xe0\xa4\x86\xe0\xa4\xb6\xe0\xa5\x8d\xe0\xa4\xb5\xe0\xa4\xbe\xe0\xa4\xb8\xe0\xa4\xa8'
p4434
sS'af'
p4435
S'\xe0\xa4\x86\xe0\xa4\xb6\xe0\xa5\x8d\xe0\xa4\xb5\xe0\xa4\xbe\xe0\xa4\xb8\xe0\xa4\xa8,n,m,sg,3,o,0,0'
p4436
ssbsg1744
I00
sba(issf_api
Word
p4437
(dp4438
g1996
I00
sg1997
V\u0915\u0947
p4439
sg1999
(issf_api
FeatureSet
p4440
(dp4441
g290
(dp4442
S'posn'
p4443
S'380'
p4444
sS'name'
p4445
S'\xe0\xa4\x95\xe0\xa5\x876'
p4446
sS'drel'
p4447
S'lwg__psp:\xe0\xa4\x86\xe0\xa4\xb6\xe0\xa5\x8d\xe0\xa4\xb5\xe0\xa4\xbe\xe0\xa4\xb8\xe0\xa4\xa8'
p4448
sS'chunktype'
p4449
S'child:NP11'
p4450
sS'af'
p4451
S'\xe0\xa4\x95\xe0\xa5\x87,psp,,,,,,'
p4452
ssbsg1722
I01
sg1725
I00
sg1736
Nsg1723
Nsg188
I15
sg174
I2
sg2013
I2
sg1734
Nsg2014
S'PSP'
p4453
sg287
(issf_api
FeatureSet
p4454
(dp4455
g290
(dp4456
S'posn'
p4457
S'380'
p4458
sS'name'
p4459
S'\xe0\xa4\x95\xe0\xa5\x876'
p4460
sS'af'
p4461
S'\xe0\xa4\x95\xe0\xa5\x87,psp,,,,,,'
p4462
ssbsg1744
I00
sba(issf_api
Word
p4463
(dp4464
g1996
I00
sg1997
V\u092c\u093e\u0926
p4465
sg1999
(issf_api
FeatureSet
p4466
(dp4467
g290
(dp4468
S'posn'
p4469
S'390'
p4470
sS'name'
p4471
S'\xe0\xa4\xac\xe0\xa4\xbe\xe0\xa4\xa62'
p4472
sS'drel'
p4473
S'lwg__psp:\xe0\xa4\x86\xe0\xa4\xb6\xe0\xa5\x8d\xe0\xa4\xb5\xe0\xa4\xbe\xe0\xa4\xb8\xe0\xa4\xa8'
p4474
sS'chunktype'
p4475
S'child:NP11'
p4476
sS'af'
p4477
S'\xe0\xa4\xac\xe0\xa4\xbe\xe0\xa4\xa6,nst,m,sg,3,d,,'
p4478
ssbsg1722
I01
sg1725
I00
sg1736
Nsg1723
Nsg188
I15
sg174
I2
sg2013
I2
sg1734
Nsg2014
S'NST'
p4479
sg287
(issf_api
FeatureSet
p4480
(dp4481
g290
(dp4482
S'posn'
p4483
S'390'
p4484
sS'name'
p4485
S'\xe0\xa4\xac\xe0\xa4\xbe\xe0\xa4\xa62'
p4486
sS'af'
p4487
S'\xe0\xa4\xac\xe0\xa4\xbe\xe0\xa4\xa6,nst,m,sg,3,d,,'
p4488
ssbsg1744
I00
sba(issf_api
Word
p4489
(dp4490
g1996
I00
sg1997
V\u092c\u0941\u0927\u0935\u093e\u0930
p4491
sg1999
(issf_api
FeatureSet
p4492
(dp4493
g290
(dp4494
S'posn'
p4495
S'400'
p4496
sS'name'
p4497
S'\xe0\xa4\xac\xe0\xa5\x81\xe0\xa4\xa7\xe0\xa4\xb5\xe0\xa4\xbe\xe0\xa4\xb0'
p4498
sS'af'
p4499
S'\xe0\xa4\xac\xe0\xa5\x81\xe0\xa4\xa7\xe0\xa4\xb5\xe0\xa4\xbe\xe0\xa4\xb0,n,m,sg,3,o,0_\xe0\xa4\xb8\xe0\xa5\x87,0'
p4500
sS'chunkid'
p4501
S'NP12'
p4502
sS'drel'
p4503
S'k7t:\xe0\xa4\x95\xe0\xa4\xb0'
p4504
sS'vpos'
p4505
S'vib_2'
p4506
sS'chunktype'
p4507
S'head:NP12'
p4508
ssbsg1722
I01
sg1725
I00
sg1736
Nsg1723
Nsg188
I16
sg174
I2
sg2013
I2
sg1734
Nsg2014
S'NNP'
p4509
sg287
(issf_api
FeatureSet
p4510
(dp4511
g290
(dp4512
S'posn'
p4513
S'400'
p4514
sS'name'
p4515
S'\xe0\xa4\xac\xe0\xa5\x81\xe0\xa4\xa7\xe0\xa4\xb5\xe0\xa4\xbe\xe0\xa4\xb0'
p4516
sS'af'
p4517
S'\xe0\xa4\xac\xe0\xa5\x81\xe0\xa4\xa7\xe0\xa4\xb5\xe0\xa4\xbe\xe0\xa4\xb0,n,m,sg,3,o,0,0'
p4518
ssbsg1744
I00
sba(issf_api
Word
p4519
(dp4520
g1996
I00
sg1997
V\u0938\u0947
p4521
sg1999
(issf_api
FeatureSet
p4522
(dp4523
g290
(dp4524
S'posn'
p4525
S'410'
p4526
sS'name'
p4527
S'\xe0\xa4\xb8\xe0\xa5\x87'
p4528
sS'drel'
p4529
S'lwg__psp:\xe0\xa4\xac\xe0\xa5\x81\xe0\xa4\xa7\xe0\xa4\xb5\xe0\xa4\xbe\xe0\xa4\xb0'
p4530
sS'chunktype'
p4531
S'child:NP12'
p4532
sS'af'
p4533
S'\xe0\xa4\xb8\xe0\xa5\x87,psp,,,,,,'
p4534
ssbsg1722
I01
sg1725
I00
sg1736
Nsg1723
Nsg188
I16
sg174
I2
sg2013
I2
sg1734
Nsg2014
S'PSP'
p4535
sg287
(issf_api
FeatureSet
p4536
(dp4537
g290
(dp4538
S'posn'
p4539
S'410'
p4540
sS'name'
p4541
S'\xe0\xa4\xb8\xe0\xa5\x87'
p4542
sS'af'
p4543
S'\xe0\xa4\xb8\xe0\xa5\x87,psp,,,,,,'
p4544
ssbsg1744
I00
sba(issf_api
Word
p4545
(dp4546
g1996
I00
sg1997
V\u0905\u092a\u0928\u0940
p4547
sg1999
(issf_api
FeatureSet
p4548
(dp4549
g290
(dp4550
S'posn'
p4551
S'420'
p4552
sS'name'
p4553
S'\xe0\xa4\x85\xe0\xa4\xaa\xe0\xa4\xa8\xe0\xa5\x80'
p4554
sS'af'
p4555
S'\xe0\xa4\x85\xe0\xa4\xaa\xe0\xa4\xa8\xe0\xa4\xbe,pn,f,any,any,d,0,0'
p4556
sS'chunkid'
p4557
S'NP13'
p4558
sS'drel'
p4559
S'r6:\xe0\xa4\xb9\xe0\xa5\x9c\xe0\xa4\xa4\xe0\xa4\xbe\xe0\xa4\xb2'
p4560
sS'chunktype'
p4561
S'head:NP13'
p4562
ssbsg1722
I01
sg1725
I00
sg1736
Nsg1723
Nsg188
I17
sg174
I2
sg2013
I2
sg1734
Nsg2014
S'PRP'
p4563
sg287
(issf_api
FeatureSet
p4564
(dp4565
g290
(dp4566
S'posn'
p4567
S'420'
p4568
sS'name'
p4569
S'\xe0\xa4\x85\xe0\xa4\xaa\xe0\xa4\xa8\xe0\xa5\x80'
p4570
sS'af'
p4571
S'\xe0\xa4\x85\xe0\xa4\xaa\xe0\xa4\xa8\xe0\xa4\xbe,pn,f,any,any,d,0,0'
p4572
ssbsg1744
I00
sba(issf_api
Word
p4573
(dp4574
g1996
I00
sg1997
V\u0939\u095c\u0924\u093e\u0932
p4575
sg1999
(issf_api
FeatureSet
p4576
(dp4577
g290
(dp4578
S'posn'
p4579
S'430'
p4580
sS'name'
p4581
S'\xe0\xa4\xb9\xe0\xa5\x9c\xe0\xa4\xa4\xe0\xa4\xbe\xe0\xa4\xb2'
p4582
sS'af'
p4583
S'\xe0\xa4\xb9\xe0\xa5\x9c\xe0\xa4\xa4\xe0\xa4\xbe\xe0\xa4\xb2,n,f,sg,3,d,0,0'
p4584
sS'chunkid'
p4585
S'NP14'
p4586
sS'drel'
p4587
S'k2:\xe0\xa4\x95\xe0\xa4\xb0'
p4588
sS'chunktype'
p4589
S'head:NP14'
p4590
ssbsg1722
I01
sg1725
I00
sg1736
Nsg1723
Nsg188
I18
sg174
I2
sg2013
I2
sg1734
Nsg2014
S'NN'
p4591
sg287
(issf_api
FeatureSet
p4592
(dp4593
g290
(dp4594
S'posn'
p4595
S'430'
p4596
sS'name'
p4597
S'\xe0\xa4\xb9\xe0\xa5\x9c\xe0\xa4\xa4\xe0\xa4\xbe\xe0\xa4\xb2'
p4598
sS'af'
p4599
S'\xe0\xa4\xb9\xe0\xa5\x9c\xe0\xa4\xa4\xe0\xa4\xbe\xe0\xa4\xb2,n,f,sg,3,d,0,0'
p4600
ssbsg1744
I00
sba(issf_api
Word
p4601
(dp4602
g1996
I00
sg1997
V\u0938\u092e\u093e\u092a\u094d\u0924
p4603
sg1999
(issf_api
FeatureSet
p4604
(dp4605
g290
(dp4606
S'posn'
p4607
S'440'
p4608
sS'name'
p4609
S'\xe0\xa4\xb8\xe0\xa4\xae\xe0\xa4\xbe\xe0\xa4\xaa\xe0\xa5\x8d\xe0\xa4\xa4'
p4610
sS'af'
p4611
S'\xe0\xa4\xb8\xe0\xa4\xae\xe0\xa4\xbe\xe0\xa4\xaa\xe0\xa5\x8d\xe0\xa4\xa4,adj,any,any,,,,'
p4612
sS'chunkid'
p4613
S'JJP'
p4614
sS'drel'
p4615
S'pof:\xe0\xa4\x95\xe0\xa4\xb0'
p4616
sS'chunktype'
p4617
S'head:JJP'
p4618
ssbsg1722
I01
sg1725
I00
sg1736
Nsg1723
Nsg188
I19
sg174
I2
sg2013
I2
sg1734
Nsg2014
S'JJ'
p4619
sg287
(issf_api
FeatureSet
p4620
(dp4621
g290
(dp4622
S'posn'
p4623
S'440'
p4624
sS'name'
p4625
S'\xe0\xa4\xb8\xe0\xa4\xae\xe0\xa4\xbe\xe0\xa4\xaa\xe0\xa5\x8d\xe0\xa4\xa4'
p4626
sS'af'
p4627
S'\xe0\xa4\xb8\xe0\xa4\xae\xe0\xa4\xbe\xe0\xa4\xaa\xe0\xa5\x8d\xe0\xa4\xa4,adj,any,any,,,,'
p4628
ssbsg1744
I00
sba(issf_api
Word
p4629
(dp4630
g1996
I00
sg1997
V\u0915\u0930
p4631
sg1999
(issf_api
FeatureSet
p4632
(dp4633
g290
(dp4634
S'posn'
p4635
S'450'
p4636
sS'name'
p4637
S'\xe0\xa4\x95\xe0\xa4\xb0'
p4638
sS'af'
p4639
S'\xe0\xa4\x95\xe0\xa4\xb0,v,any,pl,3,,0_\xe0\xa4\xa6\xe0\xa5\x87+\xe0\xa4\x97\xe0\xa4\xbe,0'
p4640
sS'chunkid'
p4641
S'VGF2'
p4642
sS'stype'
p4643
S'declarative'
p4644
sS'drel'
p4645
S'ccof:\xe0\xa4\x95\xe0\xa4\xbf'
p4646
sS'voicetype'
p4647
S'active'
p4648
sS'vpos'
p4649
S'tam_2'
p4650
sS'chunktype'
p4651
S'head:VGF2'
p4652
ssbsg1722
I01
sg1725
I00
sg1736
Nsg1723
Nsg188
I20
sg174
I2
sg2013
I2
sg1734
Nsg2014
S'VM'
p4653
sg287
(issf_api
FeatureSet
p4654
(dp4655
g290
(dp4656
S'posn'
p4657
S'450'
p4658
sS'name'
p4659
S'\xe0\xa4\x95\xe0\xa4\xb0'
p4660
sS'af'
p4661
S'\xe0\xa4\x95\xe0\xa4\xb0,v,any,any,any,,0,0'
p4662
ssbsg1744
I00
sba(issf_api
Word
p4663
(dp4664
g1996
I00
sg1997
V\u0926\u0947\u0902\u0917\u0947
p4665
sg1999
(issf_api
FeatureSet
p4666
(dp4667
g290
(dp4668
S'posn'
p4669
S'460'
p4670
sS'name'
p4671
S'\xe0\xa4\xa6\xe0\xa5\x87\xe0\xa4\x82\xe0\xa4\x97\xe0\xa5\x87'
p4672
sS'drel'
p4673
S'lwg__vaux:\xe0\xa4\x95\xe0\xa4\xb0'
p4674
sS'chunktype'
p4675
S'child:VGF2'
p4676
sS'af'
p4677
S'\xe0\xa4\xa6\xe0\xa5\x87,v,m,pl,3,,\xe0\xa4\x97\xe0\xa4\xbe,gA'
p4678
ssbsg1722
I01
sg1725
I00
sg1736
Nsg1723
Nsg188
I20
sg174
I2
sg2013
I2
sg1734
Nsg2014
S'VAUX'
p4679
sg287
(issf_api
FeatureSet
p4680
(dp4681
g290
(dp4682
S'posn'
p4683
S'460'
p4684
sS'name'
p4685
S'\xe0\xa4\xa6\xe0\xa5\x87\xe0\xa4\x82\xe0\xa4\x97\xe0\xa5\x87'
p4686
sS'af'
p4687
S'\xe0\xa4\xa6\xe0\xa5\x87,v,m,pl,3,,\xe0\xa4\x97\xe0\xa4\xbe,gA'
p4688
ssbsg1744
I00
sba(issf_api
Word
p4689
(dp4690
g1996
I00
sg1997
V\u0964
sg1999
(issf_api
FeatureSet
p4691
(dp4692
g290
(dp4693
S'posn'
p4694
S'470'
p4695
sS'name'
p4696
S'\xe0\xa5\xa4'
p4697
sS'af'
p4698
S'\xe0\xa5\xa4,punc,,,,,,'
p4699
sS'chunkid'
p4700
S'BLK'
p4701
sS'drel'
p4702
S'rsym:\xe0\xa4\x95\xe0\xa4\xb9\xe0\xa4\xbe'
p4703
sS'chunktype'
p4704
S'head:BLK'
p4705
ssbsg1722
I01
sg1725
I00
sg1736
Nsg1723
Nsg188
I21
sg174
I2
sg2013
I2
sg1734
Nsg2014
S'SYM'
p4706
sg287
(issf_api
FeatureSet
p4707
(dp4708
g290
(dp4709
S'posn'
p4710
S'470'
p4711
sS'name'
p4712
S'\xe0\xa5\xa4'
p4713
sS'af'
p4714
S'\xe0\xa5\xa4,punc,,,,,,'
p4715
ssbsg1744
I00
sba(issf_api
Word
p4716
(dp4717
g1996
I00
sg1997
V\u0926\u0942\u0938\u0930\u0940
p4718
sg1999
(issf_api
FeatureSet
p4719
(dp4720
g290
(dp4721
S'posn'
p4722
S'10'
p4723
sS'name'
p4724
S'\xe0\xa4\xa6\xe0\xa5\x82\xe0\xa4\xb8\xe0\xa4\xb0\xe0\xa5\x80'
p4725
sS'af'
p4726
S'\xe0\xa4\xa6\xe0\xa5\x82\xe0\xa4\xb8\xe0\xa4\xb0\xe0\xa4\xbe,num,f,sg,,d,,'
p4727
sS'chunkid'
p4728
S'NP'
p4729
sS'drel'
p4730
S'sent-adv:\xe0\xa4\x95\xe0\xa4\xb9\xe0\xa4\xbe'
p4731
sS'chunktype'
p4732
S'head:NP'
p4733
ssbsg1722
I00
sg1725
I00
sg1736
g1788
sg1723
(lp4734
I61
aI62
aI63
aI64
aI65
aI66
aI67
aI68
aI69
aI70
aI71
aI72
aI73
aI74
aI75
aI76
aI77
aI78
aI79
aI80
aI81
aI82
aI83
aI84
aI85
aI86
aI87
aI88
aI89
aI90
aI91
aI92
aI93
aI94
aI95
aI96
aI97
aI98
asg188
I0
sg174
I3
sg2013
I2
sg1734
(lp4735
I102
aI103
aI104
aI105
aI106
aI107
aI108
aI109
aI110
aI111
aI112
aI113
aI114
aI115
aI116
aI117
aI118
aI119
aI120
aI121
aI122
asg2014
S'QO'
p4736
sg287
(issf_api
FeatureSet
p4737
(dp4738
g290
(dp4739
S'posn'
p4740
S'10'
p4741
sS'name'
p4742
S'\xe0\xa4\xa6\xe0\xa5\x82\xe0\xa4\xb8\xe0\xa4\xb0\xe0\xa5\x80'
p4743
sS'af'
p4744
S'\xe0\xa4\xa6\xe0\xa5\x82\xe0\xa4\xb8\xe0\xa4\xb0\xe0\xa4\xbe,num,f,sg,,d,,'
p4745
ssbsg1744
I01
sba(issf_api
Word
p4746
(dp4747
g1996
I00
sg1997
V\u0913\u0930
p4748
sg1999
(issf_api
FeatureSet
p4749
(dp4750
g290
(dp4751
S'posn'
p4752
S'20'
p4753
sS'name'
p4754
S'\xe0\xa4\x93\xe0\xa4\xb0'
p4755
sS'drel'
p4756
S'lwg__psp:\xe0\xa4\xa6\xe0\xa5\x82\xe0\xa4\xb8\xe0\xa4\xb0\xe0\xa5\x80'
p4757
sS'chunktype'
p4758
S'child:NP'
p4759
sS'af'
p4760
S'\xe0\xa4\x93\xe0\xa4\xb0,nst,f,sg,3,d,,'
p4761
ssbsg1722
I00
sg1725
I00
sg1736
g1788
sg1723
g4734
sg188
I0
sg174
I3
sg2013
I2
sg1734
g4735
sg2014
S'NST'
p4762
sg287
(issf_api
FeatureSet
p4763
(dp4764
g290
(dp4765
S'posn'
p4766
S'20'
p4767
sS'name'
p4768
S'\xe0\xa4\x93\xe0\xa4\xb0'
p4769
sS'af'
p4770
S'\xe0\xa4\x93\xe0\xa4\xb0,nst,f,sg,3,d,,'
p4771
ssbsg1744
I01
sba(issf_api
Word
p4772
(dp4773
g1996
I00
sg1997
V,
sg1999
(issf_api
FeatureSet
p4774
(dp4775
g290
(dp4776
S'posn'
p4777
S'30'
p4778
sS'name'
p4779
S','
sS'drel'
p4780
S'rsym:\xe0\xa4\xa6\xe0\xa5\x82\xe0\xa4\xb8\xe0\xa4\xb0\xe0\xa5\x80'
p4781
sS'chunktype'
p4782
S'child:NP'
p4783
sS'af'
p4784
S'COMMA,punc,,,,,,'
p4785
ssbsg1722
I00
sg1725
I00
sg1736
Nsg1723
Nsg188
I0
sg174
I3
sg2013
Nsg1734
Nsg2014
S'SYM'
p4786
sg287
(issf_api
FeatureSet
p4787
(dp4788
g290
(dp4789
S'posn'
p4790
S'30'
p4791
sS'name'
p4792
S','
sS'af'
p4793
S'COMMA,punc,,,,,,'
p4794
ssbsg1744
I00
sba(issf_api
Word
p4795
(dp4796
g1996
I00
sg1997
V\u091a\u0915\u094d\u0930\u0935\u0930\u094d\u0924\u0940
p4797
sg1999
(issf_api
FeatureSet
p4798
(dp4799
g290
(dp4800
S'posn'
p4801
S'40'
p4802
sS'name'
p4803
S'\xe0\xa4\x9a\xe0\xa4\x95\xe0\xa5\x8d\xe0\xa4\xb0\xe0\xa4\xb5\xe0\xa4\xb0\xe0\xa5\x8d\xe0\xa4\xa4\xe0\xa5\x80'
p4804
sS'af'
p4805
S'\xe0\xa4\x9a\xe0\xa4\x95\xe0\xa5\x8d\xe0\xa4\xb0\xe0\xa4\xb5\xe0\xa4\xb0\xe0\xa5\x8d\xe0\xa4\xa4\xe0\xa5\x80,n,any,sg,3,o,0_\xe0\xa4\xa8\xe0\xa5\x87,0'
p4806
sS'chunkid'
p4807
S'NP2'
p4808
sS'drel'
p4809
S'k1:\xe0\xa4\x95\xe0\xa4\xb9\xe0\xa4\xbe'
p4810
sS'vpos'
p4811
S'vib_2'
p4812
sS'chunktype'
p4813
S'head:NP2'
p4814
ssbsg1722
I00
sg1725
I01
sg1736
Nsg1723
Nsg188
I1
sg174
I3
sg2013
I2
sg1734
Nsg2014
S'NNP'
p4815
sg287
(issf_api
FeatureSet
p4816
(dp4817
g290
(dp4818
S'posn'
p4819
S'40'
p4820
sS'name'
p4821
S'\xe0\xa4\x9a\xe0\xa4\x95\xe0\xa5\x8d\xe0\xa4\xb0\xe0\xa4\xb5\xe0\xa4\xb0\xe0\xa5\x8d\xe0\xa4\xa4\xe0\xa5\x80'
p4822
sS'af'
p4823
S'\xe0\xa4\x9a\xe0\xa4\x95\xe0\xa5\x8d\xe0\xa4\xb0\xe0\xa4\xb5\xe0\xa4\xb0\xe0\xa5\x8d\xe0\xa4\xa4\xe0\xa5\x80,n,any,sg,3,o,0,0'
p4824
ssbsg1744
I00
sba(issf_api
Word
p4825
(dp4826
g1996
I00
sg1997
V\u0928\u0947
p4827
sg1999
(issf_api
FeatureSet
p4828
(dp4829
g290
(dp4830
S'posn'
p4831
S'50'
p4832
sS'name'
p4833
S'\xe0\xa4\xa8\xe0\xa5\x87'
p4834
sS'drel'
p4835
S'lwg__psp:\xe0\xa4\x9a\xe0\xa4\x95\xe0\xa5\x8d\xe0\xa4\xb0\xe0\xa4\xb5\xe0\xa4\xb0\xe0\xa5\x8d\xe0\xa4\xa4\xe0\xa5\x80'
p4836
sS'chunktype'
p4837
S'child:NP2'
p4838
sS'af'
p4839
S'\xe0\xa4\xa8\xe0\xa5\x87,psp,,,,,,'
p4840
ssbsg1722
I00
sg1725
I01
sg1736
Nsg1723
Nsg188
I1
sg174
I3
sg2013
I2
sg1734
Nsg2014
S'PSP'
p4841
sg287
(issf_api
FeatureSet
p4842
(dp4843
g290
(dp4844
S'posn'
p4845
S'50'
p4846
sS'name'
p4847
S'\xe0\xa4\xa8\xe0\xa5\x87'
p4848
sS'af'
p4849
S'\xe0\xa4\xa8\xe0\xa5\x87,psp,,,,,,'
p4850
ssbsg1744
I00
sba(issf_api
Word
p4851
(dp4852
g1996
I00
sg1997
V\u092a\u0924\u094d\u0930\u0915\u093e\u0930\u094b\u0902
p4853
sg1999
(issf_api
FeatureSet
p4854
(dp4855
g290
(dp4856
S'posn'
p4857
S'60'
p4858
sS'name'
p4859
S'\xe0\xa4\xaa\xe0\xa4\xa4\xe0\xa5\x8d\xe0\xa4\xb0\xe0\xa4\x95\xe0\xa4\xbe\xe0\xa4\xb0\xe0\xa5\x8b\xe0\xa4\x82'
p4860
sS'af'
p4861
S'\xe0\xa4\xaa\xe0\xa4\xa4\xe0\xa5\x8d\xe0\xa4\xb0\xe0\xa4\x95\xe0\xa4\xbe\xe0\xa4\xb0,n,m,pl,3,o,0_\xe0\xa4\xb8\xe0\xa5\x87,0'
p4862
sS'chunkid'
p4863
S'NP3'
p4864
sS'drel'
p4865
S'k4:\xe0\xa4\x95\xe0\xa4\xb9\xe0\xa4\xbe'
p4866
sS'vpos'
p4867
S'vib_2'
p4868
sS'chunktype'
p4869
S'head:NP3'
p4870
ssbsg1722
I00
sg1725
I01
sg1736
Nsg1723
Nsg188
I2
sg174
I3
sg2013
I2
sg1734
Nsg2014
S'NN'
p4871
sg287
(issf_api
FeatureSet
p4872
(dp4873
g290
(dp4874
S'posn'
p4875
S'60'
p4876
sS'name'
p4877
S'\xe0\xa4\xaa\xe0\xa4\xa4\xe0\xa5\x8d\xe0\xa4\xb0\xe0\xa4\x95\xe0\xa4\xbe\xe0\xa4\xb0\xe0\xa5\x8b\xe0\xa4\x82'
p4878
sS'af'
p4879
S'\xe0\xa4\xaa\xe0\xa4\xa4\xe0\xa5\x8d\xe0\xa4\xb0\xe0\xa4\x95\xe0\xa4\xbe\xe0\xa4\xb0,n,m,pl,3,o,0,0'
p4880
ssbsg1744
I00
sba(issf_api
Word
p4881
(dp4882
g1996
I00
sg1997
V\u0938\u0947
p4883
sg1999
(issf_api
FeatureSet
p4884
(dp4885
g290
(dp4886
S'posn'
p4887
S'70'
p4888
sS'name'
p4889
S'\xe0\xa4\xb8\xe0\xa5\x87'
p4890
sS'drel'
p4891
S'lwg__psp:\xe0\xa4\xaa\xe0\xa4\xa4\xe0\xa5\x8d\xe0\xa4\xb0\xe0\xa4\x95\xe0\xa4\xbe\xe0\xa4\xb0\xe0\xa5\x8b\xe0\xa4\x82'
p4892
sS'chunktype'
p4893
S'child:NP3'
p4894
sS'af'
p4895
S'\xe0\xa4\xb8\xe0\xa5\x87,psp,,,,,,'
p4896
ssbsg1722
I00
sg1725
I01
sg1736
Nsg1723
Nsg188
I2
sg174
I3
sg2013
I2
sg1734
Nsg2014
S'PSP'
p4897
sg287
(issf_api
FeatureSet
p4898
(dp4899
g290
(dp4900
S'posn'
p4901
S'70'
p4902
sS'name'
p4903
S'\xe0\xa4\xb8\xe0\xa5\x87'
p4904
sS'af'
p4905
S'\xe0\xa4\xb8\xe0\xa5\x87,psp,,,,,,'
p4906
ssbsg1744
I00
sba(issf_api
Word
p4907
(dp4908
g1996
I00
sg1997
V\u0915\u0939\u093e
p4909
sg1999
(issf_api
FeatureSet
p4910
(dp4911
g290
(dp4912
S'posn'
p4913
S'80'
p4914
sS'name'
p4915
S'\xe0\xa4\x95\xe0\xa4\xb9\xe0\xa4\xbe'
p4916
sS'af'
p4917
S'\xe0\xa4\x95\xe0\xa4\xb9,v,m,sg,any,,\xe0\xa4\xaf\xe0\xa4\xbe,yA'
p4918
sS'chunkid'
p4919
S'VGF'
p4920
sS'chunktype'
p4921
S'head:VGF'
p4922
sS'voicetype'
p4923
S'active'
p4924
sS'stype'
p4925
S'declarative'
p4926
ssbsg1722
I00
sg1725
I01
sg1736
Nsg1723
Nsg188
I3
sg174
I3
sg2013
I2
sg1734
Nsg2014
S'VM'
p4927
sg287
(issf_api
FeatureSet
p4928
(dp4929
g290
(dp4930
S'posn'
p4931
S'80'
p4932
sS'name'
p4933
S'\xe0\xa4\x95\xe0\xa4\xb9\xe0\xa4\xbe'
p4934
sS'af'
p4935
S'\xe0\xa4\x95\xe0\xa4\xb9,v,m,sg,any,,\xe0\xa4\xaf\xe0\xa4\xbe,yA'
p4936
ssbsg1744
I00
sba(issf_api
Word
p4937
(dp4938
g1996
I00
sg1997
V\u0915\u093f
p4939
sg1999
(issf_api
FeatureSet
p4940
(dp4941
g290
(dp4942
S'posn'
p4943
S'90'
p4944
sS'name'
p4945
S'\xe0\xa4\x95\xe0\xa4\xbf'
p4946
sS'af'
p4947
S'\xe0\xa4\x95\xe0\xa4\xbf,avy,,,,,,'
p4948
sS'chunkid'
p4949
S'CCP'
p4950
sS'drel'
p4951
S'k2:\xe0\xa4\x95\xe0\xa4\xb9\xe0\xa4\xbe'
p4952
sS'chunktype'
p4953
S'head:CCP'
p4954
ssbsg1722
I00
sg1725
I01
sg1736
Nsg1723
Nsg188
I4
sg174
I3
sg2013
I2
sg1734
Nsg2014
S'CC'
p4955
sg287
(issf_api
FeatureSet
p4956
(dp4957
g290
(dp4958
S'posn'
p4959
S'90'
p4960
sS'name'
p4961
S'\xe0\xa4\x95\xe0\xa4\xbf'
p4962
sS'af'
p4963
S'\xe0\xa4\x95\xe0\xa4\xbf,avy,,,,,,'
p4964
ssbsg1744
I00
sba(issf_api
Word
p4965
(dp4966
g1996
I00
sg1997
V\u092c\u0940\u091f\u0940\u090f
p4967
sg1999
(issf_api
FeatureSet
p4968
(dp4969
g290
(dp4970
S'posn'
p4971
S'100'
p4972
sS'name'
p4973
S'\xe0\xa4\xac\xe0\xa5\x80\xe0\xa4\x9f\xe0\xa5\x80\xe0\xa4\x8f'
p4974
sS'af'
p4975
S'\xe0\xa4\xac\xe0\xa5\x80\xe0\xa4\x9f\xe0\xa5\x80\xe0\xa4\x8f,n,f,sg,3,o,0,0'
p4976
sS'chunkid'
p4977
S'NP4'
p4978
sS'drel'
p4979
S'ccof:\xe0\xa4\x94\xe0\xa4\xb0'
p4980
sS'chunktype'
p4981
S'head:NP4'
p4982
ssbsg1722
I00
sg1725
I01
sg1736
Nsg1723
Nsg188
I5
sg174
I3
sg2013
I2
sg1734
Nsg2014
S'NNP'
p4983
sg287
(issf_api
FeatureSet
p4984
(dp4985
g290
(dp4986
S'posn'
p4987
S'100'
p4988
sS'name'
p4989
S'\xe0\xa4\xac\xe0\xa5\x80\xe0\xa4\x9f\xe0\xa5\x80\xe0\xa4\x8f'
p4990
sS'af'
p4991
S'\xe0\xa4\xac\xe0\xa5\x80\xe0\xa4\x9f\xe0\xa5\x80\xe0\xa4\x8f,n,f,sg,3,o,0,0'
p4992
ssbsg1744
I00
sba(issf_api
Word
p4993
(dp4994
g1996
I00
sg1997
V\u0914\u0930
p4995
sg1999
(issf_api
FeatureSet
p4996
(dp4997
g290
(dp4998
S'posn'
p4999
S'110'
p5000
sS'name'
p5001
S'\xe0\xa4\x94\xe0\xa4\xb0'
p5002
sS'af'
p5003
S'\xe0\xa4\x94\xe0\xa4\xb0,avy,,,,,,'
p5004
sS'chunkid'
p5005
S'CCP2'
p5006
sS'drel'
p5007
S'k1:\xe0\xa4\x95\xe0\xa4\xbf\xe0\xa4\xaf\xe0\xa4\xbe'
p5008
sS'chunktype'
p5009
S'head:CCP2'
p5010
ssbsg1722
I00
sg1725
I01
sg1736
Nsg1723
Nsg188
I6
sg174
I3
sg2013
I2
sg1734
Nsg2014
S'CC'
p5011
sg287
(issf_api
FeatureSet
p5012
(dp5013
g290
(dp5014
S'posn'
p5015
S'110'
p5016
sS'name'
p5017
S'\xe0\xa4\x94\xe0\xa4\xb0'
p5018
sS'af'
p5019
S'\xe0\xa4\x94\xe0\xa4\xb0,avy,,,,,,'
p5020
ssbsg1744
I00
sba(issf_api
Word
p5021
(dp5022
g1996
I00
sg1997
V\u0938\u0940\u090f\u092e\u091f\u0940\u0921\u0940\u092f\u0942
p5023
sg1999
(issf_api
FeatureSet
p5024
(dp5025
g290
(dp5026
S'posn'
p5027
S'120'
p5028
sS'name'
p5029
S'\xe0\xa4\xb8\xe0\xa5\x80\xe0\xa4\x8f\xe0\xa4\xae\xe0\xa4\x9f\xe0\xa5\x80\xe0\xa4\xa1\xe0\xa5\x80\xe0\xa4\xaf\xe0\xa5\x82'
p5030
sS'af'
p5031
S'\xe0\xa4\xb8\xe0\xa5\x80\xe0\xa4\x8f\xe0\xa4\xae\xe0\xa4\x9f\xe0\xa5\x80\xe0\xa4\xa1\xe0\xa5\x80\xe0\xa4\xaf\xe0\xa5\x82,n,f,sg,3,o,0_\xe0\xa4\xa8\xe0\xa5\x87,0'
p5032
sS'chunkid'
p5033
S'NP5'
p5034
sS'drel'
p5035
S'ccof:\xe0\xa4\x94\xe0\xa4\xb0'
p5036
sS'vpos'
p5037
S'vib_2'
p5038
sS'chunktype'
p5039
S'head:NP5'
p5040
ssbsg1722
I00
sg1725
I01
sg1736
Nsg1723
Nsg188
I7
sg174
I3
sg2013
I2
sg1734
Nsg2014
S'NNP'
p5041
sg287
(issf_api
FeatureSet
p5042
(dp5043
g290
(dp5044
S'posn'
p5045
S'120'
p5046
sS'name'
p5047
S'\xe0\xa4\xb8\xe0\xa5\x80\xe0\xa4\x8f\xe0\xa4\xae\xe0\xa4\x9f\xe0\xa5\x80\xe0\xa4\xa1\xe0\xa5\x80\xe0\xa4\xaf\xe0\xa5\x82'
p5048
sS'af'
p5049
S'\xe0\xa4\xb8\xe0\xa5\x80\xe0\xa4\x8f\xe0\xa4\xae\xe0\xa4\x9f\xe0\xa5\x80\xe0\xa4\xa1\xe0\xa5\x80\xe0\xa4\xaf\xe0\xa5\x82,n,f,sg,3,o,0,0'
p5050
ssbsg1744
I00
sba(issf_api
Word
p5051
(dp5052
g1996
I00
sg1997
V\u0928\u0947
p5053
sg1999
(issf_api
FeatureSet
p5054
(dp5055
g290
(dp5056
S'posn'
p5057
S'130'
p5058
sS'name'
p5059
S'\xe0\xa4\xa8\xe0\xa5\x872'
p5060
sS'drel'
p5061
S'lwg__psp:\xe0\xa4\xb8\xe0\xa5\x80\xe0\xa4\x8f\xe0\xa4\xae\xe0\xa4\x9f\xe0\xa5\x80\xe0\xa4\xa1\xe0\xa5\x80\xe0\xa4\xaf\xe0\xa5\x82'
p5062
sS'chunktype'
p5063
S'child:NP5'
p5064
sS'af'
p5065
S'\xe0\xa4\xa8\xe0\xa5\x87,psp,,,,,,'
p5066
ssbsg1722
I00
sg1725
I01
sg1736
Nsg1723
Nsg188
I7
sg174
I3
sg2013
I2
sg1734
Nsg2014
S'PSP'
p5067
sg287
(issf_api
FeatureSet
p5068
(dp5069
g290
(dp5070
S'posn'
p5071
S'130'
p5072
sS'name'
p5073
S'\xe0\xa4\xa8\xe0\xa5\x872'
p5074
sS'af'
p5075
S'\xe0\xa4\xa8\xe0\xa5\x87,psp,,,,,,'
p5076
ssbsg1744
I00
sba(issf_api
Word
p5077
(dp5078
g1996
I00
sg1997
V\u092c\u0941\u0927\u0935\u093e\u0930
p5079
sg1999
(issf_api
FeatureSet
p5080
(dp5081
g290
(dp5082
S'posn'
p5083
S'140'
p5084
sS'name'
p5085
S'\xe0\xa4\xac\xe0\xa5\x81\xe0\xa4\xa7\xe0\xa4\xb5\xe0\xa4\xbe\xe0\xa4\xb0'
p5086
sS'af'
p5087
S'\xe0\xa4\xac\xe0\xa5\x81\xe0\xa4\xa7\xe0\xa4\xb5\xe0\xa4\xbe\xe0\xa4\xb0,n,m,sg,3,o,0_\xe0\xa4\xb8\xe0\xa5\x87,0'
p5088
sS'chunkid'
p5089
S'NP6'
p5090
sS'drel'
p5091
S'k5:\xe0\xa4\xb2\xe0\xa5\x87\xe0\xa4\xa8\xe0\xa5\x87'
p5092
sS'vpos'
p5093
S'vib_2'
p5094
sS'chunktype'
p5095
S'head:NP6'
p5096
ssbsg1722
I00
sg1725
I01
sg1736
Nsg1723
Nsg188
I8
sg174
I3
sg2013
I2
sg1734
Nsg2014
S'NNP'
p5097
sg287
(issf_api
FeatureSet
p5098
(dp5099
g290
(dp5100
S'posn'
p5101
S'140'
p5102
sS'name'
p5103
S'\xe0\xa4\xac\xe0\xa5\x81\xe0\xa4\xa7\xe0\xa4\xb5\xe0\xa4\xbe\xe0\xa4\xb0'
p5104
sS'af'
p5105
S'\xe0\xa4\xac\xe0\xa5\x81\xe0\xa4\xa7\xe0\xa4\xb5\xe0\xa4\xbe\xe0\xa4\xb0,n,m,sg,3,o,0,0'
p5106
ssbsg1744
I00
sba(issf_api
Word
p5107
(dp5108
g1996
I00
sg1997
V\u0938\u0947
p5109
sg1999
(issf_api
FeatureSet
p5110
(dp5111
g290
(dp5112
S'posn'
p5113
S'150'
p5114
sS'name'
p5115
S'\xe0\xa4\xb8\xe0\xa5\x872'
p5116
sS'drel'
p5117
S'lwg__psp:\xe0\xa4\xac\xe0\xa5\x81\xe0\xa4\xa7\xe0\xa4\xb5\xe0\xa4\xbe\xe0\xa4\xb0'
p5118
sS'chunktype'
p5119
S'child:NP6'
p5120
sS'af'
p5121
S'\xe0\xa4\xb8\xe0\xa5\x87,psp,,,,,,'
p5122
ssbsg1722
I00
sg1725
I01
sg1736
Nsg1723
Nsg188
I8
sg174
I3
sg2013
I2
sg1734
Nsg2014
S'PSP'
p5123
sg287
(issf_api
FeatureSet
p5124
(dp5125
g290
(dp5126
S'posn'
p5127
S'150'
p5128
sS'name'
p5129
S'\xe0\xa4\xb8\xe0\xa5\x872'
p5130
sS'af'
p5131
S'\xe0\xa4\xb8\xe0\xa5\x87,psp,,,,,,'
p5132
ssbsg1744
I00
sba(issf_api
Word
p5133
(dp5134
g1996
I00
sg1997
V\u0905\u092a\u0928\u0940
p5135
sg1999
(issf_api
FeatureSet
p5136
(dp5137
g290
(dp5138
S'posn'
p5139
S'160'
p5140
sS'name'
p5141
S'\xe0\xa4\x85\xe0\xa4\xaa\xe0\xa4\xa8\xe0\xa5\x80'
p5142
sS'af'
p5143
S'\xe0\xa4\x85\xe0\xa4\xaa\xe0\xa4\xa8\xe0\xa4\xbe,pn,f,any,any,d,0,0'
p5144
sS'chunkid'
p5145
S'NP7'
p5146
sS'drel'
p5147
S'r6:\xe0\xa4\xb9\xe0\xa5\x9c\xe0\xa4\xa4\xe0\xa4\xbe\xe0\xa4\xb2'
p5148
sS'chunktype'
p5149
S'head:NP7'
p5150
ssbsg1722
I00
sg1725
I01
sg1736
Nsg1723
Nsg188
I9
sg174
I3
sg2013
I2
sg1734
Nsg2014
S'PRP'
p5151
sg287
(issf_api
FeatureSet
p5152
(dp5153
g290
(dp5154
S'posn'
p5155
S'160'
p5156
sS'name'
p5157
S'\xe0\xa4\x85\xe0\xa4\xaa\xe0\xa4\xa8\xe0\xa5\x80'
p5158
sS'af'
p5159
S'\xe0\xa4\x85\xe0\xa4\xaa\xe0\xa4\xa8\xe0\xa4\xbe,pn,f,any,any,d,0,0'
p5160
ssbsg1744
I00
sba(issf_api
Word
p5161
(dp5162
g1996
I00
sg1997
V\u0939\u095c\u0924\u093e\u0932
p5163
sg1999
(issf_api
FeatureSet
p5164
(dp5165
g290
(dp5166
S'posn'
p5167
S'170'
p5168
sS'name'
p5169
S'\xe0\xa4\xb9\xe0\xa5\x9c\xe0\xa4\xa4\xe0\xa4\xbe\xe0\xa4\xb2'
p5170
sS'af'
p5171
S'\xe0\xa4\xb9\xe0\xa5\x9c\xe0\xa4\xa4\xe0\xa4\xbe\xe0\xa4\xb2,n,f,sg,3,d,0,0'
p5172
sS'chunkid'
p5173
S'NP8'
p5174
sS'drel'
p5175
S'k2:\xe0\xa4\xb2\xe0\xa5\x87\xe0\xa4\xa8\xe0\xa5\x87'
p5176
sS'chunktype'
p5177
S'head:NP8'
p5178
ssbsg1722
I00
sg1725
I01
sg1736
Nsg1723
Nsg188
I10
sg174
I3
sg2013
I2
sg1734
Nsg2014
S'NN'
p5179
sg287
(issf_api
FeatureSet
p5180
(dp5181
g290
(dp5182
S'posn'
p5183
S'170'
p5184
sS'name'
p5185
S'\xe0\xa4\xb9\xe0\xa5\x9c\xe0\xa4\xa4\xe0\xa4\xbe\xe0\xa4\xb2'
p5186
sS'af'
p5187
S'\xe0\xa4\xb9\xe0\xa5\x9c\xe0\xa4\xa4\xe0\xa4\xbe\xe0\xa4\xb2,n,f,sg,3,d,0,0'
p5188
ssbsg1744
I00
sba(issf_api
Word
p5189
(dp5190
g1996
I00
sg1997
V\u0935\u093e\u092a\u0938
p5191
sg1999
(issf_api
FeatureSet
p5192
(dp5193
g290
(dp5194
S'posn'
p5195
S'180'
p5196
sS'name'
p5197
S'\xe0\xa4\xb5\xe0\xa4\xbe\xe0\xa4\xaa\xe0\xa4\xb8'
p5198
sS'af'
p5199
S'\xe0\xa4\xb5\xe0\xa4\xbe\xe0\xa4\xaa\xe0\xa4\xb8,adj,any,any,,,,'
p5200
sS'chunkid'
p5201
S'JJP'
p5202
sS'drel'
p5203
S'pof:\xe0\xa4\xb2\xe0\xa5\x87\xe0\xa4\xa8\xe0\xa5\x87'
p5204
sS'chunktype'
p5205
S'head:JJP'
p5206
ssbsg1722
I00
sg1725
I01
sg1736
Nsg1723
Nsg188
I11
sg174
I3
sg2013
I2
sg1734
Nsg2014
S'JJ'
p5207
sg287
(issf_api
FeatureSet
p5208
(dp5209
g290
(dp5210
S'posn'
p5211
S'180'
p5212
sS'name'
p5213
S'\xe0\xa4\xb5\xe0\xa4\xbe\xe0\xa4\xaa\xe0\xa4\xb8'
p5214
sS'af'
p5215
S'\xe0\xa4\xb5\xe0\xa4\xbe\xe0\xa4\xaa\xe0\xa4\xb8,adj,any,any,,,,'
p5216
ssbsg1744
I00
sba(issf_api
Word
p5217
(dp5218
g1996
I00
sg1997
V\u0932\u0947\u0928\u0947
p5219
sg1999
(issf_api
FeatureSet
p5220
(dp5221
g290
(dp5222
S'posn'
p5223
S'190'
p5224
sS'name'
p5225
S'\xe0\xa4\xb2\xe0\xa5\x87\xe0\xa4\xa8\xe0\xa5\x87'
p5226
sS'af'
p5227
S'\xe0\xa4\xb2\xe0\xa5\x87,v,any,sg,any,o,\xe0\xa4\xa8\xe0\xa4\xbe_\xe0\xa4\x95\xe0\xa4\xbe,nA'
p5228
sS'chunkid'
p5229
S'VGNN'
p5230
sS'drel'
p5231
S'r6-k2:\xe0\xa4\xab\xe0\xa5\x88\xe0\xa4\xb8\xe0\xa4\xb2\xe0\xa4\xbe'
p5232
sS'vpos'
p5233
S'tam_2'
p5234
sS'chunktype'
p5235
S'head:VGNN'
p5236
ssbsg1722
I00
sg1725
I01
sg1736
Nsg1723
Nsg188
I12
sg174
I3
sg2013
I2
sg1734
Nsg2014
S'VM'
p5237
sg287
(issf_api
FeatureSet
p5238
(dp5239
g290
(dp5240
S'posn'
p5241
S'190'
p5242
sS'name'
p5243
S'\xe0\xa4\xb2\xe0\xa5\x87\xe0\xa4\xa8\xe0\xa5\x87'
p5244
sS'af'
p5245
S'\xe0\xa4\xb2\xe0\xa5\x87,v,any,any,any,o,\xe0\xa4\xa8\xe0\xa4\xbe,nA'
p5246
ssbsg1744
I00
sba(issf_api
Word
p5247
(dp5248
g1996
I00
sg1997
V\u0915\u093e
p5249
sg1999
(issf_api
FeatureSet
p5250
(dp5251
g290
(dp5252
S'posn'
p5253
S'200'
p5254
sS'name'
p5255
S'\xe0\xa4\x95\xe0\xa4\xbe'
p5256
sS'drel'
p5257
S'lwg__psp:\xe0\xa4\xb2\xe0\xa5\x87\xe0\xa4\xa8\xe0\xa5\x87'
p5258
sS'chunktype'
p5259
S'child:VGNN'
p5260
sS'af'
p5261
S'\xe0\xa4\x95\xe0\xa4\xbe,psp,m,sg,,d,,'
p5262
ssbsg1722
I00
sg1725
I01
sg1736
Nsg1723
Nsg188
I12
sg174
I3
sg2013
I2
sg1734
Nsg2014
S'PSP'
p5263
sg287
(issf_api
FeatureSet
p5264
(dp5265
g290
(dp5266
S'posn'
p5267
S'200'
p5268
sS'name'
p5269
S'\xe0\xa4\x95\xe0\xa4\xbe'
p5270
sS'af'
p5271
S'\xe0\xa4\x95\xe0\xa4\xbe,psp,m,sg,,d,,'
p5272
ssbsg1744
I00
sba(issf_api
Word
p5273
(dp5274
g1996
I00
sg1997
V\u092b\u0948\u0938\u0932\u093e
p5275
sg1999
(issf_api
FeatureSet
p5276
(dp5277
g290
(dp5278
S'posn'
p5279
S'210'
p5280
sS'name'
p5281
S'\xe0\xa4\xab\xe0\xa5\x88\xe0\xa4\xb8\xe0\xa4\xb2\xe0\xa4\xbe'
p5282
sS'af'
p5283
S'\xe0\xa4\xab\xe0\xa5\x88\xe0\xa4\xb8\xe0\xa4\xb2\xe0\xa4\xbe,n,m,sg,3,d,0,0'
p5284
sS'chunkid'
p5285
S'NP9'
p5286
sS'drel'
p5287
S'pof:\xe0\xa4\x95\xe0\xa4\xbf\xe0\xa4\xaf\xe0\xa4\xbe'
p5288
sS'chunktype'
p5289
S'head:NP9'
p5290
ssbsg1722
I00
sg1725
I01
sg1736
Nsg1723
Nsg188
I13
sg174
I3
sg2013
I2
sg1734
Nsg2014
S'NN'
p5291
sg287
(issf_api
FeatureSet
p5292
(dp5293
g290
(dp5294
S'posn'
p5295
S'210'
p5296
sS'name'
p5297
S'\xe0\xa4\xab\xe0\xa5\x88\xe0\xa4\xb8\xe0\xa4\xb2\xe0\xa4\xbe'
p5298
sS'af'
p5299
S'\xe0\xa4\xab\xe0\xa5\x88\xe0\xa4\xb8\xe0\xa4\xb2\xe0\xa4\xbe,n,m,sg,3,d,0,0'
p5300
ssbsg1744
I00
sba(issf_api
Word
p5301
(dp5302
g1996
I00
sg1997
V\u0915\u093f\u092f\u093e
p5303
sg1999
(issf_api
FeatureSet
p5304
(dp5305
g290
(dp5306
S'posn'
p5307
S'220'
p5308
sS'name'
p5309
S'\xe0\xa4\x95\xe0\xa4\xbf\xe0\xa4\xaf\xe0\xa4\xbe'
p5310
sS'af'
p5311
S'\xe0\xa4\x95\xe0\xa4\xb0,v,m,sg,3,,\xe0\xa4\xaf\xe0\xa4\xbe_\xe0\xa4\xb9\xe0\xa5\x88,yA'
p5312
sS'chunkid'
p5313
S'VGF2'
p5314
sS'stype'
p5315
S'declarative'
p5316
sS'drel'
p5317
S'ccof:\xe0\xa4\x95\xe0\xa4\xbf'
p5318
sS'voicetype'
p5319
S'active'
p5320
sS'vpos'
p5321
S'tam_2'
p5322
sS'chunktype'
p5323
S'head:VGF2'
p5324
ssbsg1722
I00
sg1725
I01
sg1736
Nsg1723
Nsg188
I14
sg174
I3
sg2013
I2
sg1734
Nsg2014
S'VM'
p5325
sg287
(issf_api
FeatureSet
p5326
(dp5327
g290
(dp5328
S'posn'
p5329
S'220'
p5330
sS'name'
p5331
S'\xe0\xa4\x95\xe0\xa4\xbf\xe0\xa4\xaf\xe0\xa4\xbe'
p5332
sS'af'
p5333
S'\xe0\xa4\x95\xe0\xa4\xb0,v,m,sg,any,,\xe0\xa4\xaf\xe0\xa4\xbe,yA'
p5334
ssbsg1744
I00
sba(issf_api
Word
p5335
(dp5336
g1996
I00
sg1997
V\u0939\u0948
p5337
sg1999
(issf_api
FeatureSet
p5338
(dp5339
g290
(dp5340
S'posn'
p5341
S'230'
p5342
sS'name'
p5343
S'\xe0\xa4\xb9\xe0\xa5\x88'
p5344
sS'drel'
p5345
S'lwg__vaux:\xe0\xa4\x95\xe0\xa4\xbf\xe0\xa4\xaf\xe0\xa4\xbe'
p5346
sS'chunktype'
p5347
S'child:VGF2'
p5348
sS'af'
p5349
S'\xe0\xa4\xb9\xe0\xa5\x88,v,any,sg,3,,\xe0\xa4\xb9\xe0\xa5\x88,hE'
p5350
ssbsg1722
I00
sg1725
I01
sg1736
Nsg1723
Nsg188
I14
sg174
I3
sg2013
I2
sg1734
Nsg2014
S'VAUX'
p5351
sg287
(issf_api
FeatureSet
p5352
(dp5353
g290
(dp5354
S'posn'
p5355
S'230'
p5356
sS'name'
p5357
S'\xe0\xa4\xb9\xe0\xa5\x88'
p5358
sS'af'
p5359
S'\xe0\xa4\xb9\xe0\xa5\x88,v,any,sg,3,,\xe0\xa4\xb9\xe0\xa5\x88,hE'
p5360
ssbsg1744
I00
sba(issf_api
Word
p5361
(dp5362
g1996
I00
sg1997
V\u0964
sg1999
(issf_api
FeatureSet
p5363
(dp5364
g290
(dp5365
S'posn'
p5366
S'240'
p5367
sS'name'
p5368
S'\xe0\xa5\xa4'
p5369
sS'af'
p5370
S'\xe0\xa5\xa4,punc,,,,,,'
p5371
sS'chunkid'
p5372
S'BLK'
p5373
sS'drel'
p5374
S'rsym:\xe0\xa4\x95\xe0\xa4\xb9\xe0\xa4\xbe'
p5375
sS'chunktype'
p5376
S'head:BLK'
p5377
ssbsg1722
I00
sg1725
I01
sg1736
Nsg1723
Nsg188
I15
sg174
I3
sg2013
I2
sg1734
Nsg2014
S'SYM'
p5378
sg287
(issf_api
FeatureSet
p5379
(dp5380
g290
(dp5381
S'posn'
p5382
S'240'
p5383
sS'name'
p5384
S'\xe0\xa5\xa4'
p5385
sS'af'
p5386
S'\xe0\xa5\xa4,punc,,,,,,'
p5387
ssbsg1744
I00
sba(issf_api
Word
p5388
(dp5389
g1996
I00
sg1997
V\u0909\u0928\u094d\u0939\u094b\u0902\u0928\u0947
p5390
sg1999
(issf_api
FeatureSet
p5391
(dp5392
g290
(dp5393
S'posn'
p5394
S'10'
p5395
sS'name'
p5396
S'\xe0\xa4\x89\xe0\xa4\xa8\xe0\xa5\x8d\xe0\xa4\xb9\xe0\xa5\x8b\xe0\xa4\x82\xe0\xa4\xa8\xe0\xa5\x87'
p5397
sS'af'
p5398
S'\xe0\xa4\xb5\xe0\xa4\xb9,pn,any,sg,3h,o,\xe0\xa4\xa8\xe0\xa5\x87,ne'
p5399
sS'chunkid'
p5400
S'NP'
p5401
sS'drel'
p5402
S'k1:\xe0\xa4\x95\xe0\xa4\xb9\xe0\xa4\xbe'
p5403
sS'chunktype'
p5404
S'head:NP'
p5405
ssbsg1722
I01
sg1725
I00
sg1736
Nsg1723
Nsg188
I0
sg174
I4
sg2013
I3
sg1734
Nsg2014
S'PRP'
p5406
sg287
(issf_api
FeatureSet
p5407
(dp5408
g290
(dp5409
S'posn'
p5410
S'10'
p5411
sS'name'
p5412
S'\xe0\xa4\x89\xe0\xa4\xa8\xe0\xa5\x8d\xe0\xa4\xb9\xe0\xa5\x8b\xe0\xa4\x82\xe0\xa4\xa8\xe0\xa5\x87'
p5413
sS'af'
p5414
S'\xe0\xa4\xb5\xe0\xa4\xb9,pn,any,sg,3h,o,\xe0\xa4\xa8\xe0\xa5\x87,ne'
p5415
ssbsg1744
I00
sba(issf_api
Word
p5416
(dp5417
g1996
I00
sg1997
V\u0915\u0939\u093e
p5418
sg1999
(issf_api
FeatureSet
p5419
(dp5420
g290
(dp5421
S'posn'
p5422
S'20'
p5423
sS'name'
p5424
S'\xe0\xa4\x95\xe0\xa4\xb9\xe0\xa4\xbe'
p5425
sS'af'
p5426
S'\xe0\xa4\x95\xe0\xa4\xb9,v,m,sg,any,,\xe0\xa4\xaf\xe0\xa4\xbe,yA'
p5427
sS'chunkid'
p5428
S'VGF'
p5429
sS'chunktype'
p5430
S'head:VGF'
p5431
sS'voicetype'
p5432
S'active'
p5433
sS'stype'
p5434
S'declarative'
p5435
ssbsg1722
I01
sg1725
I00
sg1736
Nsg1723
Nsg188
I1
sg174
I4
sg2013
I3
sg1734
Nsg2014
S'VM'
p5436
sg287
(issf_api
FeatureSet
p5437
(dp5438
g290
(dp5439
S'posn'
p5440
S'20'
p5441
sS'name'
p5442
S'\xe0\xa4\x95\xe0\xa4\xb9\xe0\xa4\xbe'
p5443
sS'af'
p5444
S'\xe0\xa4\x95\xe0\xa4\xb9,v,m,sg,any,,\xe0\xa4\xaf\xe0\xa4\xbe,yA'
p5445
ssbsg1744
I00
sba(issf_api
Word
p5446
(dp5447
g1996
I00
sg1997
V\u0915\u093f
p5448
sg1999
(issf_api
FeatureSet
p5449
(dp5450
g290
(dp5451
S'posn'
p5452
S'30'
p5453
sS'name'
p5454
S'\xe0\xa4\x95\xe0\xa4\xbf'
p5455
sS'af'
p5456
S'\xe0\xa4\x95\xe0\xa4\xbf,avy,,,,,,'
p5457
sS'chunkid'
p5458
S'CCP'
p5459
sS'drel'
p5460
S'k2:\xe0\xa4\x95\xe0\xa4\xb9\xe0\xa4\xbe'
p5461
sS'chunktype'
p5462
S'head:CCP'
p5463
ssbsg1722
I01
sg1725
I00
sg1736
Nsg1723
Nsg188
I2
sg174
I4
sg2013
I3
sg1734
Nsg2014
S'CC'
p5464
sg287
(issf_api
FeatureSet
p5465
(dp5466
g290
(dp5467
S'posn'
p5468
S'30'
p5469
sS'name'
p5470
S'\xe0\xa4\x95\xe0\xa4\xbf'
p5471
sS'af'
p5472
S'\xe0\xa4\x95\xe0\xa4\xbf,avy,,,,,,'
p5473
ssbsg1744
I00
sba(issf_api
Word
p5474
(dp5475
g1996
I00
sg1997
V\u0915\u093f\u0930\u093e\u092f\u093e
p5476
sg1999
(issf_api
FeatureSet
p5477
(dp5478
g290
(dp5479
S'posn'
p5480
S'40'
p5481
sS'name'
p5482
S'\xe0\xa4\x95\xe0\xa4\xbf\xe0\xa4\xb0\xe0\xa4\xbe\xe0\xa4\xaf\xe0\xa4\xbe'
p5483
sS'af'
p5484
S'\xe0\xa4\x95\xe0\xa4\xbf\xe0\xa4\xb0\xe0\xa4\xbe\xe0\xa4\xaf\xe0\xa4\xbe,n,m,sg,3,d,0,0'
p5485
sS'chunkid'
p5486
S'NP2'
p5487
sS'drel'
p5488
S'k2:\xe0\xa4\xac\xe0\xa5\x9d\xe0\xa4\xbe\xe0\xa4\x8f'
p5489
sS'chunktype'
p5490
S'head:NP2'
p5491
ssbsg1722
I01
sg1725
I00
sg1736
Nsg1723
Nsg188
I3
sg174
I4
sg2013
I3
sg1734
Nsg2014
S'NN'
p5492
sg287
(issf_api
FeatureSet
p5493
(dp5494
g290
(dp5495
S'posn'
p5496
S'40'
p5497
sS'name'
p5498
S'\xe0\xa4\x95\xe0\xa4\xbf\xe0\xa4\xb0\xe0\xa4\xbe\xe0\xa4\xaf\xe0\xa4\xbe'
p5499
sS'af'
p5500
S'\xe0\xa4\x95\xe0\xa4\xbf\xe0\xa4\xb0\xe0\xa4\xbe\xe0\xa4\xaf\xe0\xa4\xbe,n,m,sg,3,d,0,0'
p5501
ssbsg1744
I00
sba(issf_api
Word
p5502
(dp5503
g1996
I00
sg1997
V\u092c\u095d\u093e\u090f
p5504
sg1999
(issf_api
FeatureSet
p5505
(dp5506
g290
(dp5507
S'posn'
p5508
S'50'
p5509
sS'name'
p5510
S'\xe0\xa4\xac\xe0\xa5\x9d\xe0\xa4\xbe\xe0\xa4\x8f'
p5511
sS'af'
p5512
S'\xe0\xa4\xac\xe0\xa5\x9d\xe0\xa4\xbe,v,any,sg,any,,\xe0\xa4\xaf\xe0\xa4\xbe_\xe0\xa4\x9c\xe0\xa4\xbe+\xe0\xa4\xa8\xe0\xa4\xbe_\xe0\xa4\x95\xe0\xa4\xbe,yA'
p5513
sS'chunkid'
p5514
S'VGNN'
p5515
sS'drel'
p5516
S'r6:\xe0\xa4\xab\xe0\xa5\x88\xe0\xa4\xb8\xe0\xa4\xb2\xe0\xa5\x87'
p5517
sS'vpos'
p5518
S'tam_2_3'
p5519
sS'chunktype'
p5520
S'head:VGNN'
p5521
ssbsg1722
I01
sg1725
I00
sg1736
Nsg1723
Nsg188
I4
sg174
I4
sg2013
I3
sg1734
Nsg2014
S'VM'
p5522
sg287
(issf_api
FeatureSet
p5523
(dp5524
g290
(dp5525
S'posn'
p5526
S'50'
p5527
sS'name'
p5528
S'\xe0\xa4\xac\xe0\xa5\x9d\xe0\xa4\xbe\xe0\xa4\x8f'
p5529
sS'af'
p5530
S'\xe0\xa4\xac\xe0\xa5\x9d\xe0\xa4\xbe,v,m,sg,any,,\xe0\xa4\xaf\xe0\xa4\xbe,yA'
p5531
ssbsg1744
I00
sba(issf_api
Word
p5532
(dp5533
g1996
I00
sg1997
V\u091c\u093e\u0928\u0947
p5534
sg1999
(issf_api
FeatureSet
p5535
(dp5536
g290
(dp5537
S'posn'
p5538
S'60'
p5539
sS'name'
p5540
S'\xe0\xa4\x9c\xe0\xa4\xbe\xe0\xa4\xa8\xe0\xa5\x87'
p5541
sS'drel'
p5542
S'lwg__vaux:\xe0\xa4\xac\xe0\xa5\x9d\xe0\xa4\xbe\xe0\xa4\x8f'
p5543
sS'chunktype'
p5544
S'child:VGNN'
p5545
sS'af'
p5546
S'\xe0\xa4\x9c\xe0\xa4\xbe,v,any,any,any,o,\xe0\xa4\xa8\xe0\xa4\xbe,nA'
p5547
ssbsg1722
I01
sg1725
I00
sg1736
Nsg1723
Nsg188
I4
sg174
I4
sg2013
I3
sg1734
Nsg2014
S'VAUX'
p5548
sg287
(issf_api
FeatureSet
p5549
(dp5550
g290
(dp5551
S'posn'
p5552
S'60'
p5553
sS'name'
p5554
S'\xe0\xa4\x9c\xe0\xa4\xbe\xe0\xa4\xa8\xe0\xa5\x87'
p5555
sS'af'
p5556
S'\xe0\xa4\x9c\xe0\xa4\xbe,v,any,any,any,o,\xe0\xa4\xa8\xe0\xa4\xbe,nA'
p5557
ssbsg1744
I00
sba(issf_api
Word
p5558
(dp5559
g1996
I00
sg1997
V\u0915\u0947
p5560
sg1999
(issf_api
FeatureSet
p5561
(dp5562
g290
(dp5563
S'posn'
p5564
S'70'
p5565
sS'name'
p5566
S'\xe0\xa4\x95\xe0\xa5\x87'
p5567
sS'drel'
p5568
S'lwg__psp:\xe0\xa4\xac\xe0\xa5\x9d\xe0\xa4\xbe\xe0\xa4\x8f'
p5569
sS'chunktype'
p5570
S'child:VGNN'
p5571
sS'af'
p5572
S'\xe0\xa4\x95\xe0\xa4\xbe,psp,m,sg,,o,,'
p5573
ssbsg1722
I01
sg1725
I00
sg1736
Nsg1723
Nsg188
I4
sg174
I4
sg2013
I3
sg1734
Nsg2014
S'PSP'
p5574
sg287
(issf_api
FeatureSet
p5575
(dp5576
g290
(dp5577
S'posn'
p5578
S'70'
p5579
sS'name'
p5580
S'\xe0\xa4\x95\xe0\xa5\x87'
p5581
sS'af'
p5582
S'\xe0\xa4\x95\xe0\xa4\xbe,psp,m,sg,,o,,'
p5583
ssbsg1744
I00
sba(issf_api
Word
p5584
(dp5585
g1996
I00
sg1997
V\u092b\u0948\u0938\u0932\u0947
p5586
sg1999
(issf_api
FeatureSet
p5587
(dp5588
g290
(dp5589
S'posn'
p5590
S'80'
p5591
sS'name'
p5592
S'\xe0\xa4\xab\xe0\xa5\x88\xe0\xa4\xb8\xe0\xa4\xb2\xe0\xa5\x87'
p5593
sS'af'
p5594
S'\xe0\xa4\xab\xe0\xa5\x88\xe0\xa4\xb8\xe0\xa4\xb2\xe0\xa4\xbe,n,m,sg,3,o,0_\xe0\xa4\xaa\xe0\xa4\xb0,0'
p5595
sS'chunkid'
p5596
S'NP3'
p5597
sS'drel'
p5598
S'k7:\xe0\xa4\xb9\xe0\xa5\x8b'
p5599
sS'vpos'
p5600
S'vib_2'
p5601
sS'chunktype'
p5602
S'head:NP3'
p5603
ssbsg1722
I01
sg1725
I00
sg1736
Nsg1723
Nsg188
I5
sg174
I4
sg2013
I3
sg1734
Nsg2014
S'NN'
p5604
sg287
(issf_api
FeatureSet
p5605
(dp5606
g290
(dp5607
S'posn'
p5608
S'80'
p5609
sS'name'
p5610
S'\xe0\xa4\xab\xe0\xa5\x88\xe0\xa4\xb8\xe0\xa4\xb2\xe0\xa5\x87'
p5611
sS'af'
p5612
S'\xe0\xa4\xab\xe0\xa5\x88\xe0\xa4\xb8\xe0\xa4\xb2\xe0\xa4\xbe,n,m,sg,3,o,0,0'
p5613
ssbsg1744
I00
sba(issf_api
Word
p5614
(dp5615
g1996
I00
sg1997
V\u092a\u0930
p5616
sg1999
(issf_api
FeatureSet
p5617
(dp5618
g290
(dp5619
S'posn'
p5620
S'90'
p5621
sS'name'
p5622
S'\xe0\xa4\xaa\xe0\xa4\xb0'
p5623
sS'drel'
p5624
S'lwg__psp:\xe0\xa4\xab\xe0\xa5\x88\xe0\xa4\xb8\xe0\xa4\xb2\xe0\xa5\x87'
p5625
sS'chunktype'
p5626
S'child:NP3'
p5627
sS'af'
p5628
S'\xe0\xa4\xaa\xe0\xa4\xb0,psp,,,,,,'
p5629
ssbsg1722
I01
sg1725
I00
sg1736
Nsg1723
Nsg188
I5
sg174
I4
sg2013
I3
sg1734
Nsg2014
S'PSP'
p5630
sg287
(issf_api
FeatureSet
p5631
(dp5632
g290
(dp5633
S'posn'
p5634
S'90'
p5635
sS'name'
p5636
S'\xe0\xa4\xaa\xe0\xa4\xb0'
p5637
sS'af'
p5638
S'\xe0\xa4\xaa\xe0\xa4\xb0,psp,,,,,,'
p5639
ssbsg1744
I00
sba(issf_api
Word
p5640
(dp5641
g1996
I00
sg1997
V\u0930\u093e\u091c\u0928\u0940\u0924\u093f\u0915
p5642
sg1999
(issf_api
FeatureSet
p5643
(dp5644
g290
(dp5645
S'posn'
p5646
S'100'
p5647
sS'name'
p5648
S'\xe0\xa4\xb0\xe0\xa4\xbe\xe0\xa4\x9c\xe0\xa4\xa8\xe0\xa5\x80\xe0\xa4\xa4\xe0\xa4\xbf\xe0\xa4\x95'
p5649
sS'af'
p5650
S'\xe0\xa4\xb0\xe0\xa4\xbe\xe0\xa4\x9c\xe0\xa4\xa8\xe0\xa5\x80\xe0\xa4\xa4\xe0\xa4\xbf\xe0\xa4\x95,adj,any,any,,o,,'
p5651
sS'chunkid'
p5652
S'JJP'
p5653
sS'drel'
p5654
S'ccof:\xe0\xa4\x94\xe0\xa4\xb0'
p5655
sS'chunktype'
p5656
S'head:JJP'
p5657
ssbsg1722
I01
sg1725
I00
sg1736
Nsg1723
Nsg188
I6
sg174
I4
sg2013
I3
sg1734
Nsg2014
S'JJ'
p5658
sg287
(issf_api
FeatureSet
p5659
(dp5660
g290
(dp5661
S'posn'
p5662
S'100'
p5663
sS'name'
p5664
S'\xe0\xa4\xb0\xe0\xa4\xbe\xe0\xa4\x9c\xe0\xa4\xa8\xe0\xa5\x80\xe0\xa4\xa4\xe0\xa4\xbf\xe0\xa4\x95'
p5665
sS'af'
p5666
S'\xe0\xa4\xb0\xe0\xa4\xbe\xe0\xa4\x9c\xe0\xa4\xa8\xe0\xa5\x80\xe0\xa4\xa4\xe0\xa4\xbf\xe0\xa4\x95,adj,any,any,,o,,'
p5667
ssbsg1744
I00
sba(issf_api
Word
p5668
(dp5669
g1996
I00
sg1997
V\u0914\u0930
p5670
sg1999
(issf_api
FeatureSet
p5671
(dp5672
g290
(dp5673
S'posn'
p5674
S'110'
p5675
sS'name'
p5676
S'\xe0\xa4\x94\xe0\xa4\xb0'
p5677
sS'af'
p5678
S'\xe0\xa4\x94\xe0\xa4\xb0,avy,,,,,,'
p5679
sS'chunkid'
p5680
S'CCP2'
p5681
sS'drel'
p5682
S'nmod:\xe0\xa4\x95\xe0\xa4\xbe\xe0\xa4\xb0\xe0\xa4\xa3\xe0\xa5\x8b\xe0\xa4\x82'
p5683
sS'chunktype'
p5684
S'head:CCP2'
p5685
ssbsg1722
I01
sg1725
I00
sg1736
Nsg1723
Nsg188
I7
sg174
I4
sg2013
I3
sg1734
Nsg2014
S'CC'
p5686
sg287
(issf_api
FeatureSet
p5687
(dp5688
g290
(dp5689
S'posn'
p5690
S'110'
p5691
sS'name'
p5692
S'\xe0\xa4\x94\xe0\xa4\xb0'
p5693
sS'af'
p5694
S'\xe0\xa4\x94\xe0\xa4\xb0,avy,,,,,,'
p5695
ssbsg1744
I00
sba(issf_api
Word
p5696
(dp5697
g1996
I00
sg1997
V\u0924\u0915\u0928\u0940\u0915\u0940
p5698
sg1999
(issf_api
FeatureSet
p5699
(dp5700
g290
(dp5701
S'posn'
p5702
S'120'
p5703
sS'name'
p5704
S'\xe0\xa4\xa4\xe0\xa4\x95\xe0\xa4\xa8\xe0\xa5\x80\xe0\xa4\x95\xe0\xa5\x80'
p5705
sS'af'
p5706
S'\xe0\xa4\xa4\xe0\xa4\x95\xe0\xa4\xa8\xe0\xa5\x80\xe0\xa4\x95\xe0\xa5\x80,adj,any,any,,o,,'
p5707
sS'chunkid'
p5708
S'JJP2'
p5709
sS'drel'
p5710
S'ccof:\xe0\xa4\x94\xe0\xa4\xb0'
p5711
sS'chunktype'
p5712
S'head:JJP2'
p5713
ssbsg1722
I01
sg1725
I00
sg1736
Nsg1723
Nsg188
I8
sg174
I4
sg2013
I3
sg1734
Nsg2014
S'JJ'
p5714
sg287
(issf_api
FeatureSet
p5715
(dp5716
g290
(dp5717
S'posn'
p5718
S'120'
p5719
sS'name'
p5720
S'\xe0\xa4\xa4\xe0\xa4\x95\xe0\xa4\xa8\xe0\xa5\x80\xe0\xa4\x95\xe0\xa5\x80'
p5721
sS'af'
p5722
S'\xe0\xa4\xa4\xe0\xa4\x95\xe0\xa4\xa8\xe0\xa5\x80\xe0\xa4\x95\xe0\xa5\x80,adj,any,any,,o,,'
p5723
ssbsg1744
I00
sba(issf_api
Word
p5724
(dp5725
g1996
I00
sg1997
V\u0915\u093e\u0930\u0923\u094b\u0902
p5726
sg1999
(issf_api
FeatureSet
p5727
(dp5728
g290
(dp5729
S'posn'
p5730
S'130'
p5731
sS'name'
p5732
S'\xe0\xa4\x95\xe0\xa4\xbe\xe0\xa4\xb0\xe0\xa4\xa3\xe0\xa5\x8b\xe0\xa4\x82'
p5733
sS'af'
p5734
S'\xe0\xa4\x95\xe0\xa4\xbe\xe0\xa4\xb0\xe0\xa4\xa3,n,m,pl,3,o,0_\xe0\xa4\x95\xe0\xa5\x80_\xe0\xa4\xb5\xe0\xa4\x9c\xe0\xa4\xb9_\xe0\xa4\xb8\xe0\xa5\x87,0'
p5735
sS'chunkid'
p5736
S'NP4'
p5737
sS'drel'
p5738
S'rh:\xe0\xa4\xb9\xe0\xa5\x8b'
p5739
sS'vpos'
p5740
S'vib_2_3_4'
p5741
sS'chunktype'
p5742
S'head:NP4'
p5743
ssbsg1722
I01
sg1725
I00
sg1736
Nsg1723
Nsg188
I9
sg174
I4
sg2013
I3
sg1734
Nsg2014
S'NN'
p5744
sg287
(issf_api
FeatureSet
p5745
(dp5746
g290
(dp5747
S'posn'
p5748
S'130'
p5749
sS'name'
p5750
S'\xe0\xa4\x95\xe0\xa4\xbe\xe0\xa4\xb0\xe0\xa4\xa3\xe0\xa5\x8b\xe0\xa4\x82'
p5751
sS'af'
p5752
S'\xe0\xa4\x95\xe0\xa4\xbe\xe0\xa4\xb0\xe0\xa4\xa3,n,m,pl,3,o,0,0'
p5753
ssbsg1744
I00
sba(issf_api
Word
p5754
(dp5755
g1996
I00
sg1997
V\u0915\u0940
p5756
sg1999
(issf_api
FeatureSet
p5757
(dp5758
g290
(dp5759
S'posn'
p5760
S'140'
p5761
sS'name'
p5762
S'\xe0\xa4\x95\xe0\xa5\x80'
p5763
sS'drel'
p5764
S'lwg__psp:\xe0\xa4\x95\xe0\xa4\xbe\xe0\xa4\xb0\xe0\xa4\xa3\xe0\xa5\x8b\xe0\xa4\x82'
p5765
sS'chunktype'
p5766
S'child:NP4'
p5767
sS'af'
p5768
S'\xe0\xa4\x95\xe0\xa5\x80,psp,f,,,o,,'
p5769
ssbsg1722
I01
sg1725
I00
sg1736
Nsg1723
Nsg188
I9
sg174
I4
sg2013
I3
sg1734
Nsg2014
S'PSP'
p5770
sg287
(issf_api
FeatureSet
p5771
(dp5772
g290
(dp5773
S'posn'
p5774
S'140'
p5775
sS'name'
p5776
S'\xe0\xa4\x95\xe0\xa5\x80'
p5777
sS'af'
p5778
S'\xe0\xa4\x95\xe0\xa5\x80,psp,f,,,o,,'
p5779
ssbsg1744
I00
sba(issf_api
Word
p5780
(dp5781
g1996
I00
sg1997
V\u0935\u091c\u0939
p5782
sg1999
(issf_api
FeatureSet
p5783
(dp5784
g290
(dp5785
S'posn'
p5786
S'150'
p5787
sS'name'
p5788
S'\xe0\xa4\xb5\xe0\xa4\x9c\xe0\xa4\xb9'
p5789
sS'drel'
p5790
S'lwg__psp:\xe0\xa4\x95\xe0\xa4\xbe\xe0\xa4\xb0\xe0\xa4\xa3\xe0\xa5\x8b\xe0\xa4\x82'
p5791
sS'chunktype'
p5792
S'child:NP4'
p5793
sS'af'
p5794
S'\xe0\xa4\xb5\xe0\xa4\x9c\xe0\xa4\xb9,n,f,,,o,,'
p5795
ssbsg1722
I01
sg1725
I00
sg1736
Nsg1723
Nsg188
I9
sg174
I4
sg2013
I3
sg1734
Nsg2014
S'PSP'
p5796
sg287
(issf_api
FeatureSet
p5797
(dp5798
g290
(dp5799
S'posn'
p5800
S'150'
p5801
sS'name'
p5802
S'\xe0\xa4\xb5\xe0\xa4\x9c\xe0\xa4\xb9'
p5803
sS'af'
p5804
S'\xe0\xa4\xb5\xe0\xa4\x9c\xe0\xa4\xb9,n,f,,,o,,'
p5805
ssbsg1744
I00
sba(issf_api
Word
p5806
(dp5807
g1996
I00
sg1997
V\u0938\u0947
p5808
sg1999
(issf_api
FeatureSet
p5809
(dp5810
g290
(dp5811
S'posn'
p5812
S'160'
p5813
sS'name'
p5814
S'\xe0\xa4\xb8\xe0\xa5\x87'
p5815
sS'drel'
p5816
S'lwg__psp:\xe0\xa4\x95\xe0\xa4\xbe\xe0\xa4\xb0\xe0\xa4\xa3\xe0\xa5\x8b\xe0\xa4\x82'
p5817
sS'chunktype'
p5818
S'child:NP4'
p5819
sS'af'
p5820
S'\xe0\xa4\xb8\xe0\xa5\x87,psp,,,,,,'
p5821
ssbsg1722
I01
sg1725
I00
sg1736
Nsg1723
Nsg188
I9
sg174
I4
sg2013
I3
sg1734
Nsg2014
S'PSP'
p5822
sg287
(issf_api
FeatureSet
p5823
(dp5824
g290
(dp5825
S'posn'
p5826
S'160'
p5827
sS'name'
p5828
S'\xe0\xa4\xb8\xe0\xa5\x87'
p5829
sS'af'
p5830
S'\xe0\xa4\xb8\xe0\xa5\x87,psp,,,,,,'
p5831
ssbsg1744
I00
sba(issf_api
Word
p5832
(dp5833
g1996
I00
sg1997
V\u0926\u0947\u0930\u0940
p5834
sg1999
(issf_api
FeatureSet
p5835
(dp5836
g290
(dp5837
S'posn'
p5838
S'170'
p5839
sS'name'
p5840
S'\xe0\xa4\xa6\xe0\xa5\x87\xe0\xa4\xb0\xe0\xa5\x80'
p5841
sS'af'
p5842
S'\xe0\xa4\xa6\xe0\xa5\x87\xe0\xa4\xb0\xe0\xa5\x80,n,f,sg,3,d,0,0'
p5843
sS'chunkid'
p5844
S'NP5'
p5845
sS'drel'
p5846
S'pof:\xe0\xa4\xb9\xe0\xa5\x8b'
p5847
sS'chunktype'
p5848
S'head:NP5'
p5849
ssbsg1722
I01
sg1725
I00
sg1736
Nsg1723
Nsg188
I10
sg174
I4
sg2013
I3
sg1734
Nsg2014
S'NN'
p5850
sg287
(issf_api
FeatureSet
p5851
(dp5852
g290
(dp5853
S'posn'
p5854
S'170'
p5855
sS'name'
p5856
S'\xe0\xa4\xa6\xe0\xa5\x87\xe0\xa4\xb0\xe0\xa5\x80'
p5857
sS'af'
p5858
S'\xe0\xa4\xa6\xe0\xa5\x87\xe0\xa4\xb0\xe0\xa5\x80,n,f,sg,3,d,0,0'
p5859
ssbsg1744
I00
sba(issf_api
Word
p5860
(dp5861
g1996
I00
sg1997
V\u0939\u094b
p5862
sg1999
(issf_api
FeatureSet
p5863
(dp5864
g290
(dp5865
S'posn'
p5866
S'180'
p5867
sS'name'
p5868
S'\xe0\xa4\xb9\xe0\xa5\x8b'
p5869
sS'af'
p5870
S'\xe0\xa4\xb9\xe0\xa5\x8b,v,f,sg,3,,0_\xe0\xa4\xb0\xe0\xa4\xb9+\xe0\xa4\xaf\xe0\xa4\xbe_\xe0\xa4\xb9\xe0\xa5\x88,0'
p5871
sS'chunkid'
p5872
S'VGF2'
p5873
sS'stype'
p5874
S'declarative'
p5875
sS'drel'
p5876
S'ccof:\xe0\xa4\x95\xe0\xa4\xbf'
p5877
sS'voicetype'
p5878
S'active'
p5879
sS'vpos'
p5880
S'tam_2_3'
p5881
sS'chunktype'
p5882
S'head:VGF2'
p5883
ssbsg1722
I01
sg1725
I00
sg1736
Nsg1723
Nsg188
I11
sg174
I4
sg2013
I3
sg1734
Nsg2014
S'VM'
p5884
sg287
(issf_api
FeatureSet
p5885
(dp5886
g290
(dp5887
S'posn'
p5888
S'180'
p5889
sS'name'
p5890
S'\xe0\xa4\xb9\xe0\xa5\x8b'
p5891
sS'af'
p5892
S'\xe0\xa4\xb9\xe0\xa5\x8b,v,any,any,any,,0,0'
p5893
ssbsg1744
I00
sba(issf_api
Word
p5894
(dp5895
g1996
I00
sg1997
V\u0930\u0939\u0940
p5896
sg1999
(issf_api
FeatureSet
p5897
(dp5898
g290
(dp5899
S'posn'
p5900
S'190'
p5901
sS'name'
p5902
S'\xe0\xa4\xb0\xe0\xa4\xb9\xe0\xa5\x80'
p5903
sS'drel'
p5904
S'lwg__vaux:\xe0\xa4\xb9\xe0\xa5\x8b'
p5905
sS'chunktype'
p5906
S'child:VGF2'
p5907
sS'af'
p5908
S'\xe0\xa4\xb0\xe0\xa4\xb9,v,f,sg,any,,\xe0\xa4\xaf\xe0\xa4\xbe,yA'
p5909
ssbsg1722
I01
sg1725
I00
sg1736
Nsg1723
Nsg188
I11
sg174
I4
sg2013
I3
sg1734
Nsg2014
S'VAUX'
p5910
sg287
(issf_api
FeatureSet
p5911
(dp5912
g290
(dp5913
S'posn'
p5914
S'190'
p5915
sS'name'
p5916
S'\xe0\xa4\xb0\xe0\xa4\xb9\xe0\xa5\x80'
p5917
sS'af'
p5918
S'\xe0\xa4\xb0\xe0\xa4\xb9,v,f,sg,any,,\xe0\xa4\xaf\xe0\xa4\xbe,yA'
p5919
ssbsg1744
I00
sba(issf_api
Word
p5920
(dp5921
g1996
I00
sg1997
V\u0939\u0948
p5922
sg1999
(issf_api
FeatureSet
p5923
(dp5924
g290
(dp5925
S'posn'
p5926
S'200'
p5927
sS'name'
p5928
S'\xe0\xa4\xb9\xe0\xa5\x88'
p5929
sS'drel'
p5930
S'lwg__vaux:\xe0\xa4\xb9\xe0\xa5\x8b'
p5931
sS'chunktype'
p5932
S'child:VGF2'
p5933
sS'af'
p5934
S'\xe0\xa4\xb9\xe0\xa5\x88,v,any,sg,3,,\xe0\xa4\xb9\xe0\xa5\x88,hE'
p5935
ssbsg1722
I01
sg1725
I00
sg1736
Nsg1723
Nsg188
I11
sg174
I4
sg2013
I3
sg1734
Nsg2014
S'VAUX'
p5936
sg287
(issf_api
FeatureSet
p5937
(dp5938
g290
(dp5939
S'posn'
p5940
S'200'
p5941
sS'name'
p5942
S'\xe0\xa4\xb9\xe0\xa5\x88'
p5943
sS'af'
p5944
S'\xe0\xa4\xb9\xe0\xa5\x88,v,any,sg,3,,\xe0\xa4\xb9\xe0\xa5\x88,hE'
p5945
ssbsg1744
I00
sba(issf_api
Word
p5946
(dp5947
g1996
I00
sg1997
V\u0964
sg1999
(issf_api
FeatureSet
p5948
(dp5949
g290
(dp5950
S'posn'
p5951
S'210'
p5952
sS'name'
p5953
S'\xe0\xa5\xa4'
p5954
sS'af'
p5955
S'\xe0\xa5\xa4,punc,,,,,,'
p5956
sS'chunkid'
p5957
S'BLK'
p5958
sS'drel'
p5959
S'rsym:\xe0\xa4\x95\xe0\xa4\xb9\xe0\xa4\xbe'
p5960
sS'chunktype'
p5961
S'head:BLK'
p5962
ssbsg1722
I01
sg1725
I00
sg1736
Nsg1723
Nsg188
I12
sg174
I4
sg2013
I3
sg1734
Nsg2014
S'SYM'
p5963
sg287
(issf_api
FeatureSet
p5964
(dp5965
g290
(dp5966
S'posn'
p5967
S'210'
p5968
sS'name'
p5969
S'\xe0\xa5\xa4'
p5970
sS'af'
p5971
S'\xe0\xa5\xa4,punc,,,,,,'
p5972
ssbsg1744
I00
sba(issf_api
Word
p5973
(dp5974
g1996
I00
sg1997
V\u0939\u093e\u0932\u093e\u0902\u0915\u093f
p5975
sg1999
(issf_api
FeatureSet
p5976
(dp5977
g290
(dp5978
S'posn'
p5979
S'10'
p5980
sS'chunkid'
p5981
S'CCP'
p5982
sS'name'
p5983
S'\xe0\xa4\xb9\xe0\xa4\xbe\xe0\xa4\xb2\xe0\xa4\xbe\xe0\xa4\x82\xe0\xa4\x95\xe0\xa4\xbf'
p5984
sS'chunktype'
p5985
S'head:CCP'
p5986
sS'af'
p5987
S'\xe0\xa4\xb9\xe0\xa4\xbe\xe0\xa4\xb2\xe0\xa4\xbe\xe0\xa4\x82\xe0\xa4\x95\xe0\xa4\xbf,avy,,,,,,'
p5988
ssbsg1722
I00
sg1725
I00
sg1736
g1819
sg1723
(lp5989
I123
aI124
aI125
aI126
aI127
aI128
aI129
aI130
aI131
aI132
aI133
aI134
aI135
aI136
aI137
aI138
aI139
aI140
aI141
aI142
aI143
asg188
I0
sg174
I5
sg2013
I3
sg1734
(lp5990
I145
aI146
aI147
aI148
aI149
aI150
aI151
aI152
aI153
aI154
aI155
aI156
aI157
aI158
aI159
aI160
aI161
aI162
asg2014
S'CC'
p5991
sg287
(issf_api
FeatureSet
p5992
(dp5993
g290
(dp5994
S'posn'
p5995
S'10'
p5996
sS'name'
p5997
S'\xe0\xa4\xb9\xe0\xa4\xbe\xe0\xa4\xb2\xe0\xa4\xbe\xe0\xa4\x82\xe0\xa4\x95\xe0\xa4\xbf'
p5998
sS'af'
p5999
S'\xe0\xa4\xb9\xe0\xa4\xbe\xe0\xa4\xb2\xe0\xa4\xbe\xe0\xa4\x82\xe0\xa4\x95\xe0\xa4\xbf,avy,,,,,,'
p6000
ssbsg1744
I01
sba(issf_api
Word
p6001
(dp6002
g1996
I00
sg1997
V\u0909\u0928\u094d\u0939\u094b\u0902\u0928\u0947
p6003
sg1999
(issf_api
FeatureSet
p6004
(dp6005
g290
(dp6006
S'posn'
p6007
S'20'
p6008
sS'name'
p6009
S'\xe0\xa4\x89\xe0\xa4\xa8\xe0\xa5\x8d\xe0\xa4\xb9\xe0\xa5\x8b\xe0\xa4\x82\xe0\xa4\xa8\xe0\xa5\x87'
p6010
sS'af'
p6011
S'\xe0\xa4\xb5\xe0\xa4\xb9,pn,any,sg,3h,o,\xe0\xa4\xa8\xe0\xa5\x87,ne'
p6012
sS'chunkid'
p6013
S'NP'
p6014
sS'drel'
p6015
S'k1:\xe0\xa4\x9c\xe0\xa4\xa4\xe0\xa4\xbe\xe0\xa4\x88'
p6016
sS'chunktype'
p6017
S'head:NP'
p6018
ssbsg1722
I00
sg1725
I01
sg1736
Nsg1723
Nsg188
I1
sg174
I5
sg2013
I3
sg1734
Nsg2014
S'PRP'
p6019
sg287
(issf_api
FeatureSet
p6020
(dp6021
g290
(dp6022
S'posn'
p6023
S'20'
p6024
sS'name'
p6025
S'\xe0\xa4\x89\xe0\xa4\xa8\xe0\xa5\x8d\xe0\xa4\xb9\xe0\xa5\x8b\xe0\xa4\x82\xe0\xa4\xa8\xe0\xa5\x87'
p6026
sS'af'
p6027
S'\xe0\xa4\xb5\xe0\xa4\xb9,pn,any,sg,3h,o,\xe0\xa4\xa8\xe0\xa5\x87,ne'
p6028
ssbsg1744
I00
sba(issf_api
Word
p6029
(dp6030
g1996
I00
sg1997
V\u0909\u092e\u094d\u092e\u0940\u0926
p6031
sg1999
(issf_api
FeatureSet
p6032
(dp6033
g290
(dp6034
S'posn'
p6035
S'30'
p6036
sS'name'
p6037
S'\xe0\xa4\x89\xe0\xa4\xae\xe0\xa5\x8d\xe0\xa4\xae\xe0\xa5\x80\xe0\xa4\xa6'
p6038
sS'af'
p6039
S'\xe0\xa4\x89\xe0\xa4\xae\xe0\xa5\x8d\xe0\xa4\xae\xe0\xa5\x80\xe0\xa4\xa6,n,f,sg,3,d,0,0'
p6040
sS'chunkid'
p6041
S'NP2'
p6042
sS'drel'
p6043
S'pof:\xe0\xa4\x9c\xe0\xa4\xa4\xe0\xa4\xbe\xe0\xa4\x88'
p6044
sS'chunktype'
p6045
S'head:NP2'
p6046
ssbsg1722
I00
sg1725
I01
sg1736
Nsg1723
Nsg188
I2
sg174
I5
sg2013
I3
sg1734
Nsg2014
S'NN'
p6047
sg287
(issf_api
FeatureSet
p6048
(dp6049
g290
(dp6050
S'posn'
p6051
S'30'
p6052
sS'name'
p6053
S'\xe0\xa4\x89\xe0\xa4\xae\xe0\xa5\x8d\xe0\xa4\xae\xe0\xa5\x80\xe0\xa4\xa6'
p6054
sS'af'
p6055
S'\xe0\xa4\x89\xe0\xa4\xae\xe0\xa5\x8d\xe0\xa4\xae\xe0\xa5\x80\xe0\xa4\xa6,n,f,sg,3,d,0,0'
p6056
ssbsg1744
I00
sba(issf_api
Word
p6057
(dp6058
g1996
I00
sg1997
V\u091c\u0924\u093e\u0908
p6059
sg1999
(issf_api
FeatureSet
p6060
(dp6061
g290
(dp6062
S'posn'
p6063
S'40'
p6064
sS'name'
p6065
S'\xe0\xa4\x9c\xe0\xa4\xa4\xe0\xa4\xbe\xe0\xa4\x88'
p6066
sS'af'
p6067
S'\xe0\xa4\x9c\xe0\xa4\xa4\xe0\xa4\xbe,v,f,sg,any,,\xe0\xa4\xaf\xe0\xa4\xbe,yA'
p6068
sS'chunkid'
p6069
S'VGF'
p6070
sS'stype'
p6071
S'declarative'
p6072
sS'drel'
p6073
S'ccof:\xe0\xa4\xb9\xe0\xa4\xbe\xe0\xa4\xb2\xe0\xa4\xbe\xe0\xa4\x82\xe0\xa4\x95\xe0\xa4\xbf'
p6074
sS'voicetype'
p6075
S'active'
p6076
sS'chunktype'
p6077
S'head:VGF'
p6078
ssbsg1722
I00
sg1725
I01
sg1736
Nsg1723
Nsg188
I3
sg174
I5
sg2013
I3
sg1734
Nsg2014
S'VM'
p6079
sg287
(issf_api
FeatureSet
p6080
(dp6081
g290
(dp6082
S'posn'
p6083
S'40'
p6084
sS'name'
p6085
S'\xe0\xa4\x9c\xe0\xa4\xa4\xe0\xa4\xbe\xe0\xa4\x88'
p6086
sS'af'
p6087
S'\xe0\xa4\x9c\xe0\xa4\xa4\xe0\xa4\xbe,v,f,sg,any,,\xe0\xa4\xaf\xe0\xa4\xbe,yA'
p6088
ssbsg1744
I00
sba(issf_api
Word
p6089
(dp6090
g1996
I00
sg1997
V\u0915\u093f
p6091
sg1999
(issf_api
FeatureSet
p6092
(dp6093
g290
(dp6094
S'posn'
p6095
S'50'
p6096
sS'name'
p6097
S'\xe0\xa4\x95\xe0\xa4\xbf'
p6098
sS'af'
p6099
S'\xe0\xa4\x95\xe0\xa4\xbf,avy,,,,,,'
p6100
sS'chunkid'
p6101
S'CCP2'
p6102
sS'drel'
p6103
S'k2:\xe0\xa4\x9c\xe0\xa4\xa4\xe0\xa4\xbe\xe0\xa4\x88'
p6104
sS'chunktype'
p6105
S'head:CCP2'
p6106
ssbsg1722
I00
sg1725
I01
sg1736
Nsg1723
Nsg188
I4
sg174
I5
sg2013
I3
sg1734
Nsg2014
S'CC'
p6107
sg287
(issf_api
FeatureSet
p6108
(dp6109
g290
(dp6110
S'posn'
p6111
S'50'
p6112
sS'name'
p6113
S'\xe0\xa4\x95\xe0\xa4\xbf'
p6114
sS'af'
p6115
S'\xe0\xa4\x95\xe0\xa4\xbf,avy,,,,,,'
p6116
ssbsg1744
I00
sba(issf_api
Word
p6117
(dp6118
g1996
I00
sg1997
V\u0938\u0930\u0915\u093e\u0930
p6119
sg1999
(issf_api
FeatureSet
p6120
(dp6121
g290
(dp6122
S'posn'
p6123
S'60'
p6124
sS'name'
p6125
S'\xe0\xa4\xb8\xe0\xa4\xb0\xe0\xa4\x95\xe0\xa4\xbe\xe0\xa4\xb0'
p6126
sS'af'
p6127
S'\xe0\xa4\xb8\xe0\xa4\xb0\xe0\xa4\x95\xe0\xa4\xbe\xe0\xa4\xb0,n,f,sg,3,d,0,0'
p6128
sS'chunkid'
p6129
S'NP3'
p6130
sS'drel'
p6131
S'k1:\xe0\xa4\xb2\xe0\xa5\x87'
p6132
sS'chunktype'
p6133
S'head:NP3'
p6134
ssbsg1722
I00
sg1725
I01
sg1736
Nsg1723
Nsg188
I5
sg174
I5
sg2013
I3
sg1734
Nsg2014
S'NN'
p6135
sg287
(issf_api
FeatureSet
p6136
(dp6137
g290
(dp6138
S'posn'
p6139
S'60'
p6140
sS'name'
p6141
S'\xe0\xa4\xb8\xe0\xa4\xb0\xe0\xa4\x95\xe0\xa4\xbe\xe0\xa4\xb0'
p6142
sS'af'
p6143
S'\xe0\xa4\xb8\xe0\xa4\xb0\xe0\xa4\x95\xe0\xa4\xbe\xe0\xa4\xb0,n,f,sg,3,d,0,0'
p6144
ssbsg1744
I00
sba(issf_api
Word
p6145
(dp6146
g1996
I00
sg1997
V\u0905\u0917\u0932\u0947
p6147
sg1999
(issf_api
FeatureSet
p6148
(dp6149
g290
(dp6150
S'posn'
p6151
S'70'
p6152
sS'name'
p6153
S'\xe0\xa4\x85\xe0\xa4\x97\xe0\xa4\xb2\xe0\xa5\x87'
p6154
sS'drel'
p6155
S'nmod__adj:\xe0\xa4\xae\xe0\xa4\xb9\xe0\xa5\x80\xe0\xa4\xa8\xe0\xa5\x87'
p6156
sS'chunktype'
p6157
S'child:NP4'
p6158
sS'af'
p6159
S'\xe0\xa4\x85\xe0\xa4\x97\xe0\xa4\xb2\xe0\xa4\xbe,adj,m,sg,,o,,'
p6160
ssbsg1722
I00
sg1725
I01
sg1736
Nsg1723
Nsg188
I6
sg174
I5
sg2013
I3
sg1734
Nsg2014
S'JJ'
p6161
sg287
(issf_api
FeatureSet
p6162
(dp6163
g290
(dp6164
S'posn'
p6165
S'70'
p6166
sS'name'
p6167
S'\xe0\xa4\x85\xe0\xa4\x97\xe0\xa4\xb2\xe0\xa5\x87'
p6168
sS'af'
p6169
S'\xe0\xa4\x85\xe0\xa4\x97\xe0\xa4\xb2\xe0\xa4\xbe,adj,m,sg,,o,,'
p6170
ssbsg1744
I00
sba(issf_api
Word
p6171
(dp6172
g1996
I00
sg1997
V\u092e\u0939\u0940\u0928\u0947
p6173
sg1999
(issf_api
FeatureSet
p6174
(dp6175
g290
(dp6176
S'posn'
p6177
S'80'
p6178
sS'name'
p6179
S'\xe0\xa4\xae\xe0\xa4\xb9\xe0\xa5\x80\xe0\xa4\xa8\xe0\xa5\x87'
p6180
sS'af'
p6181
S'\xe0\xa4\xae\xe0\xa4\xb9\xe0\xa5\x80\xe0\xa4\xa8\xe0\xa4\xbe,n,m,sg,3,o,0,0'
p6182
sS'chunkid'
p6183
S'NP4'
p6184
sS'drel'
p6185
S'k7t:\xe0\xa4\xb2\xe0\xa5\x87'
p6186
sS'chunktype'
p6187
S'head:NP4'
p6188
ssbsg1722
I00
sg1725
I01
sg1736
Nsg1723
Nsg188
I6
sg174
I5
sg2013
I3
sg1734
Nsg2014
S'NN'
p6189
sg287
(issf_api
FeatureSet
p6190
(dp6191
g290
(dp6192
S'posn'
p6193
S'80'
p6194
sS'name'
p6195
S'\xe0\xa4\xae\xe0\xa4\xb9\xe0\xa5\x80\xe0\xa4\xa8\xe0\xa5\x87'
p6196
sS'af'
p6197
S'\xe0\xa4\xae\xe0\xa4\xb9\xe0\xa5\x80\xe0\xa4\xa8\xe0\xa4\xbe,n,m,sg,3,o,0,0'
p6198
ssbsg1744
I00
sba(issf_api
Word
p6199
(dp6200
g1996
I00
sg1997
V\u0926\u0941\u0930\u094d\u0917\u093e
p6201
sg1999
(issf_api
FeatureSet
p6202
(dp6203
g290
(dp6204
S'posn'
p6205
S'90'
p6206
sS'name'
p6207
S'\xe0\xa4\xa6\xe0\xa5\x81\xe0\xa4\xb0\xe0\xa5\x8d\xe0\xa4\x97\xe0\xa4\xbe'
p6208
sS'drel'
p6209
S'nmod__adj:\xe0\xa4\xaa\xe0\xa5\x82\xe0\xa4\x9c\xe0\xa4\xbe'
p6210
sS'chunktype'
p6211
S'child:NP5'
p6212
sS'af'
p6213
S'\xe0\xa4\xa6\xe0\xa5\x81\xe0\xa4\xb0\xe0\xa5\x8d\xe0\xa4\x97\xe0\xa4\xbe,n,f,sg,3,d,0,0'
p6214
ssbsg1722
I00
sg1725
I01
sg1736
Nsg1723
Nsg188
I7
sg174
I5
sg2013
I3
sg1734
Nsg2014
S'NNP'
p6215
sg287
(issf_api
FeatureSet
p6216
(dp6217
g290
(dp6218
S'posn'
p6219
S'90'
p6220
sS'name'
p6221
S'\xe0\xa4\xa6\xe0\xa5\x81\xe0\xa4\xb0\xe0\xa5\x8d\xe0\xa4\x97\xe0\xa4\xbe'
p6222
sS'af'
p6223
S'\xe0\xa4\xa6\xe0\xa5\x81\xe0\xa4\xb0\xe0\xa5\x8d\xe0\xa4\x97\xe0\xa4\xbe,n,f,sg,3,d,0,0'
p6224
ssbsg1744
I00
sba(issf_api
Word
p6225
(dp6226
g1996
I00
sg1997
V\u092a\u0942\u091c\u093e
p6227
sg1999
(issf_api
FeatureSet
p6228
(dp6229
g290
(dp6230
S'posn'
p6231
S'100'
p6232
sS'name'
p6233
S'\xe0\xa4\xaa\xe0\xa5\x82\xe0\xa4\x9c\xe0\xa4\xbe'
p6234
sS'af'
p6235
S'\xe0\xa4\xaa\xe0\xa5\x82\xe0\xa4\x9c\xe0\xa4\xbe,n,f,sg,3,o,0_\xe0\xa4\xb8\xe0\xa5\x87_\xe0\xa4\xaa\xe0\xa4\xb9\xe0\xa4\xb2\xe0\xa5\x87,0'
p6236
sS'chunkid'
p6237
S'NP5'
p6238
sS'drel'
p6239
S'k7t:\xe0\xa4\xb2\xe0\xa5\x87'
p6240
sS'vpos'
p6241
S'vib_vib_3_4'
p6242
sS'chunktype'
p6243
S'head:NP5'
p6244
ssbsg1722
I00
sg1725
I01
sg1736
Nsg1723
Nsg188
I7
sg174
I5
sg2013
I3
sg1734
Nsg2014
S'NN'
p6245
sg287
(issf_api
FeatureSet
p6246
(dp6247
g290
(dp6248
S'posn'
p6249
S'100'
p6250
sS'name'
p6251
S'\xe0\xa4\xaa\xe0\xa5\x82\xe0\xa4\x9c\xe0\xa4\xbe'
p6252
sS'af'
p6253
S'\xe0\xa4\xaa\xe0\xa5\x82\xe0\xa4\x9c\xe0\xa4\xbe,n,f,sg,3,o,0,0'
p6254
ssbsg1744
I00
sba(issf_api
Word
p6255
(dp6256
g1996
I00
sg1997
V\u0938\u0947
p6257
sg1999
(issf_api
FeatureSet
p6258
(dp6259
g290
(dp6260
S'posn'
p6261
S'110'
p6262
sS'name'
p6263
S'\xe0\xa4\xb8\xe0\xa5\x87'
p6264
sS'drel'
p6265
S'lwg__psp:\xe0\xa4\xaa\xe0\xa5\x82\xe0\xa4\x9c\xe0\xa4\xbe'
p6266
sS'chunktype'
p6267
S'child:NP5'
p6268
sS'af'
p6269
S'\xe0\xa4\xb8\xe0\xa5\x87,psp,,,,,,'
p6270
ssbsg1722
I00
sg1725
I01
sg1736
Nsg1723
Nsg188
I7
sg174
I5
sg2013
I3
sg1734
Nsg2014
S'PSP'
p6271
sg287
(issf_api
FeatureSet
p6272
(dp6273
g290
(dp6274
S'posn'
p6275
S'110'
p6276
sS'name'
p6277
S'\xe0\xa4\xb8\xe0\xa5\x87'
p6278
sS'af'
p6279
S'\xe0\xa4\xb8\xe0\xa5\x87,psp,,,,,,'
p6280
ssbsg1744
I00
sba(issf_api
Word
p6281
(dp6282
g1996
I00
sg1997
V\u092a\u0939\u0932\u0947
p6283
sg1999
(issf_api
FeatureSet
p6284
(dp6285
g290
(dp6286
S'posn'
p6287
S'120'
p6288
sS'name'
p6289
S'\xe0\xa4\xaa\xe0\xa4\xb9\xe0\xa4\xb2\xe0\xa5\x87'
p6290
sS'drel'
p6291
S'lwg__psp:\xe0\xa4\xaa\xe0\xa5\x82\xe0\xa4\x9c\xe0\xa4\xbe'
p6292
sS'chunktype'
p6293
S'child:NP5'
p6294
sS'af'
p6295
S'\xe0\xa4\xaa\xe0\xa4\xb9\xe0\xa4\xb2\xe0\xa5\x87,nst,m,sg,3,d,,'
p6296
ssbsg1722
I00
sg1725
I01
sg1736
Nsg1723
Nsg188
I7
sg174
I5
sg2013
I3
sg1734
Nsg2014
S'NST'
p6297
sg287
(issf_api
FeatureSet
p6298
(dp6299
g290
(dp6300
S'posn'
p6301
S'120'
p6302
sS'name'
p6303
S'\xe0\xa4\xaa\xe0\xa4\xb9\xe0\xa4\xb2\xe0\xa5\x87'
p6304
sS'af'
p6305
S'\xe0\xa4\xaa\xe0\xa4\xb9\xe0\xa4\xb2\xe0\xa5\x87,nst,m,sg,3,d,,'
p6306
ssbsg1744
I00
sba(issf_api
Word
p6307
(dp6308
g1996
I00
sg1997
V\u0907\u0938
p6309
sg1999
(issf_api
FeatureSet
p6310
(dp6311
g290
(dp6312
S'posn'
p6313
S'130'
p6314
sS'name'
p6315
S'\xe0\xa4\x87\xe0\xa4\xb8'
p6316
sS'af'
p6317
S'\xe0\xa4\xaf\xe0\xa4\xb9,pn,any,sg,3,o,0_\xe0\xa4\xac\xe0\xa4\xbe\xe0\xa4\xb0\xe0\xa5\x87_\xe0\xa4\xae\xe0\xa5\x87\xe0\xa4\x82,0'
p6318
sS'chunkid'
p6319
S'NP6'
p6320
sS'drel'
p6321
S'k7:\xe0\xa4\xb2\xe0\xa5\x87'
p6322
sS'vpos'
p6323
S'vib_2_3'
p6324
sS'chunktype'
p6325
S'head:NP6'
p6326
ssbsg1722
I00
sg1725
I01
sg1736
Nsg1723
Nsg188
I8
sg174
I5
sg2013
I3
sg1734
Nsg2014
S'PRP'
p6327
sg287
(issf_api
FeatureSet
p6328
(dp6329
g290
(dp6330
S'posn'
p6331
S'130'
p6332
sS'name'
p6333
S'\xe0\xa4\x87\xe0\xa4\xb8'
p6334
sS'af'
p6335
S'\xe0\xa4\xaf\xe0\xa4\xb9,pn,any,sg,3,o,0,0'
p6336
ssbsg1744
I00
sba(issf_api
Word
p6337
(dp6338
g1996
I00
sg1997
V\u092c\u093e\u0930\u0947
p6339
sg1999
(issf_api
FeatureSet
p6340
(dp6341
g290
(dp6342
S'posn'
p6343
S'140'
p6344
sS'name'
p6345
S'\xe0\xa4\xac\xe0\xa4\xbe\xe0\xa4\xb0\xe0\xa5\x87'
p6346
sS'drel'
p6347
S'lwg__psp:\xe0\xa4\x87\xe0\xa4\xb8'
p6348
sS'chunktype'
p6349
S'child:NP6'
p6350
sS'af'
p6351
S'\xe0\xa4\xac\xe0\xa4\xbe\xe0\xa4\xb0\xe0\xa5\x87,psp,,,,,,'
p6352
ssbsg1722
I00
sg1725
I01
sg1736
Nsg1723
Nsg188
I8
sg174
I5
sg2013
I3
sg1734
Nsg2014
S'PSP'
p6353
sg287
(issf_api
FeatureSet
p6354
(dp6355
g290
(dp6356
S'posn'
p6357
S'140'
p6358
sS'name'
p6359
S'\xe0\xa4\xac\xe0\xa4\xbe\xe0\xa4\xb0\xe0\xa5\x87'
p6360
sS'af'
p6361
S'\xe0\xa4\xac\xe0\xa4\xbe\xe0\xa4\xb0\xe0\xa5\x87,psp,,,,,,'
p6362
ssbsg1744
I00
sba(issf_api
Word
p6363
(dp6364
g1996
I00
sg1997
V\u092e\u0947\u0902
p6365
sg1999
(issf_api
FeatureSet
p6366
(dp6367
g290
(dp6368
S'posn'
p6369
S'150'
p6370
sS'name'
p6371
S'\xe0\xa4\xae\xe0\xa5\x87\xe0\xa4\x82'
p6372
sS'drel'
p6373
S'lwg__psp:\xe0\xa4\x87\xe0\xa4\xb8'
p6374
sS'chunktype'
p6375
S'child:NP6'
p6376
sS'af'
p6377
S'\xe0\xa4\xae\xe0\xa5\x87\xe0\xa4\x82,psp,,,,,,'
p6378
ssbsg1722
I00
sg1725
I01
sg1736
Nsg1723
Nsg188
I8
sg174
I5
sg2013
I3
sg1734
Nsg2014
S'PSP'
p6379
sg287
(issf_api
FeatureSet
p6380
(dp6381
g290
(dp6382
S'posn'
p6383
S'150'
p6384
sS'name'
p6385
S'\xe0\xa4\xae\xe0\xa5\x87\xe0\xa4\x82'
p6386
sS'af'
p6387
S'\xe0\xa4\xae\xe0\xa5\x87\xe0\xa4\x82,psp,,,,,,'
p6388
ssbsg1744
I00
sba(issf_api
Word
p6389
(dp6390
g1996
I00
sg1997
V\u092b\u0948\u0938\u0932\u093e
p6391
sg1999
(issf_api
FeatureSet
p6392
(dp6393
g290
(dp6394
S'posn'
p6395
S'160'
p6396
sS'name'
p6397
S'\xe0\xa4\xab\xe0\xa5\x88\xe0\xa4\xb8\xe0\xa4\xb2\xe0\xa4\xbe'
p6398
sS'af'
p6399
S'\xe0\xa4\xab\xe0\xa5\x88\xe0\xa4\xb8\xe0\xa4\xb2\xe0\xa4\xbe,n,m,sg,3,d,0,0'
p6400
sS'chunkid'
p6401
S'NP7'
p6402
sS'drel'
p6403
S'pof:\xe0\xa4\xb2\xe0\xa5\x87'
p6404
sS'chunktype'
p6405
S'head:NP7'
p6406
ssbsg1722
I00
sg1725
I01
sg1736
Nsg1723
Nsg188
I9
sg174
I5
sg2013
I3
sg1734
Nsg2014
S'NN'
p6407
sg287
(issf_api
FeatureSet
p6408
(dp6409
g290
(dp6410
S'posn'
p6411
S'160'
p6412
sS'name'
p6413
S'\xe0\xa4\xab\xe0\xa5\x88\xe0\xa4\xb8\xe0\xa4\xb2\xe0\xa4\xbe'
p6414
sS'af'
p6415
S'\xe0\xa4\xab\xe0\xa5\x88\xe0\xa4\xb8\xe0\xa4\xb2\xe0\xa4\xbe,n,m,sg,3,d,0,0'
p6416
ssbsg1744
I00
sba(issf_api
Word
p6417
(dp6418
g1996
I00
sg1997
V\u0932\u0947
p6419
sg1999
(issf_api
FeatureSet
p6420
(dp6421
g290
(dp6422
S'posn'
p6423
S'170'
p6424
sS'name'
p6425
S'\xe0\xa4\xb2\xe0\xa5\x87'
p6426
sS'af'
p6427
S'\xe0\xa4\xb2\xe0\xa5\x87,v,any,sg,3,,0_\xe0\xa4\xb2\xe0\xa5\x87+\xe0\xa4\x97\xe0\xa4\xbe,0'
p6428
sS'chunkid'
p6429
S'VGF2'
p6430
sS'stype'
p6431
S'declarative'
p6432
sS'drel'
p6433
S'ccof:\xe0\xa4\x95\xe0\xa4\xbf'
p6434
sS'voicetype'
p6435
S'active'
p6436
sS'vpos'
p6437
S'tam_2'
p6438
sS'chunktype'
p6439
S'head:VGF2'
p6440
ssbsg1722
I00
sg1725
I01
sg1736
Nsg1723
Nsg188
I10
sg174
I5
sg2013
I3
sg1734
Nsg2014
S'VM'
p6441
sg287
(issf_api
FeatureSet
p6442
(dp6443
g290
(dp6444
S'posn'
p6445
S'170'
p6446
sS'name'
p6447
S'\xe0\xa4\xb2\xe0\xa5\x87'
p6448
sS'af'
p6449
S'\xe0\xa4\xb2\xe0\xa5\x87,v,any,any,any,,0,0'
p6450
ssbsg1744
I00
sba(issf_api
Word
p6451
(dp6452
g1996
I00
sg1997
V\u0932\u0947\u0917\u0940
p6453
sg1999
(issf_api
FeatureSet
p6454
(dp6455
g290
(dp6456
S'posn'
p6457
S'180'
p6458
sS'name'
p6459
S'\xe0\xa4\xb2\xe0\xa5\x87\xe0\xa4\x97\xe0\xa5\x80'
p6460
sS'drel'
p6461
S'lwg__vaux:\xe0\xa4\xb2\xe0\xa5\x87'
p6462
sS'chunktype'
p6463
S'child:VGF2'
p6464
sS'af'
p6465
S'\xe0\xa4\xb2\xe0\xa5\x87,v,f,sg,3,,\xe0\xa4\x97\xe0\xa4\xbe,gA'
p6466
ssbsg1722
I00
sg1725
I01
sg1736
Nsg1723
Nsg188
I10
sg174
I5
sg2013
I3
sg1734
Nsg2014
S'VAUX'
p6467
sg287
(issf_api
FeatureSet
p6468
(dp6469
g290
(dp6470
S'posn'
p6471
S'180'
p6472
sS'name'
p6473
S'\xe0\xa4\xb2\xe0\xa5\x87\xe0\xa4\x97\xe0\xa5\x80'
p6474
sS'af'
p6475
S'\xe0\xa4\xb2\xe0\xa5\x87,v,f,sg,3,,\xe0\xa4\x97\xe0\xa4\xbe,gA'
p6476
ssbsg1744
I00
sba(issf_api
Word
p6477
(dp6478
g1996
I00
sg1997
V\u0964
sg1999
(issf_api
FeatureSet
p6479
(dp6480
g290
(dp6481
S'posn'
p6482
S'190'
p6483
sS'name'
p6484
S'\xe0\xa5\xa4'
p6485
sS'af'
p6486
S'\xe0\xa5\xa4,punc,,,,,,'
p6487
sS'chunkid'
p6488
S'BLK'
p6489
sS'drel'
p6490
S'rsym:\xe0\xa4\xb9\xe0\xa4\xbe\xe0\xa4\xb2\xe0\xa4\xbe\xe0\xa4\x82\xe0\xa4\x95\xe0\xa4\xbf'
p6491
sS'chunktype'
p6492
S'head:BLK'
p6493
ssbsg1722
I00
sg1725
I01
sg1736
Nsg1723
Nsg188
I11
sg174
I5
sg2013
I3
sg1734
Nsg2014
S'SYM'
p6494
sg287
(issf_api
FeatureSet
p6495
(dp6496
g290
(dp6497
S'posn'
p6498
S'190'
p6499
sS'name'
p6500
S'\xe0\xa5\xa4'
p6501
sS'af'
p6502
S'\xe0\xa5\xa4,punc,,,,,,'
p6503
ssbsg1744
I00
sbasb.