(iannotated_data
discourseFile
p1
(dp2
S'annToRawMapping'
p3
(dp4
I0
(I0
tp5
sI1
(I1
tp6
sI2
(I2
tp7
sI3
(I3
tp8
sI4
(I4
tp9
sI5
(I5
tp10
sI6
(I6
tp11
sI7
(I7
tp12
sI8
(I8
tp13
sI9
(I9
tp14
sI10
(I10
tp15
sI11
(I11
tp16
sI12
(I12
tp17
sI13
(I13
tp18
sI14
(I14
tp19
sI15
(I15
tp20
sI16
(I16
tp21
sI17
(I17
tp22
sI18
(I18
tp23
sI19
(I19
tp24
sI20
(I20
tp25
sI21
(I21
tp26
sI22
(I22
tp27
sI23
(I23
tp28
sI24
(I24
tp29
sI25
(I25
tp30
sI26
(I26
tp31
sI27
(I27
tp32
sI28
(I28
tp33
sI29
(I29
tp34
sI30
(I30
tp35
sI31
(I31
tp36
sI32
(I32
tp37
sI33
(I33
tp38
sI34
(I34
tp39
sI35
(I35
tp40
sI36
(I36
tp41
sI37
(I37
tp42
sI38
(I38
tp43
sI39
(I39
tp44
sI40
(I40
tp45
sI41
(I41
tp46
sI42
(I42
tp47
sI43
(I43
tp48
sI44
(I44
tp49
sI45
(I45
tp50
sI46
(I46
tp51
sI47
(I47
tp52
sI48
(I48
tp53
sI49
(I49
tp54
sI50
(I50
tp55
sI51
(I51
tp56
sI52
(I52
tp57
sI53
(I53
tp58
sI54
(I54
tp59
sI55
(I55
tp60
sI56
(I56
tp61
sI57
(I56
tp62
sI58
(I57
tp63
sI59
(I58
tp64
sI60
(I59
tp65
sI61
(I60
tp66
sI62
(I61
tp67
sI63
(I62
tp68
sI64
(I63
tp69
sI65
(I64
tp70
sI66
(I65
tp71
sI67
(I66
tp72
sI68
(I67
tp73
sI69
(I68
tp74
sI70
(I69
tp75
sI71
(I70
tp76
sI72
(I71
tp77
sI73
(I72
tp78
sI74
(I73
tp79
sI75
(I74
tp80
sI76
(I75
tp81
sI77
(I76
tp82
sI78
(I77
tp83
sI79
(I78
tp84
sI80
(I79
tp85
sI81
(I80
tp86
sI82
(I81
tp87
sI83
(I82
tp88
sI84
(I83
tp89
sI85
(I84
tp90
sI86
(I85
tp91
sI87
(I86
tp92
sI88
(I87
tp93
sI89
(I88
tp94
sI90
(I89
tp95
sI91
(I90
tp96
sI92
(I91
tp97
sI93
(I92
tp98
sI94
(I93
tp99
sI95
(I94
tp100
sI96
(I95
tp101
sI97
(I96
tp102
sI98
(I96
tp103
sI99
(I97
tp104
sI100
(I98
tp105
sI101
(I99
tp106
sI102
(I100
tp107
sI103
(I101
tp108
sI104
(I102
tp109
sI105
(I103
tp110
sI106
(I104
tp111
sI107
(I105
tp112
sI108
(I106
tp113
sI109
(I107
tp114
sI110
(I108
tp115
sI111
(I109
tp116
sI112
(I110
tp117
sI113
(I111
tp118
sI114
(I112
tp119
sI115
(I113
tp120
sI116
(I114
tp121
sI117
(I115
tp122
sI118
(I116
tp123
sI119
(I117
tp124
sI120
(I118
tp125
sI121
(I119
tp126
sI122
(I120
tp127
sI123
(I121
tp128
sI124
(I122
tp129
sI125
(I123
tp130
sI126
(I124
tp131
sI127
(I125
tp132
sI128
(I126
tp133
sI129
(I127
tp134
sI130
(I128
tp135
sI131
(I129
tp136
ssS'sentenceList'
p137
(lp138
(issf_api
Sentence
p139
(dp140
S'rootNode'
p141
(lp142
sS'sentenceNum'
p143
I0
sS'wordNumList'
p144
(lp145
I0
aI1
aI2
aI3
aI4
aI5
aI6
aI7
aI8
aI9
aI10
aI11
aI12
aI13
aI14
aI15
aI16
aI17
aI18
aI19
aI20
aI21
aI22
aI23
aI24
aI25
aI26
aI27
aI28
aI29
asS'nodeDict'
p146
(dp147
S'VGNN'
p148
(issf_api
Node
p149
(dp150
S'nodeRelation'
p151
S'r6-k2'
p152
sS'nodeName'
p153
g148
sS'nodeParent'
p154
S'NP10'
p155
sS'nodeLevel'
p156
I-1
sS'chunkNum'
p157
I9
sS'childList'
p158
(lp159
sbsS'VGF'
p160
(issf_api
Node
p161
(dp162
g151
S'None'
p163
sg153
g160
sg154
g163
sg156
I-1
sg157
I11
sg158
(lp164
sbsS'NP5'
p165
(issf_api
Node
p166
(dp167
g151
S'k1'
p168
sg153
g165
sg154
S'VGF'
p169
sg156
I-1
sg157
I4
sg158
(lp170
sbsS'NP9'
p171
(issf_api
Node
p172
(dp173
g151
S'k7'
p174
sg153
g171
sg154
S'VGNN'
p175
sg156
I-1
sg157
I8
sg158
(lp176
sbsS'NP8'
p177
(issf_api
Node
p178
(dp179
g151
S'k7p'
p180
sg153
g177
sg154
S'VGNN'
p181
sg156
I-1
sg157
I7
sg158
(lp182
sbsS'BLK'
p183
(issf_api
Node
p184
(dp185
g151
S'rsym'
p186
sg153
g183
sg154
S'VGF'
p187
sg156
I-1
sg157
I12
sg158
(lp188
sbsS'NP10'
p189
(issf_api
Node
p190
(dp191
g151
S'pof'
p192
sg153
g189
sg154
S'VGF'
p193
sg156
I-1
sg157
I10
sg158
(lp194
sbsS'NP'
p195
(issf_api
Node
p196
(dp197
g151
S'r6'
p198
sg153
g195
sg154
S'NP2'
p199
sg156
I-1
sg157
I0
sg158
(lp200
sbsS'NP4'
p201
(issf_api
Node
p202
(dp203
g151
S'k4'
p204
sg153
g201
sg154
S'VGF'
p205
sg156
I-1
sg157
I3
sg158
(lp206
sbsS'NP7'
p207
(issf_api
Node
p208
(dp209
g151
S'r6'
p210
sg153
g207
sg154
S'NP8'
p211
sg156
I-1
sg157
I6
sg158
(lp212
sbsS'NP6'
p213
(issf_api
Node
p214
(dp215
g151
S'ras-k1'
p216
sg153
g213
sg154
S'VGF'
p217
sg156
I-1
sg157
I5
sg158
(lp218
sbsS'NP3'
p219
(issf_api
Node
p220
(dp221
g151
S'nmod'
p222
sg153
g219
sg154
S'NP4'
p223
sg156
I-1
sg157
I2
sg158
(lp224
sbsS'NP2'
p225
(issf_api
Node
p226
(dp227
g151
S'nmod'
p228
sg153
g225
sg154
S'NP4'
p229
sg156
I-1
sg157
I1
sg158
(lp230
sbssS'chunkList'
p231
(lp232
(issf_api
Chunk
p233
(dp234
g153
g195
sg157
I0
sS'chunkTag'
p235
S'NP'
p236
sg143
I0
sg144
(lp237
I0
aI1
aI2
asS'featureSet'
p238
(issf_api
FeatureSet
p239
(dp240
S'featureDict'
p241
(dp242
S'drel'
p243
S'r6:NP2'
p244
sS'name'
p245
g195
ssbsba(issf_api
Chunk
p246
(dp247
g153
g225
sg157
I1
sg235
S'NP'
p248
sg143
I0
sg144
(lp249
I3
asg238
(issf_api
FeatureSet
p250
(dp251
g241
(dp252
S'drel'
p253
S'nmod:NP4'
p254
sS'name'
p255
g225
ssbsba(issf_api
Chunk
p256
(dp257
g153
g219
sg157
I2
sg235
S'NP'
p258
sg143
I0
sg144
(lp259
I4
aI5
asg238
(issf_api
FeatureSet
p260
(dp261
g241
(dp262
S'drel'
p263
S'nmod:NP4'
p264
sS'name'
p265
g219
ssbsba(issf_api
Chunk
p266
(dp267
g153
g201
sg157
I3
sg235
S'NP'
p268
sg143
I0
sg144
(lp269
I6
aI7
aI8
asg238
(issf_api
FeatureSet
p270
(dp271
g241
(dp272
S'drel'
p273
S'k4:VGF'
p274
sS'name'
p275
g201
ssbsba(issf_api
Chunk
p276
(dp277
g153
g165
sg157
I4
sg235
S'NP'
p278
sg143
I0
sg144
(lp279
I9
aI10
aI11
aI12
asg238
(issf_api
FeatureSet
p280
(dp281
g241
(dp282
S'drel'
p283
S'k1:VGF'
p284
sS'name'
p285
g165
ssbsba(issf_api
Chunk
p286
(dp287
g153
g213
sg157
I5
sg235
S'NP'
p288
sg143
I0
sg144
(lp289
I13
aI14
aI15
aI16
asg238
(issf_api
FeatureSet
p290
(dp291
g241
(dp292
S'drel'
p293
S'ras-k1:VGF'
p294
sS'name'
p295
g213
ssbsba(issf_api
Chunk
p296
(dp297
g153
g207
sg157
I6
sg235
S'NP'
p298
sg143
I0
sg144
(lp299
I17
aI18
aI19
asg238
(issf_api
FeatureSet
p300
(dp301
g241
(dp302
S'drel'
p303
S'r6:NP8'
p304
sS'name'
p305
g207
ssbsba(issf_api
Chunk
p306
(dp307
g153
g177
sg157
I7
sg235
S'NP'
p308
sg143
I0
sg144
(lp309
I20
aI21
asg238
(issf_api
FeatureSet
p310
(dp311
g241
(dp312
S'drel'
p313
S'k7p:VGNN'
p314
sS'name'
p315
g177
ssbsba(issf_api
Chunk
p316
(dp317
g153
g171
sg157
I8
sg235
S'NP'
p318
sg143
I0
sg144
(lp319
I22
aI23
asg238
(issf_api
FeatureSet
p320
(dp321
g241
(dp322
S'drel'
p323
S'k7:VGNN'
p324
sS'name'
p325
g171
ssbsba(issf_api
Chunk
p326
(dp327
g153
g148
sg157
I9
sg235
S'VGNN'
p328
sg143
I0
sg144
(lp329
I24
aI25
asg238
(issf_api
FeatureSet
p330
(dp331
g241
(dp332
S'drel'
p333
S'r6-k2:NP10'
p334
sS'name'
p335
g148
ssbsba(issf_api
Chunk
p336
(dp337
g153
g189
sg157
I10
sg235
S'NP'
p338
sg143
I0
sg144
(lp339
I26
asg238
(issf_api
FeatureSet
p340
(dp341
g241
(dp342
S'drel'
p343
S'pof:VGF'
p344
sS'name'
p345
g189
ssbsba(issf_api
Chunk
p346
(dp347
g153
g160
sg157
I11
sg235
S'VGF'
p348
sg143
I0
sg144
(lp349
I27
aI28
asg238
(issf_api
FeatureSet
p350
(dp351
g241
(dp352
S'name'
p353
g160
sS'stype'
p354
S'declarative'
p355
sS'voicetype'
p356
S'active'
p357
ssbsba(issf_api
Chunk
p358
(dp359
g153
g183
sg157
I12
sg235
S'BLK'
p360
sg143
I0
sg144
(lp361
I29
asg238
(issf_api
FeatureSet
p362
(dp363
g241
(dp364
S'drel'
p365
S'rsym:VGF'
p366
sS'name'
p367
g183
ssbsbasba(issf_api
Sentence
p368
(dp369
g141
(lp370
sg143
I1
sg144
(lp371
I30
aI31
aI32
aI33
aI34
aI35
aI36
aI37
aI38
aI39
aI40
aI41
aI42
aI43
aI44
aI45
aI46
aI47
aI48
aI49
aI50
aI51
aI52
aI53
aI54
aI55
aI56
aI57
aI58
aI59
aI60
aI61
aI62
asg146
(dp372
S'NP11'
p373
(issf_api
Node
p374
(dp375
g151
S'pof'
p376
sg153
g373
sg154
S'VGF'
p377
sg156
I-1
sg157
I11
sg158
(lp378
sbsS'VGNN'
p379
(issf_api
Node
p380
(dp381
g151
S'r6'
p382
sg153
g379
sg154
S'NP10'
p383
sg156
I-1
sg157
I9
sg158
(lp384
sbsS'VGF'
p385
(issf_api
Node
p386
(dp387
g151
g163
sg153
g385
sg154
g163
sg156
I-1
sg157
I12
sg158
(lp388
sbsS'NP5'
p389
(issf_api
Node
p390
(dp391
g151
S'r6'
p392
sg153
g389
sg154
S'NP6'
p393
sg156
I-1
sg157
I4
sg158
(lp394
sbsS'NP9'
p395
(issf_api
Node
p396
(dp397
g151
S'k7p'
p398
sg153
g395
sg154
S'VGNN'
p399
sg156
I-1
sg157
I8
sg158
(lp400
sbsS'NP8'
p401
(issf_api
Node
p402
(dp403
g151
S'k2p'
p404
sg153
g401
sg154
S'VGNN'
p405
sg156
I-1
sg157
I7
sg158
(lp406
sbsS'BLK'
p407
(issf_api
Node
p408
(dp409
g151
S'rsym'
p410
sg153
g407
sg154
S'VGF'
p411
sg156
I-1
sg157
I13
sg158
(lp412
sbsS'NP10'
p413
(issf_api
Node
p414
(dp415
g151
S'r6-k2'
p416
sg153
g413
sg154
S'NP11'
p417
sg156
I-1
sg157
I10
sg158
(lp418
sbsS'NP'
p419
(issf_api
Node
p420
(dp421
g151
S'r6'
p422
sg153
g419
sg154
S'NP2'
p423
sg156
I-1
sg157
I0
sg158
(lp424
sbsS'NP4'
p425
(issf_api
Node
p426
(dp427
g151
S'nmod'
p428
sg153
g425
sg154
S'NP5'
p429
sg156
I-1
sg157
I3
sg158
(lp430
sbsS'NP7'
p431
(issf_api
Node
p432
(dp433
g151
S'rt'
p434
sg153
g431
sg154
S'VGF'
p435
sg156
I-1
sg157
I6
sg158
(lp436
sbsS'NP6'
p437
(issf_api
Node
p438
(dp439
g151
S'rt'
p440
sg153
g437
sg154
S'VGF'
p441
sg156
I-1
sg157
I5
sg158
(lp442
sbsS'NP3'
p443
(issf_api
Node
p444
(dp445
g151
S'k4'
p446
sg153
g443
sg154
S'VGF'
p447
sg156
I-1
sg157
I2
sg158
(lp448
sbsS'NP2'
p449
(issf_api
Node
p450
(dp451
g151
S'k1'
p452
sg153
g449
sg154
S'VGF'
p453
sg156
I-1
sg157
I1
sg158
(lp454
sbssg231
(lp455
(issf_api
Chunk
p456
(dp457
g153
g419
sg157
I0
sg235
S'NP'
p458
sg143
I1
sg144
(lp459
I30
aI31
asg238
(issf_api
FeatureSet
p460
(dp461
g241
(dp462
S'drel'
p463
S'r6:NP2'
p464
sS'name'
p465
g419
ssbsba(issf_api
Chunk
p466
(dp467
g153
g449
sg157
I1
sg235
S'NP'
p468
sg143
I1
sg144
(lp469
I32
aI33
asg238
(issf_api
FeatureSet
p470
(dp471
g241
(dp472
S'drel'
p473
S'k1:VGF'
p474
sS'name'
p475
g449
ssbsba(issf_api
Chunk
p476
(dp477
g153
g443
sg157
I2
sg235
S'NP'
p478
sg143
I1
sg144
(lp479
I34
aI35
asg238
(issf_api
FeatureSet
p480
(dp481
g241
(dp482
S'drel'
p483
S'k4:VGF'
p484
sS'name'
p485
g443
ssbsba(issf_api
Chunk
p486
(dp487
g153
g425
sg157
I3
sg235
S'NP'
p488
sg143
I1
sg144
(lp489
I36
asg238
(issf_api
FeatureSet
p490
(dp491
g241
(dp492
S'drel'
p493
S'nmod:NP5'
p494
sS'name'
p495
g425
ssbsba(issf_api
Chunk
p496
(dp497
g153
g389
sg157
I4
sg235
S'NP'
p498
sg143
I1
sg144
(lp499
I37
aI38
aI39
aI40
aI41
aI42
asg238
(issf_api
FeatureSet
p500
(dp501
g241
(dp502
S'drel'
p503
S'r6:NP6'
p504
sS'name'
p505
g389
ssbsba(issf_api
Chunk
p506
(dp507
g153
g437
sg157
I5
sg235
S'NP'
p508
sg143
I1
sg144
(lp509
I43
aI44
aI45
asg238
(issf_api
FeatureSet
p510
(dp511
g241
(dp512
S'drel'
p513
S'rt:VGF'
p514
sS'name'
p515
g437
ssbsba(issf_api
Chunk
p516
(dp517
g153
g431
sg157
I6
sg235
S'NP'
p518
sg143
I1
sg144
(lp519
I46
aI47
aI48
aI49
asg238
(issf_api
FeatureSet
p520
(dp521
g241
(dp522
S'drel'
p523
S'rt:VGF'
p524
sS'name'
p525
g431
ssbsba(issf_api
Chunk
p526
(dp527
g153
g401
sg157
I7
sg235
S'NP'
p528
sg143
I1
sg144
(lp529
I50
aI51
asg238
(issf_api
FeatureSet
p530
(dp531
g241
(dp532
S'drel'
p533
S'k2p:VGNN'
p534
sS'name'
p535
g401
ssbsba(issf_api
Chunk
p536
(dp537
g153
g395
sg157
I8
sg235
S'NP'
p538
sg143
I1
sg144
(lp539
I52
aI53
aI54
asg238
(issf_api
FeatureSet
p540
(dp541
g241
(dp542
S'drel'
p543
S'k7p:VGNN'
p544
sS'name'
p545
g395
ssbsba(issf_api
Chunk
p546
(dp547
g153
g379
sg157
I9
sg235
S'VGNN'
p548
sg143
I1
sg144
(lp549
I55
aI56
asg238
(issf_api
FeatureSet
p550
(dp551
g241
(dp552
S'drel'
p553
S'r6:NP10'
p554
sS'name'
p555
g379
ssbsba(issf_api
Chunk
p556
(dp557
g153
g413
sg157
I10
sg235
S'NP'
p558
sg143
I1
sg144
(lp559
I57
aI58
asg238
(issf_api
FeatureSet
p560
(dp561
g241
(dp562
S'drel'
p563
S'r6-k2:NP11'
p564
sS'name'
p565
g413
ssbsba(issf_api
Chunk
p566
(dp567
g153
g373
sg157
I11
sg235
S'NP'
p568
sg143
I1
sg144
(lp569
I59
asg238
(issf_api
FeatureSet
p570
(dp571
g241
(dp572
S'drel'
p573
S'pof:VGF'
p574
sS'name'
p575
g373
ssbsba(issf_api
Chunk
p576
(dp577
g153
g385
sg157
I12
sg235
S'VGF'
p578
sg143
I1
sg144
(lp579
I60
aI61
asg238
(issf_api
FeatureSet
p580
(dp581
g241
(dp582
S'name'
p583
g385
sS'stype'
p584
S'declarative'
p585
sS'voicetype'
p586
S'active'
p587
ssbsba(issf_api
Chunk
p588
(dp589
g153
g407
sg157
I13
sg235
S'BLK'
p590
sg143
I1
sg144
(lp591
I62
asg238
(issf_api
FeatureSet
p592
(dp593
g241
(dp594
S'drel'
p595
S'rsym:VGF'
p596
sS'name'
p597
g407
ssbsbasba(issf_api
Sentence
p598
(dp599
g141
(lp600
sg143
I2
sg144
(lp601
I63
aI64
aI65
aI66
aI67
aI68
aI69
aI70
aI71
aI72
aI73
aI74
aI75
aI76
aI77
aI78
aI79
aI80
aI81
aI82
aI83
aI84
aI85
aI86
aI87
aI88
aI89
aI90
aI91
aI92
aI93
asg146
(dp602
S'CCP4'
p603
(issf_api
Node
p604
(dp605
g151
S'ccof'
p606
sg153
g603
sg154
S'CCP2'
p607
sg156
I-1
sg157
I13
sg158
(lp608
sbsS'VGF'
p609
(issf_api
Node
p610
(dp611
g151
g163
sg153
g609
sg154
g163
sg156
I-1
sg157
I2
sg158
(lp612
sbsS'VGF4'
p613
(issf_api
Node
p614
(dp615
g151
S'ccof'
p616
sg153
g613
sg154
S'CCP4'
p617
sg156
I-1
sg157
I16
sg158
(lp618
sbsS'VGF3'
p619
(issf_api
Node
p620
(dp621
g151
S'ccof'
p622
sg153
g619
sg154
S'CCP3'
p623
sg156
I-1
sg157
I12
sg158
(lp624
sbsS'CCP'
p625
(issf_api
Node
p626
(dp627
g151
S'k2'
p628
sg153
g625
sg154
S'VGF'
p629
sg156
I-1
sg157
I3
sg158
(lp630
sbsS'VGF2'
p631
(issf_api
Node
p632
(dp633
g151
S'ccof'
p634
sg153
g631
sg154
S'CCP2'
p635
sg156
I-1
sg157
I6
sg158
(lp636
sbsS'NP5'
p637
(issf_api
Node
p638
(dp639
g151
S'k7t'
p640
sg153
g637
sg154
S'VGF3'
p641
sg156
I-1
sg157
I8
sg158
(lp642
sbsS'JJP'
p643
(issf_api
Node
p644
(dp645
g151
S'pof'
p646
sg153
g643
sg154
S'VGF4'
p647
sg156
I-1
sg157
I15
sg158
(lp648
sbsS'NP8'
p649
(issf_api
Node
p650
(dp651
g151
S'k1'
p652
sg153
g649
sg154
S'VGF4'
p653
sg156
I-1
sg157
I14
sg158
(lp654
sbsS'BLK'
p655
(issf_api
Node
p656
(dp657
g151
S'rsym'
p658
sg153
g655
sg154
S'VGF'
p659
sg156
I-1
sg157
I17
sg158
(lp660
sbsS'NP'
p661
(issf_api
Node
p662
(dp663
g151
S'nmod'
p664
sg153
g661
sg154
S'NP2'
p665
sg156
I-1
sg157
I0
sg158
(lp666
sbsS'NP4'
p667
(issf_api
Node
p668
(dp669
g151
S'rt'
p670
sg153
g667
sg154
S'VGF2'
p671
sg156
I-1
sg157
I5
sg158
(lp672
sbsS'NP7'
p673
(issf_api
Node
p674
(dp675
g151
S'k2'
p676
sg153
g673
sg154
S'VGF3'
p677
sg156
I-1
sg157
I11
sg158
(lp678
sbsS'NP6'
p679
(issf_api
Node
p680
(dp681
g151
S'k4'
p682
sg153
g679
sg154
S'VGF3'
p683
sg156
I-1
sg157
I10
sg158
(lp684
sbsS'CCP2'
p685
(issf_api
Node
p686
(dp687
g151
S'ccof'
p688
sg153
g685
sg154
S'CCP'
p689
sg156
I-1
sg157
I7
sg158
(lp690
sbsS'CCP3'
p691
(issf_api
Node
p692
(dp693
g151
S'vmod'
p694
sg153
g691
sg154
S'VGF4'
p695
sg156
I-1
sg157
I9
sg158
(lp696
sbsS'NP3'
p697
(issf_api
Node
p698
(dp699
g151
S'k1'
p700
sg153
g697
sg154
S'VGF2'
p701
sg156
I-1
sg157
I4
sg158
(lp702
sbsS'NP2'
p703
(issf_api
Node
p704
(dp705
g151
S'k1'
p706
sg153
g703
sg154
S'VGF'
p707
sg156
I-1
sg157
I1
sg158
(lp708
sbssg231
(lp709
(issf_api
Chunk
p710
(dp711
g153
g661
sg157
I0
sg235
S'NP'
p712
sg143
I2
sg144
(lp713
I63
aI64
asg238
(issf_api
FeatureSet
p714
(dp715
g241
(dp716
S'drel'
p717
S'nmod:NP2'
p718
sS'name'
p719
g661
ssbsba(issf_api
Chunk
p720
(dp721
g153
g703
sg157
I1
sg235
S'NP'
p722
sg143
I2
sg144
(lp723
I65
aI66
aI67
aI68
asg238
(issf_api
FeatureSet
p724
(dp725
g241
(dp726
S'drel'
p727
S'k1:VGF'
p728
sS'name'
p729
g703
ssbsba(issf_api
Chunk
p730
(dp731
g153
g609
sg157
I2
sg235
S'VGF'
p732
sg143
I2
sg144
(lp733
I69
asg238
(issf_api
FeatureSet
p734
(dp735
g241
(dp736
S'name'
p737
g609
sS'stype'
p738
S'declarative'
p739
sS'voicetype'
p740
S'active'
p741
ssbsba(issf_api
Chunk
p742
(dp743
g153
g625
sg157
I3
sg235
S'CCP'
p744
sg143
I2
sg144
(lp745
I70
asg238
(issf_api
FeatureSet
p746
(dp747
g241
(dp748
S'drel'
p749
S'k2:VGF'
p750
sS'name'
p751
g625
ssbsba(issf_api
Chunk
p752
(dp753
g153
g697
sg157
I4
sg235
S'NP'
p754
sg143
I2
sg144
(lp755
I71
asg238
(issf_api
FeatureSet
p756
(dp757
g241
(dp758
S'drel'
p759
S'k1:VGF2'
p760
sS'name'
p761
g697
ssbsba(issf_api
Chunk
p762
(dp763
g153
g667
sg157
I5
sg235
S'NP'
p764
sg143
I2
sg144
(lp765
I72
aI73
aI74
asg238
(issf_api
FeatureSet
p766
(dp767
g241
(dp768
S'drel'
p769
S'rt:VGF2'
p770
sS'name'
p771
g667
ssbsba(issf_api
Chunk
p772
(dp773
g153
g631
sg157
I6
sg235
S'VGF'
p774
sg143
I2
sg144
(lp775
I75
aI76
aI77
aI78
asg238
(issf_api
FeatureSet
p776
(dp777
g241
(dp778
S'voicetype'
p779
S"active'"
p780
sS'drel'
p781
S'ccof:CCP2'
p782
sS'stype'
p783
S'declarative'
p784
sS'name'
p785
g631
ssbsba(issf_api
Chunk
p786
(dp787
g153
g685
sg157
I7
sg235
S'CCP'
p788
sg143
I2
sg144
(lp789
I79
asg238
(issf_api
FeatureSet
p790
(dp791
g241
(dp792
S'drel'
p793
S'ccof:CCP'
p794
sS'name'
p795
g685
ssbsba(issf_api
Chunk
p796
(dp797
g153
g637
sg157
I8
sg235
S'NP'
p798
sg143
I2
sg144
(lp799
I80
aI81
asg238
(issf_api
FeatureSet
p800
(dp801
g241
(dp802
S'drel'
p803
S'k7t:VGF3'
p804
sS'name'
p805
g637
ssbsba(issf_api
Chunk
p806
(dp807
g153
g691
sg157
I9
sg235
S'CCP'
p808
sg143
I2
sg144
(lp809
I82
asg238
(issf_api
FeatureSet
p810
(dp811
g241
(dp812
S'drel'
p813
S'vmod:VGF4'
p814
sS'name'
p815
g691
ssbsba(issf_api
Chunk
p816
(dp817
g153
g679
sg157
I10
sg235
S'NP'
p818
sg143
I2
sg144
(lp819
I83
asg238
(issf_api
FeatureSet
p820
(dp821
g241
(dp822
S'drel'
p823
S'k4:VGF3'
p824
sS'name'
p825
g679
ssbsba(issf_api
Chunk
p826
(dp827
g153
g673
sg157
I11
sg235
S'NP'
p828
sg143
I2
sg144
(lp829
I84
asg238
(issf_api
FeatureSet
p830
(dp831
g241
(dp832
S'drel'
p833
S'k2:VGF3'
p834
sS'name'
p835
g673
ssbsba(issf_api
Chunk
p836
(dp837
g153
g619
sg157
I12
sg235
S'VGF'
p838
sg143
I2
sg144
(lp839
I85
aI86
aI87
asg238
(issf_api
FeatureSet
p840
(dp841
g241
(dp842
S'voicetype'
p843
S"active'"
p844
sS'drel'
p845
S'ccof:CCP3'
p846
sS'stype'
p847
S'declarative'
p848
sS'name'
p849
g619
ssbsba(issf_api
Chunk
p850
(dp851
g153
g603
sg157
I13
sg235
S'CCP'
p852
sg143
I2
sg144
(lp853
I88
asg238
(issf_api
FeatureSet
p854
(dp855
g241
(dp856
S'drel'
p857
S'ccof:CCP2'
p858
sS'name'
p859
g603
ssbsba(issf_api
Chunk
p860
(dp861
g153
g649
sg157
I14
sg235
S'NP'
p862
sg143
I2
sg144
(lp863
I89
asg238
(issf_api
FeatureSet
p864
(dp865
g241
(dp866
S'drel'
p867
S'k1:VGF4'
p868
sS'name'
p869
g649
ssbsba(issf_api
Chunk
p870
(dp871
g153
g643
sg157
I15
sg235
S'JJP'
p872
sg143
I2
sg144
(lp873
I90
asg238
(issf_api
FeatureSet
p874
(dp875
g241
(dp876
S'drel'
p877
S'pof:VGF4'
p878
sS'name'
p879
g643
ssbsba(issf_api
Chunk
p880
(dp881
g153
g613
sg157
I16
sg235
S'VGF'
p882
sg143
I2
sg144
(lp883
I91
aI92
asg238
(issf_api
FeatureSet
p884
(dp885
g241
(dp886
S'voicetype'
p887
S"active'"
p888
sS'drel'
p889
S'ccof:CCP4'
p890
sS'stype'
p891
S'declarative'
p892
sS'name'
p893
g613
ssbsba(issf_api
Chunk
p894
(dp895
g153
g655
sg157
I17
sg235
S'BLK'
p896
sg143
I2
sg144
(lp897
I93
asg238
(issf_api
FeatureSet
p898
(dp899
g241
(dp900
S'drel'
p901
S'rsym:VGF'
p902
sS'name'
p903
g655
ssbsbasba(issf_api
Sentence
p904
(dp905
g141
(lp906
sg143
I3
sg144
(lp907
I94
aI95
aI96
aI97
aI98
aI99
aI100
aI101
aI102
aI103
aI104
aI105
aI106
asg146
(dp908
S'VGF'
p909
(issf_api
Node
p910
(dp911
g151
g163
sg153
g909
sg154
g163
sg156
I-1
sg157
I7
sg158
(lp912
sbsS'JJP'
p913
(issf_api
Node
p914
(dp915
g151
S'pof'
p916
sg153
g913
sg154
S'VGF'
p917
sg156
I-1
sg157
I6
sg158
(lp918
sbsS'NP5'
p919
(issf_api
Node
p920
(dp921
g151
S'k1'
p922
sg153
g919
sg154
S'VGF'
p923
sg156
I-1
sg157
I4
sg158
(lp924
sbsS'BLK'
p925
(issf_api
Node
p926
(dp927
g151
S'rsym'
p928
sg153
g925
sg154
S'VGF'
p929
sg156
I-1
sg157
I8
sg158
(lp930
sbsS'NP'
p931
(issf_api
Node
p932
(dp933
g151
S'sent-adv'
p934
sg153
g931
sg154
S'VGF'
p935
sg156
I-1
sg157
I0
sg158
(lp936
sbsS'NP4'
p937
(issf_api
Node
p938
(dp939
g151
S'r6'
p940
sg153
g937
sg154
S'NP5'
p941
sg156
I-1
sg157
I3
sg158
(lp942
sbsS'NP6'
p943
(issf_api
Node
p944
(dp945
g151
S'k7p'
p946
sg153
g943
sg154
S'VGF'
p947
sg156
I-1
sg157
I5
sg158
(lp948
sbsS'NP3'
p949
(issf_api
Node
p950
(dp951
g151
S'k7'
p952
sg153
g949
sg154
S'VGF'
p953
sg156
I-1
sg157
I2
sg158
(lp954
sbsS'NP2'
p955
(issf_api
Node
p956
(dp957
g151
S'r6'
p958
sg153
g955
sg154
S'NP3'
p959
sg156
I-1
sg157
I1
sg158
(lp960
sbssg231
(lp961
(issf_api
Chunk
p962
(dp963
g153
g931
sg157
I0
sg235
S'NP'
p964
sg143
I3
sg144
(lp965
I94
aI95
asg238
(issf_api
FeatureSet
p966
(dp967
g241
(dp968
S'drel'
p969
S'sent-adv:VGF'
p970
sS'name'
p971
g931
ssbsba(issf_api
Chunk
p972
(dp973
g153
g955
sg157
I1
sg235
S'NP'
p974
sg143
I3
sg144
(lp975
I96
asg238
(issf_api
FeatureSet
p976
(dp977
g241
(dp978
S'drel'
p979
S'r6:NP3'
p980
sS'name'
p981
g955
ssbsba(issf_api
Chunk
p982
(dp983
g153
g949
sg157
I2
sg235
S'NP'
p984
sg143
I3
sg144
(lp985
I97
aI98
aI99
asg238
(issf_api
FeatureSet
p986
(dp987
g241
(dp988
S'drel'
p989
S'k7:VGF'
p990
sS'name'
p991
g949
ssbsba(issf_api
Chunk
p992
(dp993
g153
g937
sg157
I3
sg235
S'NP'
p994
sg143
I3
sg144
(lp995
I100
asg238
(issf_api
FeatureSet
p996
(dp997
g241
(dp998
S'drel'
p999
S'r6:NP5'
p1000
sS'name'
p1001
g937
ssbsba(issf_api
Chunk
p1002
(dp1003
g153
g919
sg157
I4
sg235
S'NP'
p1004
sg143
I3
sg144
(lp1005
I101
asg238
(issf_api
FeatureSet
p1006
(dp1007
g241
(dp1008
S'drel'
p1009
S'k1:VGF'
p1010
sS'name'
p1011
g919
ssbsba(issf_api
Chunk
p1012
(dp1013
g153
g943
sg157
I5
sg235
S'NP'
p1014
sg143
I3
sg144
(lp1015
I102
aI103
asg238
(issf_api
FeatureSet
p1016
(dp1017
g241
(dp1018
S'drel'
p1019
S'k7p:VGF'
p1020
sS'name'
p1021
g943
ssbsba(issf_api
Chunk
p1022
(dp1023
g153
g913
sg157
I6
sg235
S'JJP'
p1024
sg143
I3
sg144
(lp1025
I104
asg238
(issf_api
FeatureSet
p1026
(dp1027
g241
(dp1028
S'drel'
p1029
S'pof:VGF'
p1030
sS'name'
p1031
g913
ssbsba(issf_api
Chunk
p1032
(dp1033
g153
g909
sg157
I7
sg235
S'VGF'
p1034
sg143
I3
sg144
(lp1035
I105
asg238
(issf_api
FeatureSet
p1036
(dp1037
g241
(dp1038
S'name'
p1039
g909
sS'stype'
p1040
S'declarative'
p1041
sS'voicetype'
p1042
S'active'
p1043
ssbsba(issf_api
Chunk
p1044
(dp1045
g153
g925
sg157
I8
sg235
S'BLK'
p1046
sg143
I3
sg144
(lp1047
I106
asg238
(issf_api
FeatureSet
p1048
(dp1049
g241
(dp1050
S'drel'
p1051
S'rsym:VGF'
p1052
sS'name'
p1053
g925
ssbsbasba(issf_api
Sentence
p1054
(dp1055
g141
(lp1056
sg143
I4
sg144
(lp1057
I107
aI108
aI109
aI110
aI111
aI112
aI113
aI114
aI115
aI116
aI117
aI118
aI119
aI120
aI121
aI122
aI123
aI124
aI125
aI126
aI127
aI128
aI129
aI130
aI131
asg146
(dp1058
S'VGNF'
p1059
(issf_api
Node
p1060
(dp1061
g151
S'nmod__k1inv'
p1062
sg153
g1059
sg154
S'NP4'
p1063
sg156
I-1
sg157
I3
sg158
(lp1064
sbsS'VGNN'
p1065
(issf_api
Node
p1066
(dp1067
g151
S'rt'
p1068
sg153
g1065
sg154
S'VGF'
p1069
sg156
I-1
sg157
I7
sg158
(lp1070
sbsS'VGF'
p1071
(issf_api
Node
p1072
(dp1073
g151
g163
sg153
g1071
sg154
g163
sg156
I-1
sg157
I10
sg158
(lp1074
sbsS'JJP'
p1075
(issf_api
Node
p1076
(dp1077
g151
S'pof'
p1078
sg153
g1075
sg154
S'VGNN'
p1079
sg156
I-1
sg157
I6
sg158
(lp1080
sbsS'NP5'
p1081
(issf_api
Node
p1082
(dp1083
g151
S'k7'
p1084
sg153
g1081
sg154
S'VGNN'
p1085
sg156
I-1
sg157
I5
sg158
(lp1086
sbsS'BLK'
p1087
(issf_api
Node
p1088
(dp1089
g151
S'rsym'
p1090
sg153
g1087
sg154
S'VGF'
p1091
sg156
I-1
sg157
I11
sg158
(lp1092
sbsS'NP'
p1093
(issf_api
Node
p1094
(dp1095
g151
S'k7t'
p1096
sg153
g1093
sg154
S'VGF'
p1097
sg156
I-1
sg157
I0
sg158
(lp1098
sbsS'NP4'
p1099
(issf_api
Node
p1100
(dp1101
g151
S'k4'
p1102
sg153
g1099
sg154
S'VGF'
p1103
sg156
I-1
sg157
I4
sg158
(lp1104
sbsS'NP7'
p1105
(issf_api
Node
p1106
(dp1107
g151
S'k2'
p1108
sg153
g1105
sg154
S'VGF'
p1109
sg156
I-1
sg157
I9
sg158
(lp1110
sbsS'NP6'
p1111
(issf_api
Node
p1112
(dp1113
g151
S'r6'
p1114
sg153
g1111
sg154
S'NP7'
p1115
sg156
I-1
sg157
I8
sg158
(lp1116
sbsS'NP3'
p1117
(issf_api
Node
p1118
(dp1119
g151
S'k7'
p1120
sg153
g1117
sg154
S'VGNF'
p1121
sg156
I-1
sg157
I2
sg158
(lp1122
sbsS'NP2'
p1123
(issf_api
Node
p1124
(dp1125
g151
S'k1'
p1126
sg153
g1123
sg154
S'VGF'
p1127
sg156
I-1
sg157
I1
sg158
(lp1128
sbssg231
(lp1129
(issf_api
Chunk
p1130
(dp1131
g153
g1093
sg157
I0
sg235
S'NP'
p1132
sg143
I4
sg144
(lp1133
I107
aI108
asg238
(issf_api
FeatureSet
p1134
(dp1135
g241
(dp1136
S'drel'
p1137
S'k7t:VGF'
p1138
sS'name'
p1139
g1093
ssbsba(issf_api
Chunk
p1140
(dp1141
g153
g1123
sg157
I1
sg235
S'NP'
p1142
sg143
I4
sg144
(lp1143
I109
aI110
asg238
(issf_api
FeatureSet
p1144
(dp1145
g241
(dp1146
S'drel'
p1147
S'k1:VGF'
p1148
sS'name'
p1149
g1123
ssbsba(issf_api
Chunk
p1150
(dp1151
g153
g1117
sg157
I2
sg235
S'NP'
p1152
sg143
I4
sg144
(lp1153
I111
aI112
asg238
(issf_api
FeatureSet
p1154
(dp1155
g241
(dp1156
S'drel'
p1157
S'k7:VGNF'
p1158
sS'name'
p1159
g1117
ssbsba(issf_api
Chunk
p1160
(dp1161
g153
g1059
sg157
I3
sg235
S'VGNF'
p1162
sg143
I4
sg144
(lp1163
I113
aI114
asg238
(issf_api
FeatureSet
p1164
(dp1165
g241
(dp1166
S'drel'
p1167
S'nmod__k1inv:NP4'
p1168
sS'name'
p1169
g1059
ssbsba(issf_api
Chunk
p1170
(dp1171
g153
g1099
sg157
I4
sg235
S'NP'
p1172
sg143
I4
sg144
(lp1173
I115
aI116
aI117
asg238
(issf_api
FeatureSet
p1174
(dp1175
g241
(dp1176
S'drel'
p1177
S'k4:VGF'
p1178
sS'name'
p1179
g1099
ssbsba(issf_api
Chunk
p1180
(dp1181
g153
g1081
sg157
I5
sg235
S'NP'
p1182
sg143
I4
sg144
(lp1183
I118
aI119
asg238
(issf_api
FeatureSet
p1184
(dp1185
g241
(dp1186
S'drel'
p1187
S'k7:VGNN'
p1188
sS'name'
p1189
g1081
ssbsba(issf_api
Chunk
p1190
(dp1191
g153
g1075
sg157
I6
sg235
S'JJP'
p1192
sg143
I4
sg144
(lp1193
I120
asg238
(issf_api
FeatureSet
p1194
(dp1195
g241
(dp1196
S'drel'
p1197
S'pof:VGNN'
p1198
sS'name'
p1199
g1075
ssbsba(issf_api
Chunk
p1200
(dp1201
g153
g1065
sg157
I7
sg235
S'VGNN'
p1202
sg143
I4
sg144
(lp1203
I121
aI122
aI123
asg238
(issf_api
FeatureSet
p1204
(dp1205
g241
(dp1206
S'drel'
p1207
S'rt:VGF'
p1208
sS'name'
p1209
g1065
ssbsba(issf_api
Chunk
p1210
(dp1211
g153
g1111
sg157
I8
sg235
S'NP'
p1212
sg143
I4
sg144
(lp1213
I124
aI125
aI126
aI127
asg238
(issf_api
FeatureSet
p1214
(dp1215
g241
(dp1216
S'drel'
p1217
S'r6:NP7'
p1218
sS'name'
p1219
g1111
ssbsba(issf_api
Chunk
p1220
(dp1221
g153
g1105
sg157
I9
sg235
S'NP'
p1222
sg143
I4
sg144
(lp1223
I128
asg238
(issf_api
FeatureSet
p1224
(dp1225
g241
(dp1226
S'drel'
p1227
S'k2:VGF'
p1228
sS'name'
p1229
g1105
ssbsba(issf_api
Chunk
p1230
(dp1231
g153
g1071
sg157
I10
sg235
S'VGF'
p1232
sg143
I4
sg144
(lp1233
I129
aI130
asg238
(issf_api
FeatureSet
p1234
(dp1235
g241
(dp1236
S'name'
p1237
g1071
sS'stype'
p1238
S'declarative'
p1239
sS'voicetype'
p1240
S'active'
p1241
ssbsba(issf_api
Chunk
p1242
(dp1243
g153
g1087
sg157
I11
sg235
S'BLK'
p1244
sg143
I4
sg144
(lp1245
I131
asg238
(issf_api
FeatureSet
p1246
(dp1247
g241
(dp1248
S'drel'
p1249
S'rsym:VGF'
p1250
sS'name'
p1251
g1087
ssbsbasbasS'relationList'
p1252
(lp1253
(iextract_relations
discourseRelation
p1254
(dp1255
S'arg1Trees'
p1256
(lp1257
sS'arg2Sentence'
p1258
(lp1259
sS'arg1Sentence'
p1260
(lp1261
sS'connList'
p1262
(lp1263
sS'isPaired'
p1264
I00
sS'arg1'
p1265
NsS'arg1Span'
p1266
V118..252
p1267
sS'arg2'
p1268
NsS'arg2Trees'
p1269
(lp1270
sS'fileName'
p1271
S'../data/raw/Section_17/fullnews_id_2610160_date_20_7_2004.utf8'
p1272
sS'connTrees'
p1273
(lp1274
sS'arg2List'
p1275
(lp1276
sS'arg2Span'
p1277
V254..387
p1278
sS'sense'
p1279
VTemporal.Asynchronous.Precedence
p1280
sS'relationType'
p1281
VImplicit
p1282
sS'connSpan'
p1283
V
sS'arg1List'
p1284
(lp1285
sS'conn'
p1286
Visake pahale
p1287
sba(iextract_relations
discourseRelation
p1288
(dp1289
g1256
(lp1290
sg1258
(lp1291
sg1260
(lp1292
sg1262
(lp1293
sg1264
I00
sg1265
Nsg1266
V118..253
p1294
sg1268
Nsg1269
(lp1295
sg1271
g1272
sg1273
(lp1296
sg1275
(lp1297
sg1277
V388..514
p1298
sg1279
VExpansion.Restatement.Specification
p1299
sg1281
VImplicit
p1300
sg1283
V
sg1284
(lp1301
sg1286
Vxarasal
p1302
sba(iextract_relations
discourseRelation
p1303
(dp1304
g1256
(lp1305
sg1258
(lp1306
sg1260
(lp1307
sg1262
(lp1308
I79
asg1264
I00
sg1265
Nsg1266
V419..449
p1309
sg1268
Nsg1269
(lp1310
sg1271
g1272
sg1273
(lp1311
sg1275
(lp1312
I80
aI81
aI82
aI83
aI84
aI85
aI86
aI87
aI88
aI89
aI90
aI91
aI92
asg1277
V454..514
p1313
sg1279
VComparison.Pragmatic concession
p1314
sg1281
VExplicit
p1315
sg1283
V451..453
p1316
sg1284
(lp1317
I71
aI72
aI73
aI74
aI75
aI76
aI77
asg1286
V\u092a\u0930
p1318
sba(iextract_relations
discourseRelation
p1319
(dp1320
g1256
(lp1321
sg1258
(lp1322
sg1260
(lp1323
sg1262
(lp1324
I82
aI88
asg1264
I00
sg1265
Nsg1266
V465..488
p1325
sg1268
Nsg1269
(lp1326
sg1271
g1272
sg1273
(lp1327
sg1275
(lp1328
I89
aI90
aI91
aI92
aI93
asg1277
V492..515
p1329
sg1279
VContingency.Condition.General
p1330
sg1281
VExplicit
p1331
sg1283
V461..464;489..491
p1332
sg1284
(lp1333
I83
aI84
aI85
aI86
aI87
asg1286
V\u092f\u0926\u093f..\u0924\u094b
p1334
sba(iextract_relations
discourseRelation
p1335
(dp1336
g1256
(lp1337
sg1258
(lp1338
sg1260
(lp1339
sg1262
(lp1340
I94
aI95
asg1264
I00
sg1265
Nsg1266
V419..514
p1341
sg1268
Nsg1269
(lp1342
sg1271
g1272
sg1273
(lp1343
sg1275
(lp1344
I96
aI97
aI98
aI99
aI100
aI101
aI102
aI103
aI104
aI105
aI106
asg1277
V523..576
p1345
sg1279
VExpansion.Conjunction
p1346
sg1281
VExplicit
p1347
sg1283
V516..522
p1348
sg1284
(lp1349
I71
aI72
aI73
aI74
aI75
aI76
aI77
aI78
aI79
aI80
aI81
aI82
aI83
aI84
aI85
aI86
aI87
aI88
aI89
aI90
aI91
aI92
asg1286
V\u0938\u093e\u0925 \u0939\u0940
p1350
sba(iextract_relations
discourseRelation
p1351
(dp1352
g1256
(lp1353
sg1258
(lp1354
sg1260
(lp1355
sg1262
(lp1356
I107
aI108
asg1264
I00
sg1265
Nsg1266
V388..576
p1357
sg1268
Nsg1269
(lp1358
sg1271
g1272
sg1273
(lp1359
sg1275
(lp1360
I109
aI110
aI111
aI112
aI113
aI114
aI115
aI116
aI117
aI118
aI119
aI120
aI121
aI122
aI123
aI124
aI125
aI126
aI127
aI128
aI129
aI130
aI131
asg1277
V584..676
p1361
sg1279
VTemporal.Synchrony
p1362
sg1281
VExplicit
p1363
sg1283
V577..583
p1364
sg1284
(lp1365
I63
aI64
aI65
aI66
aI67
aI68
aI69
aI70
aI71
aI72
aI73
aI74
aI75
aI76
aI77
aI78
aI79
aI80
aI81
aI82
aI83
aI84
aI85
aI86
aI87
aI88
aI89
aI90
aI91
aI92
aI93
aI94
aI95
aI96
aI97
aI98
aI99
aI100
aI101
aI102
aI103
aI104
aI105
aI106
asg1286
V\u0907\u0938 \u092c\u0940\u091a
p1366
sbasS'rawData'
p1367
V<DOC>\u000a<DOCNO>fullnews_id_2610160_date_20_7_2004.utf8</DOCNO>\u000a<TEXT>\u000a\u000a\u000a\u0938\u0902\u091c\u092f \u0915\u094b \u092c\u093e\u0939\u0930 \u091c\u093e\u0928\u0947 \u0915\u0940 \u091b\u0942\u091f\u000a\u000a\u000a\u000a\u092a\u094d\u0930\u0947\u000a\u000a\u092e\u0941\u0902\u092c\u0908\u0964  \u000a\u000a\u000a\u000a\u000a\u000a\u092e\u0941\u0902\u092c\u0908 \u0927\u092e\u093e\u0915\u094b\u0902 \u0915\u0947 \u0906\u0930\u094b\u092a\u0940 \u092b\u093f\u0932\u094d\u092e \u0938\u094d\u091f\u093e\u0930 \u0938\u0902\u091c\u092f \u0926\u0924\u094d\u0924 \u0915\u094b \u0935\u093f\u0936\u0947\u0937 \u091f\u093e\u0921\u093e \u0905\u0926\u093e\u0932\u0924 \u0928\u0947 \u0915\u0941\u091b \u0936\u0924\u094b \u0915\u0947 \u0938\u093e\u0925 \u0920\u093e\u0923\u0947 \u091c\u093f\u0932\u0947 \u0915\u0947 \u0915\u0930\u091c\u093e\u091f \u092e\u0947\u0902 \u0936\u0942\u091f\u093f\u0902\u0917 \u092a\u0930 \u091c\u093e\u0928\u0947 \u0915\u0940 \u0907\u091c\u093e\u091c\u0924 \u0926\u0947 \u0926\u0940\u0964 \u0938\u0902\u091c\u092f \u0915\u0947 \u0935\u0915\u0940\u0932 \u0928\u0947 \u0905\u0926\u093e\u0932\u0924 \u0938\u0947 \u092b\u093f\u0932\u094d\u092e '\u092e\u0941\u0928\u094d\u0928\u093e\u092d\u093e\u0908-\u0968' \u0915\u0940 \u0936\u0942\u091f\u093f\u0902\u0917 \u0915\u0947 \u0935\u093e\u0938\u094d\u0924\u0947 \u091a\u093e\u0930 \u0926\u093f\u0928 \u0915\u0947 \u0932\u093f\u090f \u0938\u0902\u091c\u092f \u0915\u094b \u092e\u0941\u0902\u092c\u0908 \u0915\u0947 \u092c\u093e\u0939\u0930 \u091c\u093e\u0928\u0947 \u0915\u0940\u0907\u091c\u093e\u091c\u0924 \u0915\u093e \u0905\u0928\u0941\u0930\u094b\u0927 \u0915\u093f\u092f\u093e \u0925\u093e\u0964 \u0935\u093f\u0936\u0947\u0937 \u091c\u091c \u092a\u0940.\u0921\u0940. \u0915\u094b\u0921\u0947 \u0928\u0947 \u0915\u0939\u093e \u0915\u093f \u0938\u0902\u091c\u092f \u0936\u0942\u091f\u093f\u0902\u0917 \u0915\u0947 \u0932\u093f\u090f \u091c\u093e \u0938\u0915\u0924\u0947 \u0939\u0948\u0902, \u092a\u0930 \u0907\u0938 \u092c\u0940\u091a \u092f\u0926\u093f \u0909\u0928\u094d\u0939\u0947\u0902 \u0938\u092e\u0928 \u092d\u0947\u091c\u093e \u091c\u093e\u0924\u093e \u0939\u0948 \u0924\u094b \u0909\u0928\u094d\u0939\u0947\u0902 \u0939\u093e\u091c\u093f\u0930 \u0939\u094b\u0928\u093e \u0939\u094b\u0917\u093e\u0964 \u0938\u093e\u0925 \u0939\u0940 \u0909\u0928\u0915\u0940 \u0917\u0948\u0930\u092e\u094c\u091c\u0942\u0926\u0917\u0940 \u092e\u0947\u0902 \u0909\u0928\u0915\u0947 \u0935\u0915\u0940\u0932 \u0915\u094b\u0930\u094d\u091f \u092e\u0947\u0902 \u092e\u094c\u091c\u0942\u0926 \u0930\u0939\u0947\u0902\u0917\u0947\u0964 \u0907\u0938 \u092c\u0940\u091a \u0905\u0926\u093e\u0932\u0924 \u0928\u0947 \u091c\u092e\u093e\u0928\u0924 \u092a\u0930 \u091a\u0932 \u0930\u0939\u0947 \u0905\u0928\u094d\u092f \u0906\u0930\u094b\u092a\u093f\u092f\u094b\u0902 \u0915\u094b \u092a\u0947\u0936\u0940 \u092a\u0930 \u0939\u093e\u091c\u093f\u0930 \u0939\u094b\u0928\u0947 \u0915\u0947 \u0932\u093f\u090f \u0969 \u091c\u0928\u0935\u0930\u0940 \u0924\u0915 \u0915\u0940 \u091b\u0942\u091f \u0926\u0947 \u0926\u0940\u0964\u000a\u000a\u000a\u000a\u000a</TEXT>\u000a</DOC>
p1368
sS'rawFileName'
p1369
g1272
sS'rawToAnnMapping'
p1370
(dp1371
I0
(I0
tp1372
sI1
(I1
tp1373
sI2
(I2
tp1374
sI3
(I3
tp1375
sI4
(I4
tp1376
sI5
(I5
tp1377
sI6
(I6
tp1378
sI7
(I7
tp1379
sI8
(I8
tp1380
sI9
(I9
tp1381
sI10
(I10
tp1382
sI11
(I11
tp1383
sI12
(I12
tp1384
sI13
(I13
tp1385
sI14
(I14
tp1386
sI15
(I15
tp1387
sI16
(I16
tp1388
sI17
(I17
tp1389
sI18
(I18
tp1390
sI19
(I19
tp1391
sI20
(I20
tp1392
sI21
(I21
tp1393
sI22
(I22
tp1394
sI23
(I23
tp1395
sI24
(I24
tp1396
sI25
(I25
tp1397
sI26
(I26
tp1398
sI27
(I27
tp1399
sI28
(I28
tp1400
sI29
(I29
tp1401
sI30
(I30
tp1402
sI31
(I31
tp1403
sI32
(I32
tp1404
sI33
(I33
tp1405
sI34
(I34
tp1406
sI35
(I35
tp1407
sI36
(I36
tp1408
sI37
(I37
tp1409
sI38
(I38
tp1410
sI39
(I39
tp1411
sI40
(I40
tp1412
sI41
(I41
tp1413
sI42
(I42
tp1414
sI43
(I43
tp1415
sI44
(I44
tp1416
sI45
(I45
tp1417
sI46
(I46
tp1418
sI47
(I47
tp1419
sI48
(I48
tp1420
sI49
(I49
tp1421
sI50
(I50
tp1422
sI51
(I51
tp1423
sI52
(I52
tp1424
sI53
(I53
tp1425
sI54
(I54
tp1426
sI55
(I55
tp1427
sI56
(I56
I57
tp1428
sI57
(I58
tp1429
sI58
(I59
tp1430
sI59
(I60
tp1431
sI60
(I61
tp1432
sI61
(I62
tp1433
sI62
(I63
tp1434
sI63
(I64
tp1435
sI64
(I65
tp1436
sI65
(I66
tp1437
sI66
(I67
tp1438
sI67
(I68
tp1439
sI68
(I69
tp1440
sI69
(I70
tp1441
sI70
(I71
tp1442
sI71
(I72
tp1443
sI72
(I73
tp1444
sI73
(I74
tp1445
sI74
(I75
tp1446
sI75
(I76
tp1447
sI76
(I77
tp1448
sI77
(I78
tp1449
sI78
(I79
tp1450
sI79
(I80
tp1451
sI80
(I81
tp1452
sI81
(I82
tp1453
sI82
(I83
tp1454
sI83
(I84
tp1455
sI84
(I85
tp1456
sI85
(I86
tp1457
sI86
(I87
tp1458
sI87
(I88
tp1459
sI88
(I89
tp1460
sI89
(I90
tp1461
sI90
(I91
tp1462
sI91
(I92
tp1463
sI92
(I93
tp1464
sI93
(I94
tp1465
sI94
(I95
tp1466
sI95
(I96
tp1467
sI96
(I97
I98
tp1468
sI97
(I99
tp1469
sI98
(I100
tp1470
sI99
(I101
tp1471
sI100
(I102
tp1472
sI101
(I103
tp1473
sI102
(I104
tp1474
sI103
(I105
tp1475
sI104
(I106
tp1476
sI105
(I107
tp1477
sI106
(I108
tp1478
sI107
(I109
tp1479
sI108
(I110
tp1480
sI109
(I111
tp1481
sI110
(I112
tp1482
sI111
(I113
tp1483
sI112
(I114
tp1484
sI113
(I115
tp1485
sI114
(I116
tp1486
sI115
(I117
tp1487
sI116
(I118
tp1488
sI117
(I119
tp1489
sI118
(I120
tp1490
sI119
(I121
tp1491
sI120
(I122
tp1492
sI121
(I123
tp1493
sI122
(I124
tp1494
sI123
(I125
tp1495
sI124
(I126
tp1496
sI125
(I127
tp1497
sI126
(I128
tp1498
sI127
(I129
tp1499
sI128
(I130
tp1500
sI129
(I131
tp1501
ssS'globalWordList'
p1502
(lp1503
(issf_api
Word
p1504
(dp1505
S'splitConn'
p1506
I00
sS'word'
p1507
V\u092e\u0941\u0902\u092c\u0908
p1508
sS'extraFeatureSet'
p1509
(issf_api
FeatureSet
p1510
(dp1511
g241
(dp1512
S'posn'
p1513
S'10'
p1514
sS'name'
p1515
S'\xe0\xa4\xae\xe0\xa5\x81\xe0\xa4\x82\xe0\xa4\xac\xe0\xa4\x88'
p1516
sS'drel'
p1517
S'nmod__adj:\xe0\xa4\xa7\xe0\xa4\xae\xe0\xa4\xbe\xe0\xa4\x95\xe0\xa5\x8b\xe0\xa4\x82'
p1518
sS'chunktype'
p1519
S'child:NP'
p1520
sS'af'
p1521
S'\xe0\xa4\xae\xe0\xa5\x81\xe0\xa4\x82\xe0\xa4\xac\xe0\xa4\x88,n,f,sg,3,d,0,0'
p1522
ssbsg1265
I00
sg1268
I00
sg1279
Nsg1266
Nsg157
I0
sg143
I0
sS'relationNum'
p1523
Nsg1277
NsS'wordTag'
p1524
S'NNP'
p1525
sg238
(issf_api
FeatureSet
p1526
(dp1527
g241
(dp1528
S'posn'
p1529
S'10'
p1530
sS'name'
p1531
S'\xe0\xa4\xae\xe0\xa5\x81\xe0\xa4\x82\xe0\xa4\xac\xe0\xa4\x88'
p1532
sS'af'
p1533
S'\xe0\xa4\xae\xe0\xa5\x81\xe0\xa4\x82\xe0\xa4\xac\xe0\xa4\x88,n,f,sg,3,d,0,0'
p1534
ssbsg1286
I00
sba(issf_api
Word
p1535
(dp1536
g1506
I00
sg1507
V\u0927\u092e\u093e\u0915\u094b\u0902
p1537
sg1509
(issf_api
FeatureSet
p1538
(dp1539
g241
(dp1540
S'posn'
p1541
S'20'
p1542
sS'name'
p1543
S'\xe0\xa4\xa7\xe0\xa4\xae\xe0\xa4\xbe\xe0\xa4\x95\xe0\xa5\x8b\xe0\xa4\x82'
p1544
sS'af'
p1545
S'\xe0\xa4\xa7\xe0\xa4\xae\xe0\xa4\xbe\xe0\xa4\x95\xe0\xa4\xbe,n,m,pl,3,o,0_\xe0\xa4\x95\xe0\xa4\xbe,0'
p1546
sS'chunkid'
p1547
S'NP'
p1548
sS'drel'
p1549
S'r6:\xe0\xa4\x86\xe0\xa4\xb0\xe0\xa5\x8b\xe0\xa4\xaa\xe0\xa5\x80'
p1550
sS'vpos'
p1551
S'vib_vib_3'
p1552
sS'chunktype'
p1553
S'head:NP'
p1554
ssbsg1265
I00
sg1268
I00
sg1279
Nsg1266
Nsg157
I0
sg143
I0
sg1523
Nsg1277
Nsg1524
S'NN'
p1555
sg238
(issf_api
FeatureSet
p1556
(dp1557
g241
(dp1558
S'posn'
p1559
S'20'
p1560
sS'name'
p1561
S'\xe0\xa4\xa7\xe0\xa4\xae\xe0\xa4\xbe\xe0\xa4\x95\xe0\xa5\x8b\xe0\xa4\x82'
p1562
sS'af'
p1563
S'\xe0\xa4\xa7\xe0\xa4\xae\xe0\xa4\xbe\xe0\xa4\x95\xe0\xa4\xbe,n,m,pl,3,o,0,0'
p1564
ssbsg1286
I00
sba(issf_api
Word
p1565
(dp1566
g1506
I00
sg1507
V\u0915\u0947
p1567
sg1509
(issf_api
FeatureSet
p1568
(dp1569
g241
(dp1570
S'posn'
p1571
S'30'
p1572
sS'name'
p1573
S'\xe0\xa4\x95\xe0\xa5\x87'
p1574
sS'drel'
p1575
S'lwg__psp:\xe0\xa4\xa7\xe0\xa4\xae\xe0\xa4\xbe\xe0\xa4\x95\xe0\xa5\x8b\xe0\xa4\x82'
p1576
sS'chunktype'
p1577
S'child:NP'
p1578
sS'af'
p1579
S'\xe0\xa4\x95\xe0\xa4\xbe,psp,m,sg,,o,,'
p1580
ssbsg1265
I00
sg1268
I00
sg1279
Nsg1266
Nsg157
I0
sg143
I0
sg1523
Nsg1277
Nsg1524
S'PSP'
p1581
sg238
(issf_api
FeatureSet
p1582
(dp1583
g241
(dp1584
S'posn'
p1585
S'30'
p1586
sS'name'
p1587
S'\xe0\xa4\x95\xe0\xa5\x87'
p1588
sS'af'
p1589
S'\xe0\xa4\x95\xe0\xa4\xbe,psp,m,sg,,o,,'
p1590
ssbsg1286
I00
sba(issf_api
Word
p1591
(dp1592
g1506
I00
sg1507
V\u0906\u0930\u094b\u092a\u0940
p1593
sg1509
(issf_api
FeatureSet
p1594
(dp1595
g241
(dp1596
S'posn'
p1597
S'40'
p1598
sS'name'
p1599
S'\xe0\xa4\x86\xe0\xa4\xb0\xe0\xa5\x8b\xe0\xa4\xaa\xe0\xa5\x80'
p1600
sS'af'
p1601
S'\xe0\xa4\x86\xe0\xa4\xb0\xe0\xa5\x8b\xe0\xa4\xaa\xe0\xa5\x80,n,m,sg,3,o,0,0'
p1602
sS'chunkid'
p1603
S'NP2'
p1604
sS'drel'
p1605
S'nmod:\xe0\xa4\xa6\xe0\xa4\xa4\xe0\xa5\x8d\xe0\xa4\xa4'
p1606
sS'chunktype'
p1607
S'head:NP2'
p1608
ssbsg1265
I00
sg1268
I00
sg1279
Nsg1266
Nsg157
I1
sg143
I0
sg1523
Nsg1277
Nsg1524
S'NN'
p1609
sg238
(issf_api
FeatureSet
p1610
(dp1611
g241
(dp1612
S'posn'
p1613
S'40'
p1614
sS'name'
p1615
S'\xe0\xa4\x86\xe0\xa4\xb0\xe0\xa5\x8b\xe0\xa4\xaa\xe0\xa5\x80'
p1616
sS'af'
p1617
S'\xe0\xa4\x86\xe0\xa4\xb0\xe0\xa5\x8b\xe0\xa4\xaa\xe0\xa5\x80,n,m,sg,3,o,0,0'
p1618
ssbsg1286
I00
sba(issf_api
Word
p1619
(dp1620
g1506
I00
sg1507
V\u092b\u093f\u0932\u094d\u092e
p1621
sg1509
(issf_api
FeatureSet
p1622
(dp1623
g241
(dp1624
S'posn'
p1625
S'50'
p1626
sS'name'
p1627
S'\xe0\xa4\xab\xe0\xa4\xbf\xe0\xa4\xb2\xe0\xa5\x8d\xe0\xa4\xae'
p1628
sS'drel'
p1629
S'pof__cn:\xe0\xa4\xb8\xe0\xa5\x8d\xe0\xa4\x9f\xe0\xa4\xbe\xe0\xa4\xb0'
p1630
sS'chunktype'
p1631
S'child:NP3'
p1632
sS'af'
p1633
S'\xe0\xa4\xab\xe0\xa4\xbf\xe0\xa4\xb2\xe0\xa5\x8d\xe0\xa4\xae,n,f,sg,3,d,0,0'
p1634
ssbsg1265
I00
sg1268
I00
sg1279
Nsg1266
Nsg157
I2
sg143
I0
sg1523
Nsg1277
Nsg1524
S'NNC'
p1635
sg238
(issf_api
FeatureSet
p1636
(dp1637
g241
(dp1638
S'posn'
p1639
S'50'
p1640
sS'name'
p1641
S'\xe0\xa4\xab\xe0\xa4\xbf\xe0\xa4\xb2\xe0\xa5\x8d\xe0\xa4\xae'
p1642
sS'af'
p1643
S'\xe0\xa4\xab\xe0\xa4\xbf\xe0\xa4\xb2\xe0\xa5\x8d\xe0\xa4\xae,n,f,sg,3,d,0,0'
p1644
ssbsg1286
I00
sba(issf_api
Word
p1645
(dp1646
g1506
I00
sg1507
V\u0938\u094d\u091f\u093e\u0930
p1647
sg1509
(issf_api
FeatureSet
p1648
(dp1649
g241
(dp1650
S'posn'
p1651
S'60'
p1652
sS'name'
p1653
S'\xe0\xa4\xb8\xe0\xa5\x8d\xe0\xa4\x9f\xe0\xa4\xbe\xe0\xa4\xb0'
p1654
sS'af'
p1655
S'\xe0\xa4\xb8\xe0\xa5\x8d\xe0\xa4\x9f\xe0\xa4\xbe\xe0\xa4\xb0,n,m,sg,3,o,0,0'
p1656
sS'chunkid'
p1657
S'NP3'
p1658
sS'drel'
p1659
S'nmod:\xe0\xa4\xa6\xe0\xa4\xa4\xe0\xa5\x8d\xe0\xa4\xa4'
p1660
sS'chunktype'
p1661
S'head:NP3'
p1662
ssbsg1265
I00
sg1268
I00
sg1279
Nsg1266
Nsg157
I2
sg143
I0
sg1523
Nsg1277
Nsg1524
S'NN'
p1663
sg238
(issf_api
FeatureSet
p1664
(dp1665
g241
(dp1666
S'posn'
p1667
S'60'
p1668
sS'name'
p1669
S'\xe0\xa4\xb8\xe0\xa5\x8d\xe0\xa4\x9f\xe0\xa4\xbe\xe0\xa4\xb0'
p1670
sS'af'
p1671
S'\xe0\xa4\xb8\xe0\xa5\x8d\xe0\xa4\x9f\xe0\xa4\xbe\xe0\xa4\xb0,n,m,sg,3,o,0,0'
p1672
ssbsg1286
I00
sba(issf_api
Word
p1673
(dp1674
g1506
I00
sg1507
V\u0938\u0902\u091c\u092f
p1675
sg1509
(issf_api
FeatureSet
p1676
(dp1677
g241
(dp1678
S'posn'
p1679
S'70'
p1680
sS'name'
p1681
S'\xe0\xa4\xb8\xe0\xa4\x82\xe0\xa4\x9c\xe0\xa4\xaf'
p1682
sS'drel'
p1683
S'pof__cn:\xe0\xa4\xa6\xe0\xa4\xa4\xe0\xa5\x8d\xe0\xa4\xa4'
p1684
sS'chunktype'
p1685
S'child:NP4'
p1686
sS'af'
p1687
S'\xe0\xa4\xb8\xe0\xa4\x82\xe0\xa4\x9c\xe0\xa4\xaf,n,m,sg,3,d,0,0'
p1688
ssbsg1265
I00
sg1268
I00
sg1279
Nsg1266
Nsg157
I3
sg143
I0
sg1523
Nsg1277
Nsg1524
S'NNPC'
p1689
sg238
(issf_api
FeatureSet
p1690
(dp1691
g241
(dp1692
S'posn'
p1693
S'70'
p1694
sS'name'
p1695
S'\xe0\xa4\xb8\xe0\xa4\x82\xe0\xa4\x9c\xe0\xa4\xaf'
p1696
sS'af'
p1697
S'\xe0\xa4\xb8\xe0\xa4\x82\xe0\xa4\x9c\xe0\xa4\xaf,n,m,sg,3,d,0,0'
p1698
ssbsg1286
I00
sba(issf_api
Word
p1699
(dp1700
g1506
I00
sg1507
V\u0926\u0924\u094d\u0924
p1701
sg1509
(issf_api
FeatureSet
p1702
(dp1703
g241
(dp1704
S'posn'
p1705
S'80'
p1706
sS'name'
p1707
S'\xe0\xa4\xa6\xe0\xa4\xa4\xe0\xa5\x8d\xe0\xa4\xa4'
p1708
sS'af'
p1709
S'\xe0\xa4\xa6\xe0\xa4\xa4\xe0\xa5\x8d\xe0\xa4\xa4,n,any,sg,3,o,0_\xe0\xa4\x95\xe0\xa5\x8b,0'
p1710
sS'chunkid'
p1711
S'NP4'
p1712
sS'drel'
p1713
S'k4:\xe0\xa4\xa6\xe0\xa5\x87'
p1714
sS'vpos'
p1715
S'vib_3'
p1716
sS'chunktype'
p1717
S'head:NP4'
p1718
ssbsg1265
I00
sg1268
I00
sg1279
Nsg1266
Nsg157
I3
sg143
I0
sg1523
Nsg1277
Nsg1524
S'NNP'
p1719
sg238
(issf_api
FeatureSet
p1720
(dp1721
g241
(dp1722
S'posn'
p1723
S'80'
p1724
sS'name'
p1725
S'\xe0\xa4\xa6\xe0\xa4\xa4\xe0\xa5\x8d\xe0\xa4\xa4'
p1726
sS'af'
p1727
S'\xe0\xa4\xa6\xe0\xa4\xa4\xe0\xa5\x8d\xe0\xa4\xa4,n,any,sg,3,o,0,0'
p1728
ssbsg1286
I00
sba(issf_api
Word
p1729
(dp1730
g1506
I00
sg1507
V\u0915\u094b
p1731
sg1509
(issf_api
FeatureSet
p1732
(dp1733
g241
(dp1734
S'posn'
p1735
S'90'
p1736
sS'name'
p1737
S'\xe0\xa4\x95\xe0\xa5\x8b'
p1738
sS'drel'
p1739
S'lwg__psp:\xe0\xa4\xa6\xe0\xa4\xa4\xe0\xa5\x8d\xe0\xa4\xa4'
p1740
sS'chunktype'
p1741
S'child:NP4'
p1742
sS'af'
p1743
S'\xe0\xa4\x95\xe0\xa5\x8b,psp,,,,,,'
p1744
ssbsg1265
I00
sg1268
I00
sg1279
Nsg1266
Nsg157
I3
sg143
I0
sg1523
Nsg1277
Nsg1524
S'PSP'
p1745
sg238
(issf_api
FeatureSet
p1746
(dp1747
g241
(dp1748
S'posn'
p1749
S'90'
p1750
sS'name'
p1751
S'\xe0\xa4\x95\xe0\xa5\x8b'
p1752
sS'af'
p1753
S'\xe0\xa4\x95\xe0\xa5\x8b,psp,,,,,,'
p1754
ssbsg1286
I00
sba(issf_api
Word
p1755
(dp1756
g1506
I00
sg1507
V\u0935\u093f\u0936\u0947\u0937
p1757
sg1509
(issf_api
FeatureSet
p1758
(dp1759
g241
(dp1760
S'posn'
p1761
S'100'
p1762
sS'name'
p1763
S'\xe0\xa4\xb5\xe0\xa4\xbf\xe0\xa4\xb6\xe0\xa5\x87\xe0\xa4\xb7'
p1764
sS'drel'
p1765
S'nmod__adj:\xe0\xa4\x85\xe0\xa4\xa6\xe0\xa4\xbe\xe0\xa4\xb2\xe0\xa4\xa4'
p1766
sS'chunktype'
p1767
S'child:NP5'
p1768
sS'af'
p1769
S'\xe0\xa4\xb5\xe0\xa4\xbf\xe0\xa4\xb6\xe0\xa5\x87\xe0\xa4\xb7,adj,any,any,,o,,'
p1770
ssbsg1265
I00
sg1268
I00
sg1279
Nsg1266
Nsg157
I4
sg143
I0
sg1523
Nsg1277
Nsg1524
S'JJ'
p1771
sg238
(issf_api
FeatureSet
p1772
(dp1773
g241
(dp1774
S'posn'
p1775
S'100'
p1776
sS'name'
p1777
S'\xe0\xa4\xb5\xe0\xa4\xbf\xe0\xa4\xb6\xe0\xa5\x87\xe0\xa4\xb7'
p1778
sS'af'
p1779
S'\xe0\xa4\xb5\xe0\xa4\xbf\xe0\xa4\xb6\xe0\xa5\x87\xe0\xa4\xb7,adj,any,any,,o,,'
p1780
ssbsg1286
I00
sba(issf_api
Word
p1781
(dp1782
g1506
I00
sg1507
V\u091f\u093e\u0921\u093e
p1783
sg1509
(issf_api
FeatureSet
p1784
(dp1785
g241
(dp1786
S'posn'
p1787
S'110'
p1788
sS'name'
p1789
S'\xe0\xa4\x9f\xe0\xa4\xbe\xe0\xa4\xa1\xe0\xa4\xbe'
p1790
sS'drel'
p1791
S'pof__cn:\xe0\xa4\x85\xe0\xa4\xa6\xe0\xa4\xbe\xe0\xa4\xb2\xe0\xa4\xa4'
p1792
sS'chunktype'
p1793
S'child:NP5'
p1794
sS'af'
p1795
S'\xe0\xa4\x9f\xe0\xa4\xbe\xe0\xa4\xa1\xe0\xa4\xbe,n,f,sg,3,d,0,0'
p1796
ssbsg1265
I00
sg1268
I00
sg1279
Nsg1266
Nsg157
I4
sg143
I0
sg1523
Nsg1277
Nsg1524
S'NNPC'
p1797
sg238
(issf_api
FeatureSet
p1798
(dp1799
g241
(dp1800
S'posn'
p1801
S'110'
p1802
sS'name'
p1803
S'\xe0\xa4\x9f\xe0\xa4\xbe\xe0\xa4\xa1\xe0\xa4\xbe'
p1804
sS'af'
p1805
S'\xe0\xa4\x9f\xe0\xa4\xbe\xe0\xa4\xa1\xe0\xa4\xbe,n,f,sg,3,d,0,0'
p1806
ssbsg1286
I00
sba(issf_api
Word
p1807
(dp1808
g1506
I00
sg1507
V\u0905\u0926\u093e\u0932\u0924
p1809
sg1509
(issf_api
FeatureSet
p1810
(dp1811
g241
(dp1812
S'posn'
p1813
S'120'
p1814
sS'name'
p1815
S'\xe0\xa4\x85\xe0\xa4\xa6\xe0\xa4\xbe\xe0\xa4\xb2\xe0\xa4\xa4'
p1816
sS'af'
p1817
S'\xe0\xa4\x85\xe0\xa4\xa6\xe0\xa4\xbe\xe0\xa4\xb2\xe0\xa4\xa4,n,f,sg,3,o,0_\xe0\xa4\xa8\xe0\xa5\x87,0'
p1818
sS'chunkid'
p1819
S'NP5'
p1820
sS'drel'
p1821
S'k1:\xe0\xa4\xa6\xe0\xa5\x87'
p1822
sS'vpos'
p1823
S'vib_4'
p1824
sS'chunktype'
p1825
S'head:NP5'
p1826
ssbsg1265
I00
sg1268
I00
sg1279
Nsg1266
Nsg157
I4
sg143
I0
sg1523
Nsg1277
Nsg1524
S'NNP'
p1827
sg238
(issf_api
FeatureSet
p1828
(dp1829
g241
(dp1830
S'posn'
p1831
S'120'
p1832
sS'name'
p1833
S'\xe0\xa4\x85\xe0\xa4\xa6\xe0\xa4\xbe\xe0\xa4\xb2\xe0\xa4\xa4'
p1834
sS'af'
p1835
S'\xe0\xa4\x85\xe0\xa4\xa6\xe0\xa4\xbe\xe0\xa4\xb2\xe0\xa4\xa4,n,f,sg,3,o,0,0'
p1836
ssbsg1286
I00
sba(issf_api
Word
p1837
(dp1838
g1506
I00
sg1507
V\u0928\u0947
p1839
sg1509
(issf_api
FeatureSet
p1840
(dp1841
g241
(dp1842
S'posn'
p1843
S'130'
p1844
sS'name'
p1845
S'\xe0\xa4\xa8\xe0\xa5\x87'
p1846
sS'drel'
p1847
S'lwg__psp:\xe0\xa4\x85\xe0\xa4\xa6\xe0\xa4\xbe\xe0\xa4\xb2\xe0\xa4\xa4'
p1848
sS'chunktype'
p1849
S'child:NP5'
p1850
sS'af'
p1851
S'\xe0\xa4\xa8\xe0\xa5\x87,psp,,,,,,'
p1852
ssbsg1265
I00
sg1268
I00
sg1279
Nsg1266
Nsg157
I4
sg143
I0
sg1523
Nsg1277
Nsg1524
S'PSP'
p1853
sg238
(issf_api
FeatureSet
p1854
(dp1855
g241
(dp1856
S'posn'
p1857
S'130'
p1858
sS'name'
p1859
S'\xe0\xa4\xa8\xe0\xa5\x87'
p1860
sS'af'
p1861
S'\xe0\xa4\xa8\xe0\xa5\x87,psp,,,,,,'
p1862
ssbsg1286
I00
sba(issf_api
Word
p1863
(dp1864
g1506
I00
sg1507
V\u0915\u0941\u091b
p1865
sg1509
(issf_api
FeatureSet
p1866
(dp1867
g241
(dp1868
S'posn'
p1869
S'140'
p1870
sS'name'
p1871
S'\xe0\xa4\x95\xe0\xa5\x81\xe0\xa4\x9b'
p1872
sS'drel'
p1873
S'nmod__adj:\xe0\xa4\xb6\xe0\xa4\xb0\xe0\xa5\x8d\xe0\xa4\xa4\xe0\xa5\x8b\xe0\xa4\x82'
p1874
sS'chunktype'
p1875
S'child:NP6'
p1876
sS'af'
p1877
S'\xe0\xa4\x95\xe0\xa5\x81\xe0\xa4\x9b,avy,,,,,,'
p1878
ssbsg1265
I00
sg1268
I00
sg1279
Nsg1266
Nsg157
I5
sg143
I0
sg1523
Nsg1277
Nsg1524
S'QF'
p1879
sg238
(issf_api
FeatureSet
p1880
(dp1881
g241
(dp1882
S'posn'
p1883
S'140'
p1884
sS'name'
p1885
S'\xe0\xa4\x95\xe0\xa5\x81\xe0\xa4\x9b'
p1886
sS'af'
p1887
S'\xe0\xa4\x95\xe0\xa5\x81\xe0\xa4\x9b,avy,,,,,,'
p1888
ssbsg1286
I00
sba(issf_api
Word
p1889
(dp1890
g1506
I00
sg1507
V\u0936\u0930\u094d\u0924\u094b\u0902
p1891
sg1509
(issf_api
FeatureSet
p1892
(dp1893
g241
(dp1894
S'posn'
p1895
S'150'
p1896
sS'name'
p1897
S'\xe0\xa4\xb6\xe0\xa4\xb0\xe0\xa5\x8d\xe0\xa4\xa4\xe0\xa5\x8b\xe0\xa4\x82'
p1898
sS'af'
p1899
S'\xe0\xa4\xb6\xe0\xa4\xb0\xe0\xa5\x8d\xe0\xa4\xa4,n,f,pl,3,o,0_\xe0\xa4\x95\xe0\xa5\x87_\xe0\xa4\xb8\xe0\xa4\xbe\xe0\xa4\xa5,0'
p1900
sS'chunkid'
p1901
S'NP6'
p1902
sS'drel'
p1903
S'ras-k1:\xe0\xa4\xa6\xe0\xa5\x87'
p1904
sS'vpos'
p1905
S'vib_3_4'
p1906
sS'chunktype'
p1907
S'head:NP6'
p1908
ssbsg1265
I00
sg1268
I00
sg1279
Nsg1266
Nsg157
I5
sg143
I0
sg1523
Nsg1277
Nsg1524
S'NN'
p1909
sg238
(issf_api
FeatureSet
p1910
(dp1911
g241
(dp1912
S'posn'
p1913
S'150'
p1914
sS'name'
p1915
S'\xe0\xa4\xb6\xe0\xa4\xb0\xe0\xa5\x8d\xe0\xa4\xa4\xe0\xa5\x8b\xe0\xa4\x82'
p1916
sS'af'
p1917
S'\xe0\xa4\xb6\xe0\xa4\xb0\xe0\xa5\x8d\xe0\xa4\xa4,n,f,pl,3,o,0,0'
p1918
ssbsg1286
I00
sba(issf_api
Word
p1919
(dp1920
g1506
I00
sg1507
V\u0915\u0947
p1921
sg1509
(issf_api
FeatureSet
p1922
(dp1923
g241
(dp1924
S'posn'
p1925
S'160'
p1926
sS'name'
p1927
S'\xe0\xa4\x95\xe0\xa5\x872'
p1928
sS'drel'
p1929
S'lwg__psp:\xe0\xa4\xb6\xe0\xa4\xb0\xe0\xa5\x8d\xe0\xa4\xa4\xe0\xa5\x8b\xe0\xa4\x82'
p1930
sS'chunktype'
p1931
S'child:NP6'
p1932
sS'af'
p1933
S'\xe0\xa4\x95\xe0\xa5\x87,psp,,,,,,'
p1934
ssbsg1265
I00
sg1268
I00
sg1279
Nsg1266
Nsg157
I5
sg143
I0
sg1523
Nsg1277
Nsg1524
S'PSP'
p1935
sg238
(issf_api
FeatureSet
p1936
(dp1937
g241
(dp1938
S'posn'
p1939
S'160'
p1940
sS'name'
p1941
S'\xe0\xa4\x95\xe0\xa5\x872'
p1942
sS'af'
p1943
S'\xe0\xa4\x95\xe0\xa5\x87,psp,,,,,,'
p1944
ssbsg1286
I00
sba(issf_api
Word
p1945
(dp1946
g1506
I00
sg1507
V\u0938\u093e\u0925
p1947
sg1509
(issf_api
FeatureSet
p1948
(dp1949
g241
(dp1950
S'posn'
p1951
S'170'
p1952
sS'name'
p1953
S'\xe0\xa4\xb8\xe0\xa4\xbe\xe0\xa4\xa5'
p1954
sS'drel'
p1955
S'lwg__psp:\xe0\xa4\xb6\xe0\xa4\xb0\xe0\xa5\x8d\xe0\xa4\xa4\xe0\xa5\x8b\xe0\xa4\x82'
p1956
sS'chunktype'
p1957
S'child:NP6'
p1958
sS'af'
p1959
S'\xe0\xa4\xb8\xe0\xa4\xbe\xe0\xa4\xa5,nst,m,sg,3,d,,'
p1960
ssbsg1265
I00
sg1268
I00
sg1279
Nsg1266
Nsg157
I5
sg143
I0
sg1523
Nsg1277
Nsg1524
S'NST'
p1961
sg238
(issf_api
FeatureSet
p1962
(dp1963
g241
(dp1964
S'posn'
p1965
S'170'
p1966
sS'name'
p1967
S'\xe0\xa4\xb8\xe0\xa4\xbe\xe0\xa4\xa5'
p1968
sS'af'
p1969
S'\xe0\xa4\xb8\xe0\xa4\xbe\xe0\xa4\xa5,nst,m,sg,3,d,,'
p1970
ssbsg1286
I00
sba(issf_api
Word
p1971
(dp1972
g1506
I00
sg1507
V\u0920\u093e\u0923\u0947
p1973
sg1509
(issf_api
FeatureSet
p1974
(dp1975
g241
(dp1976
S'posn'
p1977
S'180'
p1978
sS'name'
p1979
S'\xe0\xa4\xa0\xe0\xa4\xbe\xe0\xa4\xa3\xe0\xa5\x87'
p1980
sS'drel'
p1981
S'nmod__adj:\xe0\xa4\x9c\xe0\xa4\xbf\xe0\xa4\xb2\xe0\xa5\x87'
p1982
sS'chunktype'
p1983
S'child:NP7'
p1984
sS'af'
p1985
S'\xe0\xa4\xa0\xe0\xa4\xbe\xe0\xa4\xa3\xe0\xa5\x87,n,m,sg,3,d,0,0'
p1986
ssbsg1265
I00
sg1268
I00
sg1279
Nsg1266
Nsg157
I6
sg143
I0
sg1523
Nsg1277
Nsg1524
S'NNP'
p1987
sg238
(issf_api
FeatureSet
p1988
(dp1989
g241
(dp1990
S'posn'
p1991
S'180'
p1992
sS'name'
p1993
S'\xe0\xa4\xa0\xe0\xa4\xbe\xe0\xa4\xa3\xe0\xa5\x87'
p1994
sS'af'
p1995
S'\xe0\xa4\xa0\xe0\xa4\xbe\xe0\xa4\xa3\xe0\xa5\x87,n,m,sg,3,d,0,0'
p1996
ssbsg1286
I00
sba(issf_api
Word
p1997
(dp1998
g1506
I00
sg1507
V\u091c\u093f\u0932\u0947
p1999
sg1509
(issf_api
FeatureSet
p2000
(dp2001
g241
(dp2002
S'posn'
p2003
S'190'
p2004
sS'name'
p2005
S'\xe0\xa4\x9c\xe0\xa4\xbf\xe0\xa4\xb2\xe0\xa5\x87'
p2006
sS'af'
p2007
S'\xe0\xa4\x9c\xe0\xa4\xbf\xe0\xa4\xb2\xe0\xa4\xbe,n,m,sg,3,o,0_\xe0\xa4\x95\xe0\xa4\xbe,0'
p2008
sS'chunkid'
p2009
S'NP7'
p2010
sS'drel'
p2011
S'r6:\xe0\xa4\x95\xe0\xa4\xb0\xe0\xa4\x9c\xe0\xa4\xbe\xe0\xa4\x9f'
p2012
sS'vpos'
p2013
S'vib_vib_3'
p2014
sS'chunktype'
p2015
S'head:NP7'
p2016
ssbsg1265
I00
sg1268
I00
sg1279
Nsg1266
Nsg157
I6
sg143
I0
sg1523
Nsg1277
Nsg1524
S'NN'
p2017
sg238
(issf_api
FeatureSet
p2018
(dp2019
g241
(dp2020
S'posn'
p2021
S'190'
p2022
sS'name'
p2023
S'\xe0\xa4\x9c\xe0\xa4\xbf\xe0\xa4\xb2\xe0\xa5\x87'
p2024
sS'af'
p2025
S'\xe0\xa4\x9c\xe0\xa4\xbf\xe0\xa4\xb2\xe0\xa4\xbe,n,m,sg,3,o,0,0'
p2026
ssbsg1286
I00
sba(issf_api
Word
p2027
(dp2028
g1506
I00
sg1507
V\u0915\u0947
p2029
sg1509
(issf_api
FeatureSet
p2030
(dp2031
g241
(dp2032
S'posn'
p2033
S'200'
p2034
sS'name'
p2035
S'\xe0\xa4\x95\xe0\xa5\x873'
p2036
sS'drel'
p2037
S'lwg__psp:\xe0\xa4\x9c\xe0\xa4\xbf\xe0\xa4\xb2\xe0\xa5\x87'
p2038
sS'chunktype'
p2039
S'child:NP7'
p2040
sS'af'
p2041
S'\xe0\xa4\x95\xe0\xa4\xbe,psp,m,sg,,o,,'
p2042
ssbsg1265
I00
sg1268
I00
sg1279
Nsg1266
Nsg157
I6
sg143
I0
sg1523
Nsg1277
Nsg1524
S'PSP'
p2043
sg238
(issf_api
FeatureSet
p2044
(dp2045
g241
(dp2046
S'posn'
p2047
S'200'
p2048
sS'name'
p2049
S'\xe0\xa4\x95\xe0\xa5\x873'
p2050
sS'af'
p2051
S'\xe0\xa4\x95\xe0\xa4\xbe,psp,m,sg,,o,,'
p2052
ssbsg1286
I00
sba(issf_api
Word
p2053
(dp2054
g1506
I00
sg1507
V\u0915\u0930\u091c\u093e\u091f
p2055
sg1509
(issf_api
FeatureSet
p2056
(dp2057
g241
(dp2058
S'posn'
p2059
S'210'
p2060
sS'name'
p2061
S'\xe0\xa4\x95\xe0\xa4\xb0\xe0\xa4\x9c\xe0\xa4\xbe\xe0\xa4\x9f'
p2062
sS'af'
p2063
S'\xe0\xa4\x95\xe0\xa4\xb0\xe0\xa4\x9c\xe0\xa4\xbe\xe0\xa4\x9f,n,m,sg,3,o,0_\xe0\xa4\xae\xe0\xa5\x87\xe0\xa4\x82,0'
p2064
sS'chunkid'
p2065
S'NP8'
p2066
sS'drel'
p2067
S'k7p:\xe0\xa4\x9c\xe0\xa4\xbe\xe0\xa4\xa8\xe0\xa5\x87'
p2068
sS'vpos'
p2069
S'vib_2'
p2070
sS'chunktype'
p2071
S'head:NP8'
p2072
ssbsg1265
I00
sg1268
I00
sg1279
Nsg1266
Nsg157
I7
sg143
I0
sg1523
Nsg1277
Nsg1524
S'NNP'
p2073
sg238
(issf_api
FeatureSet
p2074
(dp2075
g241
(dp2076
S'posn'
p2077
S'210'
p2078
sS'name'
p2079
S'\xe0\xa4\x95\xe0\xa4\xb0\xe0\xa4\x9c\xe0\xa4\xbe\xe0\xa4\x9f'
p2080
sS'af'
p2081
S'\xe0\xa4\x95\xe0\xa4\xb0\xe0\xa4\x9c\xe0\xa4\xbe\xe0\xa4\x9f,n,m,sg,3,o,0,0'
p2082
ssbsg1286
I00
sba(issf_api
Word
p2083
(dp2084
g1506
I00
sg1507
V\u092e\u0947\u0902
p2085
sg1509
(issf_api
FeatureSet
p2086
(dp2087
g241
(dp2088
S'posn'
p2089
S'220'
p2090
sS'name'
p2091
S'\xe0\xa4\xae\xe0\xa5\x87\xe0\xa4\x82'
p2092
sS'drel'
p2093
S'lwg__psp:\xe0\xa4\x95\xe0\xa4\xb0\xe0\xa4\x9c\xe0\xa4\xbe\xe0\xa4\x9f'
p2094
sS'chunktype'
p2095
S'child:NP8'
p2096
sS'af'
p2097
S'\xe0\xa4\xae\xe0\xa5\x87\xe0\xa4\x82,psp,,,,,,'
p2098
ssbsg1265
I00
sg1268
I00
sg1279
Nsg1266
Nsg157
I7
sg143
I0
sg1523
Nsg1277
Nsg1524
S'PSP'
p2099
sg238
(issf_api
FeatureSet
p2100
(dp2101
g241
(dp2102
S'posn'
p2103
S'220'
p2104
sS'name'
p2105
S'\xe0\xa4\xae\xe0\xa5\x87\xe0\xa4\x82'
p2106
sS'af'
p2107
S'\xe0\xa4\xae\xe0\xa5\x87\xe0\xa4\x82,psp,,,,,,'
p2108
ssbsg1286
I00
sba(issf_api
Word
p2109
(dp2110
g1506
I00
sg1507
V\u0936\u0942\u091f\u093f\u0902\u0917
p2111
sg1509
(issf_api
FeatureSet
p2112
(dp2113
g241
(dp2114
S'posn'
p2115
S'230'
p2116
sS'name'
p2117
S'\xe0\xa4\xb6\xe0\xa5\x82\xe0\xa4\x9f\xe0\xa4\xbf\xe0\xa4\x82\xe0\xa4\x97'
p2118
sS'af'
p2119
S'\xe0\xa4\xb6\xe0\xa5\x82\xe0\xa4\x9f\xe0\xa4\xbf\xe0\xa4\x82\xe0\xa4\x97,n,f,sg,3,o,0_\xe0\xa4\xaa\xe0\xa4\xb0,0'
p2120
sS'chunkid'
p2121
S'NP9'
p2122
sS'drel'
p2123
S'k7:\xe0\xa4\x9c\xe0\xa4\xbe\xe0\xa4\xa8\xe0\xa5\x87'
p2124
sS'vpos'
p2125
S'vib_2'
p2126
sS'chunktype'
p2127
S'head:NP9'
p2128
ssbsg1265
I00
sg1268
I00
sg1279
Nsg1266
Nsg157
I8
sg143
I0
sg1523
Nsg1277
Nsg1524
S'NN'
p2129
sg238
(issf_api
FeatureSet
p2130
(dp2131
g241
(dp2132
S'posn'
p2133
S'230'
p2134
sS'name'
p2135
S'\xe0\xa4\xb6\xe0\xa5\x82\xe0\xa4\x9f\xe0\xa4\xbf\xe0\xa4\x82\xe0\xa4\x97'
p2136
sS'af'
p2137
S'\xe0\xa4\xb6\xe0\xa5\x82\xe0\xa4\x9f\xe0\xa4\xbf\xe0\xa4\x82\xe0\xa4\x97,n,f,sg,3,o,0,0'
p2138
ssbsg1286
I00
sba(issf_api
Word
p2139
(dp2140
g1506
I00
sg1507
V\u092a\u0930
p2141
sg1509
(issf_api
FeatureSet
p2142
(dp2143
g241
(dp2144
S'posn'
p2145
S'240'
p2146
sS'name'
p2147
S'\xe0\xa4\xaa\xe0\xa4\xb0'
p2148
sS'drel'
p2149
S'lwg__psp:\xe0\xa4\xb6\xe0\xa5\x82\xe0\xa4\x9f\xe0\xa4\xbf\xe0\xa4\x82\xe0\xa4\x97'
p2150
sS'chunktype'
p2151
S'child:NP9'
p2152
sS'af'
p2153
S'\xe0\xa4\xaa\xe0\xa4\xb0,psp,,,,,,'
p2154
ssbsg1265
I00
sg1268
I00
sg1279
Nsg1266
Nsg157
I8
sg143
I0
sg1523
Nsg1277
Nsg1524
S'PSP'
p2155
sg238
(issf_api
FeatureSet
p2156
(dp2157
g241
(dp2158
S'posn'
p2159
S'240'
p2160
sS'name'
p2161
S'\xe0\xa4\xaa\xe0\xa4\xb0'
p2162
sS'af'
p2163
S'\xe0\xa4\xaa\xe0\xa4\xb0,psp,,,,,,'
p2164
ssbsg1286
I00
sba(issf_api
Word
p2165
(dp2166
g1506
I00
sg1507
V\u091c\u093e\u0928\u0947
p2167
sg1509
(issf_api
FeatureSet
p2168
(dp2169
g241
(dp2170
S'posn'
p2171
S'250'
p2172
sS'name'
p2173
S'\xe0\xa4\x9c\xe0\xa4\xbe\xe0\xa4\xa8\xe0\xa5\x87'
p2174
sS'af'
p2175
S'\xe0\xa4\x9c\xe0\xa4\xbe,v,any,sg,any,o,\xe0\xa4\xa8\xe0\xa4\xbe_\xe0\xa4\x95\xe0\xa4\xbe,nA'
p2176
sS'chunkid'
p2177
S'VGNN'
p2178
sS'drel'
p2179
S'r6-k2:\xe0\xa4\x87\xe0\xa4\x9c\xe0\xa4\xbe\xe0\xa4\x9c\xe0\xa4\xa4'
p2180
sS'vpos'
p2181
S'tam_2'
p2182
sS'chunktype'
p2183
S'head:VGNN'
p2184
ssbsg1265
I00
sg1268
I00
sg1279
Nsg1266
Nsg157
I9
sg143
I0
sg1523
Nsg1277
Nsg1524
S'VM'
p2185
sg238
(issf_api
FeatureSet
p2186
(dp2187
g241
(dp2188
S'posn'
p2189
S'250'
p2190
sS'name'
p2191
S'\xe0\xa4\x9c\xe0\xa4\xbe\xe0\xa4\xa8\xe0\xa5\x87'
p2192
sS'af'
p2193
S'\xe0\xa4\x9c\xe0\xa4\xbe,v,any,any,any,o,\xe0\xa4\xa8\xe0\xa4\xbe,nA'
p2194
ssbsg1286
I00
sba(issf_api
Word
p2195
(dp2196
g1506
I00
sg1507
V\u0915\u0940
p2197
sg1509
(issf_api
FeatureSet
p2198
(dp2199
g241
(dp2200
S'posn'
p2201
S'260'
p2202
sS'name'
p2203
S'\xe0\xa4\x95\xe0\xa5\x80'
p2204
sS'drel'
p2205
S'lwg__psp:\xe0\xa4\x9c\xe0\xa4\xbe\xe0\xa4\xa8\xe0\xa5\x87'
p2206
sS'chunktype'
p2207
S'child:VGNN'
p2208
sS'af'
p2209
S'\xe0\xa4\x95\xe0\xa4\xbe,psp,f,sg,,d,,'
p2210
ssbsg1265
I00
sg1268
I00
sg1279
Nsg1266
Nsg157
I9
sg143
I0
sg1523
Nsg1277
Nsg1524
S'PSP'
p2211
sg238
(issf_api
FeatureSet
p2212
(dp2213
g241
(dp2214
S'posn'
p2215
S'260'
p2216
sS'name'
p2217
S'\xe0\xa4\x95\xe0\xa5\x80'
p2218
sS'af'
p2219
S'\xe0\xa4\x95\xe0\xa4\xbe,psp,f,sg,,d,,'
p2220
ssbsg1286
I00
sba(issf_api
Word
p2221
(dp2222
g1506
I00
sg1507
V\u0907\u091c\u093e\u091c\u0924
p2223
sg1509
(issf_api
FeatureSet
p2224
(dp2225
g241
(dp2226
S'posn'
p2227
S'270'
p2228
sS'name'
p2229
S'\xe0\xa4\x87\xe0\xa4\x9c\xe0\xa4\xbe\xe0\xa4\x9c\xe0\xa4\xa4'
p2230
sS'af'
p2231
S'\xe0\xa4\x87\xe0\xa4\x9c\xe0\xa4\xbe\xe0\xa4\x9c\xe0\xa4\xa4,n,f,sg,3,d,0,0'
p2232
sS'chunkid'
p2233
S'NP10'
p2234
sS'drel'
p2235
S'pof:\xe0\xa4\xa6\xe0\xa5\x87'
p2236
sS'chunktype'
p2237
S'head:NP10'
p2238
ssbsg1265
I00
sg1268
I00
sg1279
Nsg1266
Nsg157
I10
sg143
I0
sg1523
Nsg1277
Nsg1524
S'NN'
p2239
sg238
(issf_api
FeatureSet
p2240
(dp2241
g241
(dp2242
S'posn'
p2243
S'270'
p2244
sS'name'
p2245
S'\xe0\xa4\x87\xe0\xa4\x9c\xe0\xa4\xbe\xe0\xa4\x9c\xe0\xa4\xa4'
p2246
sS'af'
p2247
S'\xe0\xa4\x87\xe0\xa4\x9c\xe0\xa4\xbe\xe0\xa4\x9c\xe0\xa4\xa4,n,f,sg,3,d,0,0'
p2248
ssbsg1286
I00
sba(issf_api
Word
p2249
(dp2250
g1506
I00
sg1507
V\u0926\u0947
p2251
sg1509
(issf_api
FeatureSet
p2252
(dp2253
g241
(dp2254
S'posn'
p2255
S'280'
p2256
sS'name'
p2257
S'\xe0\xa4\xa6\xe0\xa5\x87'
p2258
sS'af'
p2259
S'\xe0\xa4\xa6\xe0\xa5\x87,v,any,sg,any,,0_\xe0\xa4\xa6\xe0\xa5\x87+\xe0\xa4\xaf\xe0\xa4\xbe,0'
p2260
sS'chunkid'
p2261
S'VGF'
p2262
sS'chunktype'
p2263
S'head:VGF'
p2264
sS'voicetype'
p2265
S'active'
p2266
sS'vpos'
p2267
S'tam_2'
p2268
sS'stype'
p2269
S'declarative'
p2270
ssbsg1265
I00
sg1268
I00
sg1279
Nsg1266
Nsg157
I11
sg143
I0
sg1523
Nsg1277
Nsg1524
S'VM'
p2271
sg238
(issf_api
FeatureSet
p2272
(dp2273
g241
(dp2274
S'posn'
p2275
S'280'
p2276
sS'name'
p2277
S'\xe0\xa4\xa6\xe0\xa5\x87'
p2278
sS'af'
p2279
S'\xe0\xa4\xa6\xe0\xa5\x87,v,any,any,any,,0,0'
p2280
ssbsg1286
I00
sba(issf_api
Word
p2281
(dp2282
g1506
I00
sg1507
V\u0926\u0940
p2283
sg1509
(issf_api
FeatureSet
p2284
(dp2285
g241
(dp2286
S'posn'
p2287
S'290'
p2288
sS'name'
p2289
S'\xe0\xa4\xa6\xe0\xa5\x80'
p2290
sS'drel'
p2291
S'lwg__vaux:\xe0\xa4\xa6\xe0\xa5\x87'
p2292
sS'chunktype'
p2293
S'child:VGF'
p2294
sS'af'
p2295
S'\xe0\xa4\xa6\xe0\xa5\x87,v,f,sg,any,,\xe0\xa4\xaf\xe0\xa4\xbe,yA'
p2296
ssbsg1265
I00
sg1268
I00
sg1279
Nsg1266
Nsg157
I11
sg143
I0
sg1523
Nsg1277
Nsg1524
S'VAUX'
p2297
sg238
(issf_api
FeatureSet
p2298
(dp2299
g241
(dp2300
S'posn'
p2301
S'290'
p2302
sS'name'
p2303
S'\xe0\xa4\xa6\xe0\xa5\x80'
p2304
sS'af'
p2305
S'\xe0\xa4\xa6\xe0\xa5\x87,v,f,sg,any,,\xe0\xa4\xaf\xe0\xa4\xbe,yA'
p2306
ssbsg1286
I00
sba(issf_api
Word
p2307
(dp2308
g1506
I00
sg1507
V\u0964
sg1509
(issf_api
FeatureSet
p2309
(dp2310
g241
(dp2311
S'posn'
p2312
S'300'
p2313
sS'name'
p2314
S'\xe0\xa5\xa4'
p2315
sS'af'
p2316
S'\xe0\xa5\xa4,punc,,,,,,'
p2317
sS'chunkid'
p2318
S'BLK'
p2319
sS'drel'
p2320
S'rsym:\xe0\xa4\xa6\xe0\xa5\x87'
p2321
sS'chunktype'
p2322
S'head:BLK'
p2323
ssbsg1265
I00
sg1268
I00
sg1279
Nsg1266
Nsg157
I12
sg143
I0
sg1523
Nsg1277
Nsg1524
S'SYM'
p2324
sg238
(issf_api
FeatureSet
p2325
(dp2326
g241
(dp2327
S'posn'
p2328
S'300'
p2329
sS'name'
p2330
S'\xe0\xa5\xa4'
p2331
sS'af'
p2332
S'\xe0\xa5\xa4,punc,,,,,,'
p2333
ssbsg1286
I00
sba(issf_api
Word
p2334
(dp2335
g1506
I00
sg1507
V\u0938\u0902\u091c\u092f
p2336
sg1509
(issf_api
FeatureSet
p2337
(dp2338
g241
(dp2339
S'posn'
p2340
S'10'
p2341
sS'name'
p2342
S'\xe0\xa4\xb8\xe0\xa4\x82\xe0\xa4\x9c\xe0\xa4\xaf'
p2343
sS'af'
p2344
S'\xe0\xa4\xb8\xe0\xa4\x82\xe0\xa4\x9c\xe0\xa4\xaf,n,m,sg,3,o,0_\xe0\xa4\x95\xe0\xa4\xbe,0'
p2345
sS'chunkid'
p2346
S'NP'
p2347
sS'drel'
p2348
S'r6:\xe0\xa4\xb5\xe0\xa4\x95\xe0\xa5\x80\xe0\xa4\xb2'
p2349
sS'vpos'
p2350
S'vib_2'
p2351
sS'chunktype'
p2352
S'head:NP'
p2353
ssbsg1265
I00
sg1268
I00
sg1279
Nsg1266
Nsg157
I0
sg143
I1
sg1523
Nsg1277
Nsg1524
S'NNP'
p2354
sg238
(issf_api
FeatureSet
p2355
(dp2356
g241
(dp2357
S'posn'
p2358
S'10'
p2359
sS'name'
p2360
S'\xe0\xa4\xb8\xe0\xa4\x82\xe0\xa4\x9c\xe0\xa4\xaf'
p2361
sS'af'
p2362
S'\xe0\xa4\xb8\xe0\xa4\x82\xe0\xa4\x9c\xe0\xa4\xaf,n,m,sg,3,o,0,0'
p2363
ssbsg1286
I00
sba(issf_api
Word
p2364
(dp2365
g1506
I00
sg1507
V\u0915\u0947
p2366
sg1509
(issf_api
FeatureSet
p2367
(dp2368
g241
(dp2369
S'posn'
p2370
S'20'
p2371
sS'name'
p2372
S'\xe0\xa4\x95\xe0\xa5\x87'
p2373
sS'drel'
p2374
S'lwg__psp:\xe0\xa4\xb8\xe0\xa4\x82\xe0\xa4\x9c\xe0\xa4\xaf'
p2375
sS'chunktype'
p2376
S'child:NP'
p2377
sS'af'
p2378
S'\xe0\xa4\x95\xe0\xa4\xbe,psp,m,sg,,o,,'
p2379
ssbsg1265
I00
sg1268
I00
sg1279
Nsg1266
Nsg157
I0
sg143
I1
sg1523
Nsg1277
Nsg1524
S'PSP'
p2380
sg238
(issf_api
FeatureSet
p2381
(dp2382
g241
(dp2383
S'posn'
p2384
S'20'
p2385
sS'name'
p2386
S'\xe0\xa4\x95\xe0\xa5\x87'
p2387
sS'af'
p2388
S'\xe0\xa4\x95\xe0\xa4\xbe,psp,m,sg,,o,,'
p2389
ssbsg1286
I00
sba(issf_api
Word
p2390
(dp2391
g1506
I00
sg1507
V\u0935\u0915\u0940\u0932
p2392
sg1509
(issf_api
FeatureSet
p2393
(dp2394
g241
(dp2395
S'posn'
p2396
S'30'
p2397
sS'name'
p2398
S'\xe0\xa4\xb5\xe0\xa4\x95\xe0\xa5\x80\xe0\xa4\xb2'
p2399
sS'af'
p2400
S'\xe0\xa4\xb5\xe0\xa4\x95\xe0\xa5\x80\xe0\xa4\xb2,n,m,sg,3,o,0_\xe0\xa4\xa8\xe0\xa5\x87,0'
p2401
sS'chunkid'
p2402
S'NP2'
p2403
sS'drel'
p2404
S'k1:\xe0\xa4\x95\xe0\xa4\xbf\xe0\xa4\xaf\xe0\xa4\xbe'
p2405
sS'vpos'
p2406
S'vib_2'
p2407
sS'chunktype'
p2408
S'head:NP2'
p2409
ssbsg1265
I00
sg1268
I00
sg1279
Nsg1266
Nsg157
I1
sg143
I1
sg1523
Nsg1277
Nsg1524
S'NN'
p2410
sg238
(issf_api
FeatureSet
p2411
(dp2412
g241
(dp2413
S'posn'
p2414
S'30'
p2415
sS'name'
p2416
S'\xe0\xa4\xb5\xe0\xa4\x95\xe0\xa5\x80\xe0\xa4\xb2'
p2417
sS'af'
p2418
S'\xe0\xa4\xb5\xe0\xa4\x95\xe0\xa5\x80\xe0\xa4\xb2,n,m,sg,3,o,0,0'
p2419
ssbsg1286
I00
sba(issf_api
Word
p2420
(dp2421
g1506
I00
sg1507
V\u0928\u0947
p2422
sg1509
(issf_api
FeatureSet
p2423
(dp2424
g241
(dp2425
S'posn'
p2426
S'40'
p2427
sS'name'
p2428
S'\xe0\xa4\xa8\xe0\xa5\x87'
p2429
sS'drel'
p2430
S'lwg__psp:\xe0\xa4\xb5\xe0\xa4\x95\xe0\xa5\x80\xe0\xa4\xb2'
p2431
sS'chunktype'
p2432
S'child:NP2'
p2433
sS'af'
p2434
S'\xe0\xa4\xa8\xe0\xa5\x87,psp,,,,,,'
p2435
ssbsg1265
I00
sg1268
I00
sg1279
Nsg1266
Nsg157
I1
sg143
I1
sg1523
Nsg1277
Nsg1524
S'PSP'
p2436
sg238
(issf_api
FeatureSet
p2437
(dp2438
g241
(dp2439
S'posn'
p2440
S'40'
p2441
sS'name'
p2442
S'\xe0\xa4\xa8\xe0\xa5\x87'
p2443
sS'af'
p2444
S'\xe0\xa4\xa8\xe0\xa5\x87,psp,,,,,,'
p2445
ssbsg1286
I00
sba(issf_api
Word
p2446
(dp2447
g1506
I00
sg1507
V\u0905\u0926\u093e\u0932\u0924
p2448
sg1509
(issf_api
FeatureSet
p2449
(dp2450
g241
(dp2451
S'posn'
p2452
S'50'
p2453
sS'name'
p2454
S'\xe0\xa4\x85\xe0\xa4\xa6\xe0\xa4\xbe\xe0\xa4\xb2\xe0\xa4\xa4'
p2455
sS'af'
p2456
S'\xe0\xa4\x85\xe0\xa4\xa6\xe0\xa4\xbe\xe0\xa4\xb2\xe0\xa4\xa4,n,f,sg,3,o,0_\xe0\xa4\xb8\xe0\xa5\x87,0'
p2457
sS'chunkid'
p2458
S'NP3'
p2459
sS'drel'
p2460
S'k4:\xe0\xa4\x95\xe0\xa4\xbf\xe0\xa4\xaf\xe0\xa4\xbe'
p2461
sS'vpos'
p2462
S'vib_2'
p2463
sS'chunktype'
p2464
S'head:NP3'
p2465
ssbsg1265
I00
sg1268
I00
sg1279
Nsg1266
Nsg157
I2
sg143
I1
sg1523
Nsg1277
Nsg1524
S'NN'
p2466
sg238
(issf_api
FeatureSet
p2467
(dp2468
g241
(dp2469
S'posn'
p2470
S'50'
p2471
sS'name'
p2472
S'\xe0\xa4\x85\xe0\xa4\xa6\xe0\xa4\xbe\xe0\xa4\xb2\xe0\xa4\xa4'
p2473
sS'af'
p2474
S'\xe0\xa4\x85\xe0\xa4\xa6\xe0\xa4\xbe\xe0\xa4\xb2\xe0\xa4\xa4,n,f,sg,3,o,0,0'
p2475
ssbsg1286
I00
sba(issf_api
Word
p2476
(dp2477
g1506
I00
sg1507
V\u0938\u0947
p2478
sg1509
(issf_api
FeatureSet
p2479
(dp2480
g241
(dp2481
S'posn'
p2482
S'60'
p2483
sS'name'
p2484
S'\xe0\xa4\xb8\xe0\xa5\x87'
p2485
sS'drel'
p2486
S'lwg__psp:\xe0\xa4\x85\xe0\xa4\xa6\xe0\xa4\xbe\xe0\xa4\xb2\xe0\xa4\xa4'
p2487
sS'chunktype'
p2488
S'child:NP3'
p2489
sS'af'
p2490
S'\xe0\xa4\xb8\xe0\xa5\x87,psp,,,,,,'
p2491
ssbsg1265
I00
sg1268
I00
sg1279
Nsg1266
Nsg157
I2
sg143
I1
sg1523
Nsg1277
Nsg1524
S'PSP'
p2492
sg238
(issf_api
FeatureSet
p2493
(dp2494
g241
(dp2495
S'posn'
p2496
S'60'
p2497
sS'name'
p2498
S'\xe0\xa4\xb8\xe0\xa5\x87'
p2499
sS'af'
p2500
S'\xe0\xa4\xb8\xe0\xa5\x87,psp,,,,,,'
p2501
ssbsg1286
I00
sba(issf_api
Word
p2502
(dp2503
g1506
I00
sg1507
V\u092b\u093f\u0932\u094d\u092e
p2504
sg1509
(issf_api
FeatureSet
p2505
(dp2506
g241
(dp2507
S'posn'
p2508
S'70'
p2509
sS'name'
p2510
S'\xe0\xa4\xab\xe0\xa4\xbf\xe0\xa4\xb2\xe0\xa5\x8d\xe0\xa4\xae'
p2511
sS'af'
p2512
S'\xe0\xa4\xab\xe0\xa4\xbf\xe0\xa4\xb2\xe0\xa5\x8d\xe0\xa4\xae,n,f,sg,3,o,0,0'
p2513
sS'chunkid'
p2514
S'NP4'
p2515
sS'drel'
p2516
S'nmod:\xe0\xa5\xa8'
p2517
sS'chunktype'
p2518
S'head:NP4'
p2519
ssbsg1265
I00
sg1268
I00
sg1279
Nsg1266
Nsg157
I3
sg143
I1
sg1523
Nsg1277
Nsg1524
S'NN'
p2520
sg238
(issf_api
FeatureSet
p2521
(dp2522
g241
(dp2523
S'posn'
p2524
S'70'
p2525
sS'name'
p2526
S'\xe0\xa4\xab\xe0\xa4\xbf\xe0\xa4\xb2\xe0\xa5\x8d\xe0\xa4\xae'
p2527
sS'af'
p2528
S'\xe0\xa4\xab\xe0\xa4\xbf\xe0\xa4\xb2\xe0\xa5\x8d\xe0\xa4\xae,n,f,sg,3,o,0,0'
p2529
ssbsg1286
I00
sba(issf_api
Word
p2530
(dp2531
g1506
I00
sg1507
V'
sg1509
(issf_api
FeatureSet
p2532
(dp2533
g241
(dp2534
S'posn'
p2535
S'80'
p2536
sS'name'
p2537
S''
sS"'"
S''
sS'af'
p2538
S'SINGLE_QUOTE,punc,,,,,,'
p2539
sS'drel'
p2540
S'rsym:\xe0\xa5\xa8'
p2541
sS'chunktype'
p2542
S'child:NP5'
p2543
ssbsg1265
I00
sg1268
I00
sg1279
Nsg1266
Nsg157
I4
sg143
I1
sg1523
Nsg1277
Nsg1524
S'SYM'
p2544
sg238
(issf_api
FeatureSet
p2545
(dp2546
g241
(dp2547
S'posn'
p2548
S'80'
p2549
sS'name'
p2550
S''
sS"'"
S''
sS'af'
p2551
S'SINGLE_QUOTE,punc,,,,,,'
p2552
ssbsg1286
I00
sba(issf_api
Word
p2553
(dp2554
g1506
I00
sg1507
V\u092e\u0941\u0928\u094d\u0928\u093e\u092d\u093e\u0908
p2555
sg1509
(issf_api
FeatureSet
p2556
(dp2557
g241
(dp2558
S'posn'
p2559
S'90'
p2560
sS'name'
p2561
S'\xe0\xa4\xae\xe0\xa5\x81\xe0\xa4\xa8\xe0\xa5\x8d\xe0\xa4\xa8\xe0\xa4\xbe\xe0\xa4\xad\xe0\xa4\xbe\xe0\xa4\x88'
p2562
sS'drel'
p2563
S'pof__cn:\xe0\xa5\xa8'
p2564
sS'chunktype'
p2565
S'child:NP5'
p2566
sS'af'
p2567
S'\xe0\xa4\xae\xe0\xa5\x81\xe0\xa4\xa8\xe0\xa5\x8d\xe0\xa4\xa8\xe0\xa4\xbe\xe0\xa4\xad\xe0\xa4\xbe\xe0\xa4\x88,n,m,sg,3,d,0,0'
p2568
ssbsg1265
I00
sg1268
I00
sg1279
Nsg1266
Nsg157
I4
sg143
I1
sg1523
Nsg1277
Nsg1524
S'NNPC'
p2569
sg238
(issf_api
FeatureSet
p2570
(dp2571
g241
(dp2572
S'posn'
p2573
S'90'
p2574
sS'name'
p2575
S'\xe0\xa4\xae\xe0\xa5\x81\xe0\xa4\xa8\xe0\xa5\x8d\xe0\xa4\xa8\xe0\xa4\xbe\xe0\xa4\xad\xe0\xa4\xbe\xe0\xa4\x88'
p2576
sS'af'
p2577
S'\xe0\xa4\xae\xe0\xa5\x81\xe0\xa4\xa8\xe0\xa5\x8d\xe0\xa4\xa8\xe0\xa4\xbe\xe0\xa4\xad\xe0\xa4\xbe\xe0\xa4\x88,n,m,sg,3,d,0,0'
p2578
ssbsg1286
I00
sba(issf_api
Word
p2579
(dp2580
g1506
I00
sg1507
V-
sg1509
(issf_api
FeatureSet
p2581
(dp2582
g241
(dp2583
S'posn'
p2584
S'100'
p2585
sS'name'
p2586
S'-'
sS'drel'
p2587
S'rsym:\xe0\xa5\xa8'
p2588
sS'chunktype'
p2589
S'child:NP5'
p2590
sS'af'
p2591
S'-,punc,,,,,,'
p2592
ssbsg1265
I00
sg1268
I00
sg1279
Nsg1266
Nsg157
I4
sg143
I1
sg1523
Nsg1277
Nsg1524
S'SYM'
p2593
sg238
(issf_api
FeatureSet
p2594
(dp2595
g241
(dp2596
S'posn'
p2597
S'100'
p2598
sS'name'
p2599
S'-'
sS'af'
p2600
S'-,punc,,,,,,'
p2601
ssbsg1286
I00
sba(issf_api
Word
p2602
(dp2603
g1506
I00
sg1507
V\u0968
sg1509
(issf_api
FeatureSet
p2604
(dp2605
g241
(dp2606
S'posn'
p2607
S'110'
p2608
sS'name'
p2609
S'\xe0\xa5\xa8'
p2610
sS'af'
p2611
S'\xe0\xa5\xa8,n,any,sg,3,o,0_\xe0\xa4\x95\xe0\xa4\xbe,0'
p2612
sS'chunkid'
p2613
S'NP5'
p2614
sS'drel'
p2615
S'r6:\xe0\xa4\xb6\xe0\xa5\x82\xe0\xa4\x9f\xe0\xa4\xbf\xe0\xa4\x82\xe0\xa4\x97'
p2616
sS'vpos'
p2617
S'vib_6'
p2618
sS'chunktype'
p2619
S'head:NP5'
p2620
ssbsg1265
I00
sg1268
I00
sg1279
Nsg1266
Nsg157
I4
sg143
I1
sg1523
Nsg1277
Nsg1524
S'NNP'
p2621
sg238
(issf_api
FeatureSet
p2622
(dp2623
g241
(dp2624
S'posn'
p2625
S'110'
p2626
sS'name'
p2627
S'\xe0\xa5\xa8'
p2628
sS'af'
p2629
S'\xe0\xa5\xa8,n,any,sg,3,o,0,0'
p2630
ssbsg1286
I00
sba(issf_api
Word
p2631
(dp2632
g1506
I00
sg1507
V'
sg1509
(issf_api
FeatureSet
p2633
(dp2634
g241
(dp2635
S'posn'
p2636
S'120'
p2637
sS'name'
p2638
S''
sS'af'
p2639
S'SINGLE_QUOTE,punc,,,,,,'
p2640
sS"2'"
p2641
S''
sS'drel'
p2642
S'rsym:\xe0\xa5\xa8'
p2643
sS'chunktype'
p2644
S'child:NP5'
p2645
ssbsg1265
I00
sg1268
I00
sg1279
Nsg1266
Nsg157
I4
sg143
I1
sg1523
Nsg1277
Nsg1524
S'SYM'
p2646
sg238
(issf_api
FeatureSet
p2647
(dp2648
g241
(dp2649
S'posn'
p2650
S'120'
p2651
sS"2'"
p2652
S''
sS'name'
p2653
S''
sS'af'
p2654
S'SINGLE_QUOTE,punc,,,,,,'
p2655
ssbsg1286
I00
sba(issf_api
Word
p2656
(dp2657
g1506
I00
sg1507
V\u0915\u0940
p2658
sg1509
(issf_api
FeatureSet
p2659
(dp2660
g241
(dp2661
S'posn'
p2662
S'130'
p2663
sS'name'
p2664
S'\xe0\xa4\x95\xe0\xa5\x80'
p2665
sS'drel'
p2666
S'lwg__psp:\xe0\xa5\xa8'
p2667
sS'chunktype'
p2668
S'child:NP5'
p2669
sS'af'
p2670
S'\xe0\xa4\x95\xe0\xa4\xbe,psp,f,sg,,o,,'
p2671
ssbsg1265
I00
sg1268
I00
sg1279
Nsg1266
Nsg157
I4
sg143
I1
sg1523
Nsg1277
Nsg1524
S'PSP'
p2672
sg238
(issf_api
FeatureSet
p2673
(dp2674
g241
(dp2675
S'posn'
p2676
S'130'
p2677
sS'name'
p2678
S'\xe0\xa4\x95\xe0\xa5\x80'
p2679
sS'af'
p2680
S'\xe0\xa4\x95\xe0\xa4\xbe,psp,f,sg,,o,,'
p2681
ssbsg1286
I00
sba(issf_api
Word
p2682
(dp2683
g1506
I00
sg1507
V\u0936\u0942\u091f\u093f\u0902\u0917
p2684
sg1509
(issf_api
FeatureSet
p2685
(dp2686
g241
(dp2687
S'posn'
p2688
S'140'
p2689
sS'name'
p2690
S'\xe0\xa4\xb6\xe0\xa5\x82\xe0\xa4\x9f\xe0\xa4\xbf\xe0\xa4\x82\xe0\xa4\x97'
p2691
sS'af'
p2692
S'\xe0\xa4\xb6\xe0\xa5\x82\xe0\xa4\x9f\xe0\xa4\xbf\xe0\xa4\x82\xe0\xa4\x97,n,f,sg,3,o,0_\xe0\xa4\x95\xe0\xa5\x87_\xe0\xa4\xb5\xe0\xa4\xbe\xe0\xa4\xb8\xe0\xa5\x8d\xe0\xa4\xa4\xe0\xa5\x87,0'
p2693
sS'chunkid'
p2694
S'NP6'
p2695
sS'drel'
p2696
S'rt:\xe0\xa4\x95\xe0\xa4\xbf\xe0\xa4\xaf\xe0\xa4\xbe'
p2697
sS'vpos'
p2698
S'vib_2_3'
p2699
sS'chunktype'
p2700
S'head:NP6'
p2701
ssbsg1265
I00
sg1268
I00
sg1279
Nsg1266
Nsg157
I5
sg143
I1
sg1523
Nsg1277
Nsg1524
S'NN'
p2702
sg238
(issf_api
FeatureSet
p2703
(dp2704
g241
(dp2705
S'posn'
p2706
S'140'
p2707
sS'name'
p2708
S'\xe0\xa4\xb6\xe0\xa5\x82\xe0\xa4\x9f\xe0\xa4\xbf\xe0\xa4\x82\xe0\xa4\x97'
p2709
sS'af'
p2710
S'\xe0\xa4\xb6\xe0\xa5\x82\xe0\xa4\x9f\xe0\xa4\xbf\xe0\xa4\x82\xe0\xa4\x97,n,f,sg,3,o,0,0'
p2711
ssbsg1286
I00
sba(issf_api
Word
p2712
(dp2713
g1506
I00
sg1507
V\u0915\u0947
p2714
sg1509
(issf_api
FeatureSet
p2715
(dp2716
g241
(dp2717
S'posn'
p2718
S'150'
p2719
sS'name'
p2720
S'\xe0\xa4\x95\xe0\xa5\x872'
p2721
sS'drel'
p2722
S'lwg__psp:\xe0\xa4\xb6\xe0\xa5\x82\xe0\xa4\x9f\xe0\xa4\xbf\xe0\xa4\x82\xe0\xa4\x97'
p2723
sS'chunktype'
p2724
S'child:NP6'
p2725
sS'af'
p2726
S'\xe0\xa4\x95\xe0\xa5\x87,psp,,,,,,'
p2727
ssbsg1265
I00
sg1268
I00
sg1279
Nsg1266
Nsg157
I5
sg143
I1
sg1523
Nsg1277
Nsg1524
S'PSP'
p2728
sg238
(issf_api
FeatureSet
p2729
(dp2730
g241
(dp2731
S'posn'
p2732
S'150'
p2733
sS'name'
p2734
S'\xe0\xa4\x95\xe0\xa5\x872'
p2735
sS'af'
p2736
S'\xe0\xa4\x95\xe0\xa5\x87,psp,,,,,,'
p2737
ssbsg1286
I00
sba(issf_api
Word
p2738
(dp2739
g1506
I00
sg1507
V\u0935\u093e\u0938\u094d\u0924\u0947
p2740
sg1509
(issf_api
FeatureSet
p2741
(dp2742
g241
(dp2743
S'posn'
p2744
S'160'
p2745
sS'name'
p2746
S'\xe0\xa4\xb5\xe0\xa4\xbe\xe0\xa4\xb8\xe0\xa5\x8d\xe0\xa4\xa4\xe0\xa5\x87'
p2747
sS'drel'
p2748
S'lwg__psp:\xe0\xa4\xb6\xe0\xa5\x82\xe0\xa4\x9f\xe0\xa4\xbf\xe0\xa4\x82\xe0\xa4\x97'
p2749
sS'chunktype'
p2750
S'child:NP6'
p2751
sS'af'
p2752
S'\xe0\xa4\xb5\xe0\xa4\xbe\xe0\xa4\xb8\xe0\xa5\x8d\xe0\xa4\xa4\xe0\xa5\x87,psp,,,,,,'
p2753
ssbsg1265
I00
sg1268
I00
sg1279
Nsg1266
Nsg157
I5
sg143
I1
sg1523
Nsg1277
Nsg1524
S'PSP'
p2754
sg238
(issf_api
FeatureSet
p2755
(dp2756
g241
(dp2757
S'posn'
p2758
S'160'
p2759
sS'name'
p2760
S'\xe0\xa4\xb5\xe0\xa4\xbe\xe0\xa4\xb8\xe0\xa5\x8d\xe0\xa4\xa4\xe0\xa5\x87'
p2761
sS'af'
p2762
S'\xe0\xa4\xb5\xe0\xa4\xbe\xe0\xa4\xb8\xe0\xa5\x8d\xe0\xa4\xa4\xe0\xa5\x87,psp,,,,,,'
p2763
ssbsg1286
I00
sba(issf_api
Word
p2764
(dp2765
g1506
I00
sg1507
V\u091a\u093e\u0930
p2766
sg1509
(issf_api
FeatureSet
p2767
(dp2768
g241
(dp2769
S'posn'
p2770
S'170'
p2771
sS'name'
p2772
S'\xe0\xa4\x9a\xe0\xa4\xbe\xe0\xa4\xb0'
p2773
sS'drel'
p2774
S'nmod__adj:\xe0\xa4\xa6\xe0\xa4\xbf\xe0\xa4\xa8'
p2775
sS'chunktype'
p2776
S'child:NP7'
p2777
sS'af'
p2778
S'\xe0\xa4\x9a\xe0\xa4\xbe\xe0\xa4\xb0,num,any,any,,any,,'
p2779
ssbsg1265
I00
sg1268
I00
sg1279
Nsg1266
Nsg157
I6
sg143
I1
sg1523
Nsg1277
Nsg1524
S'QC'
p2780
sg238
(issf_api
FeatureSet
p2781
(dp2782
g241
(dp2783
S'posn'
p2784
S'170'
p2785
sS'name'
p2786
S'\xe0\xa4\x9a\xe0\xa4\xbe\xe0\xa4\xb0'
p2787
sS'af'
p2788
S'\xe0\xa4\x9a\xe0\xa4\xbe\xe0\xa4\xb0,num,any,any,,any,,'
p2789
ssbsg1286
I00
sba(issf_api
Word
p2790
(dp2791
g1506
I00
sg1507
V\u0926\u093f\u0928
p2792
sg1509
(issf_api
FeatureSet
p2793
(dp2794
g241
(dp2795
S'posn'
p2796
S'180'
p2797
sS'name'
p2798
S'\xe0\xa4\xa6\xe0\xa4\xbf\xe0\xa4\xa8'
p2799
sS'af'
p2800
S'\xe0\xa4\xa6\xe0\xa4\xbf\xe0\xa4\xa8,n,m,sg,3,o,0_\xe0\xa4\x95\xe0\xa5\x87_\xe0\xa4\xb2\xe0\xa4\xbf\xe0\xa4\x8f,0'
p2801
sS'chunkid'
p2802
S'NP7'
p2803
sS'drel'
p2804
S'rt:\xe0\xa4\x95\xe0\xa4\xbf\xe0\xa4\xaf\xe0\xa4\xbe'
p2805
sS'vpos'
p2806
S'vib_3_4'
p2807
sS'chunktype'
p2808
S'head:NP7'
p2809
ssbsg1265
I00
sg1268
I00
sg1279
Nsg1266
Nsg157
I6
sg143
I1
sg1523
Nsg1277
Nsg1524
S'NN'
p2810
sg238
(issf_api
FeatureSet
p2811
(dp2812
g241
(dp2813
S'posn'
p2814
S'180'
p2815
sS'name'
p2816
S'\xe0\xa4\xa6\xe0\xa4\xbf\xe0\xa4\xa8'
p2817
sS'af'
p2818
S'\xe0\xa4\xa6\xe0\xa4\xbf\xe0\xa4\xa8,n,m,sg,3,o,0,0'
p2819
ssbsg1286
I00
sba(issf_api
Word
p2820
(dp2821
g1506
I00
sg1507
V\u0915\u0947
p2822
sg1509
(issf_api
FeatureSet
p2823
(dp2824
g241
(dp2825
S'posn'
p2826
S'190'
p2827
sS'name'
p2828
S'\xe0\xa4\x95\xe0\xa5\x873'
p2829
sS'drel'
p2830
S'lwg__psp:\xe0\xa4\xa6\xe0\xa4\xbf\xe0\xa4\xa8'
p2831
sS'chunktype'
p2832
S'child:NP7'
p2833
sS'af'
p2834
S'\xe0\xa4\x95\xe0\xa5\x87,psp,,,,,,'
p2835
ssbsg1265
I00
sg1268
I00
sg1279
Nsg1266
Nsg157
I6
sg143
I1
sg1523
Nsg1277
Nsg1524
S'PSP'
p2836
sg238
(issf_api
FeatureSet
p2837
(dp2838
g241
(dp2839
S'posn'
p2840
S'190'
p2841
sS'name'
p2842
S'\xe0\xa4\x95\xe0\xa5\x873'
p2843
sS'af'
p2844
S'\xe0\xa4\x95\xe0\xa5\x87,psp,,,,,,'
p2845
ssbsg1286
I00
sba(issf_api
Word
p2846
(dp2847
g1506
I00
sg1507
V\u0932\u093f\u090f
p2848
sg1509
(issf_api
FeatureSet
p2849
(dp2850
g241
(dp2851
S'posn'
p2852
S'200'
p2853
sS'name'
p2854
S'\xe0\xa4\xb2\xe0\xa4\xbf\xe0\xa4\x8f'
p2855
sS'drel'
p2856
S'lwg__psp:\xe0\xa4\xa6\xe0\xa4\xbf\xe0\xa4\xa8'
p2857
sS'chunktype'
p2858
S'child:NP7'
p2859
sS'af'
p2860
S'\xe0\xa4\xb2\xe0\xa4\xbf\xe0\xa4\x8f,psp,,,,,,'
p2861
ssbsg1265
I00
sg1268
I00
sg1279
Nsg1266
Nsg157
I6
sg143
I1
sg1523
Nsg1277
Nsg1524
S'PSP'
p2862
sg238
(issf_api
FeatureSet
p2863
(dp2864
g241
(dp2865
S'posn'
p2866
S'200'
p2867
sS'name'
p2868
S'\xe0\xa4\xb2\xe0\xa4\xbf\xe0\xa4\x8f'
p2869
sS'af'
p2870
S'\xe0\xa4\xb2\xe0\xa4\xbf\xe0\xa4\x8f,psp,,,,,,'
p2871
ssbsg1286
I00
sba(issf_api
Word
p2872
(dp2873
g1506
I00
sg1507
V\u0938\u0902\u091c\u092f
p2874
sg1509
(issf_api
FeatureSet
p2875
(dp2876
g241
(dp2877
S'posn'
p2878
S'210'
p2879
sS'name'
p2880
S'\xe0\xa4\xb8\xe0\xa4\x82\xe0\xa4\x9c\xe0\xa4\xaf2'
p2881
sS'af'
p2882
S'\xe0\xa4\xb8\xe0\xa4\x82\xe0\xa4\x9c\xe0\xa4\xaf,n,m,sg,3,o,0_\xe0\xa4\x95\xe0\xa5\x8b,0'
p2883
sS'chunkid'
p2884
S'NP8'
p2885
sS'drel'
p2886
S'k2p:\xe0\xa4\x9c\xe0\xa4\xbe\xe0\xa4\xa8\xe0\xa5\x87'
p2887
sS'vpos'
p2888
S'vib_2'
p2889
sS'chunktype'
p2890
S'head:NP8'
p2891
ssbsg1265
I00
sg1268
I00
sg1279
Nsg1266
Nsg157
I7
sg143
I1
sg1523
Nsg1277
Nsg1524
S'NNP'
p2892
sg238
(issf_api
FeatureSet
p2893
(dp2894
g241
(dp2895
S'posn'
p2896
S'210'
p2897
sS'name'
p2898
S'\xe0\xa4\xb8\xe0\xa4\x82\xe0\xa4\x9c\xe0\xa4\xaf2'
p2899
sS'af'
p2900
S'\xe0\xa4\xb8\xe0\xa4\x82\xe0\xa4\x9c\xe0\xa4\xaf,n,m,sg,3,o,0,0'
p2901
ssbsg1286
I00
sba(issf_api
Word
p2902
(dp2903
g1506
I00
sg1507
V\u0915\u094b
p2904
sg1509
(issf_api
FeatureSet
p2905
(dp2906
g241
(dp2907
S'posn'
p2908
S'220'
p2909
sS'name'
p2910
S'\xe0\xa4\x95\xe0\xa5\x8b'
p2911
sS'drel'
p2912
S'lwg__psp:\xe0\xa4\xb8\xe0\xa4\x82\xe0\xa4\x9c\xe0\xa4\xaf2'
p2913
sS'chunktype'
p2914
S'child:NP8'
p2915
sS'af'
p2916
S'\xe0\xa4\x95\xe0\xa5\x8b,psp,,,,,,'
p2917
ssbsg1265
I00
sg1268
I00
sg1279
Nsg1266
Nsg157
I7
sg143
I1
sg1523
Nsg1277
Nsg1524
S'PSP'
p2918
sg238
(issf_api
FeatureSet
p2919
(dp2920
g241
(dp2921
S'posn'
p2922
S'220'
p2923
sS'name'
p2924
S'\xe0\xa4\x95\xe0\xa5\x8b'
p2925
sS'af'
p2926
S'\xe0\xa4\x95\xe0\xa5\x8b,psp,,,,,,'
p2927
ssbsg1286
I00
sba(issf_api
Word
p2928
(dp2929
g1506
I00
sg1507
V\u092e\u0941\u0902\u092c\u0908
p2930
sg1509
(issf_api
FeatureSet
p2931
(dp2932
g241
(dp2933
S'posn'
p2934
S'230'
p2935
sS'name'
p2936
S'\xe0\xa4\xae\xe0\xa5\x81\xe0\xa4\x82\xe0\xa4\xac\xe0\xa4\x88'
p2937
sS'af'
p2938
S'\xe0\xa4\xae\xe0\xa5\x81\xe0\xa4\x82\xe0\xa4\xac\xe0\xa4\x88,n,f,sg,3,o,0_\xe0\xa4\x95\xe0\xa5\x87_\xe0\xa4\xac\xe0\xa4\xbe\xe0\xa4\xb9\xe0\xa4\xb0,0'
p2939
sS'chunkid'
p2940
S'NP9'
p2941
sS'drel'
p2942
S'k7p:\xe0\xa4\x9c\xe0\xa4\xbe\xe0\xa4\xa8\xe0\xa5\x87'
p2943
sS'vpos'
p2944
S'vib_2_3'
p2945
sS'chunktype'
p2946
S'head:NP9'
p2947
ssbsg1265
I00
sg1268
I00
sg1279
Nsg1266
Nsg157
I8
sg143
I1
sg1523
Nsg1277
Nsg1524
S'NNP'
p2948
sg238
(issf_api
FeatureSet
p2949
(dp2950
g241
(dp2951
S'posn'
p2952
S'230'
p2953
sS'name'
p2954
S'\xe0\xa4\xae\xe0\xa5\x81\xe0\xa4\x82\xe0\xa4\xac\xe0\xa4\x88'
p2955
sS'af'
p2956
S'\xe0\xa4\xae\xe0\xa5\x81\xe0\xa4\x82\xe0\xa4\xac\xe0\xa4\x88,n,f,sg,3,o,0,0'
p2957
ssbsg1286
I00
sba(issf_api
Word
p2958
(dp2959
g1506
I00
sg1507
V\u0915\u0947
p2960
sg1509
(issf_api
FeatureSet
p2961
(dp2962
g241
(dp2963
S'posn'
p2964
S'240'
p2965
sS'name'
p2966
S'\xe0\xa4\x95\xe0\xa5\x874'
p2967
sS'drel'
p2968
S'lwg__psp:\xe0\xa4\xae\xe0\xa5\x81\xe0\xa4\x82\xe0\xa4\xac\xe0\xa4\x88'
p2969
sS'chunktype'
p2970
S'child:NP9'
p2971
sS'af'
p2972
S'\xe0\xa4\x95\xe0\xa5\x87,psp,,,,,,'
p2973
ssbsg1265
I00
sg1268
I00
sg1279
Nsg1266
Nsg157
I8
sg143
I1
sg1523
Nsg1277
Nsg1524
S'PSP'
p2974
sg238
(issf_api
FeatureSet
p2975
(dp2976
g241
(dp2977
S'posn'
p2978
S'240'
p2979
sS'name'
p2980
S'\xe0\xa4\x95\xe0\xa5\x874'
p2981
sS'af'
p2982
S'\xe0\xa4\x95\xe0\xa5\x87,psp,,,,,,'
p2983
ssbsg1286
I00
sba(issf_api
Word
p2984
(dp2985
g1506
I00
sg1507
V\u092c\u093e\u0939\u0930
p2986
sg1509
(issf_api
FeatureSet
p2987
(dp2988
g241
(dp2989
S'posn'
p2990
S'250'
p2991
sS'name'
p2992
S'\xe0\xa4\xac\xe0\xa4\xbe\xe0\xa4\xb9\xe0\xa4\xb0'
p2993
sS'drel'
p2994
S'lwg__psp:\xe0\xa4\xae\xe0\xa5\x81\xe0\xa4\x82\xe0\xa4\xac\xe0\xa4\x88'
p2995
sS'chunktype'
p2996
S'child:NP9'
p2997
sS'af'
p2998
S'\xe0\xa4\xac\xe0\xa4\xbe\xe0\xa4\xb9\xe0\xa4\xb0,nst,m,sg,3,d,,'
p2999
ssbsg1265
I00
sg1268
I00
sg1279
Nsg1266
Nsg157
I8
sg143
I1
sg1523
Nsg1277
Nsg1524
S'NST'
p3000
sg238
(issf_api
FeatureSet
p3001
(dp3002
g241
(dp3003
S'posn'
p3004
S'250'
p3005
sS'name'
p3006
S'\xe0\xa4\xac\xe0\xa4\xbe\xe0\xa4\xb9\xe0\xa4\xb0'
p3007
sS'af'
p3008
S'\xe0\xa4\xac\xe0\xa4\xbe\xe0\xa4\xb9\xe0\xa4\xb0,nst,m,sg,3,d,,'
p3009
ssbsg1286
I00
sba(issf_api
Word
p3010
(dp3011
g1506
I00
sg1507
V\u091c\u093e\u0928\u0947
p3012
sg1509
(issf_api
FeatureSet
p3013
(dp3014
g241
(dp3015
S'posn'
p3016
S'260'
p3017
sS'name'
p3018
S'\xe0\xa4\x9c\xe0\xa4\xbe\xe0\xa4\xa8\xe0\xa5\x87'
p3019
sS'af'
p3020
S'\xe0\xa4\x9c\xe0\xa4\xbe,v,any,sg,any,o,\xe0\xa4\xa8\xe0\xa4\xbe_\xe0\xa4\x95\xe0\xa4\xbe,nA'
p3021
sS'chunkid'
p3022
S'VGNN'
p3023
sS'drel'
p3024
S'r6:\xe0\xa4\x87\xe0\xa4\x9c\xe0\xa4\xbe\xe0\xa5\x9b\xe0\xa4\xa4'
p3025
sS'vpos'
p3026
S'tam_2'
p3027
sS'chunktype'
p3028
S'head:VGNN'
p3029
ssbsg1265
I00
sg1268
I00
sg1279
Nsg1266
Nsg157
I9
sg143
I1
sg1523
Nsg1277
Nsg1524
S'VM'
p3030
sg238
(issf_api
FeatureSet
p3031
(dp3032
g241
(dp3033
S'posn'
p3034
S'260'
p3035
sS'name'
p3036
S'\xe0\xa4\x9c\xe0\xa4\xbe\xe0\xa4\xa8\xe0\xa5\x87'
p3037
sS'af'
p3038
S'\xe0\xa4\x9c\xe0\xa4\xbe,v,any,any,any,o,\xe0\xa4\xa8\xe0\xa4\xbe,nA'
p3039
ssbsg1286
I00
sba(issf_api
Word
p3040
(dp3041
g1506
I00
sg1507
V\u0915\u0940
p3042
sg1509
(issf_api
FeatureSet
p3043
(dp3044
g241
(dp3045
S'posn'
p3046
S'270'
p3047
sS'name'
p3048
S'\xe0\xa4\x95\xe0\xa5\x802'
p3049
sS'drel'
p3050
S'lwg__psp:\xe0\xa4\x9c\xe0\xa4\xbe\xe0\xa4\xa8\xe0\xa5\x87'
p3051
sS'chunktype'
p3052
S'child:VGNN'
p3053
sS'af'
p3054
S'\xe0\xa4\x95\xe0\xa4\xbe,psp,f,sg,,o,,'
p3055
ssbsg1265
I00
sg1268
I00
sg1279
Nsg1266
Nsg157
I9
sg143
I1
sg1523
Nsg1277
Nsg1524
S'PSP'
p3056
sg238
(issf_api
FeatureSet
p3057
(dp3058
g241
(dp3059
S'posn'
p3060
S'270'
p3061
sS'name'
p3062
S'\xe0\xa4\x95\xe0\xa5\x802'
p3063
sS'af'
p3064
S'\xe0\xa4\x95\xe0\xa4\xbe,psp,f,sg,,o,,'
p3065
ssbsg1286
I00
sba(issf_api
Word
p3066
(dp3067
g1506
I00
sg1507
V\u0907\u091c\u093e\u095b\u0924
p3068
sg1509
(issf_api
FeatureSet
p3069
(dp3070
g241
(dp3071
S'posn'
p3072
S'280'
p3073
sS'name'
p3074
S'\xe0\xa4\x87\xe0\xa4\x9c\xe0\xa4\xbe\xe0\xa5\x9b\xe0\xa4\xa4'
p3075
sS'af'
p3076
S'\xe0\xa4\x87\xe0\xa4\x9c\xe0\xa4\xbe\xe0\xa4\x9c\xe0\xa4\xa4,n,f,sg,3,o,0_\xe0\xa4\x95\xe0\xa4\xbe,0'
p3077
sS'chunkid'
p3078
S'NP10'
p3079
sS'drel'
p3080
S'r6-k2:\xe0\xa4\x85\xe0\xa4\xa8\xe0\xa5\x81\xe0\xa4\xb0\xe0\xa5\x8b\xe0\xa4\xa7'
p3081
sS'vpos'
p3082
S'vib_2'
p3083
sS'chunktype'
p3084
S'head:NP10'
p3085
ssbsg1265
I00
sg1268
I00
sg1279
Nsg1266
Nsg157
I10
sg143
I1
sg1523
Nsg1277
Nsg1524
S'NN'
p3086
sg238
(issf_api
FeatureSet
p3087
(dp3088
g241
(dp3089
S'posn'
p3090
S'280'
p3091
sS'name'
p3092
S'\xe0\xa4\x87\xe0\xa4\x9c\xe0\xa4\xbe\xe0\xa5\x9b\xe0\xa4\xa4'
p3093
sS'af'
p3094
S'\xe0\xa4\x87\xe0\xa4\x9c\xe0\xa4\xbe\xe0\xa4\x9c\xe0\xa4\xa4,n,f,sg,3,o,0,0'
p3095
ssbsg1286
I00
sba(issf_api
Word
p3096
(dp3097
g1506
I00
sg1507
V\u0915\u093e
p3098
sg1509
(issf_api
FeatureSet
p3099
(dp3100
g241
(dp3101
S'posn'
p3102
S'290'
p3103
sS'name'
p3104
S'\xe0\xa4\x95\xe0\xa4\xbe'
p3105
sS'drel'
p3106
S'lwg__psp:\xe0\xa4\x87\xe0\xa4\x9c\xe0\xa4\xbe\xe0\xa5\x9b\xe0\xa4\xa4'
p3107
sS'chunktype'
p3108
S'child:NP10'
p3109
sS'af'
p3110
S'\xe0\xa4\x95\xe0\xa4\xbe,psp,m,sg,,d,,'
p3111
ssbsg1265
I00
sg1268
I00
sg1279
Nsg1266
Nsg157
I10
sg143
I1
sg1523
Nsg1277
Nsg1524
S'PSP'
p3112
sg238
(issf_api
FeatureSet
p3113
(dp3114
g241
(dp3115
S'posn'
p3116
S'290'
p3117
sS'name'
p3118
S'\xe0\xa4\x95\xe0\xa4\xbe'
p3119
sS'af'
p3120
S'\xe0\xa4\x95\xe0\xa4\xbe,psp,m,sg,,d,,'
p3121
ssbsg1286
I00
sba(issf_api
Word
p3122
(dp3123
g1506
I00
sg1507
V\u0905\u0928\u0941\u0930\u094b\u0927
p3124
sg1509
(issf_api
FeatureSet
p3125
(dp3126
g241
(dp3127
S'posn'
p3128
S'300'
p3129
sS'name'
p3130
S'\xe0\xa4\x85\xe0\xa4\xa8\xe0\xa5\x81\xe0\xa4\xb0\xe0\xa5\x8b\xe0\xa4\xa7'
p3131
sS'af'
p3132
S'\xe0\xa4\x85\xe0\xa4\xa8\xe0\xa5\x81\xe0\xa4\xb0\xe0\xa5\x8b\xe0\xa4\xa7,n,m,sg,3,d,0,0'
p3133
sS'chunkid'
p3134
S'NP11'
p3135
sS'drel'
p3136
S'pof:\xe0\xa4\x95\xe0\xa4\xbf\xe0\xa4\xaf\xe0\xa4\xbe'
p3137
sS'chunktype'
p3138
S'head:NP11'
p3139
ssbsg1265
I00
sg1268
I00
sg1279
Nsg1266
Nsg157
I11
sg143
I1
sg1523
Nsg1277
Nsg1524
S'NN'
p3140
sg238
(issf_api
FeatureSet
p3141
(dp3142
g241
(dp3143
S'posn'
p3144
S'300'
p3145
sS'name'
p3146
S'\xe0\xa4\x85\xe0\xa4\xa8\xe0\xa5\x81\xe0\xa4\xb0\xe0\xa5\x8b\xe0\xa4\xa7'
p3147
sS'af'
p3148
S'\xe0\xa4\x85\xe0\xa4\xa8\xe0\xa5\x81\xe0\xa4\xb0\xe0\xa5\x8b\xe0\xa4\xa7,n,m,sg,3,d,0,0'
p3149
ssbsg1286
I00
sba(issf_api
Word
p3150
(dp3151
g1506
I00
sg1507
V\u0915\u093f\u092f\u093e
p3152
sg1509
(issf_api
FeatureSet
p3153
(dp3154
g241
(dp3155
S'posn'
p3156
S'310'
p3157
sS'name'
p3158
S'\xe0\xa4\x95\xe0\xa4\xbf\xe0\xa4\xaf\xe0\xa4\xbe'
p3159
sS'af'
p3160
S'\xe0\xa4\x95\xe0\xa4\xb0,v,m,sg,any,,\xe0\xa4\xaf\xe0\xa4\xbe_\xe0\xa4\xa5\xe0\xa4\xbe,yA'
p3161
sS'chunkid'
p3162
S'VGF'
p3163
sS'chunktype'
p3164
S'head:VGF'
p3165
sS'voicetype'
p3166
S'active'
p3167
sS'vpos'
p3168
S'tam_2'
p3169
sS'stype'
p3170
S'declarative'
p3171
ssbsg1265
I00
sg1268
I00
sg1279
Nsg1266
Nsg157
I12
sg143
I1
sg1523
Nsg1277
Nsg1524
S'VM'
p3172
sg238
(issf_api
FeatureSet
p3173
(dp3174
g241
(dp3175
S'posn'
p3176
S'310'
p3177
sS'name'
p3178
S'\xe0\xa4\x95\xe0\xa4\xbf\xe0\xa4\xaf\xe0\xa4\xbe'
p3179
sS'af'
p3180
S'\xe0\xa4\x95\xe0\xa4\xb0,v,m,sg,any,,\xe0\xa4\xaf\xe0\xa4\xbe,yA'
p3181
ssbsg1286
I00
sba(issf_api
Word
p3182
(dp3183
g1506
I00
sg1507
V\u0925\u093e
p3184
sg1509
(issf_api
FeatureSet
p3185
(dp3186
g241
(dp3187
S'posn'
p3188
S'320'
p3189
sS'name'
p3190
S'\xe0\xa4\xa5\xe0\xa4\xbe'
p3191
sS'drel'
p3192
S'lwg__vaux:\xe0\xa4\x95\xe0\xa4\xbf\xe0\xa4\xaf\xe0\xa4\xbe'
p3193
sS'chunktype'
p3194
S'child:VGF'
p3195
sS'af'
p3196
S'\xe0\xa4\xa5\xe0\xa4\xbe,v,m,sg,any,,\xe0\xa4\xa5\xe0\xa4\xbe,WA'
p3197
ssbsg1265
I00
sg1268
I00
sg1279
Nsg1266
Nsg157
I12
sg143
I1
sg1523
Nsg1277
Nsg1524
S'VAUX'
p3198
sg238
(issf_api
FeatureSet
p3199
(dp3200
g241
(dp3201
S'posn'
p3202
S'320'
p3203
sS'name'
p3204
S'\xe0\xa4\xa5\xe0\xa4\xbe'
p3205
sS'af'
p3206
S'\xe0\xa4\xa5\xe0\xa4\xbe,v,m,sg,any,,\xe0\xa4\xa5\xe0\xa4\xbe,WA'
p3207
ssbsg1286
I00
sba(issf_api
Word
p3208
(dp3209
g1506
I00
sg1507
V\u0964
sg1509
(issf_api
FeatureSet
p3210
(dp3211
g241
(dp3212
S'posn'
p3213
S'330'
p3214
sS'name'
p3215
S'\xe0\xa5\xa4'
p3216
sS'af'
p3217
S'\xe0\xa5\xa4,punc,,,,,,'
p3218
sS'chunkid'
p3219
S'BLK'
p3220
sS'drel'
p3221
S'rsym:\xe0\xa4\x95\xe0\xa4\xbf\xe0\xa4\xaf\xe0\xa4\xbe'
p3222
sS'chunktype'
p3223
S'head:BLK'
p3224
ssbsg1265
I00
sg1268
I00
sg1279
Nsg1266
Nsg157
I13
sg143
I1
sg1523
Nsg1277
Nsg1524
S'SYM'
p3225
sg238
(issf_api
FeatureSet
p3226
(dp3227
g241
(dp3228
S'posn'
p3229
S'330'
p3230
sS'name'
p3231
S'\xe0\xa5\xa4'
p3232
sS'af'
p3233
S'\xe0\xa5\xa4,punc,,,,,,'
p3234
ssbsg1286
I00
sba(issf_api
Word
p3235
(dp3236
g1506
I00
sg1507
V\u0935\u093f\u0936\u0947\u0937
p3237
sg1509
(issf_api
FeatureSet
p3238
(dp3239
g241
(dp3240
S'posn'
p3241
S'10'
p3242
sS'name'
p3243
S'\xe0\xa4\xb5\xe0\xa4\xbf\xe0\xa4\xb6\xe0\xa5\x87\xe0\xa4\xb7'
p3244
sS'drel'
p3245
S'nmod__adj:\xe0\xa4\x9c\xe0\xa4\x9c'
p3246
sS'chunktype'
p3247
S'child:NP'
p3248
sS'af'
p3249
S'\xe0\xa4\xb5\xe0\xa4\xbf\xe0\xa4\xb6\xe0\xa5\x87\xe0\xa4\xb7,adj,any,any,,o,,'
p3250
ssbsg1265
I01
sg1268
I00
sg1279
Nsg1266
Nsg157
I0
sg143
I2
sg1523
I3
sg1277
Nsg1524
S'JJ'
p3251
sg238
(issf_api
FeatureSet
p3252
(dp3253
g241
(dp3254
S'posn'
p3255
S'10'
p3256
sS'name'
p3257
S'\xe0\xa4\xb5\xe0\xa4\xbf\xe0\xa4\xb6\xe0\xa5\x87\xe0\xa4\xb7'
p3258
sS'af'
p3259
S'\xe0\xa4\xb5\xe0\xa4\xbf\xe0\xa4\xb6\xe0\xa5\x87\xe0\xa4\xb7,adj,any,any,,o,,'
p3260
ssbsg1286
I00
sba(issf_api
Word
p3261
(dp3262
g1506
I00
sg1507
V\u091c\u091c
p3263
sg1509
(issf_api
FeatureSet
p3264
(dp3265
g241
(dp3266
S'posn'
p3267
S'20'
p3268
sS'name'
p3269
S'\xe0\xa4\x9c\xe0\xa4\x9c'
p3270
sS'af'
p3271
S'\xe0\xa4\x9c\xe0\xa4\x9c,n,m,sg,3,o,0,0'
p3272
sS'chunkid'
p3273
S'NP'
p3274
sS'drel'
p3275
S'nmod:\xe0\xa4\x95\xe0\xa5\x8b\xe0\xa4\xa1\xe0\xa5\x87'
p3276
sS'chunktype'
p3277
S'head:NP'
p3278
ssbsg1265
I01
sg1268
I00
sg1279
Nsg1266
Nsg157
I0
sg143
I2
sg1523
I3
sg1277
Nsg1524
S'NN'
p3279
sg238
(issf_api
FeatureSet
p3280
(dp3281
g241
(dp3282
S'posn'
p3283
S'20'
p3284
sS'name'
p3285
S'\xe0\xa4\x9c\xe0\xa4\x9c'
p3286
sS'af'
p3287
S'\xe0\xa4\x9c\xe0\xa4\x9c,n,m,sg,3,o,0,0'
p3288
ssbsg1286
I00
sba(issf_api
Word
p3289
(dp3290
g1506
I00
sg1507
V\u092a\u0940.
p3291
sg1509
(issf_api
FeatureSet
p3292
(dp3293
g241
(dp3294
S'posn'
p3295
S'30'
p3296
sS'name'
p3297
S'\xe0\xa4\xaa\xe0\xa5\x80.'
p3298
sS'drel'
p3299
S'pof__cn:\xe0\xa4\x95\xe0\xa5\x8b\xe0\xa4\xa1\xe0\xa5\x87'
p3300
sS'chunktype'
p3301
S'child:NP2'
p3302
sS'af'
p3303
S'\xe0\xa4\xaa\xe0\xa5\x80.,n,m,sg,3,d,0,0'
p3304
ssbsg1265
I01
sg1268
I00
sg1279
Nsg1266
Nsg157
I1
sg143
I2
sg1523
I3
sg1277
Nsg1524
S'NNPC'
p3305
sg238
(issf_api
FeatureSet
p3306
(dp3307
g241
(dp3308
S'posn'
p3309
S'30'
p3310
sS'name'
p3311
S'\xe0\xa4\xaa\xe0\xa5\x80.'
p3312
sS'af'
p3313
S'\xe0\xa4\xaa\xe0\xa5\x80.,n,m,sg,3,d,0,0'
p3314
ssbsg1286
I00
sba(issf_api
Word
p3315
(dp3316
g1506
I00
sg1507
V\u0921\u0940.
p3317
sg1509
(issf_api
FeatureSet
p3318
(dp3319
g241
(dp3320
S'posn'
p3321
S'40'
p3322
sS'name'
p3323
S'\xe0\xa4\xa1\xe0\xa5\x80.'
p3324
sS'drel'
p3325
S'pof__cn:\xe0\xa4\x95\xe0\xa5\x8b\xe0\xa4\xa1\xe0\xa5\x87'
p3326
sS'chunktype'
p3327
S'child:NP2'
p3328
sS'af'
p3329
S'\xe0\xa4\xa1\xe0\xa5\x80.,n,m,sg,3,d,0,0'
p3330
ssbsg1265
I01
sg1268
I00
sg1279
Nsg1266
Nsg157
I1
sg143
I2
sg1523
I3
sg1277
Nsg1524
S'NNPC'
p3331
sg238
(issf_api
FeatureSet
p3332
(dp3333
g241
(dp3334
S'posn'
p3335
S'40'
p3336
sS'name'
p3337
S'\xe0\xa4\xa1\xe0\xa5\x80.'
p3338
sS'af'
p3339
S'\xe0\xa4\xa1\xe0\xa5\x80.,n,m,sg,3,d,0,0'
p3340
ssbsg1286
I00
sba(issf_api
Word
p3341
(dp3342
g1506
I00
sg1507
V\u0915\u094b\u0921\u0947
p3343
sg1509
(issf_api
FeatureSet
p3344
(dp3345
g241
(dp3346
S'posn'
p3347
S'50'
p3348
sS'name'
p3349
S'\xe0\xa4\x95\xe0\xa5\x8b\xe0\xa4\xa1\xe0\xa5\x87'
p3350
sS'af'
p3351
S'\xe0\xa4\x95\xe0\xa5\x8b\xe0\xa4\xa1\xe0\xa5\x87,n,m,sg,3,o,0_\xe0\xa4\xa8\xe0\xa5\x87,0'
p3352
sS'chunkid'
p3353
S'NP2'
p3354
sS'drel'
p3355
S'k1:\xe0\xa4\x95\xe0\xa4\xb9\xe0\xa4\xbe'
p3356
sS'vpos'
p3357
S'vib_4'
p3358
sS'chunktype'
p3359
S'head:NP2'
p3360
ssbsg1265
I01
sg1268
I00
sg1279
Nsg1266
Nsg157
I1
sg143
I2
sg1523
I3
sg1277
Nsg1524
S'NNP'
p3361
sg238
(issf_api
FeatureSet
p3362
(dp3363
g241
(dp3364
S'posn'
p3365
S'50'
p3366
sS'name'
p3367
S'\xe0\xa4\x95\xe0\xa5\x8b\xe0\xa4\xa1\xe0\xa5\x87'
p3368
sS'af'
p3369
S'\xe0\xa4\x95\xe0\xa5\x8b\xe0\xa4\xa1\xe0\xa5\x87,n,m,sg,3,o,0,0'
p3370
ssbsg1286
I00
sba(issf_api
Word
p3371
(dp3372
g1506
I00
sg1507
V\u0928\u0947
p3373
sg1509
(issf_api
FeatureSet
p3374
(dp3375
g241
(dp3376
S'posn'
p3377
S'60'
p3378
sS'name'
p3379
S'\xe0\xa4\xa8\xe0\xa5\x87'
p3380
sS'drel'
p3381
S'lwg__psp:\xe0\xa4\x95\xe0\xa5\x8b\xe0\xa4\xa1\xe0\xa5\x87'
p3382
sS'chunktype'
p3383
S'child:NP2'
p3384
sS'af'
p3385
S'\xe0\xa4\xa8\xe0\xa5\x87,psp,,,,,,'
p3386
ssbsg1265
I01
sg1268
I00
sg1279
Nsg1266
Nsg157
I1
sg143
I2
sg1523
I3
sg1277
Nsg1524
S'PSP'
p3387
sg238
(issf_api
FeatureSet
p3388
(dp3389
g241
(dp3390
S'posn'
p3391
S'60'
p3392
sS'name'
p3393
S'\xe0\xa4\xa8\xe0\xa5\x87'
p3394
sS'af'
p3395
S'\xe0\xa4\xa8\xe0\xa5\x87,psp,,,,,,'
p3396
ssbsg1286
I00
sba(issf_api
Word
p3397
(dp3398
g1506
I00
sg1507
V\u0915\u0939\u093e
p3399
sg1509
(issf_api
FeatureSet
p3400
(dp3401
g241
(dp3402
S'posn'
p3403
S'70'
p3404
sS'name'
p3405
S'\xe0\xa4\x95\xe0\xa4\xb9\xe0\xa4\xbe'
p3406
sS'af'
p3407
S'\xe0\xa4\x95\xe0\xa4\xb9,v,m,sg,any,,\xe0\xa4\xaf\xe0\xa4\xbe,yA'
p3408
sS'chunkid'
p3409
S'VGF'
p3410
sS'chunktype'
p3411
S'head:VGF'
p3412
sS'voicetype'
p3413
S'active'
p3414
sS'stype'
p3415
S'declarative'
p3416
ssbsg1265
I01
sg1268
I00
sg1279
Nsg1266
Nsg157
I2
sg143
I2
sg1523
I3
sg1277
Nsg1524
S'VM'
p3417
sg238
(issf_api
FeatureSet
p3418
(dp3419
g241
(dp3420
S'posn'
p3421
S'70'
p3422
sS'name'
p3423
S'\xe0\xa4\x95\xe0\xa4\xb9\xe0\xa4\xbe'
p3424
sS'af'
p3425
S'\xe0\xa4\x95\xe0\xa4\xb9,v,m,sg,any,,\xe0\xa4\xaf\xe0\xa4\xbe,yA'
p3426
ssbsg1286
I00
sba(issf_api
Word
p3427
(dp3428
g1506
I00
sg1507
V\u0915\u093f
p3429
sg1509
(issf_api
FeatureSet
p3430
(dp3431
g241
(dp3432
S'posn'
p3433
S'80'
p3434
sS'name'
p3435
S'\xe0\xa4\x95\xe0\xa4\xbf'
p3436
sS'af'
p3437
S'\xe0\xa4\x95\xe0\xa4\xbf,avy,,,,,,'
p3438
sS'chunkid'
p3439
S'CCP'
p3440
sS'drel'
p3441
S'k2:\xe0\xa4\x95\xe0\xa4\xb9\xe0\xa4\xbe'
p3442
sS'chunktype'
p3443
S'head:CCP'
p3444
ssbsg1265
I01
sg1268
I00
sg1279
Nsg1266
Nsg157
I3
sg143
I2
sg1523
I3
sg1277
Nsg1524
S'CC'
p3445
sg238
(issf_api
FeatureSet
p3446
(dp3447
g241
(dp3448
S'posn'
p3449
S'80'
p3450
sS'name'
p3451
S'\xe0\xa4\x95\xe0\xa4\xbf'
p3452
sS'af'
p3453
S'\xe0\xa4\x95\xe0\xa4\xbf,avy,,,,,,'
p3454
ssbsg1286
I00
sba(issf_api
Word
p3455
(dp3456
g1506
I00
sg1507
V\u0938\u0902\u091c\u092f
p3457
sg1509
(issf_api
FeatureSet
p3458
(dp3459
g241
(dp3460
S'posn'
p3461
S'90'
p3462
sS'name'
p3463
S'\xe0\xa4\xb8\xe0\xa4\x82\xe0\xa4\x9c\xe0\xa4\xaf'
p3464
sS'af'
p3465
S'\xe0\xa4\xb8\xe0\xa4\x82\xe0\xa4\x9c\xe0\xa4\xaf,n,m,sg,3,d,0,0'
p3466
sS'chunkid'
p3467
S'NP3'
p3468
sS'drel'
p3469
S'k1:\xe0\xa4\x9c\xe0\xa4\xbe'
p3470
sS'chunktype'
p3471
S'head:NP3'
p3472
ssbsg1265
I01
sg1268
I00
sg1279
Nsg1266
Nsg157
I4
sg143
I2
sg1523
I3
sg1277
Nsg1524
S'NNP'
p3473
sg238
(issf_api
FeatureSet
p3474
(dp3475
g241
(dp3476
S'posn'
p3477
S'90'
p3478
sS'name'
p3479
S'\xe0\xa4\xb8\xe0\xa4\x82\xe0\xa4\x9c\xe0\xa4\xaf'
p3480
sS'af'
p3481
S'\xe0\xa4\xb8\xe0\xa4\x82\xe0\xa4\x9c\xe0\xa4\xaf,n,m,sg,3,d,0,0'
p3482
ssbsg1286
I00
sba(issf_api
Word
p3483
(dp3484
g1506
I00
sg1507
V\u0936\u0942\u091f\u093f\u0902\u0917
p3485
sg1509
(issf_api
FeatureSet
p3486
(dp3487
g241
(dp3488
S'posn'
p3489
S'100'
p3490
sS'name'
p3491
S'\xe0\xa4\xb6\xe0\xa5\x82\xe0\xa4\x9f\xe0\xa4\xbf\xe0\xa4\x82\xe0\xa4\x97'
p3492
sS'af'
p3493
S'\xe0\xa4\xb6\xe0\xa5\x82\xe0\xa4\x9f\xe0\xa4\xbf\xe0\xa4\x82\xe0\xa4\x97,n,f,sg,3,o,0_\xe0\xa4\x95\xe0\xa5\x87_\xe0\xa4\xb2\xe0\xa4\xbf\xe0\xa4\x8f,0'
p3494
sS'chunkid'
p3495
S'NP4'
p3496
sS'drel'
p3497
S'rt:\xe0\xa4\x9c\xe0\xa4\xbe'
p3498
sS'vpos'
p3499
S'vib_2_3'
p3500
sS'chunktype'
p3501
S'head:NP4'
p3502
ssbsg1265
I01
sg1268
I00
sg1279
Nsg1266
Nsg157
I5
sg143
I2
sg1523
I3
sg1277
Nsg1524
S'NN'
p3503
sg238
(issf_api
FeatureSet
p3504
(dp3505
g241
(dp3506
S'posn'
p3507
S'100'
p3508
sS'name'
p3509
S'\xe0\xa4\xb6\xe0\xa5\x82\xe0\xa4\x9f\xe0\xa4\xbf\xe0\xa4\x82\xe0\xa4\x97'
p3510
sS'af'
p3511
S'\xe0\xa4\xb6\xe0\xa5\x82\xe0\xa4\x9f\xe0\xa4\xbf\xe0\xa4\x82\xe0\xa4\x97,n,f,sg,3,o,0,0'
p3512
ssbsg1286
I00
sba(issf_api
Word
p3513
(dp3514
g1506
I00
sg1507
V\u0915\u0947
p3515
sg1509
(issf_api
FeatureSet
p3516
(dp3517
g241
(dp3518
S'posn'
p3519
S'110'
p3520
sS'name'
p3521
S'\xe0\xa4\x95\xe0\xa5\x87'
p3522
sS'drel'
p3523
S'lwg__psp:\xe0\xa4\xb6\xe0\xa5\x82\xe0\xa4\x9f\xe0\xa4\xbf\xe0\xa4\x82\xe0\xa4\x97'
p3524
sS'chunktype'
p3525
S'child:NP4'
p3526
sS'af'
p3527
S'\xe0\xa4\x95\xe0\xa5\x87,psp,,,,,,'
p3528
ssbsg1265
I01
sg1268
I00
sg1279
Nsg1266
Nsg157
I5
sg143
I2
sg1523
I3
sg1277
Nsg1524
S'PSP'
p3529
sg238
(issf_api
FeatureSet
p3530
(dp3531
g241
(dp3532
S'posn'
p3533
S'110'
p3534
sS'name'
p3535
S'\xe0\xa4\x95\xe0\xa5\x87'
p3536
sS'af'
p3537
S'\xe0\xa4\x95\xe0\xa5\x87,psp,,,,,,'
p3538
ssbsg1286
I00
sba(issf_api
Word
p3539
(dp3540
g1506
I00
sg1507
V\u0932\u093f\u090f
p3541
sg1509
(issf_api
FeatureSet
p3542
(dp3543
g241
(dp3544
S'posn'
p3545
S'120'
p3546
sS'name'
p3547
S'\xe0\xa4\xb2\xe0\xa4\xbf\xe0\xa4\x8f'
p3548
sS'drel'
p3549
S'lwg__psp:\xe0\xa4\xb6\xe0\xa5\x82\xe0\xa4\x9f\xe0\xa4\xbf\xe0\xa4\x82\xe0\xa4\x97'
p3550
sS'chunktype'
p3551
S'child:NP4'
p3552
sS'af'
p3553
S'\xe0\xa4\xb2\xe0\xa4\xbf\xe0\xa4\x8f,psp,,,,,,'
p3554
ssbsg1265
I01
sg1268
I00
sg1279
Nsg1266
Nsg157
I5
sg143
I2
sg1523
I3
sg1277
Nsg1524
S'PSP'
p3555
sg238
(issf_api
FeatureSet
p3556
(dp3557
g241
(dp3558
S'posn'
p3559
S'120'
p3560
sS'name'
p3561
S'\xe0\xa4\xb2\xe0\xa4\xbf\xe0\xa4\x8f'
p3562
sS'af'
p3563
S'\xe0\xa4\xb2\xe0\xa4\xbf\xe0\xa4\x8f,psp,,,,,,'
p3564
ssbsg1286
I00
sba(issf_api
Word
p3565
(dp3566
g1506
I00
sg1507
V\u091c\u093e
p3567
sg1509
(issf_api
FeatureSet
p3568
(dp3569
g241
(dp3570
S'posn'
p3571
S'130'
p3572
sS'name'
p3573
S'\xe0\xa4\x9c\xe0\xa4\xbe'
p3574
sS'af'
p3575
S'\xe0\xa4\x9c\xe0\xa4\xbe,v,m,sg,3h,,0_\xe0\xa4\xb8\xe0\xa4\x95+\xe0\xa4\xa4\xe0\xa4\xbe_\xe0\xa4\xb9\xe0\xa5\x88,0'
p3576
sS'chunkid'
p3577
S'VGF2'
p3578
sS'stype'
p3579
S'declarative'
p3580
sS'drel'
p3581
S'ccof:\xe0\xa4\xaa\xe0\xa4\xb0'
p3582
sS'voicetype'
p3583
S'active'
p3584
sS'vpos'
p3585
S'tam_2_3'
p3586
sS'chunktype'
p3587
S'head:VGF2'
p3588
ssbsg1265
I01
sg1268
I00
sg1279
Nsg1266
Nsg157
I6
sg143
I2
sg1523
I3
sg1277
Nsg1524
S'VM'
p3589
sg238
(issf_api
FeatureSet
p3590
(dp3591
g241
(dp3592
S'posn'
p3593
S'130'
p3594
sS'name'
p3595
S'\xe0\xa4\x9c\xe0\xa4\xbe'
p3596
sS'af'
p3597
S'\xe0\xa4\x9c\xe0\xa4\xbe,v,any,any,any,,0,0'
p3598
ssbsg1286
I00
sba(issf_api
Word
p3599
(dp3600
g1506
I00
sg1507
V\u0938\u0915\u0924\u0947
p3601
sg1509
(issf_api
FeatureSet
p3602
(dp3603
g241
(dp3604
S'posn'
p3605
S'140'
p3606
sS'name'
p3607
S'\xe0\xa4\xb8\xe0\xa4\x95\xe0\xa4\xa4\xe0\xa5\x87'
p3608
sS'drel'
p3609
S'lwg__vaux:\xe0\xa4\x9c\xe0\xa4\xbe'
p3610
sS'chunktype'
p3611
S'child:VGF2'
p3612
sS'af'
p3613
S'\xe0\xa4\xb8\xe0\xa4\x95,v,m,sg,3h,,\xe0\xa4\xa4\xe0\xa4\xbe,wA'
p3614
ssbsg1265
I01
sg1268
I00
sg1279
Nsg1266
Nsg157
I6
sg143
I2
sg1523
I3
sg1277
Nsg1524
S'VAUX'
p3615
sg238
(issf_api
FeatureSet
p3616
(dp3617
g241
(dp3618
S'posn'
p3619
S'140'
p3620
sS'name'
p3621
S'\xe0\xa4\xb8\xe0\xa4\x95\xe0\xa4\xa4\xe0\xa5\x87'
p3622
sS'af'
p3623
S'\xe0\xa4\xb8\xe0\xa4\x95,v,m,sg,3h,,\xe0\xa4\xa4\xe0\xa4\xbe,wA'
p3624
ssbsg1286
I00
sba(issf_api
Word
p3625
(dp3626
g1506
I00
sg1507
V\u0939\u0948\u0902
p3627
sg1509
(issf_api
FeatureSet
p3628
(dp3629
g241
(dp3630
S'posn'
p3631
S'150'
p3632
sS'name'
p3633
S'\xe0\xa4\xb9\xe0\xa5\x88\xe0\xa4\x82'
p3634
sS'drel'
p3635
S'lwg__vaux:\xe0\xa4\x9c\xe0\xa4\xbe'
p3636
sS'chunktype'
p3637
S'child:VGF2'
p3638
sS'af'
p3639
S'\xe0\xa4\xb9\xe0\xa5\x88,v,any,sg,3h,,\xe0\xa4\xb9\xe0\xa5\x88,hE'
p3640
ssbsg1265
I01
sg1268
I00
sg1279
Nsg1266
Nsg157
I6
sg143
I2
sg1523
I3
sg1277
Nsg1524
S'VAUX'
p3641
sg238
(issf_api
FeatureSet
p3642
(dp3643
g241
(dp3644
S'posn'
p3645
S'150'
p3646
sS'name'
p3647
S'\xe0\xa4\xb9\xe0\xa5\x88\xe0\xa4\x82'
p3648
sS'af'
p3649
S'\xe0\xa4\xb9\xe0\xa5\x88,v,any,sg,3h,,\xe0\xa4\xb9\xe0\xa5\x88,hE'
p3650
ssbsg1286
I00
sba(issf_api
Word
p3651
(dp3652
g1506
I00
sg1507
V,
sg1509
(issf_api
FeatureSet
p3653
(dp3654
g241
(dp3655
S'posn'
p3656
S'160'
p3657
sS'name'
p3658
S','
sS'drel'
p3659
S'rsym:\xe0\xa4\x9c\xe0\xa4\xbe'
p3660
sS'chunktype'
p3661
S'child:VGF2'
p3662
sS'af'
p3663
S'COMMA,punc,,,,,,'
p3664
ssbsg1265
I01
sg1268
I00
sg1279
Nsg1266
Nsg157
I6
sg143
I2
sg1523
I3
sg1277
Nsg1524
S'SYM'
p3665
sg238
(issf_api
FeatureSet
p3666
(dp3667
g241
(dp3668
S'posn'
p3669
S'160'
p3670
sS'name'
p3671
S','
sS'af'
p3672
S'COMMA,punc,,,,,,'
p3673
ssbsg1286
I00
sba(issf_api
Word
p3674
(dp3675
g1506
I00
sg1507
V\u092a\u0930
p3676
sg1509
(issf_api
FeatureSet
p3677
(dp3678
g241
(dp3679
S'posn'
p3680
S'170'
p3681
sS'name'
p3682
S'\xe0\xa4\xaa\xe0\xa4\xb0'
p3683
sS'af'
p3684
S'\xe0\xa4\xaa\xe0\xa4\xb0,avy,,,,,,'
p3685
sS'chunkid'
p3686
S'CCP2'
p3687
sS'drel'
p3688
S'ccof:\xe0\xa4\x95\xe0\xa4\xbf'
p3689
sS'chunktype'
p3690
S'head:CCP2'
p3691
ssbsg1265
I01
sg1268
I00
sg1279
g1314
sg1266
(lp3692
I71
aI72
aI73
aI74
aI75
aI76
aI77
asg157
I7
sg143
I2
sg1523
I3
sg1277
(lp3693
I80
aI81
aI82
aI83
aI84
aI85
aI86
aI87
aI88
aI89
aI90
aI91
aI92
asg1524
S'CC'
p3694
sg238
(issf_api
FeatureSet
p3695
(dp3696
g241
(dp3697
S'posn'
p3698
S'170'
p3699
sS'name'
p3700
S'\xe0\xa4\xaa\xe0\xa4\xb0'
p3701
sS'af'
p3702
S'\xe0\xa4\xaa\xe0\xa4\xb0,avy,,,,,,'
p3703
ssbsg1286
I01
sba(issf_api
Word
p3704
(dp3705
g1506
I00
sg1507
V\u0907\u0938
p3706
sg1509
(issf_api
FeatureSet
p3707
(dp3708
g241
(dp3709
S'posn'
p3710
S'180'
p3711
sS'name'
p3712
S'\xe0\xa4\x87\xe0\xa4\xb8'
p3713
sS'af'
p3714
S'\xe0\xa4\xaf\xe0\xa4\xb9,pn,any,sg,3,o,,'
p3715
sS'chunkid'
p3716
S'NP5'
p3717
sS'drel'
p3718
S'k7t:\xe0\xa4\xad\xe0\xa5\x87\xe0\xa4\x9c\xe0\xa4\xbe'
p3719
sS'chunktype'
p3720
S'head:NP5'
p3721
ssbsg1265
I01
sg1268
I01
sg1279
Nsg1266
Nsg157
I8
sg143
I2
sg1523
I3
sg1277
Nsg1524
S'DEM'
p3722
sg238
(issf_api
FeatureSet
p3723
(dp3724
g241
(dp3725
S'posn'
p3726
S'180'
p3727
sS'name'
p3728
S'\xe0\xa4\x87\xe0\xa4\xb8'
p3729
sS'af'
p3730
S'\xe0\xa4\xaf\xe0\xa4\xb9,pn,any,sg,3,o,,'
p3731
ssbsg1286
I00
sba(issf_api
Word
p3732
(dp3733
g1506
I00
sg1507
V\u092c\u0940\u091a
p3734
sg1509
(issf_api
FeatureSet
p3735
(dp3736
g241
(dp3737
S'posn'
p3738
S'190'
p3739
sS'name'
p3740
S'\xe0\xa4\xac\xe0\xa5\x80\xe0\xa4\x9a'
p3741
sS'drel'
p3742
S'lwg__psp:\xe0\xa4\x87\xe0\xa4\xb8'
p3743
sS'chunktype'
p3744
S'child:NP5'
p3745
sS'af'
p3746
S'\xe0\xa4\xac\xe0\xa5\x80\xe0\xa4\x9a,nst,m,sg,3,d,,'
p3747
ssbsg1265
I01
sg1268
I01
sg1279
Nsg1266
Nsg157
I8
sg143
I2
sg1523
I3
sg1277
Nsg1524
S'NST'
p3748
sg238
(issf_api
FeatureSet
p3749
(dp3750
g241
(dp3751
S'posn'
p3752
S'190'
p3753
sS'name'
p3754
S'\xe0\xa4\xac\xe0\xa5\x80\xe0\xa4\x9a'
p3755
sS'af'
p3756
S'\xe0\xa4\xac\xe0\xa5\x80\xe0\xa4\x9a,nst,m,sg,3,d,,'
p3757
ssbsg1286
I00
sba(issf_api
Word
p3758
(dp3759
g1506
I01
sg1507
V\u092f\u0926\u093f
p3760
sg1509
(issf_api
FeatureSet
p3761
(dp3762
g241
(dp3763
S'posn'
p3764
S'200'
p3765
sS'name'
p3766
S'\xe0\xa4\xaf\xe0\xa4\xa6\xe0\xa4\xbf'
p3767
sS'af'
p3768
S'\xe0\xa4\xaf\xe0\xa4\xa6\xe0\xa4\xbf,avy,,,,,,'
p3769
sS'chunkid'
p3770
S'CCP3'
p3771
sS'drel'
p3772
S'vmod:\xe0\xa4\xb9\xe0\xa5\x8b\xe0\xa4\xa8\xe0\xa4\xbe'
p3773
sS'chunktype'
p3774
S'head:CCP3'
p3775
ssbsg1265
I01
sg1268
I01
sg1279
g1330
sg1266
(lp3776
I83
aI84
aI85
aI86
aI87
asg157
I9
sg143
I2
sg1523
I3
sg1277
(lp3777
I89
aI90
aI91
aI92
aI93
asg1524
S'CC'
p3778
sg238
(issf_api
FeatureSet
p3779
(dp3780
g241
(dp3781
S'posn'
p3782
S'200'
p3783
sS'name'
p3784
S'\xe0\xa4\xaf\xe0\xa4\xa6\xe0\xa4\xbf'
p3785
sS'af'
p3786
S'\xe0\xa4\xaf\xe0\xa4\xa6\xe0\xa4\xbf,avy,,,,,,'
p3787
ssbsg1286
I00
sba(issf_api
Word
p3788
(dp3789
g1506
I00
sg1507
V\u0909\u0928\u094d\u0939\u0947\u0902
p3790
sg1509
(issf_api
FeatureSet
p3791
(dp3792
g241
(dp3793
S'posn'
p3794
S'210'
p3795
sS'name'
p3796
S'\xe0\xa4\x89\xe0\xa4\xa8\xe0\xa5\x8d\xe0\xa4\xb9\xe0\xa5\x87\xe0\xa4\x82'
p3797
sS'af'
p3798
S'\xe0\xa4\xb5\xe0\xa4\xb9,pn,any,sg,3h,o,\xe0\xa4\x95\xe0\xa5\x8b,ko'
p3799
sS'chunkid'
p3800
S'NP6'
p3801
sS'drel'
p3802
S'k4:\xe0\xa4\xad\xe0\xa5\x87\xe0\xa4\x9c\xe0\xa4\xbe'
p3803
sS'chunktype'
p3804
S'head:NP6'
p3805
ssbsg1265
I01
sg1268
I01
sg1279
Nsg1266
Nsg157
I10
sg143
I2
sg1523
I3
sg1277
Nsg1524
S'PRP'
p3806
sg238
(issf_api
FeatureSet
p3807
(dp3808
g241
(dp3809
S'posn'
p3810
S'210'
p3811
sS'name'
p3812
S'\xe0\xa4\x89\xe0\xa4\xa8\xe0\xa5\x8d\xe0\xa4\xb9\xe0\xa5\x87\xe0\xa4\x82'
p3813
sS'af'
p3814
S'\xe0\xa4\xb5\xe0\xa4\xb9,pn,any,sg,3h,o,\xe0\xa4\x95\xe0\xa5\x8b,ko'
p3815
ssbsg1286
I00
sba(issf_api
Word
p3816
(dp3817
g1506
I00
sg1507
V\u0938\u092e\u094d\u092e\u0928
p3818
sg1509
(issf_api
FeatureSet
p3819
(dp3820
g241
(dp3821
S'posn'
p3822
S'220'
p3823
sS'name'
p3824
S'\xe0\xa4\xb8\xe0\xa4\xae\xe0\xa5\x8d\xe0\xa4\xae\xe0\xa4\xa8'
p3825
sS'af'
p3826
S'\xe0\xa4\xb8\xe0\xa4\xae\xe0\xa5\x8d\xe0\xa4\xae\xe0\xa4\xa8,n,m,sg,3,d,0,0'
p3827
sS'chunkid'
p3828
S'NP7'
p3829
sS'drel'
p3830
S'k2:\xe0\xa4\xad\xe0\xa5\x87\xe0\xa4\x9c\xe0\xa4\xbe'
p3831
sS'chunktype'
p3832
S'head:NP7'
p3833
ssbsg1265
I01
sg1268
I01
sg1279
Nsg1266
Nsg157
I11
sg143
I2
sg1523
I3
sg1277
Nsg1524
S'NN'
p3834
sg238
(issf_api
FeatureSet
p3835
(dp3836
g241
(dp3837
S'posn'
p3838
S'220'
p3839
sS'name'
p3840
S'\xe0\xa4\xb8\xe0\xa4\xae\xe0\xa5\x8d\xe0\xa4\xae\xe0\xa4\xa8'
p3841
sS'af'
p3842
S'\xe0\xa4\xb8\xe0\xa4\xae\xe0\xa5\x8d\xe0\xa4\xae\xe0\xa4\xa8,n,m,sg,3,d,0,0'
p3843
ssbsg1286
I00
sba(issf_api
Word
p3844
(dp3845
g1506
I00
sg1507
V\u092d\u0947\u091c\u093e
p3846
sg1509
(issf_api
FeatureSet
p3847
(dp3848
g241
(dp3849
S'posn'
p3850
S'230'
p3851
sS'name'
p3852
S'\xe0\xa4\xad\xe0\xa5\x87\xe0\xa4\x9c\xe0\xa4\xbe'
p3853
sS'af'
p3854
S'\xe0\xa4\xad\xe0\xa5\x87\xe0\xa4\x9c,v,m,sg,3,,\xe0\xa4\xaf\xe0\xa4\xbe_\xe0\xa4\x9c\xe0\xa4\xbe+\xe0\xa4\xa4\xe0\xa4\xbe_\xe0\xa4\xb9\xe0\xa5\x88,yA'
p3855
sS'chunkid'
p3856
S'VGF3'
p3857
sS'stype'
p3858
S'declarative'
p3859
sS'drel'
p3860
S'ccof:\xe0\xa4\xaf\xe0\xa4\xa6\xe0\xa4\xbf'
p3861
sS'voicetype'
p3862
S'active'
p3863
sS'vpos'
p3864
S'tam_2_3'
p3865
sS'chunktype'
p3866
S'head:VGF3'
p3867
ssbsg1265
I01
sg1268
I01
sg1279
Nsg1266
Nsg157
I12
sg143
I2
sg1523
I3
sg1277
Nsg1524
S'VM'
p3868
sg238
(issf_api
FeatureSet
p3869
(dp3870
g241
(dp3871
S'posn'
p3872
S'230'
p3873
sS'name'
p3874
S'\xe0\xa4\xad\xe0\xa5\x87\xe0\xa4\x9c\xe0\xa4\xbe'
p3875
sS'af'
p3876
S'\xe0\xa4\xad\xe0\xa5\x87\xe0\xa4\x9c,v,m,sg,any,,\xe0\xa4\xaf\xe0\xa4\xbe,yA'
p3877
ssbsg1286
I00
sba(issf_api
Word
p3878
(dp3879
g1506
I00
sg1507
V\u091c\u093e\u0924\u093e
p3880
sg1509
(issf_api
FeatureSet
p3881
(dp3882
g241
(dp3883
S'posn'
p3884
S'240'
p3885
sS'name'
p3886
S'\xe0\xa4\x9c\xe0\xa4\xbe\xe0\xa4\xa4\xe0\xa4\xbe'
p3887
sS'drel'
p3888
S'lwg__vaux:\xe0\xa4\xad\xe0\xa5\x87\xe0\xa4\x9c\xe0\xa4\xbe'
p3889
sS'chunktype'
p3890
S'child:VGF3'
p3891
sS'af'
p3892
S'\xe0\xa4\x9c\xe0\xa4\xbe,v,m,sg,any,,\xe0\xa4\xa4\xe0\xa4\xbe,wA'
p3893
ssbsg1265
I01
sg1268
I01
sg1279
Nsg1266
Nsg157
I12
sg143
I2
sg1523
I3
sg1277
Nsg1524
S'VAUX'
p3894
sg238
(issf_api
FeatureSet
p3895
(dp3896
g241
(dp3897
S'posn'
p3898
S'240'
p3899
sS'name'
p3900
S'\xe0\xa4\x9c\xe0\xa4\xbe\xe0\xa4\xa4\xe0\xa4\xbe'
p3901
sS'af'
p3902
S'\xe0\xa4\x9c\xe0\xa4\xbe,v,m,sg,any,,\xe0\xa4\xa4\xe0\xa4\xbe,wA'
p3903
ssbsg1286
I00
sba(issf_api
Word
p3904
(dp3905
g1506
I00
sg1507
V\u0939\u0948
p3906
sg1509
(issf_api
FeatureSet
p3907
(dp3908
g241
(dp3909
S'posn'
p3910
S'250'
p3911
sS'name'
p3912
S'\xe0\xa4\xb9\xe0\xa5\x88'
p3913
sS'drel'
p3914
S'lwg__vaux:\xe0\xa4\xad\xe0\xa5\x87\xe0\xa4\x9c\xe0\xa4\xbe'
p3915
sS'chunktype'
p3916
S'child:VGF3'
p3917
sS'af'
p3918
S'\xe0\xa4\xb9\xe0\xa5\x88,v,any,sg,3,,\xe0\xa4\xb9\xe0\xa5\x88,hE'
p3919
ssbsg1265
I01
sg1268
I01
sg1279
Nsg1266
Nsg157
I12
sg143
I2
sg1523
I3
sg1277
Nsg1524
S'VAUX'
p3920
sg238
(issf_api
FeatureSet
p3921
(dp3922
g241
(dp3923
S'posn'
p3924
S'250'
p3925
sS'name'
p3926
S'\xe0\xa4\xb9\xe0\xa5\x88'
p3927
sS'af'
p3928
S'\xe0\xa4\xb9\xe0\xa5\x88,v,any,sg,3,,\xe0\xa4\xb9\xe0\xa5\x88,hE'
p3929
ssbsg1286
I00
sba(issf_api
Word
p3930
(dp3931
g1506
I01
sg1507
V\u0924\u094b
p3932
sg1509
(issf_api
FeatureSet
p3933
(dp3934
g241
(dp3935
S'posn'
p3936
S'260'
p3937
sS'name'
p3938
S'\xe0\xa4\xa4\xe0\xa5\x8b'
p3939
sS'af'
p3940
S'\xe0\xa4\xa4\xe0\xa5\x8b,avy,,,,,,'
p3941
sS'chunkid'
p3942
S'CCP4'
p3943
sS'drel'
p3944
S'ccof:\xe0\xa4\xaa\xe0\xa4\xb0'
p3945
sS'chunktype'
p3946
S'head:CCP4'
p3947
ssbsg1265
I01
sg1268
I01
sg1279
g1330
sg1266
g3776
sg157
I13
sg143
I2
sg1523
I3
sg1277
g3777
sg1524
S'CC'
p3948
sg238
(issf_api
FeatureSet
p3949
(dp3950
g241
(dp3951
S'posn'
p3952
S'260'
p3953
sS'name'
p3954
S'\xe0\xa4\xa4\xe0\xa5\x8b'
p3955
sS'af'
p3956
S'\xe0\xa4\xa4\xe0\xa5\x8b,avy,,,,,,'
p3957
ssbsg1286
I00
sba(issf_api
Word
p3958
(dp3959
g1506
I00
sg1507
V\u0909\u0928\u094d\u0939\u0947\u0902
p3960
sg1509
(issf_api
FeatureSet
p3961
(dp3962
g241
(dp3963
S'posn'
p3964
S'270'
p3965
sS'name'
p3966
S'\xe0\xa4\x89\xe0\xa4\xa8\xe0\xa5\x8d\xe0\xa4\xb9\xe0\xa5\x87\xe0\xa4\x822'
p3967
sS'af'
p3968
S'\xe0\xa4\xb5\xe0\xa4\xb9,pn,any,sg,3h,o,\xe0\xa4\x95\xe0\xa5\x8b,ko'
p3969
sS'chunkid'
p3970
S'NP8'
p3971
sS'drel'
p3972
S'k1:\xe0\xa4\xb9\xe0\xa5\x8b\xe0\xa4\xa8\xe0\xa4\xbe'
p3973
sS'chunktype'
p3974
S'head:NP8'
p3975
ssbsg1265
I01
sg1268
I01
sg1279
Nsg1266
Nsg157
I14
sg143
I2
sg1523
I3
sg1277
Nsg1524
S'PRP'
p3976
sg238
(issf_api
FeatureSet
p3977
(dp3978
g241
(dp3979
S'posn'
p3980
S'270'
p3981
sS'name'
p3982
S'\xe0\xa4\x89\xe0\xa4\xa8\xe0\xa5\x8d\xe0\xa4\xb9\xe0\xa5\x87\xe0\xa4\x822'
p3983
sS'af'
p3984
S'\xe0\xa4\xb5\xe0\xa4\xb9,pn,any,sg,3h,o,\xe0\xa4\x95\xe0\xa5\x8b,ko'
p3985
ssbsg1286
I00
sba(issf_api
Word
p3986
(dp3987
g1506
I00
sg1507
V\u0939\u093e\u091c\u093f\u0930
p3988
sg1509
(issf_api
FeatureSet
p3989
(dp3990
g241
(dp3991
S'posn'
p3992
S'280'
p3993
sS'name'
p3994
S'\xe0\xa4\xb9\xe0\xa4\xbe\xe0\xa4\x9c\xe0\xa4\xbf\xe0\xa4\xb0'
p3995
sS'af'
p3996
S'\xe0\xa4\xb9\xe0\xa4\xbe\xe0\xa4\x9c\xe0\xa4\xbf\xe0\xa4\xb0,adj,any,any,,,,'
p3997
sS'chunkid'
p3998
S'JJP'
p3999
sS'drel'
p4000
S'pof:\xe0\xa4\xb9\xe0\xa5\x8b\xe0\xa4\xa8\xe0\xa4\xbe'
p4001
sS'chunktype'
p4002
S'head:JJP'
p4003
ssbsg1265
I01
sg1268
I01
sg1279
Nsg1266
Nsg157
I15
sg143
I2
sg1523
I3
sg1277
Nsg1524
S'JJ'
p4004
sg238
(issf_api
FeatureSet
p4005
(dp4006
g241
(dp4007
S'posn'
p4008
S'280'
p4009
sS'name'
p4010
S'\xe0\xa4\xb9\xe0\xa4\xbe\xe0\xa4\x9c\xe0\xa4\xbf\xe0\xa4\xb0'
p4011
sS'af'
p4012
S'\xe0\xa4\xb9\xe0\xa4\xbe\xe0\xa4\x9c\xe0\xa4\xbf\xe0\xa4\xb0,adj,any,any,,,,'
p4013
ssbsg1286
I00
sba(issf_api
Word
p4014
(dp4015
g1506
I00
sg1507
V\u0939\u094b\u0928\u093e
p4016
sg1509
(issf_api
FeatureSet
p4017
(dp4018
g241
(dp4019
S'posn'
p4020
S'290'
p4021
sS'name'
p4022
S'\xe0\xa4\xb9\xe0\xa5\x8b\xe0\xa4\xa8\xe0\xa4\xbe'
p4023
sS'af'
p4024
S'\xe0\xa4\xb9\xe0\xa5\x8b,v,m,sg,3,,\xe0\xa4\xa8\xe0\xa4\xbe_\xe0\xa4\xb9\xe0\xa5\x8b+\xe0\xa4\x97\xe0\xa4\xbe,nA'
p4025
sS'chunkid'
p4026
S'VGF4'
p4027
sS'stype'
p4028
S'declarative'
p4029
sS'drel'
p4030
S'ccof:\xe0\xa4\xa4\xe0\xa5\x8b'
p4031
sS'voicetype'
p4032
S'active'
p4033
sS'vpos'
p4034
S'tam_2'
p4035
sS'chunktype'
p4036
S'head:VGF4'
p4037
ssbsg1265
I01
sg1268
I01
sg1279
Nsg1266
Nsg157
I16
sg143
I2
sg1523
I3
sg1277
Nsg1524
S'VM'
p4038
sg238
(issf_api
FeatureSet
p4039
(dp4040
g241
(dp4041
S'posn'
p4042
S'290'
p4043
sS'name'
p4044
S'\xe0\xa4\xb9\xe0\xa5\x8b\xe0\xa4\xa8\xe0\xa4\xbe'
p4045
sS'af'
p4046
S'\xe0\xa4\xb9\xe0\xa5\x8b,v,m,sg,any,,\xe0\xa4\xa8\xe0\xa4\xbe,nA'
p4047
ssbsg1286
I00
sba(issf_api
Word
p4048
(dp4049
g1506
I00
sg1507
V\u0939\u094b\u0917\u093e
p4050
sg1509
(issf_api
FeatureSet
p4051
(dp4052
g241
(dp4053
S'posn'
p4054
S'300'
p4055
sS'name'
p4056
S'\xe0\xa4\xb9\xe0\xa5\x8b\xe0\xa4\x97\xe0\xa4\xbe'
p4057
sS'drel'
p4058
S'lwg__vaux:\xe0\xa4\xb9\xe0\xa5\x8b\xe0\xa4\xa8\xe0\xa4\xbe'
p4059
sS'chunktype'
p4060
S'child:VGF4'
p4061
sS'af'
p4062
S'\xe0\xa4\xb9\xe0\xa5\x8b,v,m,sg,3,,\xe0\xa4\x97\xe0\xa4\xbe,gA'
p4063
ssbsg1265
I01
sg1268
I01
sg1279
Nsg1266
Nsg157
I16
sg143
I2
sg1523
I3
sg1277
Nsg1524
S'VAUX'
p4064
sg238
(issf_api
FeatureSet
p4065
(dp4066
g241
(dp4067
S'posn'
p4068
S'300'
p4069
sS'name'
p4070
S'\xe0\xa4\xb9\xe0\xa5\x8b\xe0\xa4\x97\xe0\xa4\xbe'
p4071
sS'af'
p4072
S'\xe0\xa4\xb9\xe0\xa5\x8b,v,m,sg,3,,\xe0\xa4\x97\xe0\xa4\xbe,gA'
p4073
ssbsg1286
I00
sba(issf_api
Word
p4074
(dp4075
g1506
I00
sg1507
V\u0964
sg1509
(issf_api
FeatureSet
p4076
(dp4077
g241
(dp4078
S'posn'
p4079
S'310'
p4080
sS'name'
p4081
S'\xe0\xa5\xa4'
p4082
sS'af'
p4083
S'\xe0\xa5\xa4,punc,,,,,,'
p4084
sS'chunkid'
p4085
S'BLK'
p4086
sS'drel'
p4087
S'rsym:\xe0\xa4\x95\xe0\xa4\xb9\xe0\xa4\xbe'
p4088
sS'chunktype'
p4089
S'head:BLK'
p4090
ssbsg1265
I01
sg1268
I01
sg1279
Nsg1266
Nsg157
I17
sg143
I2
sg1523
I3
sg1277
Nsg1524
S'SYM'
p4091
sg238
(issf_api
FeatureSet
p4092
(dp4093
g241
(dp4094
S'posn'
p4095
S'310'
p4096
sS'name'
p4097
S'\xe0\xa5\xa4'
p4098
sS'af'
p4099
S'\xe0\xa5\xa4,punc,,,,,,'
p4100
ssbsg1286
I00
sba(issf_api
Word
p4101
(dp4102
g1506
I00
sg1507
V\u0938\u093e\u0925
p4103
sg1509
(issf_api
FeatureSet
p4104
(dp4105
g241
(dp4106
S'posn'
p4107
S'10'
p4108
sS'name'
p4109
S'\xe0\xa4\xb8\xe0\xa4\xbe\xe0\xa4\xa5'
p4110
sS'af'
p4111
S'\xe0\xa4\xb8\xe0\xa4\xbe\xe0\xa4\xa5,nst,m,sg,3,d,,'
p4112
sS'chunkid'
p4113
S'NP'
p4114
sS'drel'
p4115
S'sent-adv:\xe0\xa4\xb0\xe0\xa4\xb9\xe0\xa5\x87\xe0\xa4\x82\xe0\xa4\x97\xe0\xa5\x87'
p4116
sS'chunktype'
p4117
S'head:NP'
p4118
ssbsg1265
I01
sg1268
I00
sg1279
g1346
sg1266
(lp4119
I71
aI72
aI73
aI74
aI75
aI76
aI77
aI78
aI79
aI80
aI81
aI82
aI83
aI84
aI85
aI86
aI87
aI88
aI89
aI90
aI91
aI92
asg157
I0
sg143
I3
sg1523
I3
sg1277
(lp4120
I96
aI97
aI98
aI99
aI100
aI101
aI102
aI103
aI104
aI105
aI106
asg1524
S'NST'
p4121
sg238
(issf_api
FeatureSet
p4122
(dp4123
g241
(dp4124
S'posn'
p4125
S'10'
p4126
sS'name'
p4127
S'\xe0\xa4\xb8\xe0\xa4\xbe\xe0\xa4\xa5'
p4128
sS'af'
p4129
S'\xe0\xa4\xb8\xe0\xa4\xbe\xe0\xa4\xa5,nst,m,sg,3,d,,'
p4130
ssbsg1286
I01
sba(issf_api
Word
p4131
(dp4132
g1506
I00
sg1507
V\u0939\u0940
p4133
sg1509
(issf_api
FeatureSet
p4134
(dp4135
g241
(dp4136
S'posn'
p4137
S'20'
p4138
sS'name'
p4139
S'\xe0\xa4\xb9\xe0\xa5\x80'
p4140
sS'drel'
p4141
S'lwg__rp:\xe0\xa4\xb8\xe0\xa4\xbe\xe0\xa4\xa5'
p4142
sS'chunktype'
p4143
S'child:NP'
p4144
sS'af'
p4145
S'\xe0\xa4\xb9\xe0\xa5\x80,avy,,,,,,'
p4146
ssbsg1265
I01
sg1268
I00
sg1279
g1346
sg1266
g4119
sg157
I0
sg143
I3
sg1523
I3
sg1277
g4120
sg1524
S'RP'
p4147
sg238
(issf_api
FeatureSet
p4148
(dp4149
g241
(dp4150
S'posn'
p4151
S'20'
p4152
sS'name'
p4153
S'\xe0\xa4\xb9\xe0\xa5\x80'
p4154
sS'af'
p4155
S'\xe0\xa4\xb9\xe0\xa5\x80,avy,,,,,,'
p4156
ssbsg1286
I01
sba(issf_api
Word
p4157
(dp4158
g1506
I00
sg1507
V\u0909\u0928\u0915\u0940
p4159
sg1509
(issf_api
FeatureSet
p4160
(dp4161
g241
(dp4162
S'posn'
p4163
S'30'
p4164
sS'name'
p4165
S'\xe0\xa4\x89\xe0\xa4\xa8\xe0\xa4\x95\xe0\xa5\x80'
p4166
sS'af'
p4167
S'\xe0\xa4\xb5\xe0\xa4\xb9,pn,f,sg,3h,o,\xe0\xa4\x95\xe0\xa4\xbe,kA'
p4168
sS'chunkid'
p4169
S'NP2'
p4170
sS'drel'
p4171
S'r6:\xe0\xa4\xae\xe0\xa5\x8c\xe0\xa4\x9c\xe0\xa5\x82\xe0\xa4\xa6\xe0\xa4\x97\xe0\xa5\x80'
p4172
sS'chunktype'
p4173
S'head:NP2'
p4174
ssbsg1265
I01
sg1268
I01
sg1279
Nsg1266
Nsg157
I1
sg143
I3
sg1523
I3
sg1277
Nsg1524
S'PRP'
p4175
sg238
(issf_api
FeatureSet
p4176
(dp4177
g241
(dp4178
S'posn'
p4179
S'30'
p4180
sS'name'
p4181
S'\xe0\xa4\x89\xe0\xa4\xa8\xe0\xa4\x95\xe0\xa5\x80'
p4182
sS'af'
p4183
S'\xe0\xa4\xb5\xe0\xa4\xb9,pn,f,sg,3h,o,\xe0\xa4\x95\xe0\xa4\xbe,kA'
p4184
ssbsg1286
I00
sba(issf_api
Word
p4185
(dp4186
g1506
I00
sg1507
V\u095a\u0948\u0930
p4187
sg1509
(issf_api
FeatureSet
p4188
(dp4189
g241
(dp4190
S'posn'
p4191
S'40'
p4192
sS'name'
p4193
S'\xe0\xa5\x9a\xe0\xa5\x88\xe0\xa4\xb0'
p4194
sS'drel'
p4195
S'nmod__adj:\xe0\xa4\xae\xe0\xa5\x8c\xe0\xa4\x9c\xe0\xa5\x82\xe0\xa4\xa6\xe0\xa4\x97\xe0\xa5\x80'
p4196
sS'chunktype'
p4197
S'child:NP3'
p4198
sS'af'
p4199
S'\xe0\xa4\x97\xe0\xa5\x88\xe0\xa4\xb0,adj,any,any,,o,,'
p4200
ssbsg1265
I01
sg1268
I01
sg1279
Nsg1266
Nsg157
I2
sg143
I3
sg1523
I3
sg1277
Nsg1524
S'JJ'
p4201
sg238
(issf_api
FeatureSet
p4202
(dp4203
g241
(dp4204
S'posn'
p4205
S'40'
p4206
sS'name'
p4207
S'\xe0\xa5\x9a\xe0\xa5\x88\xe0\xa4\xb0'
p4208
sS'af'
p4209
S'\xe0\xa4\x97\xe0\xa5\x88\xe0\xa4\xb0,adj,any,any,,o,,'
p4210
ssbsg1286
I00
sba(issf_api
Word
p4211
(dp4212
g1506
I00
sg1507
V\u092e\u094c\u091c\u0942\u0926\u0917\u0940
p4213
sg1509
(issf_api
FeatureSet
p4214
(dp4215
g241
(dp4216
S'posn'
p4217
S'50'
p4218
sS'name'
p4219
S'\xe0\xa4\xae\xe0\xa5\x8c\xe0\xa4\x9c\xe0\xa5\x82\xe0\xa4\xa6\xe0\xa4\x97\xe0\xa5\x80'
p4220
sS'af'
p4221
S'\xe0\xa4\xae\xe0\xa5\x8c\xe0\xa4\x9c\xe0\xa5\x82\xe0\xa4\xa6\xe0\xa4\x97\xe0\xa5\x80,n,f,sg,3,o,0_\xe0\xa4\xae\xe0\xa5\x87\xe0\xa4\x82,0'
p4222
sS'chunkid'
p4223
S'NP3'
p4224
sS'drel'
p4225
S'k7:\xe0\xa4\xb0\xe0\xa4\xb9\xe0\xa5\x87\xe0\xa4\x82\xe0\xa4\x97\xe0\xa5\x87'
p4226
sS'vpos'
p4227
S'vib_3'
p4228
sS'chunktype'
p4229
S'head:NP3'
p4230
ssbsg1265
I01
sg1268
I01
sg1279
Nsg1266
Nsg157
I2
sg143
I3
sg1523
I3
sg1277
Nsg1524
S'NN'
p4231
sg238
(issf_api
FeatureSet
p4232
(dp4233
g241
(dp4234
S'posn'
p4235
S'50'
p4236
sS'name'
p4237
S'\xe0\xa4\xae\xe0\xa5\x8c\xe0\xa4\x9c\xe0\xa5\x82\xe0\xa4\xa6\xe0\xa4\x97\xe0\xa5\x80'
p4238
sS'af'
p4239
S'\xe0\xa4\xae\xe0\xa5\x8c\xe0\xa4\x9c\xe0\xa5\x82\xe0\xa4\xa6\xe0\xa4\x97\xe0\xa5\x80,n,f,sg,3,o,0,0'
p4240
ssbsg1286
I00
sba(issf_api
Word
p4241
(dp4242
g1506
I00
sg1507
V\u092e\u0947\u0902
p4243
sg1509
(issf_api
FeatureSet
p4244
(dp4245
g241
(dp4246
S'posn'
p4247
S'60'
p4248
sS'name'
p4249
S'\xe0\xa4\xae\xe0\xa5\x87\xe0\xa4\x82'
p4250
sS'drel'
p4251
S'lwg__psp:\xe0\xa4\xae\xe0\xa5\x8c\xe0\xa4\x9c\xe0\xa5\x82\xe0\xa4\xa6\xe0\xa4\x97\xe0\xa5\x80'
p4252
sS'chunktype'
p4253
S'child:NP3'
p4254
sS'af'
p4255
S'\xe0\xa4\xae\xe0\xa5\x87\xe0\xa4\x82,psp,,,,,,'
p4256
ssbsg1265
I01
sg1268
I01
sg1279
Nsg1266
Nsg157
I2
sg143
I3
sg1523
I3
sg1277
Nsg1524
S'PSP'
p4257
sg238
(issf_api
FeatureSet
p4258
(dp4259
g241
(dp4260
S'posn'
p4261
S'60'
p4262
sS'name'
p4263
S'\xe0\xa4\xae\xe0\xa5\x87\xe0\xa4\x82'
p4264
sS'af'
p4265
S'\xe0\xa4\xae\xe0\xa5\x87\xe0\xa4\x82,psp,,,,,,'
p4266
ssbsg1286
I00
sba(issf_api
Word
p4267
(dp4268
g1506
I00
sg1507
V\u0909\u0928\u0915\u0947
p4269
sg1509
(issf_api
FeatureSet
p4270
(dp4271
g241
(dp4272
S'posn'
p4273
S'70'
p4274
sS'name'
p4275
S'\xe0\xa4\x89\xe0\xa4\xa8\xe0\xa4\x95\xe0\xa5\x87'
p4276
sS'af'
p4277
S'\xe0\xa4\xb5\xe0\xa4\xb9,pn,m,sg,3h,o,\xe0\xa4\x95\xe0\xa4\xbe,kA'
p4278
sS'chunkid'
p4279
S'NP4'
p4280
sS'drel'
p4281
S'r6:\xe0\xa4\xb5\xe0\xa4\x95\xe0\xa5\x80\xe0\xa4\xb2'
p4282
sS'chunktype'
p4283
S'head:NP4'
p4284
ssbsg1265
I01
sg1268
I01
sg1279
Nsg1266
Nsg157
I3
sg143
I3
sg1523
I3
sg1277
Nsg1524
S'PRP'
p4285
sg238
(issf_api
FeatureSet
p4286
(dp4287
g241
(dp4288
S'posn'
p4289
S'70'
p4290
sS'name'
p4291
S'\xe0\xa4\x89\xe0\xa4\xa8\xe0\xa4\x95\xe0\xa5\x87'
p4292
sS'af'
p4293
S'\xe0\xa4\xb5\xe0\xa4\xb9,pn,m,sg,3h,o,\xe0\xa4\x95\xe0\xa4\xbe,kA'
p4294
ssbsg1286
I00
sba(issf_api
Word
p4295
(dp4296
g1506
I00
sg1507
V\u0935\u0915\u0940\u0932
p4297
sg1509
(issf_api
FeatureSet
p4298
(dp4299
g241
(dp4300
S'posn'
p4301
S'80'
p4302
sS'name'
p4303
S'\xe0\xa4\xb5\xe0\xa4\x95\xe0\xa5\x80\xe0\xa4\xb2'
p4304
sS'af'
p4305
S'\xe0\xa4\xb5\xe0\xa4\x95\xe0\xa5\x80\xe0\xa4\xb2,n,m,sg,3,d,0,0'
p4306
sS'chunkid'
p4307
S'NP5'
p4308
sS'drel'
p4309
S'k1:\xe0\xa4\xb0\xe0\xa4\xb9\xe0\xa5\x87\xe0\xa4\x82\xe0\xa4\x97\xe0\xa5\x87'
p4310
sS'chunktype'
p4311
S'head:NP5'
p4312
ssbsg1265
I01
sg1268
I01
sg1279
Nsg1266
Nsg157
I4
sg143
I3
sg1523
I3
sg1277
Nsg1524
S'NN'
p4313
sg238
(issf_api
FeatureSet
p4314
(dp4315
g241
(dp4316
S'posn'
p4317
S'80'
p4318
sS'name'
p4319
S'\xe0\xa4\xb5\xe0\xa4\x95\xe0\xa5\x80\xe0\xa4\xb2'
p4320
sS'af'
p4321
S'\xe0\xa4\xb5\xe0\xa4\x95\xe0\xa5\x80\xe0\xa4\xb2,n,m,sg,3,d,0,0'
p4322
ssbsg1286
I00
sba(issf_api
Word
p4323
(dp4324
g1506
I00
sg1507
V\u0915\u094b\u0930\u094d\u091f
p4325
sg1509
(issf_api
FeatureSet
p4326
(dp4327
g241
(dp4328
S'posn'
p4329
S'90'
p4330
sS'name'
p4331
S'\xe0\xa4\x95\xe0\xa5\x8b\xe0\xa4\xb0\xe0\xa5\x8d\xe0\xa4\x9f'
p4332
sS'af'
p4333
S'\xe0\xa4\x95\xe0\xa5\x8b\xe0\xa4\xb0\xe0\xa5\x8d\xe0\xa4\x9f,n,m,sg,3,o,0_\xe0\xa4\xae\xe0\xa5\x87\xe0\xa4\x82,0'
p4334
sS'chunkid'
p4335
S'NP6'
p4336
sS'drel'
p4337
S'k7p:\xe0\xa4\xb0\xe0\xa4\xb9\xe0\xa5\x87\xe0\xa4\x82\xe0\xa4\x97\xe0\xa5\x87'
p4338
sS'vpos'
p4339
S'vib_2'
p4340
sS'chunktype'
p4341
S'head:NP6'
p4342
ssbsg1265
I01
sg1268
I01
sg1279
Nsg1266
Nsg157
I5
sg143
I3
sg1523
I3
sg1277
Nsg1524
S'NN'
p4343
sg238
(issf_api
FeatureSet
p4344
(dp4345
g241
(dp4346
S'posn'
p4347
S'90'
p4348
sS'name'
p4349
S'\xe0\xa4\x95\xe0\xa5\x8b\xe0\xa4\xb0\xe0\xa5\x8d\xe0\xa4\x9f'
p4350
sS'af'
p4351
S'\xe0\xa4\x95\xe0\xa5\x8b\xe0\xa4\xb0\xe0\xa5\x8d\xe0\xa4\x9f,n,m,sg,3,o,0,0'
p4352
ssbsg1286
I00
sba(issf_api
Word
p4353
(dp4354
g1506
I00
sg1507
V\u092e\u0947\u0902
p4355
sg1509
(issf_api
FeatureSet
p4356
(dp4357
g241
(dp4358
S'posn'
p4359
S'100'
p4360
sS'name'
p4361
S'\xe0\xa4\xae\xe0\xa5\x87\xe0\xa4\x822'
p4362
sS'drel'
p4363
S'lwg__psp:\xe0\xa4\x95\xe0\xa5\x8b\xe0\xa4\xb0\xe0\xa5\x8d\xe0\xa4\x9f'
p4364
sS'chunktype'
p4365
S'child:NP6'
p4366
sS'af'
p4367
S'\xe0\xa4\xae\xe0\xa5\x87\xe0\xa4\x82,psp,,,,,,'
p4368
ssbsg1265
I01
sg1268
I01
sg1279
Nsg1266
Nsg157
I5
sg143
I3
sg1523
I3
sg1277
Nsg1524
S'PSP'
p4369
sg238
(issf_api
FeatureSet
p4370
(dp4371
g241
(dp4372
S'posn'
p4373
S'100'
p4374
sS'name'
p4375
S'\xe0\xa4\xae\xe0\xa5\x87\xe0\xa4\x822'
p4376
sS'af'
p4377
S'\xe0\xa4\xae\xe0\xa5\x87\xe0\xa4\x82,psp,,,,,,'
p4378
ssbsg1286
I00
sba(issf_api
Word
p4379
(dp4380
g1506
I00
sg1507
V\u092e\u094c\u091c\u0942\u0926
p4381
sg1509
(issf_api
FeatureSet
p4382
(dp4383
g241
(dp4384
S'posn'
p4385
S'110'
p4386
sS'name'
p4387
S'\xe0\xa4\xae\xe0\xa5\x8c\xe0\xa4\x9c\xe0\xa5\x82\xe0\xa4\xa6'
p4388
sS'af'
p4389
S'\xe0\xa4\xae\xe0\xa5\x8c\xe0\xa4\x9c\xe0\xa5\x82\xe0\xa4\xa6,adj,any,any,,,,'
p4390
sS'chunkid'
p4391
S'JJP'
p4392
sS'drel'
p4393
S'pof:\xe0\xa4\xb0\xe0\xa4\xb9\xe0\xa5\x87\xe0\xa4\x82\xe0\xa4\x97\xe0\xa5\x87'
p4394
sS'chunktype'
p4395
S'head:JJP'
p4396
ssbsg1265
I01
sg1268
I01
sg1279
Nsg1266
Nsg157
I6
sg143
I3
sg1523
I3
sg1277
Nsg1524
S'JJ'
p4397
sg238
(issf_api
FeatureSet
p4398
(dp4399
g241
(dp4400
S'posn'
p4401
S'110'
p4402
sS'name'
p4403
S'\xe0\xa4\xae\xe0\xa5\x8c\xe0\xa4\x9c\xe0\xa5\x82\xe0\xa4\xa6'
p4404
sS'af'
p4405
S'\xe0\xa4\xae\xe0\xa5\x8c\xe0\xa4\x9c\xe0\xa5\x82\xe0\xa4\xa6,adj,any,any,,,,'
p4406
ssbsg1286
I00
sba(issf_api
Word
p4407
(dp4408
g1506
I00
sg1507
V\u0930\u0939\u0947\u0902\u0917\u0947
p4409
sg1509
(issf_api
FeatureSet
p4410
(dp4411
g241
(dp4412
S'posn'
p4413
S'120'
p4414
sS'name'
p4415
S'\xe0\xa4\xb0\xe0\xa4\xb9\xe0\xa5\x87\xe0\xa4\x82\xe0\xa4\x97\xe0\xa5\x87'
p4416
sS'af'
p4417
S'\xe0\xa4\xb0\xe0\xa4\xb9,v,m,sg,3h,,\xe0\xa4\x97\xe0\xa4\xbe,gA'
p4418
sS'chunkid'
p4419
S'VGF'
p4420
sS'chunktype'
p4421
S'head:VGF'
p4422
sS'voicetype'
p4423
S'active'
p4424
sS'stype'
p4425
S'declarative'
p4426
ssbsg1265
I01
sg1268
I01
sg1279
Nsg1266
Nsg157
I7
sg143
I3
sg1523
I3
sg1277
Nsg1524
S'VM'
p4427
sg238
(issf_api
FeatureSet
p4428
(dp4429
g241
(dp4430
S'posn'
p4431
S'120'
p4432
sS'name'
p4433
S'\xe0\xa4\xb0\xe0\xa4\xb9\xe0\xa5\x87\xe0\xa4\x82\xe0\xa4\x97\xe0\xa5\x87'
p4434
sS'af'
p4435
S'\xe0\xa4\xb0\xe0\xa4\xb9,v,m,sg,3h,,\xe0\xa4\x97\xe0\xa4\xbe,gA'
p4436
ssbsg1286
I00
sba(issf_api
Word
p4437
(dp4438
g1506
I00
sg1507
V\u0964
sg1509
(issf_api
FeatureSet
p4439
(dp4440
g241
(dp4441
S'posn'
p4442
S'130'
p4443
sS'name'
p4444
S'\xe0\xa5\xa4'
p4445
sS'af'
p4446
S'\xe0\xa5\xa4,punc,,,,,,'
p4447
sS'chunkid'
p4448
S'BLK'
p4449
sS'drel'
p4450
S'rsym:\xe0\xa4\xb0\xe0\xa4\xb9\xe0\xa5\x87\xe0\xa4\x82\xe0\xa4\x97\xe0\xa5\x87'
p4451
sS'chunktype'
p4452
S'head:BLK'
p4453
ssbsg1265
I01
sg1268
I01
sg1279
Nsg1266
Nsg157
I8
sg143
I3
sg1523
I3
sg1277
Nsg1524
S'SYM'
p4454
sg238
(issf_api
FeatureSet
p4455
(dp4456
g241
(dp4457
S'posn'
p4458
S'130'
p4459
sS'name'
p4460
S'\xe0\xa5\xa4'
p4461
sS'af'
p4462
S'\xe0\xa5\xa4,punc,,,,,,'
p4463
ssbsg1286
I00
sba(issf_api
Word
p4464
(dp4465
g1506
I00
sg1507
V\u0907\u0938
p4466
sg1509
(issf_api
FeatureSet
p4467
(dp4468
g241
(dp4469
S'posn'
p4470
S'10'
p4471
sS'name'
p4472
S'\xe0\xa4\x87\xe0\xa4\xb8'
p4473
sS'af'
p4474
S'\xe0\xa4\xaf\xe0\xa4\xb9,pn,any,sg,3,d,,'
p4475
sS'chunkid'
p4476
S'NP'
p4477
sS'drel'
p4478
S'k7t:\xe0\xa4\xa6\xe0\xa5\x87'
p4479
sS'chunktype'
p4480
S'head:NP'
p4481
ssbsg1265
I00
sg1268
I00
sg1279
g1362
sg1266
(lp4482
I63
aI64
aI65
aI66
aI67
aI68
aI69
aI70
aI71
aI72
aI73
aI74
aI75
aI76
aI77
aI78
aI79
aI80
aI81
aI82
aI83
aI84
aI85
aI86
aI87
aI88
aI89
aI90
aI91
aI92
aI93
aI94
aI95
aI96
aI97
aI98
aI99
aI100
aI101
aI102
aI103
aI104
aI105
aI106
asg157
I0
sg143
I4
sg1523
I3
sg1277
(lp4483
I109
aI110
aI111
aI112
aI113
aI114
aI115
aI116
aI117
aI118
aI119
aI120
aI121
aI122
aI123
aI124
aI125
aI126
aI127
aI128
aI129
aI130
aI131
asg1524
S'DEM'
p4484
sg238
(issf_api
FeatureSet
p4485
(dp4486
g241
(dp4487
S'posn'
p4488
S'10'
p4489
sS'name'
p4490
S'\xe0\xa4\x87\xe0\xa4\xb8'
p4491
sS'af'
p4492
S'\xe0\xa4\xaf\xe0\xa4\xb9,pn,any,sg,3,d,,'
p4493
ssbsg1286
I01
sba(issf_api
Word
p4494
(dp4495
g1506
I00
sg1507
V\u092c\u0940\u091a
p4496
sg1509
(issf_api
FeatureSet
p4497
(dp4498
g241
(dp4499
S'posn'
p4500
S'20'
p4501
sS'name'
p4502
S'\xe0\xa4\xac\xe0\xa5\x80\xe0\xa4\x9a'
p4503
sS'drel'
p4504
S'lwg__psp:\xe0\xa4\x87\xe0\xa4\xb8'
p4505
sS'chunktype'
p4506
S'child:NP'
p4507
sS'af'
p4508
S'\xe0\xa4\xac\xe0\xa5\x80\xe0\xa4\x9a,nst,m,sg,3,d,,'
p4509
ssbsg1265
I00
sg1268
I00
sg1279
g1362
sg1266
g4482
sg157
I0
sg143
I4
sg1523
I3
sg1277
g4483
sg1524
S'NST'
p4510
sg238
(issf_api
FeatureSet
p4511
(dp4512
g241
(dp4513
S'posn'
p4514
S'20'
p4515
sS'name'
p4516
S'\xe0\xa4\xac\xe0\xa5\x80\xe0\xa4\x9a'
p4517
sS'af'
p4518
S'\xe0\xa4\xac\xe0\xa5\x80\xe0\xa4\x9a,nst,m,sg,3,d,,'
p4519
ssbsg1286
I01
sba(issf_api
Word
p4520
(dp4521
g1506
I00
sg1507
V\u0905\u0926\u093e\u0932\u0924
p4522
sg1509
(issf_api
FeatureSet
p4523
(dp4524
g241
(dp4525
S'posn'
p4526
S'30'
p4527
sS'name'
p4528
S'\xe0\xa4\x85\xe0\xa4\xa6\xe0\xa4\xbe\xe0\xa4\xb2\xe0\xa4\xa4'
p4529
sS'af'
p4530
S'\xe0\xa4\x85\xe0\xa4\xa6\xe0\xa4\xbe\xe0\xa4\xb2\xe0\xa4\xa4,n,f,sg,3,o,0_\xe0\xa4\xa8\xe0\xa5\x87,0'
p4531
sS'chunkid'
p4532
S'NP2'
p4533
sS'drel'
p4534
S'k1:\xe0\xa4\xa6\xe0\xa5\x87'
p4535
sS'vpos'
p4536
S'vib_2'
p4537
sS'chunktype'
p4538
S'head:NP2'
p4539
ssbsg1265
I00
sg1268
I01
sg1279
Nsg1266
Nsg157
I1
sg143
I4
sg1523
I3
sg1277
Nsg1524
S'NN'
p4540
sg238
(issf_api
FeatureSet
p4541
(dp4542
g241
(dp4543
S'posn'
p4544
S'30'
p4545
sS'name'
p4546
S'\xe0\xa4\x85\xe0\xa4\xa6\xe0\xa4\xbe\xe0\xa4\xb2\xe0\xa4\xa4'
p4547
sS'af'
p4548
S'\xe0\xa4\x85\xe0\xa4\xa6\xe0\xa4\xbe\xe0\xa4\xb2\xe0\xa4\xa4,n,f,sg,3,o,0,0'
p4549
ssbsg1286
I00
sba(issf_api
Word
p4550
(dp4551
g1506
I00
sg1507
V\u0928\u0947
p4552
sg1509
(issf_api
FeatureSet
p4553
(dp4554
g241
(dp4555
S'posn'
p4556
S'40'
p4557
sS'name'
p4558
S'\xe0\xa4\xa8\xe0\xa5\x87'
p4559
sS'drel'
p4560
S'lwg__psp:\xe0\xa4\x85\xe0\xa4\xa6\xe0\xa4\xbe\xe0\xa4\xb2\xe0\xa4\xa4'
p4561
sS'chunktype'
p4562
S'child:NP2'
p4563
sS'af'
p4564
S'\xe0\xa4\xa8\xe0\xa5\x87,psp,,,,,,'
p4565
ssbsg1265
I00
sg1268
I01
sg1279
Nsg1266
Nsg157
I1
sg143
I4
sg1523
I3
sg1277
Nsg1524
S'PSP'
p4566
sg238
(issf_api
FeatureSet
p4567
(dp4568
g241
(dp4569
S'posn'
p4570
S'40'
p4571
sS'name'
p4572
S'\xe0\xa4\xa8\xe0\xa5\x87'
p4573
sS'af'
p4574
S'\xe0\xa4\xa8\xe0\xa5\x87,psp,,,,,,'
p4575
ssbsg1286
I00
sba(issf_api
Word
p4576
(dp4577
g1506
I00
sg1507
V\u091c\u092e\u093e\u0928\u0924
p4578
sg1509
(issf_api
FeatureSet
p4579
(dp4580
g241
(dp4581
S'posn'
p4582
S'50'
p4583
sS'name'
p4584
S'\xe0\xa4\x9c\xe0\xa4\xae\xe0\xa4\xbe\xe0\xa4\xa8\xe0\xa4\xa4'
p4585
sS'af'
p4586
S'\xe0\xa4\x9c\xe0\xa4\xae\xe0\xa4\xbe\xe0\xa4\xa8\xe0\xa4\xa4,n,f,sg,3,o,0_\xe0\xa4\xaa\xe0\xa4\xb0,0'
p4587
sS'chunkid'
p4588
S'NP3'
p4589
sS'drel'
p4590
S'k7:\xe0\xa4\x9a\xe0\xa4\xb2'
p4591
sS'vpos'
p4592
S'vib_2'
p4593
sS'chunktype'
p4594
S'head:NP3'
p4595
ssbsg1265
I00
sg1268
I01
sg1279
Nsg1266
Nsg157
I2
sg143
I4
sg1523
I3
sg1277
Nsg1524
S'NN'
p4596
sg238
(issf_api
FeatureSet
p4597
(dp4598
g241
(dp4599
S'posn'
p4600
S'50'
p4601
sS'name'
p4602
S'\xe0\xa4\x9c\xe0\xa4\xae\xe0\xa4\xbe\xe0\xa4\xa8\xe0\xa4\xa4'
p4603
sS'af'
p4604
S'\xe0\xa4\x9c\xe0\xa4\xae\xe0\xa4\xbe\xe0\xa4\xa8\xe0\xa4\xa4,n,f,sg,3,o,0,0'
p4605
ssbsg1286
I00
sba(issf_api
Word
p4606
(dp4607
g1506
I00
sg1507
V\u092a\u0930
p4608
sg1509
(issf_api
FeatureSet
p4609
(dp4610
g241
(dp4611
S'posn'
p4612
S'60'
p4613
sS'name'
p4614
S'\xe0\xa4\xaa\xe0\xa4\xb0'
p4615
sS'drel'
p4616
S'lwg__psp:\xe0\xa4\x9c\xe0\xa4\xae\xe0\xa4\xbe\xe0\xa4\xa8\xe0\xa4\xa4'
p4617
sS'chunktype'
p4618
S'child:NP3'
p4619
sS'af'
p4620
S'\xe0\xa4\xaa\xe0\xa4\xb0,psp,,,,,,'
p4621
ssbsg1265
I00
sg1268
I01
sg1279
Nsg1266
Nsg157
I2
sg143
I4
sg1523
I3
sg1277
Nsg1524
S'PSP'
p4622
sg238
(issf_api
FeatureSet
p4623
(dp4624
g241
(dp4625
S'posn'
p4626
S'60'
p4627
sS'name'
p4628
S'\xe0\xa4\xaa\xe0\xa4\xb0'
p4629
sS'af'
p4630
S'\xe0\xa4\xaa\xe0\xa4\xb0,psp,,,,,,'
p4631
ssbsg1286
I00
sba(issf_api
Word
p4632
(dp4633
g1506
I00
sg1507
V\u091a\u0932
p4634
sg1509
(issf_api
FeatureSet
p4635
(dp4636
g241
(dp4637
S'posn'
p4638
S'70'
p4639
sS'name'
p4640
S'\xe0\xa4\x9a\xe0\xa4\xb2'
p4641
sS'af'
p4642
S'\xe0\xa4\x9a\xe0\xa4\xb2,v,any,pl,any,,0_\xe0\xa4\xb0\xe0\xa4\xb9+\xe0\xa4\xaf\xe0\xa4\xbe,0'
p4643
sS'chunkid'
p4644
S'VGNF'
p4645
sS'drel'
p4646
S'nmod__k1inv:\xe0\xa4\x86\xe0\xa4\xb0\xe0\xa5\x8b\xe0\xa4\xaa\xe0\xa4\xbf\xe0\xa4\xaf\xe0\xa5\x8b\xe0\xa4\x82'
p4647
sS'vpos'
p4648
S'tam_2'
p4649
sS'chunktype'
p4650
S'head:VGNF'
p4651
ssbsg1265
I00
sg1268
I01
sg1279
Nsg1266
Nsg157
I3
sg143
I4
sg1523
I3
sg1277
Nsg1524
S'VM'
p4652
sg238
(issf_api
FeatureSet
p4653
(dp4654
g241
(dp4655
S'posn'
p4656
S'70'
p4657
sS'name'
p4658
S'\xe0\xa4\x9a\xe0\xa4\xb2'
p4659
sS'af'
p4660
S'\xe0\xa4\x9a\xe0\xa4\xb2,v,any,any,any,,0,0'
p4661
ssbsg1286
I00
sba(issf_api
Word
p4662
(dp4663
g1506
I00
sg1507
V\u0930\u0939\u0947
p4664
sg1509
(issf_api
FeatureSet
p4665
(dp4666
g241
(dp4667
S'posn'
p4668
S'80'
p4669
sS'name'
p4670
S'\xe0\xa4\xb0\xe0\xa4\xb9\xe0\xa5\x87'
p4671
sS'drel'
p4672
S'lwg__vaux:\xe0\xa4\x9a\xe0\xa4\xb2'
p4673
sS'chunktype'
p4674
S'child:VGNF'
p4675
sS'af'
p4676
S'\xe0\xa4\xb0\xe0\xa4\xb9,v,m,pl,any,,\xe0\xa4\xaf\xe0\xa4\xbe,yA'
p4677
ssbsg1265
I00
sg1268
I01
sg1279
Nsg1266
Nsg157
I3
sg143
I4
sg1523
I3
sg1277
Nsg1524
S'VAUX'
p4678
sg238
(issf_api
FeatureSet
p4679
(dp4680
g241
(dp4681
S'posn'
p4682
S'80'
p4683
sS'name'
p4684
S'\xe0\xa4\xb0\xe0\xa4\xb9\xe0\xa5\x87'
p4685
sS'af'
p4686
S'\xe0\xa4\xb0\xe0\xa4\xb9,v,m,pl,any,,\xe0\xa4\xaf\xe0\xa4\xbe,yA'
p4687
ssbsg1286
I00
sba(issf_api
Word
p4688
(dp4689
g1506
I00
sg1507
V\u0905\u0928\u094d\u092f
p4690
sg1509
(issf_api
FeatureSet
p4691
(dp4692
g241
(dp4693
S'posn'
p4694
S'90'
p4695
sS'name'
p4696
S'\xe0\xa4\x85\xe0\xa4\xa8\xe0\xa5\x8d\xe0\xa4\xaf'
p4697
sS'drel'
p4698
S'nmod__adj:\xe0\xa4\x86\xe0\xa4\xb0\xe0\xa5\x8b\xe0\xa4\xaa\xe0\xa4\xbf\xe0\xa4\xaf\xe0\xa5\x8b\xe0\xa4\x82'
p4699
sS'chunktype'
p4700
S'child:NP4'
p4701
sS'af'
p4702
S'\xe0\xa4\x85\xe0\xa4\xa8\xe0\xa5\x8d\xe0\xa4\xaf,adj,any,any,,o,,'
p4703
ssbsg1265
I00
sg1268
I01
sg1279
Nsg1266
Nsg157
I4
sg143
I4
sg1523
I3
sg1277
Nsg1524
S'JJ'
p4704
sg238
(issf_api
FeatureSet
p4705
(dp4706
g241
(dp4707
S'posn'
p4708
S'90'
p4709
sS'name'
p4710
S'\xe0\xa4\x85\xe0\xa4\xa8\xe0\xa5\x8d\xe0\xa4\xaf'
p4711
sS'af'
p4712
S'\xe0\xa4\x85\xe0\xa4\xa8\xe0\xa5\x8d\xe0\xa4\xaf,adj,any,any,,o,,'
p4713
ssbsg1286
I00
sba(issf_api
Word
p4714
(dp4715
g1506
I00
sg1507
V\u0906\u0930\u094b\u092a\u093f\u092f\u094b\u0902
p4716
sg1509
(issf_api
FeatureSet
p4717
(dp4718
g241
(dp4719
S'posn'
p4720
S'100'
p4721
sS'name'
p4722
S'\xe0\xa4\x86\xe0\xa4\xb0\xe0\xa5\x8b\xe0\xa4\xaa\xe0\xa4\xbf\xe0\xa4\xaf\xe0\xa5\x8b\xe0\xa4\x82'
p4723
sS'af'
p4724
S'\xe0\xa4\x86\xe0\xa4\xb0\xe0\xa5\x8b\xe0\xa4\xaa\xe0\xa5\x80,n,m,pl,3,o,0_\xe0\xa4\x95\xe0\xa5\x8b,0'
p4725
sS'chunkid'
p4726
S'NP4'
p4727
sS'drel'
p4728
S'k4:\xe0\xa4\xa6\xe0\xa5\x87'
p4729
sS'vpos'
p4730
S'vib_3'
p4731
sS'chunktype'
p4732
S'head:NP4'
p4733
ssbsg1265
I00
sg1268
I01
sg1279
Nsg1266
Nsg157
I4
sg143
I4
sg1523
I3
sg1277
Nsg1524
S'NN'
p4734
sg238
(issf_api
FeatureSet
p4735
(dp4736
g241
(dp4737
S'posn'
p4738
S'100'
p4739
sS'name'
p4740
S'\xe0\xa4\x86\xe0\xa4\xb0\xe0\xa5\x8b\xe0\xa4\xaa\xe0\xa4\xbf\xe0\xa4\xaf\xe0\xa5\x8b\xe0\xa4\x82'
p4741
sS'af'
p4742
S'\xe0\xa4\x86\xe0\xa4\xb0\xe0\xa5\x8b\xe0\xa4\xaa\xe0\xa5\x80,n,m,pl,3,o,0,0'
p4743
ssbsg1286
I00
sba(issf_api
Word
p4744
(dp4745
g1506
I00
sg1507
V\u0915\u094b
p4746
sg1509
(issf_api
FeatureSet
p4747
(dp4748
g241
(dp4749
S'posn'
p4750
S'110'
p4751
sS'name'
p4752
S'\xe0\xa4\x95\xe0\xa5\x8b'
p4753
sS'drel'
p4754
S'lwg__psp:\xe0\xa4\x86\xe0\xa4\xb0\xe0\xa5\x8b\xe0\xa4\xaa\xe0\xa4\xbf\xe0\xa4\xaf\xe0\xa5\x8b\xe0\xa4\x82'
p4755
sS'chunktype'
p4756
S'child:NP4'
p4757
sS'af'
p4758
S'\xe0\xa4\x95\xe0\xa5\x8b,psp,,,,,,'
p4759
ssbsg1265
I00
sg1268
I01
sg1279
Nsg1266
Nsg157
I4
sg143
I4
sg1523
I3
sg1277
Nsg1524
S'PSP'
p4760
sg238
(issf_api
FeatureSet
p4761
(dp4762
g241
(dp4763
S'posn'
p4764
S'110'
p4765
sS'name'
p4766
S'\xe0\xa4\x95\xe0\xa5\x8b'
p4767
sS'af'
p4768
S'\xe0\xa4\x95\xe0\xa5\x8b,psp,,,,,,'
p4769
ssbsg1286
I00
sba(issf_api
Word
p4770
(dp4771
g1506
I00
sg1507
V\u092a\u0947\u0936\u0940
p4772
sg1509
(issf_api
FeatureSet
p4773
(dp4774
g241
(dp4775
S'posn'
p4776
S'120'
p4777
sS'name'
p4778
S'\xe0\xa4\xaa\xe0\xa5\x87\xe0\xa4\xb6\xe0\xa5\x80'
p4779
sS'af'
p4780
S'\xe0\xa4\xaa\xe0\xa5\x87\xe0\xa4\xb6\xe0\xa5\x80,n,f,sg,3,o,0_\xe0\xa4\xaa\xe0\xa4\xb0,0'
p4781
sS'chunkid'
p4782
S'NP5'
p4783
sS'drel'
p4784
S'k7:\xe0\xa4\xb9\xe0\xa5\x8b\xe0\xa4\xa8\xe0\xa5\x87'
p4785
sS'vpos'
p4786
S'vib_2'
p4787
sS'chunktype'
p4788
S'head:NP5'
p4789
ssbsg1265
I00
sg1268
I01
sg1279
Nsg1266
Nsg157
I5
sg143
I4
sg1523
I3
sg1277
Nsg1524
S'NN'
p4790
sg238
(issf_api
FeatureSet
p4791
(dp4792
g241
(dp4793
S'posn'
p4794
S'120'
p4795
sS'name'
p4796
S'\xe0\xa4\xaa\xe0\xa5\x87\xe0\xa4\xb6\xe0\xa5\x80'
p4797
sS'af'
p4798
S'\xe0\xa4\xaa\xe0\xa5\x87\xe0\xa4\xb6\xe0\xa5\x80,n,f,sg,3,o,0,0'
p4799
ssbsg1286
I00
sba(issf_api
Word
p4800
(dp4801
g1506
I00
sg1507
V\u092a\u0930
p4802
sg1509
(issf_api
FeatureSet
p4803
(dp4804
g241
(dp4805
S'posn'
p4806
S'130'
p4807
sS'name'
p4808
S'\xe0\xa4\xaa\xe0\xa4\xb02'
p4809
sS'drel'
p4810
S'lwg__psp:\xe0\xa4\xaa\xe0\xa5\x87\xe0\xa4\xb6\xe0\xa5\x80'
p4811
sS'chunktype'
p4812
S'child:NP5'
p4813
sS'af'
p4814
S'\xe0\xa4\xaa\xe0\xa4\xb0,psp,,,,,,'
p4815
ssbsg1265
I00
sg1268
I01
sg1279
Nsg1266
Nsg157
I5
sg143
I4
sg1523
I3
sg1277
Nsg1524
S'PSP'
p4816
sg238
(issf_api
FeatureSet
p4817
(dp4818
g241
(dp4819
S'posn'
p4820
S'130'
p4821
sS'name'
p4822
S'\xe0\xa4\xaa\xe0\xa4\xb02'
p4823
sS'af'
p4824
S'\xe0\xa4\xaa\xe0\xa4\xb0,psp,,,,,,'
p4825
ssbsg1286
I00
sba(issf_api
Word
p4826
(dp4827
g1506
I00
sg1507
V\u0939\u093e\u091c\u093f\u0930
p4828
sg1509
(issf_api
FeatureSet
p4829
(dp4830
g241
(dp4831
S'posn'
p4832
S'140'
p4833
sS'name'
p4834
S'\xe0\xa4\xb9\xe0\xa4\xbe\xe0\xa4\x9c\xe0\xa4\xbf\xe0\xa4\xb0'
p4835
sS'af'
p4836
S'\xe0\xa4\xb9\xe0\xa4\xbe\xe0\xa4\x9c\xe0\xa4\xbf\xe0\xa4\xb0,adj,any,any,,,,'
p4837
sS'chunkid'
p4838
S'JJP'
p4839
sS'drel'
p4840
S'pof:\xe0\xa4\xb9\xe0\xa5\x8b\xe0\xa4\xa8\xe0\xa5\x87'
p4841
sS'chunktype'
p4842
S'head:JJP'
p4843
ssbsg1265
I00
sg1268
I01
sg1279
Nsg1266
Nsg157
I6
sg143
I4
sg1523
I3
sg1277
Nsg1524
S'JJ'
p4844
sg238
(issf_api
FeatureSet
p4845
(dp4846
g241
(dp4847
S'posn'
p4848
S'140'
p4849
sS'name'
p4850
S'\xe0\xa4\xb9\xe0\xa4\xbe\xe0\xa4\x9c\xe0\xa4\xbf\xe0\xa4\xb0'
p4851
sS'af'
p4852
S'\xe0\xa4\xb9\xe0\xa4\xbe\xe0\xa4\x9c\xe0\xa4\xbf\xe0\xa4\xb0,adj,any,any,,,,'
p4853
ssbsg1286
I00
sba(issf_api
Word
p4854
(dp4855
g1506
I00
sg1507
V\u0939\u094b\u0928\u0947
p4856
sg1509
(issf_api
FeatureSet
p4857
(dp4858
g241
(dp4859
S'posn'
p4860
S'150'
p4861
sS'name'
p4862
S'\xe0\xa4\xb9\xe0\xa5\x8b\xe0\xa4\xa8\xe0\xa5\x87'
p4863
sS'af'
p4864
S'\xe0\xa4\xb9\xe0\xa5\x8b,v,any,any,any,o,\xe0\xa4\xa8\xe0\xa4\xbe_\xe0\xa4\x95\xe0\xa5\x87_\xe0\xa4\xb2\xe0\xa4\xbf\xe0\xa4\x8f,nA'
p4865
sS'chunkid'
p4866
S'VGNN'
p4867
sS'drel'
p4868
S'rt:\xe0\xa4\xa6\xe0\xa5\x87'
p4869
sS'vpos'
p4870
S'tam_2_3'
p4871
sS'chunktype'
p4872
S'head:VGNN'
p4873
ssbsg1265
I00
sg1268
I01
sg1279
Nsg1266
Nsg157
I7
sg143
I4
sg1523
I3
sg1277
Nsg1524
S'VM'
p4874
sg238
(issf_api
FeatureSet
p4875
(dp4876
g241
(dp4877
S'posn'
p4878
S'150'
p4879
sS'name'
p4880
S'\xe0\xa4\xb9\xe0\xa5\x8b\xe0\xa4\xa8\xe0\xa5\x87'
p4881
sS'af'
p4882
S'\xe0\xa4\xb9\xe0\xa5\x8b,v,any,any,any,o,\xe0\xa4\xa8\xe0\xa4\xbe,nA'
p4883
ssbsg1286
I00
sba(issf_api
Word
p4884
(dp4885
g1506
I00
sg1507
V\u0915\u0947
p4886
sg1509
(issf_api
FeatureSet
p4887
(dp4888
g241
(dp4889
S'posn'
p4890
S'160'
p4891
sS'name'
p4892
S'\xe0\xa4\x95\xe0\xa5\x87'
p4893
sS'drel'
p4894
S'lwg__psp:\xe0\xa4\xb9\xe0\xa5\x8b\xe0\xa4\xa8\xe0\xa5\x87'
p4895
sS'chunktype'
p4896
S'child:VGNN'
p4897
sS'af'
p4898
S'\xe0\xa4\x95\xe0\xa5\x87,psp,,,,,,'
p4899
ssbsg1265
I00
sg1268
I01
sg1279
Nsg1266
Nsg157
I7
sg143
I4
sg1523
I3
sg1277
Nsg1524
S'PSP'
p4900
sg238
(issf_api
FeatureSet
p4901
(dp4902
g241
(dp4903
S'posn'
p4904
S'160'
p4905
sS'name'
p4906
S'\xe0\xa4\x95\xe0\xa5\x87'
p4907
sS'af'
p4908
S'\xe0\xa4\x95\xe0\xa5\x87,psp,,,,,,'
p4909
ssbsg1286
I00
sba(issf_api
Word
p4910
(dp4911
g1506
I00
sg1507
V\u0932\u093f\u090f
p4912
sg1509
(issf_api
FeatureSet
p4913
(dp4914
g241
(dp4915
S'posn'
p4916
S'170'
p4917
sS'name'
p4918
S'\xe0\xa4\xb2\xe0\xa4\xbf\xe0\xa4\x8f'
p4919
sS'drel'
p4920
S'lwg__psp:\xe0\xa4\xb9\xe0\xa5\x8b\xe0\xa4\xa8\xe0\xa5\x87'
p4921
sS'chunktype'
p4922
S'child:VGNN'
p4923
sS'af'
p4924
S'\xe0\xa4\xb2\xe0\xa4\xbf\xe0\xa4\x8f,psp,,,,,,'
p4925
ssbsg1265
I00
sg1268
I01
sg1279
Nsg1266
Nsg157
I7
sg143
I4
sg1523
I3
sg1277
Nsg1524
S'PSP'
p4926
sg238
(issf_api
FeatureSet
p4927
(dp4928
g241
(dp4929
S'posn'
p4930
S'170'
p4931
sS'name'
p4932
S'\xe0\xa4\xb2\xe0\xa4\xbf\xe0\xa4\x8f'
p4933
sS'af'
p4934
S'\xe0\xa4\xb2\xe0\xa4\xbf\xe0\xa4\x8f,psp,,,,,,'
p4935
ssbsg1286
I00
sba(issf_api
Word
p4936
(dp4937
g1506
I00
sg1507
V\u0969
sg1509
(issf_api
FeatureSet
p4938
(dp4939
g241
(dp4940
S'posn'
p4941
S'180'
p4942
sS'name'
p4943
S'\xe0\xa5\xa9'
p4944
sS'drel'
p4945
S'pof__cn:\xe0\xa4\x9c\xe0\xa4\xa8\xe0\xa4\xb5\xe0\xa4\xb0\xe0\xa5\x80'
p4946
sS'chunktype'
p4947
S'child:NP6'
p4948
sS'af'
p4949
S'\xe0\xa5\xa9,n,any,sg,3,d,0,0'
p4950
ssbsg1265
I00
sg1268
I01
sg1279
Nsg1266
Nsg157
I8
sg143
I4
sg1523
I3
sg1277
Nsg1524
S'NNPC'
p4951
sg238
(issf_api
FeatureSet
p4952
(dp4953
g241
(dp4954
S'posn'
p4955
S'180'
p4956
sS'name'
p4957
S'\xe0\xa5\xa9'
p4958
sS'af'
p4959
S'\xe0\xa5\xa9,n,any,sg,3,d,0,0'
p4960
ssbsg1286
I00
sba(issf_api
Word
p4961
(dp4962
g1506
I00
sg1507
V\u091c\u0928\u0935\u0930\u0940
p4963
sg1509
(issf_api
FeatureSet
p4964
(dp4965
g241
(dp4966
S'posn'
p4967
S'190'
p4968
sS'name'
p4969
S'\xe0\xa4\x9c\xe0\xa4\xa8\xe0\xa4\xb5\xe0\xa4\xb0\xe0\xa5\x80'
p4970
sS'af'
p4971
S'\xe0\xa4\x9c\xe0\xa4\xa8\xe0\xa4\xb5\xe0\xa4\xb0\xe0\xa5\x80,n,f,sg,3,o,0_\xe0\xa4\xa4\xe0\xa4\x95_\xe0\xa4\x95\xe0\xa4\xbe,0'
p4972
sS'chunkid'
p4973
S'NP6'
p4974
sS'drel'
p4975
S'r6:\xe0\xa4\x9b\xe0\xa5\x82\xe0\xa4\x9f'
p4976
sS'vpos'
p4977
S'vib_3_4'
p4978
sS'chunktype'
p4979
S'head:NP6'
p4980
ssbsg1265
I00
sg1268
I01
sg1279
Nsg1266
Nsg157
I8
sg143
I4
sg1523
I3
sg1277
Nsg1524
S'NNP'
p4981
sg238
(issf_api
FeatureSet
p4982
(dp4983
g241
(dp4984
S'posn'
p4985
S'190'
p4986
sS'name'
p4987
S'\xe0\xa4\x9c\xe0\xa4\xa8\xe0\xa4\xb5\xe0\xa4\xb0\xe0\xa5\x80'
p4988
sS'af'
p4989
S'\xe0\xa4\x9c\xe0\xa4\xa8\xe0\xa4\xb5\xe0\xa4\xb0\xe0\xa5\x80,n,f,sg,3,o,0,0'
p4990
ssbsg1286
I00
sba(issf_api
Word
p4991
(dp4992
g1506
I00
sg1507
V\u0924\u0915
p4993
sg1509
(issf_api
FeatureSet
p4994
(dp4995
g241
(dp4996
S'posn'
p4997
S'200'
p4998
sS'name'
p4999
S'\xe0\xa4\xa4\xe0\xa4\x95'
p5000
sS'drel'
p5001
S'lwg__psp:\xe0\xa4\x9c\xe0\xa4\xa8\xe0\xa4\xb5\xe0\xa4\xb0\xe0\xa5\x80'
p5002
sS'chunktype'
p5003
S'child:NP6'
p5004
sS'af'
p5005
S'\xe0\xa4\xa4\xe0\xa4\x95,psp,,,,,,'
p5006
ssbsg1265
I00
sg1268
I01
sg1279
Nsg1266
Nsg157
I8
sg143
I4
sg1523
I3
sg1277
Nsg1524
S'PSP'
p5007
sg238
(issf_api
FeatureSet
p5008
(dp5009
g241
(dp5010
S'posn'
p5011
S'200'
p5012
sS'name'
p5013
S'\xe0\xa4\xa4\xe0\xa4\x95'
p5014
sS'af'
p5015
S'\xe0\xa4\xa4\xe0\xa4\x95,psp,,,,,,'
p5016
ssbsg1286
I00
sba(issf_api
Word
p5017
(dp5018
g1506
I00
sg1507
V\u0915\u0940
p5019
sg1509
(issf_api
FeatureSet
p5020
(dp5021
g241
(dp5022
S'posn'
p5023
S'210'
p5024
sS'name'
p5025
S'\xe0\xa4\x95\xe0\xa5\x80'
p5026
sS'drel'
p5027
S'lwg__psp:\xe0\xa4\x9c\xe0\xa4\xa8\xe0\xa4\xb5\xe0\xa4\xb0\xe0\xa5\x80'
p5028
sS'chunktype'
p5029
S'child:NP6'
p5030
sS'af'
p5031
S'\xe0\xa4\x95\xe0\xa4\xbe,psp,f,sg,,d,,'
p5032
ssbsg1265
I00
sg1268
I01
sg1279
Nsg1266
Nsg157
I8
sg143
I4
sg1523
I3
sg1277
Nsg1524
S'PSP'
p5033
sg238
(issf_api
FeatureSet
p5034
(dp5035
g241
(dp5036
S'posn'
p5037
S'210'
p5038
sS'name'
p5039
S'\xe0\xa4\x95\xe0\xa5\x80'
p5040
sS'af'
p5041
S'\xe0\xa4\x95\xe0\xa4\xbe,psp,f,sg,,d,,'
p5042
ssbsg1286
I00
sba(issf_api
Word
p5043
(dp5044
g1506
I00
sg1507
V\u091b\u0942\u091f
p5045
sg1509
(issf_api
FeatureSet
p5046
(dp5047
g241
(dp5048
S'posn'
p5049
S'220'
p5050
sS'name'
p5051
S'\xe0\xa4\x9b\xe0\xa5\x82\xe0\xa4\x9f'
p5052
sS'af'
p5053
S'\xe0\xa4\x9b\xe0\xa5\x82\xe0\xa4\x9f,n,f,sg,3,d,0,0'
p5054
sS'chunkid'
p5055
S'NP7'
p5056
sS'drel'
p5057
S'k2:\xe0\xa4\xa6\xe0\xa5\x87'
p5058
sS'chunktype'
p5059
S'head:NP7'
p5060
ssbsg1265
I00
sg1268
I01
sg1279
Nsg1266
Nsg157
I9
sg143
I4
sg1523
I3
sg1277
Nsg1524
S'NN'
p5061
sg238
(issf_api
FeatureSet
p5062
(dp5063
g241
(dp5064
S'posn'
p5065
S'220'
p5066
sS'name'
p5067
S'\xe0\xa4\x9b\xe0\xa5\x82\xe0\xa4\x9f'
p5068
sS'af'
p5069
S'\xe0\xa4\x9b\xe0\xa5\x82\xe0\xa4\x9f,n,f,sg,3,d,0,0'
p5070
ssbsg1286
I00
sba(issf_api
Word
p5071
(dp5072
g1506
I00
sg1507
V\u0926\u0947
p5073
sg1509
(issf_api
FeatureSet
p5074
(dp5075
g241
(dp5076
S'posn'
p5077
S'230'
p5078
sS'name'
p5079
S'\xe0\xa4\xa6\xe0\xa5\x87'
p5080
sS'af'
p5081
S'\xe0\xa4\xa6\xe0\xa5\x87,v,any,sg,any,,0_\xe0\xa4\xa6\xe0\xa5\x87+\xe0\xa4\xaf\xe0\xa4\xbe,0'
p5082
sS'chunkid'
p5083
S'VGF'
p5084
sS'chunktype'
p5085
S'head:VGF'
p5086
sS'voicetype'
p5087
S'active'
p5088
sS'vpos'
p5089
S'tam_2'
p5090
sS'stype'
p5091
S'declarative'
p5092
ssbsg1265
I00
sg1268
I01
sg1279
Nsg1266
Nsg157
I10
sg143
I4
sg1523
I3
sg1277
Nsg1524
S'VM'
p5093
sg238
(issf_api
FeatureSet
p5094
(dp5095
g241
(dp5096
S'posn'
p5097
S'230'
p5098
sS'name'
p5099
S'\xe0\xa4\xa6\xe0\xa5\x87'
p5100
sS'af'
p5101
S'\xe0\xa4\xa6\xe0\xa5\x87,v,any,any,any,,0,0'
p5102
ssbsg1286
I00
sba(issf_api
Word
p5103
(dp5104
g1506
I00
sg1507
V\u0926\u0940
p5105
sg1509
(issf_api
FeatureSet
p5106
(dp5107
g241
(dp5108
S'posn'
p5109
S'240'
p5110
sS'name'
p5111
S'\xe0\xa4\xa6\xe0\xa5\x80'
p5112
sS'drel'
p5113
S'lwg__vaux:\xe0\xa4\xa6\xe0\xa5\x87'
p5114
sS'chunktype'
p5115
S'child:VGF'
p5116
sS'af'
p5117
S'\xe0\xa4\xa6\xe0\xa5\x87,v,f,sg,any,,\xe0\xa4\xaf\xe0\xa4\xbe,yA'
p5118
ssbsg1265
I00
sg1268
I01
sg1279
Nsg1266
Nsg157
I10
sg143
I4
sg1523
I3
sg1277
Nsg1524
S'VAUX'
p5119
sg238
(issf_api
FeatureSet
p5120
(dp5121
g241
(dp5122
S'posn'
p5123
S'240'
p5124
sS'name'
p5125
S'\xe0\xa4\xa6\xe0\xa5\x80'
p5126
sS'af'
p5127
S'\xe0\xa4\xa6\xe0\xa5\x87,v,f,sg,any,,\xe0\xa4\xaf\xe0\xa4\xbe,yA'
p5128
ssbsg1286
I00
sba(issf_api
Word
p5129
(dp5130
g1506
I00
sg1507
V\u0964
sg1509
(issf_api
FeatureSet
p5131
(dp5132
g241
(dp5133
S'posn'
p5134
S'250'
p5135
sS'name'
p5136
S'\xe0\xa5\xa4'
p5137
sS'af'
p5138
S'\xe0\xa5\xa4,punc,,,,,,'
p5139
sS'chunkid'
p5140
S'BLK'
p5141
sS'drel'
p5142
S'rsym:\xe0\xa4\xa6\xe0\xa5\x87'
p5143
sS'chunktype'
p5144
S'head:BLK'
p5145
ssbsg1265
I00
sg1268
I01
sg1279
Nsg1266
Nsg157
I11
sg143
I4
sg1523
I3
sg1277
Nsg1524
S'SYM'
p5146
sg238
(issf_api
FeatureSet
p5147
(dp5148
g241
(dp5149
S'posn'
p5150
S'250'
p5151
sS'name'
p5152
S'\xe0\xa5\xa4'
p5153
sS'af'
p5154
S'\xe0\xa5\xa4,punc,,,,,,'
p5155
ssbsg1286
I00
sbasb.