(iannotated_data
discourseFile
p1
(dp2
S'annToRawMapping'
p3
(dp4
I0
(I0
tp5
sI1
(I1
tp6
sI2
(I2
tp7
sI3
(I3
tp8
sI4
(I4
tp9
sI5
(I5
tp10
sI6
(I6
tp11
sI7
(I7
tp12
sI8
(I8
tp13
sI9
(I9
tp14
sI10
(I10
tp15
sI11
(I11
tp16
sI12
(I12
tp17
sI13
(I13
tp18
sI14
(I14
tp19
sI15
(I15
tp20
sI16
(I16
tp21
sI17
(I17
tp22
sI18
(I18
tp23
sI19
(I19
tp24
sI20
(I20
tp25
sI21
(I21
tp26
sI22
(I22
tp27
sI23
(I23
tp28
sI24
(I24
tp29
sI25
(I25
tp30
sI26
(I26
tp31
sI27
(I27
tp32
sI28
(I28
tp33
sI29
(I29
tp34
sI30
(I30
tp35
sI31
(I31
tp36
sI32
(I32
tp37
sI33
(I33
tp38
sI34
(I34
tp39
sI35
(I35
tp40
sI36
(I36
tp41
sI37
(I37
tp42
sI38
(I38
tp43
sI39
(I39
tp44
sI40
(I40
tp45
sI41
(I41
tp46
sI42
(I42
tp47
sI43
(I43
tp48
sI44
(I44
tp49
sI45
(I45
tp50
sI46
(I46
tp51
sI47
(I47
tp52
sI48
(I48
tp53
sI49
(I49
tp54
sI50
(I50
tp55
sI51
(I51
tp56
sI52
(I52
tp57
sI53
(I53
tp58
sI54
(I54
tp59
sI55
(I55
tp60
sI56
(I56
tp61
sI57
(I57
tp62
sI58
(I58
tp63
sI59
(I59
tp64
sI60
(I60
tp65
sI61
(I61
tp66
sI62
(I62
tp67
sI63
(I63
tp68
sI64
(I64
tp69
sI65
(I65
tp70
sI66
(I66
tp71
sI67
(I67
tp72
sI68
(I68
tp73
sI69
(I69
tp74
sI70
(I70
tp75
sI71
(I71
tp76
sI72
(I72
tp77
sI73
(I73
tp78
sI74
(I74
tp79
sI75
(I75
tp80
sI76
(I76
tp81
sI77
(I77
tp82
sI78
(I78
tp83
sI79
(I79
tp84
sI80
(I80
tp85
sI81
(I81
tp86
sI82
(I82
tp87
sI83
(I83
tp88
sI84
(I84
tp89
sI85
(I85
tp90
sI86
(I86
tp91
sI87
(I87
tp92
sI88
(I88
tp93
sI89
(I89
tp94
sI90
(I90
tp95
sI91
(I91
tp96
sI92
(I92
tp97
sI93
(I93
tp98
sI94
(I94
tp99
sI95
(I95
tp100
sI96
(I96
tp101
sI97
(I97
tp102
sI98
(I98
tp103
sI99
(I99
tp104
sI100
(I100
tp105
sI101
(I101
tp106
sI102
(I102
tp107
sI103
(I103
tp108
sI104
(I104
tp109
sI105
(I105
tp110
sI106
(I106
tp111
sI107
(I107
tp112
sI108
(I108
tp113
sI109
(I109
tp114
sI110
(I110
tp115
sI111
(I111
tp116
sI112
(I112
tp117
sI113
(I113
tp118
sI114
(I114
tp119
sI115
(I115
tp120
sI116
(I116
tp121
sI117
(I117
tp122
sI118
(I118
tp123
sI119
(I119
tp124
sI120
(I120
tp125
sI121
(I121
tp126
sI122
(I122
tp127
sI123
(I123
tp128
sI124
(I124
tp129
sI125
(I125
tp130
sI126
(I126
tp131
sI127
(I127
tp132
sI128
(I128
tp133
sI129
(I129
tp134
sI130
(I130
tp135
sI131
(I131
tp136
sI132
(I132
tp137
sI133
(I133
tp138
sI134
(I134
tp139
sI135
(I135
tp140
sI136
(I136
tp141
sI137
(I137
tp142
sI138
(I138
tp143
sI139
(I139
tp144
sI140
(I140
tp145
sI141
(I141
tp146
sI142
(I142
tp147
sI143
(I143
tp148
sI144
(I144
tp149
sI145
(I145
tp150
sI146
(I146
tp151
sI147
(I147
tp152
sI148
(I148
tp153
sI149
(I149
tp154
sI150
(I150
tp155
sI151
(I151
tp156
sI152
(I152
tp157
sI153
(I153
tp158
sI154
(I154
tp159
sI155
(I155
tp160
sI156
(I156
tp161
sI157
(I157
tp162
sI158
(I158
tp163
sI159
(I159
tp164
sI160
(I160
tp165
sI161
(I161
tp166
sI162
(I162
tp167
sI163
(I163
tp168
ssS'sentenceList'
p169
(lp170
(issf_api
Sentence
p171
(dp172
S'rootNode'
p173
(lp174
sS'sentenceNum'
p175
I0
sS'wordNumList'
p176
(lp177
I0
aI1
aI2
aI3
aI4
aI5
aI6
aI7
aI8
aI9
aI10
aI11
aI12
aI13
aI14
aI15
aI16
aI17
aI18
aI19
aI20
aI21
aI22
aI23
aI24
aI25
aI26
aI27
aI28
aI29
aI30
aI31
asS'nodeDict'
p178
(dp179
S'VGNF'
p180
(issf_api
Node
p181
(dp182
S'nodeRelation'
p183
S'nmod__k1inv'
p184
sS'nodeName'
p185
g180
sS'nodeParent'
p186
S'NP9'
p187
sS'nodeLevel'
p188
I-1
sS'chunkNum'
p189
I6
sS'childList'
p190
(lp191
sbsS'NP11'
p192
(issf_api
Node
p193
(dp194
g183
S'k7'
p195
sg185
g192
sg186
S'VGF'
p196
sg188
I-1
sg189
I13
sg190
(lp197
sbsS'NP10'
p198
(issf_api
Node
p199
(dp200
g183
S'k7'
p201
sg185
g198
sg186
S'VGF'
p202
sg188
I-1
sg189
I12
sg190
(lp203
sbsS'VGF'
p204
(issf_api
Node
p205
(dp206
g183
S'None'
p207
sg185
g204
sg186
g207
sg188
I-1
sg189
I14
sg190
(lp208
sbsS'CCP'
p209
(issf_api
Node
p210
(dp211
g183
S'rt'
p212
sg185
g209
sg186
S'VGNF'
p213
sg188
I-1
sg189
I3
sg190
(lp214
sbsS'NP5'
p215
(issf_api
Node
p216
(dp217
g183
S'pof'
p218
sg185
g215
sg186
S'VGNF'
p219
sg188
I-1
sg189
I5
sg190
(lp220
sbsS'NP9'
p221
(issf_api
Node
p222
(dp223
g183
S'k1'
p224
sg185
g221
sg186
S'VGF'
p225
sg188
I-1
sg189
I11
sg190
(lp226
sbsS'NP8'
p227
(issf_api
Node
p228
(dp229
g183
S'ccof'
p230
sg185
g227
sg186
S'CCP2'
p231
sg188
I-1
sg189
I10
sg190
(lp232
sbsS'BLK'
p233
(issf_api
Node
p234
(dp235
g183
S'rsym'
p236
sg185
g233
sg186
S'VGF'
p237
sg188
I-1
sg189
I15
sg190
(lp238
sbsS'NP'
p239
(issf_api
Node
p240
(dp241
g183
S'k7p'
p242
sg185
g239
sg186
S'VGNF'
p243
sg188
I-1
sg189
I0
sg190
(lp244
sbsS'NP4'
p245
(issf_api
Node
p246
(dp247
g183
S'ccof'
p248
sg185
g245
sg186
S'CCP'
p249
sg188
I-1
sg189
I4
sg190
(lp250
sbsS'NP7'
p251
(issf_api
Node
p252
(dp253
g183
S'ccof'
p254
sg185
g251
sg186
S'CCP2'
p255
sg188
I-1
sg189
I8
sg190
(lp256
sbsS'NP6'
p257
(issf_api
Node
p258
(dp259
g183
S'r6'
p260
sg185
g257
sg186
S'NP7'
p261
sg188
I-1
sg189
I7
sg190
(lp262
sbsS'CCP2'
p263
(issf_api
Node
p264
(dp265
g183
S'nmod'
p266
sg185
g263
sg186
S'NP9'
p267
sg188
I-1
sg189
I9
sg190
(lp268
sbsS'NP3'
p269
(issf_api
Node
p270
(dp271
g183
S'rs'
p272
sg185
g269
sg186
S'NP2'
p273
sg188
I-1
sg189
I2
sg190
(lp274
sbsS'NP2'
p275
(issf_api
Node
p276
(dp277
g183
S'ccof'
p278
sg185
g275
sg186
S'CCP'
p279
sg188
I-1
sg189
I1
sg190
(lp280
sbssS'chunkList'
p281
(lp282
(issf_api
Chunk
p283
(dp284
g185
g239
sg189
I0
sS'chunkTag'
p285
S'NP'
p286
sg175
I0
sg176
(lp287
I0
aI1
asS'featureSet'
p288
(issf_api
FeatureSet
p289
(dp290
S'featureDict'
p291
(dp292
S'drel'
p293
S'k7p:VGNF'
p294
sS'name'
p295
g239
ssbsba(issf_api
Chunk
p296
(dp297
g185
g275
sg189
I1
sg285
S'NP'
p298
sg175
I0
sg176
(lp299
I2
aI3
aI4
asg288
(issf_api
FeatureSet
p300
(dp301
g291
(dp302
S'drel'
p303
S'ccof:CCP'
p304
sS'name'
p305
g275
ssbsba(issf_api
Chunk
p306
(dp307
g185
g269
sg189
I2
sg285
S'NP'
p308
sg175
I0
sg176
(lp309
I5
aI6
aI7
asg288
(issf_api
FeatureSet
p310
(dp311
g291
(dp312
S'drel'
p313
S'rs:NP2'
p314
sS'name'
p315
g269
ssbsba(issf_api
Chunk
p316
(dp317
g185
g209
sg189
I3
sg285
S'CCP'
p318
sg175
I0
sg176
(lp319
I8
asg288
(issf_api
FeatureSet
p320
(dp321
g291
(dp322
S'drel'
p323
S'rt:VGNF'
p324
sS'name'
p325
g209
ssbsba(issf_api
Chunk
p326
(dp327
g185
g245
sg189
I4
sg285
S'NP'
p328
sg175
I0
sg176
(lp329
I9
aI10
aI11
aI12
asg288
(issf_api
FeatureSet
p330
(dp331
g291
(dp332
S'drel'
p333
S'ccof:CCP'
p334
sS'name'
p335
g245
ssbsba(issf_api
Chunk
p336
(dp337
g185
g215
sg189
I5
sg285
S'NP'
p338
sg175
I0
sg176
(lp339
I13
aI14
asg288
(issf_api
FeatureSet
p340
(dp341
g291
(dp342
S'drel'
p343
S'pof:VGNF'
p344
sS'name'
p345
g215
ssbsba(issf_api
Chunk
p346
(dp347
g185
g180
sg189
I6
sg285
S'VGNF'
p348
sg175
I0
sg176
(lp349
I15
aI16
asg288
(issf_api
FeatureSet
p350
(dp351
g291
(dp352
S'drel'
p353
S'nmod__k1inv:NP9'
p354
sS'name'
p355
g180
ssbsba(issf_api
Chunk
p356
(dp357
g185
g257
sg189
I7
sg285
S'NP'
p358
sg175
I0
sg176
(lp359
I17
aI18
asg288
(issf_api
FeatureSet
p360
(dp361
g291
(dp362
S'drel'
p363
S'r6:NP7'
p364
sS'name'
p365
g257
ssbsba(issf_api
Chunk
p366
(dp367
g185
g251
sg189
I8
sg285
S'NP'
p368
sg175
I0
sg176
(lp369
I19
asg288
(issf_api
FeatureSet
p370
(dp371
g291
(dp372
S'drel'
p373
S'ccof:CCP2'
p374
sS'name'
p375
g251
ssbsba(issf_api
Chunk
p376
(dp377
g185
g263
sg189
I9
sg285
S'CCP'
p378
sg175
I0
sg176
(lp379
I20
asg288
(issf_api
FeatureSet
p380
(dp381
g291
(dp382
S'drel'
p383
S'nmod:NP9'
p384
sS'name'
p385
g263
ssbsba(issf_api
Chunk
p386
(dp387
g185
g227
sg189
I10
sg285
S'NP'
p388
sg175
I0
sg176
(lp389
I21
aI22
asg288
(issf_api
FeatureSet
p390
(dp391
g291
(dp392
S'drel'
p393
S'ccof:CCP2'
p394
sS'name'
p395
g227
ssbsba(issf_api
Chunk
p396
(dp397
g185
g221
sg189
I11
sg285
S'NP'
p398
sg175
I0
sg176
(lp399
I23
aI24
asg288
(issf_api
FeatureSet
p400
(dp401
g291
(dp402
S'drel'
p403
S'k1:VGF'
p404
sS'name'
p405
g221
ssbsba(issf_api
Chunk
p406
(dp407
g185
g198
sg189
I12
sg285
S'NP'
p408
sg175
I0
sg176
(lp409
I25
aI26
asg288
(issf_api
FeatureSet
p410
(dp411
g291
(dp412
S'drel'
p413
S'k7:VGF'
p414
sS'name'
p415
g198
ssbsba(issf_api
Chunk
p416
(dp417
g185
g192
sg189
I13
sg285
S'NP'
p418
sg175
I0
sg176
(lp419
I27
aI28
aI29
asg288
(issf_api
FeatureSet
p420
(dp421
g291
(dp422
S'drel'
p423
S'k7:VGF'
p424
sS'name'
p425
g192
ssbsba(issf_api
Chunk
p426
(dp427
g185
g204
sg189
I14
sg285
S'VGF'
p428
sg175
I0
sg176
(lp429
I30
asg288
(issf_api
FeatureSet
p430
(dp431
g291
(dp432
S'name'
p433
g204
sS'stype'
p434
S'declarative'
p435
sS'voicetype'
p436
S'active'
p437
ssbsba(issf_api
Chunk
p438
(dp439
g185
g233
sg189
I15
sg285
S'BLK'
p440
sg175
I0
sg176
(lp441
I31
asg288
(issf_api
FeatureSet
p442
(dp443
g291
(dp444
S'drel'
p445
S'rsym:VGF'
p446
sS'name'
p447
g233
ssbsbasba(issf_api
Sentence
p448
(dp449
g173
(lp450
sg175
I1
sg176
(lp451
I32
aI33
aI34
aI35
aI36
aI37
aI38
aI39
aI40
aI41
aI42
aI43
aI44
aI45
aI46
aI47
aI48
aI49
aI50
aI51
aI52
aI53
aI54
aI55
aI56
aI57
aI58
aI59
aI60
aI61
aI62
aI63
aI64
aI65
aI66
aI67
aI68
aI69
aI70
aI71
asg178
(dp452
S'VGF2'
p453
(issf_api
Node
p454
(dp455
g183
S'ccof'
p456
sg185
g453
sg186
S'CCP'
p457
sg188
I-1
sg189
I18
sg190
(lp458
sbsS'NP11'
p459
(issf_api
Node
p460
(dp461
g183
S'k4'
p462
sg185
g459
sg186
S'VGF2'
p463
sg188
I-1
sg189
I13
sg190
(lp464
sbsS'NP10'
p465
(issf_api
Node
p466
(dp467
g183
S'nmod'
p468
sg185
g465
sg186
S'NP11'
p469
sg188
I-1
sg189
I12
sg190
(lp470
sbsS'VGF'
p471
(issf_api
Node
p472
(dp473
g183
S'ccof'
p474
sg185
g471
sg186
S'CCP'
p475
sg188
I-1
sg189
I7
sg190
(lp476
sbsS'NP12'
p477
(issf_api
Node
p478
(dp479
g183
S'r6'
p480
sg185
g477
sg186
S'NP13'
p481
sg188
I-1
sg189
I14
sg190
(lp482
sbsS'NP15'
p483
(issf_api
Node
p484
(dp485
g183
S'pof'
p486
sg185
g483
sg186
S'VGF2'
p487
sg188
I-1
sg189
I17
sg190
(lp488
sbsS'CCP'
p489
(issf_api
Node
p490
(dp491
g183
g207
sg185
g489
sg186
g207
sg188
I-1
sg189
I8
sg190
(lp492
sbsS'NP14'
p493
(issf_api
Node
p494
(dp495
g183
S'nmod'
p496
sg185
g493
sg186
S'NP15'
p497
sg188
I-1
sg189
I16
sg190
(lp498
sbsS'NP5'
p499
(issf_api
Node
p500
(dp501
g183
S'k2'
p502
sg185
g499
sg186
S'VGF'
p503
sg188
I-1
sg189
I4
sg190
(lp504
sbsS'NP9'
p505
(issf_api
Node
p506
(dp507
g183
S'rs'
p508
sg185
g505
sg186
S'NP8'
p509
sg188
I-1
sg189
I10
sg190
(lp510
sbsS'NP8'
p511
(issf_api
Node
p512
(dp513
g183
S'r6'
p514
sg185
g511
sg186
S'NP10'
p515
sg188
I-1
sg189
I9
sg190
(lp516
sbsS'BLK'
p517
(issf_api
Node
p518
(dp519
g183
S'rsym'
p520
sg185
g517
sg186
S'CCP'
p521
sg188
I-1
sg189
I19
sg190
(lp522
sbsS'FRAGP'
p523
(issf_api
Node
p524
(dp525
g183
S'fragof'
p526
sg185
g523
sg186
S'NP8'
p527
sg188
I-1
sg189
I11
sg190
(lp528
sbsS'NP'
p529
(issf_api
Node
p530
(dp531
g183
S'k1'
p532
sg185
g529
sg186
S'VGF'
p533
sg188
I-1
sg189
I0
sg190
(lp534
sbsS'NP4'
p535
(issf_api
Node
p536
(dp537
g183
S'nmod'
p538
sg185
g535
sg186
S'NP5'
p539
sg188
I-1
sg189
I3
sg190
(lp540
sbsS'NP7'
p541
(issf_api
Node
p542
(dp543
g183
S'k2s'
p544
sg185
g541
sg186
S'VGF'
p545
sg188
I-1
sg189
I6
sg190
(lp546
sbsS'NP6'
p547
(issf_api
Node
p548
(dp549
g183
S'k2u'
p550
sg185
g547
sg186
S'VGF'
p551
sg188
I-1
sg189
I5
sg190
(lp552
sbsS'NP13'
p553
(issf_api
Node
p554
(dp555
g183
S'nmod'
p556
sg185
g553
sg186
S'NP14'
p557
sg188
I-1
sg189
I15
sg190
(lp558
sbsS'NP3'
p559
(issf_api
Node
p560
(dp561
g183
S'r6'
p562
sg185
g559
sg186
S'NP4'
p563
sg188
I-1
sg189
I2
sg190
(lp564
sbsS'NP2'
p565
(issf_api
Node
p566
(dp567
g183
S'r6'
p568
sg185
g565
sg186
S'NP3'
p569
sg188
I-1
sg189
I1
sg190
(lp570
sbssg281
(lp571
(issf_api
Chunk
p572
(dp573
g185
g529
sg189
I0
sg285
S'NP'
p574
sg175
I1
sg176
(lp575
I32
asg288
(issf_api
FeatureSet
p576
(dp577
g291
(dp578
S'drel'
p579
S'k1:VGF'
p580
sS'name'
p581
g529
ssbsba(issf_api
Chunk
p582
(dp583
g185
g565
sg189
I1
sg285
S'NP'
p584
sg175
I1
sg176
(lp585
I33
aI34
asg288
(issf_api
FeatureSet
p586
(dp587
g291
(dp588
S'drel'
p589
S'r6:NP3'
p590
sS'name'
p591
g565
ssbsba(issf_api
Chunk
p592
(dp593
g185
g559
sg189
I2
sg285
S'NP'
p594
sg175
I1
sg176
(lp595
I35
aI36
aI37
asg288
(issf_api
FeatureSet
p596
(dp597
g291
(dp598
S'drel'
p599
S'r6:NP4'
p600
sS'name'
p601
g559
ssbsba(issf_api
Chunk
p602
(dp603
g185
g535
sg189
I3
sg285
S'NP'
p604
sg175
I1
sg176
(lp605
I38
asg288
(issf_api
FeatureSet
p606
(dp607
g291
(dp608
S'drel'
p609
S'nmod:NP5'
p610
sS'name'
p611
g535
ssbsba(issf_api
Chunk
p612
(dp613
g185
g499
sg189
I4
sg285
S'NP'
p614
sg175
I1
sg176
(lp615
I39
aI40
aI41
asg288
(issf_api
FeatureSet
p616
(dp617
g291
(dp618
S'drel'
p619
S'k2:VGF'
p620
sS'name'
p621
g499
ssbsba(issf_api
Chunk
p622
(dp623
g185
g547
sg189
I5
sg285
S'NP'
p624
sg175
I1
sg176
(lp625
I42
aI43
aI44
aI45
asg288
(issf_api
FeatureSet
p626
(dp627
g291
(dp628
S'drel'
p629
S'k2u:VGF'
p630
sS'name'
p631
g547
ssbsba(issf_api
Chunk
p632
(dp633
g185
g541
sg189
I6
sg285
S'NP'
p634
sg175
I1
sg176
(lp635
I46
aI47
asg288
(issf_api
FeatureSet
p636
(dp637
g291
(dp638
S'drel'
p639
S'k2s:VGF'
p640
sS'name'
p641
g541
ssbsba(issf_api
Chunk
p642
(dp643
g185
g471
sg189
I7
sg285
S'VGF'
p644
sg175
I1
sg176
(lp645
I48
aI49
asg288
(issf_api
FeatureSet
p646
(dp647
g291
(dp648
S'voicetype'
p649
S'active'
p650
sS'drel'
p651
S'ccof:CCP'
p652
sS'stype'
p653
S'declarative'
p654
sS'name'
p655
g471
ssbsba(issf_api
Chunk
p656
(dp657
g185
g489
sg189
I8
sg285
S'CCP'
p658
sg175
I1
sg176
(lp659
I50
asg288
(issf_api
FeatureSet
p660
(dp661
g291
(dp662
S'name'
p663
g489
ssbsba(issf_api
Chunk
p664
(dp665
g185
g511
sg189
I9
sg285
S'NP'
p666
sg175
I1
sg176
(lp667
I51
aI52
aI53
asg288
(issf_api
FeatureSet
p668
(dp669
g291
(dp670
S'drel'
p671
S'r6:NP10'
p672
sS'name'
p673
g511
ssbsba(issf_api
Chunk
p674
(dp675
g185
g505
sg189
I10
sg285
S'NP'
p676
sg175
I1
sg176
(lp677
I54
aI55
aI56
asg288
(issf_api
FeatureSet
p678
(dp679
g291
(dp680
S'drel'
p681
S'rs:NP8'
p682
sS'name'
p683
g505
ssbsba(issf_api
Chunk
p684
(dp685
g185
g523
sg189
I11
sg285
S'FRAGP'
p686
sg175
I1
sg176
(lp687
I57
asg288
(issf_api
FeatureSet
p688
(dp689
g291
(dp690
S'drel'
p691
S'fragof:NP8'
p692
sS'name'
p693
g523
ssbsba(issf_api
Chunk
p694
(dp695
g185
g465
sg189
I12
sg285
S'NP'
p696
sg175
I1
sg176
(lp697
I58
asg288
(issf_api
FeatureSet
p698
(dp699
g291
(dp700
S'drel'
p701
S'nmod:NP11'
p702
sS'name'
p703
g465
ssbsba(issf_api
Chunk
p704
(dp705
g185
g459
sg189
I13
sg285
S'NP'
p706
sg175
I1
sg176
(lp707
I59
aI60
aI61
asg288
(issf_api
FeatureSet
p708
(dp709
g291
(dp710
S'drel'
p711
S'k4:VGF2'
p712
sS'name'
p713
g459
ssbsba(issf_api
Chunk
p714
(dp715
g185
g477
sg189
I14
sg285
S'NP'
p716
sg175
I1
sg176
(lp717
I62
aI63
asg288
(issf_api
FeatureSet
p718
(dp719
g291
(dp720
S'drel'
p721
S'r6:NP13'
p722
sS'name'
p723
g477
ssbsba(issf_api
Chunk
p724
(dp725
g185
g553
sg189
I15
sg285
S'NP'
p726
sg175
I1
sg176
(lp727
I64
aI65
asg288
(issf_api
FeatureSet
p728
(dp729
g291
(dp730
S'drel'
p731
S'nmod:NP14'
p732
sS'name'
p733
g553
ssbsba(issf_api
Chunk
p734
(dp735
g185
g493
sg189
I16
sg285
S'NP'
p736
sg175
I1
sg176
(lp737
I66
aI67
aI68
asg288
(issf_api
FeatureSet
p738
(dp739
g291
(dp740
S'drel'
p741
S'nmod:NP15'
p742
sS'name'
p743
g493
ssbsba(issf_api
Chunk
p744
(dp745
g185
g483
sg189
I17
sg285
S'NP'
p746
sg175
I1
sg176
(lp747
I69
asg288
(issf_api
FeatureSet
p748
(dp749
g291
(dp750
S'drel'
p751
S'pof:VGF2'
p752
sS'name'
p753
g483
ssbsba(issf_api
Chunk
p754
(dp755
g185
g453
sg189
I18
sg285
S'VGF'
p756
sg175
I1
sg176
(lp757
I70
asg288
(issf_api
FeatureSet
p758
(dp759
g291
(dp760
S'voicetype'
p761
S'active'
p762
sS'drel'
p763
S'ccof:CCP'
p764
sS'stype'
p765
S'declarative'
p766
sS'name'
p767
g453
ssbsba(issf_api
Chunk
p768
(dp769
g185
g517
sg189
I19
sg285
S'BLK'
p770
sg175
I1
sg176
(lp771
I71
asg288
(issf_api
FeatureSet
p772
(dp773
g291
(dp774
S'drel'
p775
S'rsym:CCP'
p776
sS'name'
p777
g517
ssbsbasba(issf_api
Sentence
p778
(dp779
g173
(lp780
sg175
I2
sg176
(lp781
I72
aI73
aI74
aI75
aI76
aI77
aI78
aI79
aI80
aI81
aI82
aI83
aI84
aI85
aI86
aI87
aI88
aI89
aI90
aI91
aI92
aI93
aI94
aI95
aI96
aI97
aI98
asg178
(dp782
S'VGF'
p783
(issf_api
Node
p784
(dp785
g183
g207
sg185
g783
sg186
g207
sg188
I-1
sg189
I3
sg190
(lp786
sbsS'CCP'
p787
(issf_api
Node
p788
(dp789
g183
S'k2'
p790
sg185
g787
sg186
S'VGF'
p791
sg188
I-1
sg189
I4
sg190
(lp792
sbsS'VGF2'
p793
(issf_api
Node
p794
(dp795
g183
S'ccof'
p796
sg185
g793
sg186
S'CCP'
p797
sg188
I-1
sg189
I12
sg190
(lp798
sbsS'NP5'
p799
(issf_api
Node
p800
(dp801
g183
S'k7'
p802
sg185
g799
sg186
S'VGF2'
p803
sg188
I-1
sg189
I6
sg190
(lp804
sbsS'NP9'
p805
(issf_api
Node
p806
(dp807
g183
S'k1'
p808
sg185
g805
sg186
S'VGF2'
p809
sg188
I-1
sg189
I11
sg190
(lp810
sbsS'NP8'
p811
(issf_api
Node
p812
(dp813
g183
S'ccof'
p814
sg185
g811
sg186
S'CCP2'
p815
sg188
I-1
sg189
I10
sg190
(lp816
sbsS'BLK'
p817
(issf_api
Node
p818
(dp819
g183
S'rsym'
p820
sg185
g817
sg186
S'VGF'
p821
sg188
I-1
sg189
I13
sg190
(lp822
sbsS'NP'
p823
(issf_api
Node
p824
(dp825
g183
S'k1'
p826
sg185
g823
sg186
S'VGF'
p827
sg188
I-1
sg189
I0
sg190
(lp828
sbsS'NP4'
p829
(issf_api
Node
p830
(dp831
g183
S'r6'
p832
sg185
g829
sg186
S'NP5'
p833
sg188
I-1
sg189
I5
sg190
(lp834
sbsS'NP7'
p835
(issf_api
Node
p836
(dp837
g183
S'nmod'
p838
sg185
g835
sg186
S'NP6'
p839
sg188
I-1
sg189
I8
sg190
(lp840
sbsS'NP6'
p841
(issf_api
Node
p842
(dp843
g183
S'ccof'
p844
sg185
g841
sg186
S'CCP2'
p845
sg188
I-1
sg189
I7
sg190
(lp846
sbsS'CCP2'
p847
(issf_api
Node
p848
(dp849
g183
S'k7'
p850
sg185
g847
sg186
S'VGF2'
p851
sg188
I-1
sg189
I9
sg190
(lp852
sbsS'NP3'
p853
(issf_api
Node
p854
(dp855
g183
S'k7t'
p856
sg185
g853
sg186
S'VGF'
p857
sg188
I-1
sg189
I2
sg190
(lp858
sbsS'NP2'
p859
(issf_api
Node
p860
(dp861
g183
S'k7p'
p862
sg185
g859
sg186
S'VGF'
p863
sg188
I-1
sg189
I1
sg190
(lp864
sbssg281
(lp865
(issf_api
Chunk
p866
(dp867
g185
g823
sg189
I0
sg285
S'NP'
p868
sg175
I2
sg176
(lp869
I72
aI73
asg288
(issf_api
FeatureSet
p870
(dp871
g291
(dp872
S'drel'
p873
S'k1:VGF'
p874
sS'name'
p875
g823
ssbsba(issf_api
Chunk
p876
(dp877
g185
g859
sg189
I1
sg285
S'NP'
p878
sg175
I2
sg176
(lp879
I74
aI75
asg288
(issf_api
FeatureSet
p880
(dp881
g291
(dp882
S'drel'
p883
S'k7p:VGF'
p884
sS'name'
p885
g859
ssbsba(issf_api
Chunk
p886
(dp887
g185
g853
sg189
I2
sg285
S'NP'
p888
sg175
I2
sg176
(lp889
I76
aI77
asg288
(issf_api
FeatureSet
p890
(dp891
g291
(dp892
S'drel'
p893
S'k7t:VGF'
p894
sS'name'
p895
g853
ssbsba(issf_api
Chunk
p896
(dp897
g185
g783
sg189
I3
sg285
S'VGF'
p898
sg175
I2
sg176
(lp899
I78
asg288
(issf_api
FeatureSet
p900
(dp901
g291
(dp902
S'name'
p903
g783
sS'stype'
p904
S'declarative'
p905
sS'voicetype'
p906
S'active'
p907
ssbsba(issf_api
Chunk
p908
(dp909
g185
g787
sg189
I4
sg285
S'CCP'
p910
sg175
I2
sg176
(lp911
I79
asg288
(issf_api
FeatureSet
p912
(dp913
g291
(dp914
S'drel'
p915
S'k2:VGF'
p916
sS'name'
p917
g787
ssbsba(issf_api
Chunk
p918
(dp919
g185
g829
sg189
I5
sg285
S'NP'
p920
sg175
I2
sg176
(lp921
I80
aI81
aI82
asg288
(issf_api
FeatureSet
p922
(dp923
g291
(dp924
S'drel'
p925
S'r6:NP5'
p926
sS'name'
p927
g829
ssbsba(issf_api
Chunk
p928
(dp929
g185
g799
sg189
I6
sg285
S'NP'
p930
sg175
I2
sg176
(lp931
I83
aI84
asg288
(issf_api
FeatureSet
p932
(dp933
g291
(dp934
S'drel'
p935
S'k7:VGF2'
p936
sS'name'
p937
g799
ssbsba(issf_api
Chunk
p938
(dp939
g185
g841
sg189
I7
sg285
S'NP'
p940
sg175
I2
sg176
(lp941
I85
aI86
asg288
(issf_api
FeatureSet
p942
(dp943
g291
(dp944
S'drel'
p945
S'ccof:CCP2'
p946
sS'name'
p947
g841
ssbsba(issf_api
Chunk
p948
(dp949
g185
g835
sg189
I8
sg285
S'NP'
p950
sg175
I2
sg176
(lp951
I87
aI88
aI89
asg288
(issf_api
FeatureSet
p952
(dp953
g291
(dp954
S'drel'
p955
S'nmod:NP6'
p956
sS'name'
p957
g835
ssbsba(issf_api
Chunk
p958
(dp959
g185
g847
sg189
I9
sg285
S'CCP'
p960
sg175
I2
sg176
(lp961
I90
asg288
(issf_api
FeatureSet
p962
(dp963
g291
(dp964
S'drel'
p965
S'k7:VGF2'
p966
sS'name'
p967
g847
ssbsba(issf_api
Chunk
p968
(dp969
g185
g811
sg189
I10
sg285
S'NP'
p970
sg175
I2
sg176
(lp971
I91
aI92
aI93
aI94
aI95
asg288
(issf_api
FeatureSet
p972
(dp973
g291
(dp974
S'drel'
p975
S'ccof:CCP2'
p976
sS'name'
p977
g811
ssbsba(issf_api
Chunk
p978
(dp979
g185
g805
sg189
I11
sg285
S'NP'
p980
sg175
I2
sg176
(lp981
I96
asg288
(issf_api
FeatureSet
p982
(dp983
g291
(dp984
S'drel'
p985
S'k1:VGF2'
p986
sS'name'
p987
g805
ssbsba(issf_api
Chunk
p988
(dp989
g185
g793
sg189
I12
sg285
S'VGF'
p990
sg175
I2
sg176
(lp991
I97
asg288
(issf_api
FeatureSet
p992
(dp993
g291
(dp994
S'voicetype'
p995
S'active'
p996
sS'drel'
p997
S'ccof:CCP'
p998
sS'stype'
p999
S'declarative'
p1000
sS'name'
p1001
g793
ssbsba(issf_api
Chunk
p1002
(dp1003
g185
g817
sg189
I13
sg285
S'BLK'
p1004
sg175
I2
sg176
(lp1005
I98
asg288
(issf_api
FeatureSet
p1006
(dp1007
g291
(dp1008
S'drel'
p1009
S'rsym:VGF'
p1010
sS'name'
p1011
g817
ssbsbasba(issf_api
Sentence
p1012
(dp1013
g173
(lp1014
sg175
I3
sg176
(lp1015
I99
aI100
aI101
aI102
aI103
aI104
asg178
(dp1016
S'NP'
p1017
(issf_api
Node
p1018
(dp1019
g183
S'k7'
p1020
sg185
g1017
sg186
S'VGF'
p1021
sg188
I-1
sg189
I0
sg190
(lp1022
sbsS'VGF'
p1023
(issf_api
Node
p1024
(dp1025
g183
g207
sg185
g1023
sg186
g207
sg188
I-1
sg189
I3
sg190
(lp1026
sbsS'BLK'
p1027
(issf_api
Node
p1028
(dp1029
g183
S'rsym'
p1030
sg185
g1027
sg186
S'VGF'
p1031
sg188
I-1
sg189
I4
sg190
(lp1032
sbsS'NP3'
p1033
(issf_api
Node
p1034
(dp1035
g183
S'r6-k1'
p1036
sg185
g1033
sg186
S'NP2'
p1037
sg188
I-1
sg189
I2
sg190
(lp1038
sbsS'NP2'
p1039
(issf_api
Node
p1040
(dp1041
g183
S'pof'
p1042
sg185
g1039
sg186
S'VGF'
p1043
sg188
I-1
sg189
I1
sg190
(lp1044
sbssg281
(lp1045
(issf_api
Chunk
p1046
(dp1047
g185
g1017
sg189
I0
sg285
S'NP'
p1048
sg175
I3
sg176
(lp1049
I99
asg288
(issf_api
FeatureSet
p1050
(dp1051
g291
(dp1052
S'drel'
p1053
S'k7:VGF'
p1054
sS'name'
p1055
g1017
ssbsba(issf_api
Chunk
p1056
(dp1057
g185
g1039
sg189
I1
sg285
S'NP'
p1058
sg175
I3
sg176
(lp1059
I100
asg288
(issf_api
FeatureSet
p1060
(dp1061
g291
(dp1062
S'drel'
p1063
S'pof:VGF'
p1064
sS'name'
p1065
g1039
ssbsba(issf_api
Chunk
p1066
(dp1067
g185
g1033
sg189
I2
sg285
S'NP'
p1068
sg175
I3
sg176
(lp1069
I101
aI102
asg288
(issf_api
FeatureSet
p1070
(dp1071
g291
(dp1072
S'drel'
p1073
S'r6-k1:NP2'
p1074
sS'name'
p1075
g1033
ssbsba(issf_api
Chunk
p1076
(dp1077
g185
g1023
sg189
I3
sg285
S'VGF'
p1078
sg175
I3
sg176
(lp1079
I103
asg288
(issf_api
FeatureSet
p1080
(dp1081
g291
(dp1082
S'name'
p1083
g1023
sS'stype'
p1084
S'declarative'
p1085
sS'voicetype'
p1086
S'active'
p1087
ssbsba(issf_api
Chunk
p1088
(dp1089
g185
g1027
sg189
I4
sg285
S'BLK'
p1090
sg175
I3
sg176
(lp1091
I104
asg288
(issf_api
FeatureSet
p1092
(dp1093
g291
(dp1094
S'drel'
p1095
S'rsym:VGF'
p1096
sS'name'
p1097
g1027
ssbsbasba(issf_api
Sentence
p1098
(dp1099
g173
(lp1100
sg175
I4
sg176
(lp1101
I105
aI106
aI107
aI108
aI109
aI110
aI111
aI112
aI113
aI114
aI115
aI116
aI117
aI118
asg178
(dp1102
S'VGF'
p1103
(issf_api
Node
p1104
(dp1105
g183
g207
sg185
g1103
sg186
g207
sg188
I-1
sg189
I1
sg190
(lp1106
sbsS'CCP'
p1107
(issf_api
Node
p1108
(dp1109
g183
S'k2'
p1110
sg185
g1107
sg186
S'VGF'
p1111
sg188
I-1
sg189
I2
sg190
(lp1112
sbsS'VGF2'
p1113
(issf_api
Node
p1114
(dp1115
g183
S'ccof'
p1116
sg185
g1113
sg186
S'CCP'
p1117
sg188
I-1
sg189
I7
sg190
(lp1118
sbsS'NP5'
p1119
(issf_api
Node
p1120
(dp1121
g183
S'k2'
p1122
sg185
g1119
sg186
S'VGF2'
p1123
sg188
I-1
sg189
I6
sg190
(lp1124
sbsS'BLK'
p1125
(issf_api
Node
p1126
(dp1127
g183
S'rsym'
p1128
sg185
g1125
sg186
S'VGF'
p1129
sg188
I-1
sg189
I8
sg190
(lp1130
sbsS'NP'
p1131
(issf_api
Node
p1132
(dp1133
g183
S'k1'
p1134
sg185
g1131
sg186
S'VGF'
p1135
sg188
I-1
sg189
I0
sg190
(lp1136
sbsS'NP4'
p1137
(issf_api
Node
p1138
(dp1139
g183
S'r6'
p1140
sg185
g1137
sg186
S'NP5'
p1141
sg188
I-1
sg189
I5
sg190
(lp1142
sbsS'NP3'
p1143
(issf_api
Node
p1144
(dp1145
g183
S'k7'
p1146
sg185
g1143
sg186
S'VGF2'
p1147
sg188
I-1
sg189
I4
sg190
(lp1148
sbsS'NP2'
p1149
(issf_api
Node
p1150
(dp1151
g183
S'k1'
p1152
sg185
g1149
sg186
S'VGF2'
p1153
sg188
I-1
sg189
I3
sg190
(lp1154
sbssg281
(lp1155
(issf_api
Chunk
p1156
(dp1157
g185
g1131
sg189
I0
sg285
S'NP'
p1158
sg175
I4
sg176
(lp1159
I105
asg288
(issf_api
FeatureSet
p1160
(dp1161
g291
(dp1162
S'drel'
p1163
S'k1:VGF'
p1164
sS'name'
p1165
g1131
ssbsba(issf_api
Chunk
p1166
(dp1167
g185
g1103
sg189
I1
sg285
S'VGF'
p1168
sg175
I4
sg176
(lp1169
I106
asg288
(issf_api
FeatureSet
p1170
(dp1171
g291
(dp1172
S'name'
p1173
g1103
sS'stype'
p1174
S'declarative'
p1175
sS'voicetype'
p1176
S'active'
p1177
ssbsba(issf_api
Chunk
p1178
(dp1179
g185
g1107
sg189
I2
sg285
S'CCP'
p1180
sg175
I4
sg176
(lp1181
I107
asg288
(issf_api
FeatureSet
p1182
(dp1183
g291
(dp1184
S'drel'
p1185
S'k2:VGF'
p1186
sS'name'
p1187
g1107
ssbsba(issf_api
Chunk
p1188
(dp1189
g185
g1149
sg189
I3
sg285
S'NP'
p1190
sg175
I4
sg176
(lp1191
I108
asg288
(issf_api
FeatureSet
p1192
(dp1193
g291
(dp1194
S'drel'
p1195
S'k1:VGF2'
p1196
sS'name'
p1197
g1149
ssbsba(issf_api
Chunk
p1198
(dp1199
g185
g1143
sg189
I4
sg285
S'NP'
p1200
sg175
I4
sg176
(lp1201
I109
aI110
aI111
asg288
(issf_api
FeatureSet
p1202
(dp1203
g291
(dp1204
S'drel'
p1205
S'k7:VGF2'
p1206
sS'name'
p1207
g1143
ssbsba(issf_api
Chunk
p1208
(dp1209
g185
g1137
sg189
I5
sg285
S'NP'
p1210
sg175
I4
sg176
(lp1211
I112
aI113
asg288
(issf_api
FeatureSet
p1212
(dp1213
g291
(dp1214
S'drel'
p1215
S'r6:NP5'
p1216
sS'name'
p1217
g1137
ssbsba(issf_api
Chunk
p1218
(dp1219
g185
g1119
sg189
I6
sg285
S'NP'
p1220
sg175
I4
sg176
(lp1221
I114
aI115
asg288
(issf_api
FeatureSet
p1222
(dp1223
g291
(dp1224
S'drel'
p1225
S'k2:VGF2'
p1226
sS'name'
p1227
g1119
ssbsba(issf_api
Chunk
p1228
(dp1229
g185
g1113
sg189
I7
sg285
S'VGF'
p1230
sg175
I4
sg176
(lp1231
I116
aI117
asg288
(issf_api
FeatureSet
p1232
(dp1233
g291
(dp1234
S'voicetype'
p1235
S'active'
p1236
sS'drel'
p1237
S'ccof:CCP'
p1238
sS'stype'
p1239
S'declarative'
p1240
sS'name'
p1241
g1113
ssbsba(issf_api
Chunk
p1242
(dp1243
g185
g1125
sg189
I8
sg285
S'BLK'
p1244
sg175
I4
sg176
(lp1245
I118
asg288
(issf_api
FeatureSet
p1246
(dp1247
g291
(dp1248
S'drel'
p1249
S'rsym:VGF'
p1250
sS'name'
p1251
g1125
ssbsbasba(issf_api
Sentence
p1252
(dp1253
g173
(lp1254
sg175
I5
sg176
(lp1255
I119
aI120
aI121
aI122
aI123
aI124
aI125
aI126
aI127
aI128
aI129
asg178
(dp1256
S'VGF'
p1257
(issf_api
Node
p1258
(dp1259
g183
g207
sg185
g1257
sg186
g207
sg188
I-1
sg189
I4
sg190
(lp1260
sbsS'BLK'
p1261
(issf_api
Node
p1262
(dp1263
g183
S'rsym'
p1264
sg185
g1261
sg186
S'VGF'
p1265
sg188
I-1
sg189
I5
sg190
(lp1266
sbsS'NP'
p1267
(issf_api
Node
p1268
(dp1269
g183
S'rt'
p1270
sg185
g1267
sg186
S'VGF'
p1271
sg188
I-1
sg189
I0
sg190
(lp1272
sbsS'NP4'
p1273
(issf_api
Node
p1274
(dp1275
g183
S'k2'
p1276
sg185
g1273
sg186
S'VGF'
p1277
sg188
I-1
sg189
I3
sg190
(lp1278
sbsS'NP3'
p1279
(issf_api
Node
p1280
(dp1281
g183
S'r6'
p1282
sg185
g1279
sg186
S'NP4'
p1283
sg188
I-1
sg189
I2
sg190
(lp1284
sbsS'NP2'
p1285
(issf_api
Node
p1286
(dp1287
g183
S'k4'
p1288
sg185
g1285
sg186
S'VGF'
p1289
sg188
I-1
sg189
I1
sg190
(lp1290
sbssg281
(lp1291
(issf_api
Chunk
p1292
(dp1293
g185
g1267
sg189
I0
sg285
S'NP'
p1294
sg175
I5
sg176
(lp1295
I119
asg288
(issf_api
FeatureSet
p1296
(dp1297
g291
(dp1298
S'drel'
p1299
S'rt:VGF'
p1300
sS'name'
p1301
g1267
ssbsba(issf_api
Chunk
p1302
(dp1303
g185
g1285
sg189
I1
sg285
S'NP'
p1304
sg175
I5
sg176
(lp1305
I120
asg288
(issf_api
FeatureSet
p1306
(dp1307
g291
(dp1308
S'drel'
p1309
S'k4:VGF'
p1310
sS'name'
p1311
g1285
ssbsba(issf_api
Chunk
p1312
(dp1313
g185
g1279
sg189
I2
sg285
S'NP'
p1314
sg175
I5
sg176
(lp1315
I121
aI122
aI123
asg288
(issf_api
FeatureSet
p1316
(dp1317
g291
(dp1318
S'drel'
p1319
S'r6:NP4'
p1320
sS'name'
p1321
g1279
ssbsba(issf_api
Chunk
p1322
(dp1323
g185
g1273
sg189
I3
sg285
S'NP'
p1324
sg175
I5
sg176
(lp1325
I124
asg288
(issf_api
FeatureSet
p1326
(dp1327
g291
(dp1328
S'drel'
p1329
S'k2:VGF'
p1330
sS'name'
p1331
g1273
ssbsba(issf_api
Chunk
p1332
(dp1333
g185
g1257
sg189
I4
sg285
S'VGF'
p1334
sg175
I5
sg176
(lp1335
I125
aI126
aI127
aI128
asg288
(issf_api
FeatureSet
p1336
(dp1337
g291
(dp1338
S'name'
p1339
g1257
sS'stype'
p1340
S'declarative'
p1341
sS'voicetype'
p1342
S'active'
p1343
ssbsba(issf_api
Chunk
p1344
(dp1345
g185
g1261
sg189
I5
sg285
S'BLK'
p1346
sg175
I5
sg176
(lp1347
I129
asg288
(issf_api
FeatureSet
p1348
(dp1349
g291
(dp1350
S'drel'
p1351
S'rsym:VGF'
p1352
sS'name'
p1353
g1261
ssbsbasba(issf_api
Sentence
p1354
(dp1355
g173
(lp1356
sg175
I6
sg176
(lp1357
I130
aI131
aI132
aI133
aI134
aI135
aI136
aI137
aI138
aI139
aI140
aI141
aI142
aI143
aI144
aI145
asg178
(dp1358
S'VGF'
p1359
(issf_api
Node
p1360
(dp1361
g183
g207
sg185
g1359
sg186
g207
sg188
I-1
sg189
I2
sg190
(lp1362
sbsS'CCP'
p1363
(issf_api
Node
p1364
(dp1365
g183
S'k2'
p1366
sg185
g1363
sg186
S'VGF'
p1367
sg188
I-1
sg189
I3
sg190
(lp1368
sbsS'VGF2'
p1369
(issf_api
Node
p1370
(dp1371
g183
S'ccof'
p1372
sg185
g1369
sg186
S'CCP'
p1373
sg188
I-1
sg189
I7
sg190
(lp1374
sbsS'NP5'
p1375
(issf_api
Node
p1376
(dp1377
g183
S'k1u'
p1378
sg185
g1375
sg186
S'VGF2'
p1379
sg188
I-1
sg189
I6
sg190
(lp1380
sbsS'BLK'
p1381
(issf_api
Node
p1382
(dp1383
g183
S'rsym'
p1384
sg185
g1381
sg186
S'VGF'
p1385
sg188
I-1
sg189
I8
sg190
(lp1386
sbsS'NP'
p1387
(issf_api
Node
p1388
(dp1389
g183
S'k7'
p1390
sg185
g1387
sg186
S'VGF'
p1391
sg188
I-1
sg189
I0
sg190
(lp1392
sbsS'NP4'
p1393
(issf_api
Node
p1394
(dp1395
g183
S'r6'
p1396
sg185
g1393
sg186
S'NP5'
p1397
sg188
I-1
sg189
I5
sg190
(lp1398
sbsS'NP3'
p1399
(issf_api
Node
p1400
(dp1401
g183
S'k1'
p1402
sg185
g1399
sg186
S'VGF2'
p1403
sg188
I-1
sg189
I4
sg190
(lp1404
sbsS'NP2'
p1405
(issf_api
Node
p1406
(dp1407
g183
S'k1'
p1408
sg185
g1405
sg186
S'VGF'
p1409
sg188
I-1
sg189
I1
sg190
(lp1410
sbssg281
(lp1411
(issf_api
Chunk
p1412
(dp1413
g185
g1387
sg189
I0
sg285
S'NP'
p1414
sg175
I6
sg176
(lp1415
I130
aI131
aI132
aI133
asg288
(issf_api
FeatureSet
p1416
(dp1417
g291
(dp1418
S'drel'
p1419
S'k7:VGF'
p1420
sS'name'
p1421
g1387
ssbsba(issf_api
Chunk
p1422
(dp1423
g185
g1405
sg189
I1
sg285
S'NP'
p1424
sg175
I6
sg176
(lp1425
I134
aI135
asg288
(issf_api
FeatureSet
p1426
(dp1427
g291
(dp1428
S'drel'
p1429
S'k1:VGF'
p1430
sS'name'
p1431
g1405
ssbsba(issf_api
Chunk
p1432
(dp1433
g185
g1359
sg189
I2
sg285
S'VGF'
p1434
sg175
I6
sg176
(lp1435
I136
asg288
(issf_api
FeatureSet
p1436
(dp1437
g291
(dp1438
S'name'
p1439
g1359
sS'stype'
p1440
S'declarative'
p1441
sS'voicetype'
p1442
S'active'
p1443
ssbsba(issf_api
Chunk
p1444
(dp1445
g185
g1363
sg189
I3
sg285
S'CCP'
p1446
sg175
I6
sg176
(lp1447
I137
asg288
(issf_api
FeatureSet
p1448
(dp1449
g291
(dp1450
S'drel'
p1451
S'k2:VGF'
p1452
sS'name'
p1453
g1363
ssbsba(issf_api
Chunk
p1454
(dp1455
g185
g1399
sg189
I4
sg285
S'NP'
p1456
sg175
I6
sg176
(lp1457
I138
asg288
(issf_api
FeatureSet
p1458
(dp1459
g291
(dp1460
S'drel'
p1461
S'k1:VGF2'
p1462
sS'name'
p1463
g1399
ssbsba(issf_api
Chunk
p1464
(dp1465
g185
g1393
sg189
I5
sg285
S'NP'
p1466
sg175
I6
sg176
(lp1467
I139
aI140
asg288
(issf_api
FeatureSet
p1468
(dp1469
g291
(dp1470
S'drel'
p1471
S'r6:NP5'
p1472
sS'name'
p1473
g1393
ssbsba(issf_api
Chunk
p1474
(dp1475
g185
g1375
sg189
I6
sg285
S'NP'
p1476
sg175
I6
sg176
(lp1477
I141
aI142
aI143
asg288
(issf_api
FeatureSet
p1478
(dp1479
g291
(dp1480
S'drel'
p1481
S'k1u:VGF2'
p1482
sS'name'
p1483
g1375
ssbsba(issf_api
Chunk
p1484
(dp1485
g185
g1369
sg189
I7
sg285
S'VGF'
p1486
sg175
I6
sg176
(lp1487
I144
asg288
(issf_api
FeatureSet
p1488
(dp1489
g291
(dp1490
S'voicetype'
p1491
S'active'
p1492
sS'drel'
p1493
S'ccof:CCP'
p1494
sS'stype'
p1495
S'declarative'
p1496
sS'name'
p1497
g1369
ssbsba(issf_api
Chunk
p1498
(dp1499
g185
g1381
sg189
I8
sg285
S'BLK'
p1500
sg175
I6
sg176
(lp1501
I145
asg288
(issf_api
FeatureSet
p1502
(dp1503
g291
(dp1504
S'drel'
p1505
S'rsym:VGF'
p1506
sS'name'
p1507
g1381
ssbsbasba(issf_api
Sentence
p1508
(dp1509
g173
(lp1510
sg175
I7
sg176
(lp1511
I146
aI147
aI148
aI149
aI150
aI151
aI152
aI153
aI154
aI155
aI156
aI157
aI158
aI159
aI160
aI161
aI162
aI163
asg178
(dp1512
S'VGF'
p1513
(issf_api
Node
p1514
(dp1515
g183
g207
sg185
g1513
sg186
g207
sg188
I-1
sg189
I2
sg190
(lp1516
sbsS'CCP'
p1517
(issf_api
Node
p1518
(dp1519
g183
S'rs'
p1520
sg185
g1517
sg186
S'NP2'
p1521
sg188
I-1
sg189
I3
sg190
(lp1522
sbsS'VGF2'
p1523
(issf_api
Node
p1524
(dp1525
g183
S'ccof'
p1526
sg185
g1523
sg186
S'CCP2'
p1527
sg188
I-1
sg189
I6
sg190
(lp1528
sbsS'BLK'
p1529
(issf_api
Node
p1530
(dp1531
g183
S'rsym'
p1532
sg185
g1529
sg186
S'VGF'
p1533
sg188
I-1
sg189
I9
sg190
(lp1534
sbsS'NP'
p1535
(issf_api
Node
p1536
(dp1537
g183
S'k7'
p1538
sg185
g1535
sg186
S'VGF'
p1539
sg188
I-1
sg189
I0
sg190
(lp1540
sbsS'NP4'
p1541
(issf_api
Node
p1542
(dp1543
g183
S'k2'
p1544
sg185
g1541
sg186
S'VGF2'
p1545
sg188
I-1
sg189
I5
sg190
(lp1546
sbsS'NULL__VGF'
p1547
(issf_api
Node
p1548
(dp1549
g183
S'ccof'
p1550
sg185
g1547
sg186
S'CCP2'
p1551
sg188
I-1
sg189
I-1
sg190
(lp1552
sbsS'CCP2'
p1553
(issf_api
Node
p1554
(dp1555
g183
S'ccof'
p1556
sg185
g1553
sg186
S'CCP'
p1557
sg188
I-1
sg189
I7
sg190
(lp1558
sbsS'NEGP'
p1559
(issf_api
Node
p1560
(dp1561
g183
S'vmod'
p1562
sg185
g1559
sg186
S'NULL__VGF'
p1563
sg188
I-1
sg189
I8
sg190
(lp1564
sbsS'NP3'
p1565
(issf_api
Node
p1566
(dp1567
g183
S'r6'
p1568
sg185
g1565
sg186
S'NP4'
p1569
sg188
I-1
sg189
I4
sg190
(lp1570
sbsS'NP2'
p1571
(issf_api
Node
p1572
(dp1573
g183
S'k2'
p1574
sg185
g1571
sg186
S'VGF'
p1575
sg188
I-1
sg189
I1
sg190
(lp1576
sbssg281
(lp1577
(issf_api
Chunk
p1578
(dp1579
g185
g1535
sg189
I0
sg285
S'NP'
p1580
sg175
I7
sg176
(lp1581
I146
aI147
aI148
asg288
(issf_api
FeatureSet
p1582
(dp1583
g291
(dp1584
S'drel'
p1585
S'k7:VGF'
p1586
sS'name'
p1587
g1535
ssbsba(issf_api
Chunk
p1588
(dp1589
g185
g1571
sg189
I1
sg285
S'NP'
p1590
sg175
I7
sg176
(lp1591
I149
aI150
asg288
(issf_api
FeatureSet
p1592
(dp1593
g291
(dp1594
S'drel'
p1595
S'k2:VGF'
p1596
sS'name'
p1597
g1571
ssbsba(issf_api
Chunk
p1598
(dp1599
g185
g1513
sg189
I2
sg285
S'VGF'
p1600
sg175
I7
sg176
(lp1601
I151
aI152
aI153
aI154
asg288
(issf_api
FeatureSet
p1602
(dp1603
g291
(dp1604
S'name'
p1605
g1513
sS'stype'
p1606
S'declarative'
p1607
sS'voicetype'
p1608
S'active'
p1609
ssbsba(issf_api
Chunk
p1610
(dp1611
g185
g1517
sg189
I3
sg285
S'CCP'
p1612
sg175
I7
sg176
(lp1613
I155
asg288
(issf_api
FeatureSet
p1614
(dp1615
g291
(dp1616
S'drel'
p1617
S'rs:NP2'
p1618
sS'name'
p1619
g1517
ssbsba(issf_api
Chunk
p1620
(dp1621
g185
g1565
sg189
I4
sg285
S'NP'
p1622
sg175
I7
sg176
(lp1623
I156
aI157
asg288
(issf_api
FeatureSet
p1624
(dp1625
g291
(dp1626
S'drel'
p1627
S'r6:NP4'
p1628
sS'name'
p1629
g1565
ssbsba(issf_api
Chunk
p1630
(dp1631
g185
g1541
sg189
I5
sg285
S'NP'
p1632
sg175
I7
sg176
(lp1633
I158
aI159
asg288
(issf_api
FeatureSet
p1634
(dp1635
g291
(dp1636
S'drel'
p1637
S'k2:VGF2'
p1638
sS'name'
p1639
g1541
ssbsba(issf_api
Chunk
p1640
(dp1641
g185
g1523
sg189
I6
sg285
S'VGF'
p1642
sg175
I7
sg176
(lp1643
I160
asg288
(issf_api
FeatureSet
p1644
(dp1645
g291
(dp1646
S'voicetype'
p1647
S'active'
p1648
sS'drel'
p1649
S'ccof:CCP2'
p1650
sS'stype'
p1651
S'declarative'
p1652
sS'name'
p1653
g1523
ssbsba(issf_api
Chunk
p1654
(dp1655
g185
g1553
sg189
I7
sg285
S'CCP'
p1656
sg175
I7
sg176
(lp1657
I161
asg288
(issf_api
FeatureSet
p1658
(dp1659
g291
(dp1660
S'drel'
p1661
S'ccof:CCP'
p1662
sS'name'
p1663
g1553
ssbsba(issf_api
Chunk
p1664
(dp1665
g185
g1559
sg189
I8
sg285
S'NEGP'
p1666
sg175
I7
sg176
(lp1667
I162
asg288
(issf_api
FeatureSet
p1668
(dp1669
g291
(dp1670
S'drel'
p1671
S'vmod:NULL__VGF'
p1672
sS'name'
p1673
g1559
ssbsba(issf_api
Chunk
p1674
(dp1675
g185
g1529
sg189
I9
sg285
S'BLK'
p1676
sg175
I7
sg176
(lp1677
I163
asg288
(issf_api
FeatureSet
p1678
(dp1679
g291
(dp1680
S'drel'
p1681
S'rsym:VGF'
p1682
sS'name'
p1683
g1529
ssbsbasbasS'relationList'
p1684
(lp1685
(iextract_relations
discourseRelation
p1686
(dp1687
S'arg1Trees'
p1688
(lp1689
sS'arg2Sentence'
p1690
(lp1691
sS'arg1Sentence'
p1692
(lp1693
sS'connList'
p1694
(lp1695
sS'isPaired'
p1696
I00
sS'arg1'
p1697
NsS'arg1Span'
p1698
V130..286
p1699
sS'arg2'
p1700
NsS'arg2Trees'
p1701
(lp1702
sS'fileName'
p1703
S'../data/raw/Section_17/fullnews_id_2610165_date_20_7_2004.utf8'
p1704
sS'connTrees'
p1705
(lp1706
sS'arg2List'
p1707
(lp1708
sS'arg2Span'
p1709
V287..500
p1710
sS'sense'
p1711
VContingency.Pragmatic cause
p1712
sS'relationType'
p1713
VImplicit
p1714
sS'connSpan'
p1715
V
sS'arg1List'
p1716
(lp1717
sS'conn'
p1718
VkyoMki
p1719
sba(iextract_relations
discourseRelation
p1720
(dp1721
g1688
(lp1722
sg1690
(lp1723
sg1692
(lp1724
sg1694
(lp1725
I50
asg1696
I00
sg1697
Nsg1698
V287..389
p1726
sg1700
Nsg1701
(lp1727
sg1703
g1704
sg1705
(lp1728
sg1707
(lp1729
I51
aI52
aI53
aI54
aI55
aI56
aI57
aI58
aI59
aI60
aI61
aI62
aI63
aI64
aI65
aI66
aI67
aI68
aI69
aI70
aI71
asg1709
V393..500
p1730
sg1711
VComparison.Contrast.Juxtaposition
p1731
sg1713
VExplicit
p1732
sg1715
V390..392
p1733
sg1716
(lp1734
I32
aI33
aI34
aI35
aI36
aI37
aI38
aI39
aI40
aI41
aI42
aI43
aI44
aI45
aI46
aI47
aI48
aI49
asg1718
V\u0924\u094b
p1735
sba(iextract_relations
discourseRelation
p1736
(dp1737
g1688
(lp1738
sg1690
(lp1739
sg1692
(lp1740
sg1694
(lp1741
sg1696
I00
sg1697
Nsg1698
V287..500
p1742
sg1700
Nsg1701
(lp1743
sg1703
g1704
sg1705
(lp1744
sg1707
(lp1745
sg1709
V500..614
p1746
sg1711
VExpansion.Conjunction
p1747
sg1713
VImplicit
p1748
sg1715
V
sg1716
(lp1749
sg1718
Visake alAvA
p1750
sba(iextract_relations
discourseRelation
p1751
(dp1752
g1688
(lp1753
sg1690
(lp1754
sg1692
(lp1755
sg1694
(lp1756
sg1696
I00
sg1697
Nsg1698
V536..614
p1757
sg1700
Nsg1701
(lp1758
sg1703
g1704
sg1705
(lp1759
sg1707
(lp1760
sg1709
V615..637
p1761
sg1711
S'_Without_sense'
p1762
sg1713
VEntRel
p1763
sg1715
V
sg1716
(lp1764
sg1718
Nsba(iextract_relations
discourseRelation
p1765
(dp1766
g1688
(lp1767
sg1690
(lp1768
sg1692
(lp1769
sg1694
(lp1770
sg1696
I00
sg1697
Nsg1698
V500..638
p1771
sg1700
Nsg1701
(lp1772
sg1703
g1704
sg1705
(lp1773
sg1707
(lp1774
sg1709
V639..753
p1775
sg1711
VExpansion.Conjunction
p1776
sg1713
VImplicit
p1777
sg1715
V
sg1716
(lp1778
sg1718
VAge
p1779
sba(iextract_relations
discourseRelation
p1780
(dp1781
g1688
(lp1782
sg1690
(lp1783
sg1692
(lp1784
sg1694
(lp1785
I119
asg1696
I00
sg1697
Nsg1698
V655..702
p1786
sg1700
Nsg1701
(lp1787
sg1703
g1704
sg1705
(lp1788
sg1707
(lp1789
I120
aI121
aI122
aI123
aI124
aI125
aI126
aI127
aI128
aI129
asg1709
V709..753
p1790
sg1711
VContingency.Cause.Result
p1791
sg1713
VExplicit
p1792
sg1715
V703..708
p1793
sg1716
(lp1794
I108
aI109
aI110
aI111
aI112
aI113
aI114
aI115
aI116
aI117
aI118
asg1718
V\u0907\u0938\u0932\u093f\u090f
p1795
sba(iextract_relations
discourseRelation
p1796
(dp1797
g1688
(lp1798
sg1690
(lp1799
sg1692
(lp1800
sg1694
(lp1801
sg1696
I00
sg1697
Nsg1698
V500..614
p1802
sg1700
Nsg1701
(lp1803
sg1703
g1704
sg1705
(lp1804
sg1707
(lp1805
sg1709
V754..820
p1806
sg1711
VComparison.Contrast.Juxtaposition
p1807
sg1713
VImplicit
p1808
sg1715
V
sg1716
(lp1809
sg1718
VxUsarI ora
p1810
sba(iextract_relations
discourseRelation
p1811
(dp1812
g1688
(lp1813
sg1690
(lp1814
sg1692
(lp1815
sg1694
(lp1816
sg1696
I00
sg1697
Nsg1698
V792..820
p1817
sg1700
Nsg1701
(lp1818
sg1703
g1704
sg1705
(lp1819
sg1707
(lp1820
sg1709
V821..895
p1821
sg1711
VExpansion.Conjunction
p1822
sg1713
VImplicit
p1823
sg1715
V
sg1716
(lp1824
sg1718
VOra
p1825
sbasS'rawData'
p1826
V<DOC>\u000a<DOCNO>fullnews_id_2610165_date_20_7_2004.utf8</DOCNO>\u000a<TEXT>\u000a\u000a\u000a\u0928\u0940\u0924\u0940\u0936 \u092e\u093f. \u0921\u093f\u092a\u0947\u0902\u0921\u0947\u092c\u0932, \u092a\u093e\u0938\u0935\u093e\u0928 \u0936\u0915\u0942\u0930 \u0930\u093e\u0923\u093e\u000a\u000a\u000a\u000a\u092a\u094d\u0930\u0947\u000a\u000a\u092a\u091f\u0928\u093e\u0964  \u000a\u000a\u000a\u000a\u000a\u000a\u092c\u093f\u0939\u093e\u0930 \u092e\u0947\u0902 \u092d\u093e\u0930\u0924\u0940\u092f \u091c\u0928\u0924\u093e \u092a\u093e\u0930\u094d\u091f\u0940 (\u092d\u093e\u091c\u092a\u093e) \u0914\u0930 \u0938\u0939\u092f\u094b\u0917\u0940 \u0926\u0932\u094b\u0902 \u0915\u0947 \u0932\u093f\u090f \u091a\u0941\u0928\u093e\u0935 \u092a\u094d\u0930\u091a\u093e\u0930 \u0915\u0930 \u0930\u0939\u0947 \u092a\u093e\u0930\u094d\u091f\u0940 \u0915\u0947 \u0938\u093e\u0902\u0938\u0926 \u0914\u0930 \u0915\u094d\u0930\u093f\u0915\u0947\u091f \u0916\u093f\u0932\u093e\u095c\u0940 \u0928\u0935\u091c\u094b\u0924 \u0938\u093f\u0926\u094d\u0927\u0942 \u091c\u0941\u092e\u0932\u0947\u092c\u093e\u091c\u0940 \u092e\u0947\u0902 \u092a\u0942\u0930\u0947 \u0930\u0902\u0917 \u092a\u0930 \u0939\u0948\u0902\u0964 \u0909\u0928\u094d\u0939\u094b\u0902\u0928\u0947 \u0930\u093e\u091c\u0917 \u0915\u0947 \u092e\u0941\u0916\u094d\u092f\u092e\u0902\u0924\u094d\u0930\u0940 \u092a\u0926 \u0915\u0947 \u0909\u092e\u094d\u092e\u0940\u0926\u0935\u093e\u0930 \u0928\u0940\u0924\u0940\u0936 \u0915\u0941\u092e\u093e\u0930 \u0915\u094b \u0930\u093e\u0939\u0941\u0932 \u0926\u094d\u0930\u0935\u093f\u095c \u0915\u0940 \u0924\u0930\u0939 \u092e\u093f. \u0921\u093f\u092a\u0947\u0902\u0921\u0947\u092c\u0932 \u092c\u0924\u093e\u092f\u093e \u0939\u0948 \u0924\u094b \u0932\u094b\u0915 \u091c\u0928\u0936\u0915\u094d\u0924\u093f \u092a\u093e\u0930\u094d\u091f\u0940 (\u0932\u094b\u091c\u092a\u093e) \u0915\u0947 \u0928\u0947\u0924\u093e \u0930\u093e\u092e\u0935\u093f\u0932\u093e\u0938 \u092a\u093e\u0938\u0935\u093e\u0928 \u0915\u094b \u092a\u093e\u0915\u093f\u0938\u094d\u0924\u093e\u0928 \u0915\u0947 \u0935\u093f\u0935\u093e\u0926\u093f\u0924 \u0905\u0902\u092a\u093e\u092f\u0930 \u0936\u0915\u0942\u0930 \u0930\u093e\u0923\u093e \u091c\u0948\u0938\u093e \u0915\u0930\u093e\u0930 \u0926\u093f\u092f\u093e\u0964\u0938\u093f\u0926\u094d\u0927\u0942 \u0928\u0947 \u092a\u091f\u0928\u093e \u092e\u0947\u0902 \u092c\u0941\u0927\u0935\u093e\u0930 \u0915\u094b \u0915\u0939\u093e \u0915\u093f \u092c\u093f\u0939\u093e\u0930 \u0935\u093f\u0927\u093e\u0928\u0938\u092d\u093e \u0915\u0947  \u091a\u0941\u0928\u093e\u0935 \u092e\u0947\u0902 \u091f\u0940\u092e \u092c\u093f\u0939\u093e\u0930 (\u0930\u093e\u091c\u0917) \u0914\u0930 \u0932\u093e\u0932\u0942-\u0930\u093e\u092c\u095c\u0940 \u0915\u0947 \u092c\u0940\u091a \u092e\u0941\u0915\u093e\u092c\u0932\u093e \u0939\u0948\u0964 \u0907\u0938\u092e\u0947\u0902 \u091c\u0940\u0924 \u0930\u093e\u091c\u0917 \u0915\u0940 \u0939\u094b\u0917\u0940\u0964 \u0909\u0928\u094d\u0939\u094b\u0902\u0928\u0947 \u0915\u0939\u093e \u0915\u093f \u0939\u092e\u0928\u0947 \u0935\u093e\u091c\u092a\u0947\u092f\u0940 \u0938\u0930\u0915\u093e\u0930 \u092e\u0947\u0902 \u0928\u0940\u0924\u0940\u0936 \u0915\u0947 \u0915\u093e\u092e \u0915\u094b \u0926\u0947\u0916\u093e \u0939\u0948\u0964 \u0907\u0938\u0932\u093f\u090f \u0909\u0928\u094d\u0939\u0902 \u092e\u093f. \u0921\u093f\u092a\u0947\u0902\u0921\u0947\u092c\u0932 \u0915\u0940 \u0938\u0902\u091c\u094d\u091e\u093e \u0926\u0940 \u091c\u093e \u0938\u0915\u0924\u0940 \u0939\u0948\u0964\u000a\u0915\u093e\u0902\u0917\u094d\u0930\u0947\u0938 \u0915\u0947 \u092c\u093e\u0930\u0947 \u092e\u0947\u0902 \u0938\u093f\u0926\u094d\u0927\u0942 \u0928\u0947 \u0915\u0939\u093e \u0915\u093f \u0935\u0939 \u0930\u093e\u091c\u0926 \u0915\u0940 \u0930\u093f\u091c\u0930\u094d\u0935 \u0915\u0940 \u0924\u0930\u0939 \u0939\u0948\u0964 \u0907\u0938 \u091a\u0941\u0928\u093e\u0935 \u092e\u0947\u0902 \u092f\u0939 \u092d\u0940 \u0928\u0939\u0940\u0902 \u0915\u0939\u093e \u091c\u093e \u0938\u0915\u0924\u093e \u0915\u093f \u0915\u093e\u0902\u0917\u094d\u0930\u0947\u0938 \u0915\u093e \u0916\u093e\u0924\u093e \u092d\u0940 \u0916\u0941\u0932\u0947\u0917\u093e \u092f\u093e \u0928\u0939\u0940\u0902\u0964\u000a\u000a\u000a\u000a\u000a</TEXT>\u000a</DOC>
p1827
sS'rawFileName'
p1828
g1704
sS'rawToAnnMapping'
p1829
(dp1830
I0
(I0
tp1831
sI1
(I1
tp1832
sI2
(I2
tp1833
sI3
(I3
tp1834
sI4
(I4
tp1835
sI5
(I5
tp1836
sI6
(I6
tp1837
sI7
(I7
tp1838
sI8
(I8
tp1839
sI9
(I9
tp1840
sI10
(I10
tp1841
sI11
(I11
tp1842
sI12
(I12
tp1843
sI13
(I13
tp1844
sI14
(I14
tp1845
sI15
(I15
tp1846
sI16
(I16
tp1847
sI17
(I17
tp1848
sI18
(I18
tp1849
sI19
(I19
tp1850
sI20
(I20
tp1851
sI21
(I21
tp1852
sI22
(I22
tp1853
sI23
(I23
tp1854
sI24
(I24
tp1855
sI25
(I25
tp1856
sI26
(I26
tp1857
sI27
(I27
tp1858
sI28
(I28
tp1859
sI29
(I29
tp1860
sI30
(I30
tp1861
sI31
(I31
tp1862
sI32
(I32
tp1863
sI33
(I33
tp1864
sI34
(I34
tp1865
sI35
(I35
tp1866
sI36
(I36
tp1867
sI37
(I37
tp1868
sI38
(I38
tp1869
sI39
(I39
tp1870
sI40
(I40
tp1871
sI41
(I41
tp1872
sI42
(I42
tp1873
sI43
(I43
tp1874
sI44
(I44
tp1875
sI45
(I45
tp1876
sI46
(I46
tp1877
sI47
(I47
tp1878
sI48
(I48
tp1879
sI49
(I49
tp1880
sI50
(I50
tp1881
sI51
(I51
tp1882
sI52
(I52
tp1883
sI53
(I53
tp1884
sI54
(I54
tp1885
sI55
(I55
tp1886
sI56
(I56
tp1887
sI57
(I57
tp1888
sI58
(I58
tp1889
sI59
(I59
tp1890
sI60
(I60
tp1891
sI61
(I61
tp1892
sI62
(I62
tp1893
sI63
(I63
tp1894
sI64
(I64
tp1895
sI65
(I65
tp1896
sI66
(I66
tp1897
sI67
(I67
tp1898
sI68
(I68
tp1899
sI69
(I69
tp1900
sI70
(I70
tp1901
sI71
(I71
tp1902
sI72
(I72
tp1903
sI73
(I73
tp1904
sI74
(I74
tp1905
sI75
(I75
tp1906
sI76
(I76
tp1907
sI77
(I77
tp1908
sI78
(I78
tp1909
sI79
(I79
tp1910
sI80
(I80
tp1911
sI81
(I81
tp1912
sI82
(I82
tp1913
sI83
(I83
tp1914
sI84
(I84
tp1915
sI85
(I85
tp1916
sI86
(I86
tp1917
sI87
(I87
tp1918
sI88
(I88
tp1919
sI89
(I89
tp1920
sI90
(I90
tp1921
sI91
(I91
tp1922
sI92
(I92
tp1923
sI93
(I93
tp1924
sI94
(I94
tp1925
sI95
(I95
tp1926
sI96
(I96
tp1927
sI97
(I97
tp1928
sI98
(I98
tp1929
sI99
(I99
tp1930
sI100
(I100
tp1931
sI101
(I101
tp1932
sI102
(I102
tp1933
sI103
(I103
tp1934
sI104
(I104
tp1935
sI105
(I105
tp1936
sI106
(I106
tp1937
sI107
(I107
tp1938
sI108
(I108
tp1939
sI109
(I109
tp1940
sI110
(I110
tp1941
sI111
(I111
tp1942
sI112
(I112
tp1943
sI113
(I113
tp1944
sI114
(I114
tp1945
sI115
(I115
tp1946
sI116
(I116
tp1947
sI117
(I117
tp1948
sI118
(I118
tp1949
sI119
(I119
tp1950
sI120
(I120
tp1951
sI121
(I121
tp1952
sI122
(I122
tp1953
sI123
(I123
tp1954
sI124
(I124
tp1955
sI125
(I125
tp1956
sI126
(I126
tp1957
sI127
(I127
tp1958
sI128
(I128
tp1959
sI129
(I129
tp1960
sI130
(I130
tp1961
sI131
(I131
tp1962
sI132
(I132
tp1963
sI133
(I133
tp1964
sI134
(I134
tp1965
sI135
(I135
tp1966
sI136
(I136
tp1967
sI137
(I137
tp1968
sI138
(I138
tp1969
sI139
(I139
tp1970
sI140
(I140
tp1971
sI141
(I141
tp1972
sI142
(I142
tp1973
sI143
(I143
tp1974
sI144
(I144
tp1975
sI145
(I145
tp1976
sI146
(I146
tp1977
sI147
(I147
tp1978
sI148
(I148
tp1979
sI149
(I149
tp1980
sI150
(I150
tp1981
sI151
(I151
tp1982
sI152
(I152
tp1983
sI153
(I153
tp1984
sI154
(I154
tp1985
sI155
(I155
tp1986
sI156
(I156
tp1987
sI157
(I157
tp1988
sI158
(I158
tp1989
sI159
(I159
tp1990
sI160
(I160
tp1991
sI161
(I161
tp1992
sI162
(I162
tp1993
sI163
(I163
tp1994
ssS'globalWordList'
p1995
(lp1996
(issf_api
Word
p1997
(dp1998
S'splitConn'
p1999
I00
sS'word'
p2000
V\u092c\u093f\u0939\u093e\u0930
p2001
sS'extraFeatureSet'
p2002
(issf_api
FeatureSet
p2003
(dp2004
g291
(dp2005
S'posn'
p2006
S'10'
p2007
sS'name'
p2008
S'\xe0\xa4\xac\xe0\xa4\xbf\xe0\xa4\xb9\xe0\xa4\xbe\xe0\xa4\xb0'
p2009
sS'af'
p2010
S'\xe0\xa4\xac\xe0\xa4\xbf\xe0\xa4\xb9\xe0\xa4\xbe\xe0\xa4\xb0,n,m,sg,3,o,0_\xe0\xa4\xae\xe0\xa5\x87\xe0\xa4\x82,0'
p2011
sS'chunkid'
p2012
S'NP'
p2013
sS'drel'
p2014
S'k7p:\xe0\xa4\x95\xe0\xa4\xb0'
p2015
sS'vpos'
p2016
S'vib_2'
p2017
sS'chunktype'
p2018
S'head:NP'
p2019
ssbsg1697
I00
sg1700
I00
sg1711
Nsg1698
Nsg189
I0
sg175
I0
sS'relationNum'
p2020
Nsg1709
NsS'wordTag'
p2021
S'NNP'
p2022
sg288
(issf_api
FeatureSet
p2023
(dp2024
g291
(dp2025
S'posn'
p2026
S'10'
p2027
sS'name'
p2028
S'\xe0\xa4\xac\xe0\xa4\xbf\xe0\xa4\xb9\xe0\xa4\xbe\xe0\xa4\xb0'
p2029
sS'af'
p2030
S'\xe0\xa4\xac\xe0\xa4\xbf\xe0\xa4\xb9\xe0\xa4\xbe\xe0\xa4\xb0,n,m,sg,3,o,0,0'
p2031
ssbsg1718
I00
sba(issf_api
Word
p2032
(dp2033
g1999
I00
sg2000
V\u092e\u0947\u0902
p2034
sg2002
(issf_api
FeatureSet
p2035
(dp2036
g291
(dp2037
S'posn'
p2038
S'20'
p2039
sS'name'
p2040
S'\xe0\xa4\xae\xe0\xa5\x87\xe0\xa4\x82'
p2041
sS'drel'
p2042
S'lwg__psp:\xe0\xa4\xac\xe0\xa4\xbf\xe0\xa4\xb9\xe0\xa4\xbe\xe0\xa4\xb0'
p2043
sS'chunktype'
p2044
S'child:NP'
p2045
sS'af'
p2046
S'\xe0\xa4\xae\xe0\xa5\x87\xe0\xa4\x82,psp,,,,,,'
p2047
ssbsg1697
I00
sg1700
I00
sg1711
Nsg1698
Nsg189
I0
sg175
I0
sg2020
Nsg1709
Nsg2021
S'PSP'
p2048
sg288
(issf_api
FeatureSet
p2049
(dp2050
g291
(dp2051
S'posn'
p2052
S'20'
p2053
sS'name'
p2054
S'\xe0\xa4\xae\xe0\xa5\x87\xe0\xa4\x82'
p2055
sS'af'
p2056
S'\xe0\xa4\xae\xe0\xa5\x87\xe0\xa4\x82,psp,,,,,,'
p2057
ssbsg1718
I00
sba(issf_api
Word
p2058
(dp2059
g1999
I00
sg2000
V\u092d\u093e\u0930\u0924\u0940\u092f
p2060
sg2002
(issf_api
FeatureSet
p2061
(dp2062
g291
(dp2063
S'posn'
p2064
S'100'
p2065
sS'name'
p2066
S'\xe0\xa4\xad\xe0\xa4\xbe\xe0\xa4\xb0\xe0\xa4\xa4\xe0\xa5\x80\xe0\xa4\xaf'
p2067
sS'drel'
p2068
S'pof__cn:\xe0\xa4\xaa\xe0\xa4\xbe\xe0\xa4\xb0\xe0\xa5\x8d\xe0\xa4\x9f\xe0\xa5\x80'
p2069
sS'chunktype'
p2070
S'child:NP2'
p2071
sS'af'
p2072
S'\xe0\xa4\xad\xe0\xa4\xbe\xe0\xa4\xb0\xe0\xa4\xa4\xe0\xa5\x80\xe0\xa4\xaf,adj,any,any,,o,,'
p2073
ssbsg1697
I00
sg1700
I00
sg1711
Nsg1698
Nsg189
I1
sg175
I0
sg2020
Nsg1709
Nsg2021
S'NNPC'
p2074
sg288
(issf_api
FeatureSet
p2075
(dp2076
g291
(dp2077
S'posn'
p2078
S'100'
p2079
sS'name'
p2080
S'\xe0\xa4\xad\xe0\xa4\xbe\xe0\xa4\xb0\xe0\xa4\xa4\xe0\xa5\x80\xe0\xa4\xaf'
p2081
sS'af'
p2082
S'\xe0\xa4\xad\xe0\xa4\xbe\xe0\xa4\xb0\xe0\xa4\xa4\xe0\xa5\x80\xe0\xa4\xaf,adj,any,any,,o,,'
p2083
ssbsg1718
I00
sba(issf_api
Word
p2084
(dp2085
g1999
I00
sg2000
V\u091c\u0928\u0924\u093e
p2086
sg2002
(issf_api
FeatureSet
p2087
(dp2088
g291
(dp2089
S'posn'
p2090
S'40'
p2091
sS'name'
p2092
S'\xe0\xa4\x9c\xe0\xa4\xa8\xe0\xa4\xa4\xe0\xa4\xbe'
p2093
sS'drel'
p2094
S'pof__cn:\xe0\xa4\xaa\xe0\xa4\xbe\xe0\xa4\xb0\xe0\xa5\x8d\xe0\xa4\x9f\xe0\xa5\x80'
p2095
sS'chunktype'
p2096
S'child:NP2'
p2097
sS'af'
p2098
S'\xe0\xa4\x9c\xe0\xa4\xa8\xe0\xa4\xa4\xe0\xa4\xbe,n,f,sg,3,d,0,0'
p2099
ssbsg1697
I00
sg1700
I00
sg1711
Nsg1698
Nsg189
I1
sg175
I0
sg2020
Nsg1709
Nsg2021
S'NNPC'
p2100
sg288
(issf_api
FeatureSet
p2101
(dp2102
g291
(dp2103
S'posn'
p2104
S'40'
p2105
sS'name'
p2106
S'\xe0\xa4\x9c\xe0\xa4\xa8\xe0\xa4\xa4\xe0\xa4\xbe'
p2107
sS'af'
p2108
S'\xe0\xa4\x9c\xe0\xa4\xa8\xe0\xa4\xa4\xe0\xa4\xbe,n,f,sg,3,d,0,0'
p2109
ssbsg1718
I00
sba(issf_api
Word
p2110
(dp2111
g1999
I00
sg2000
V\u092a\u093e\u0930\u094d\u091f\u0940
p2112
sg2002
(issf_api
FeatureSet
p2113
(dp2114
g291
(dp2115
S'posn'
p2116
S'50'
p2117
sS'name'
p2118
S'\xe0\xa4\xaa\xe0\xa4\xbe\xe0\xa4\xb0\xe0\xa5\x8d\xe0\xa4\x9f\xe0\xa5\x80'
p2119
sS'af'
p2120
S'\xe0\xa4\xaa\xe0\xa4\xbe\xe0\xa4\xb0\xe0\xa5\x8d\xe0\xa4\x9f\xe0\xa5\x80,n,f,sg,3,o,0,0'
p2121
sS'chunkid'
p2122
S'NP2'
p2123
sS'drel'
p2124
S'ccof:\xe0\xa4\x94\xe0\xa4\xb0'
p2125
sS'chunktype'
p2126
S'head:NP2'
p2127
ssbsg1697
I00
sg1700
I00
sg1711
Nsg1698
Nsg189
I1
sg175
I0
sg2020
Nsg1709
Nsg2021
S'NNP'
p2128
sg288
(issf_api
FeatureSet
p2129
(dp2130
g291
(dp2131
S'posn'
p2132
S'50'
p2133
sS'name'
p2134
S'\xe0\xa4\xaa\xe0\xa4\xbe\xe0\xa4\xb0\xe0\xa5\x8d\xe0\xa4\x9f\xe0\xa5\x80'
p2135
sS'af'
p2136
S'\xe0\xa4\xaa\xe0\xa4\xbe\xe0\xa4\xb0\xe0\xa5\x8d\xe0\xa4\x9f\xe0\xa5\x80,n,f,sg,3,o,0,0'
p2137
ssbsg1718
I00
sba(issf_api
Word
p2138
(dp2139
g1999
I00
sg2000
V(
sg2002
(issf_api
FeatureSet
p2140
(dp2141
g291
(dp2142
S'posn'
p2143
S'60'
p2144
sS'name'
p2145
S'('
sS'drel'
p2146
S'rsym:\xe0\xa4\xad\xe0\xa4\xbe\xe0\xa4\x9c\xe0\xa4\xaa\xe0\xa4\xbe'
p2147
sS'chunktype'
p2148
S'child:NP3'
p2149
sS'af'
p2150
S'(,punc,,,,,,'
p2151
ssbsg1697
I00
sg1700
I00
sg1711
Nsg1698
Nsg189
I2
sg175
I0
sg2020
Nsg1709
Nsg2021
S'SYM'
p2152
sg288
(issf_api
FeatureSet
p2153
(dp2154
g291
(dp2155
S'posn'
p2156
S'60'
p2157
sS'name'
p2158
S'('
sS'af'
p2159
S'(,punc,,,,,,'
p2160
ssbsg1718
I00
sba(issf_api
Word
p2161
(dp2162
g1999
I00
sg2000
V\u092d\u093e\u091c\u092a\u093e
p2163
sg2002
(issf_api
FeatureSet
p2164
(dp2165
g291
(dp2166
S'posn'
p2167
S'70'
p2168
sS'name'
p2169
S'\xe0\xa4\xad\xe0\xa4\xbe\xe0\xa4\x9c\xe0\xa4\xaa\xe0\xa4\xbe'
p2170
sS'af'
p2171
S'\xe0\xa4\xad\xe0\xa4\xbe\xe0\xa4\x9c\xe0\xa4\xaa\xe0\xa4\xbe,n,f,sg,3,o,0,0'
p2172
sS'chunkid'
p2173
S'NP3'
p2174
sS'drel'
p2175
S'rs:\xe0\xa4\xaa\xe0\xa4\xbe\xe0\xa4\xb0\xe0\xa5\x8d\xe0\xa4\x9f\xe0\xa5\x80'
p2176
sS'chunktype'
p2177
S'head:NP3'
p2178
ssbsg1697
I00
sg1700
I00
sg1711
Nsg1698
Nsg189
I2
sg175
I0
sg2020
Nsg1709
Nsg2021
S'NNP'
p2179
sg288
(issf_api
FeatureSet
p2180
(dp2181
g291
(dp2182
S'posn'
p2183
S'70'
p2184
sS'name'
p2185
S'\xe0\xa4\xad\xe0\xa4\xbe\xe0\xa4\x9c\xe0\xa4\xaa\xe0\xa4\xbe'
p2186
sS'af'
p2187
S'\xe0\xa4\xad\xe0\xa4\xbe\xe0\xa4\x9c\xe0\xa4\xaa\xe0\xa4\xbe,n,f,sg,3,o,0,0'
p2188
ssbsg1718
I00
sba(issf_api
Word
p2189
(dp2190
g1999
I00
sg2000
V)
sg2002
(issf_api
FeatureSet
p2191
(dp2192
g291
(dp2193
S'posn'
p2194
S'80'
p2195
sS'name'
p2196
S')'
sS'drel'
p2197
S'rsym:\xe0\xa4\xad\xe0\xa4\xbe\xe0\xa4\x9c\xe0\xa4\xaa\xe0\xa4\xbe'
p2198
sS'chunktype'
p2199
S'child:NP3'
p2200
sS'af'
p2201
S'),punc,,,,,,'
p2202
ssbsg1697
I00
sg1700
I00
sg1711
Nsg1698
Nsg189
I2
sg175
I0
sg2020
Nsg1709
Nsg2021
S'SYM'
p2203
sg288
(issf_api
FeatureSet
p2204
(dp2205
g291
(dp2206
S'posn'
p2207
S'80'
p2208
sS'name'
p2209
S')'
sS'af'
p2210
S'),punc,,,,,,'
p2211
ssbsg1718
I00
sba(issf_api
Word
p2212
(dp2213
g1999
I00
sg2000
V\u0914\u0930
p2214
sg2002
(issf_api
FeatureSet
p2215
(dp2216
g291
(dp2217
S'posn'
p2218
S'90'
p2219
sS'name'
p2220
S'\xe0\xa4\x94\xe0\xa4\xb0'
p2221
sS'af'
p2222
S'\xe0\xa4\x94\xe0\xa4\xb0,avy,,,,,,'
p2223
sS'chunkid'
p2224
S'CCP'
p2225
sS'drel'
p2226
S'rt:\xe0\xa4\x95\xe0\xa4\xb0'
p2227
sS'chunktype'
p2228
S'head:CCP'
p2229
ssbsg1697
I00
sg1700
I00
sg1711
Nsg1698
Nsg189
I3
sg175
I0
sg2020
Nsg1709
Nsg2021
S'CC'
p2230
sg288
(issf_api
FeatureSet
p2231
(dp2232
g291
(dp2233
S'posn'
p2234
S'90'
p2235
sS'name'
p2236
S'\xe0\xa4\x94\xe0\xa4\xb0'
p2237
sS'af'
p2238
S'\xe0\xa4\x94\xe0\xa4\xb0,avy,,,,,,'
p2239
ssbsg1718
I00
sba(issf_api
Word
p2240
(dp2241
g1999
I00
sg2000
V\u0938\u0939\u092f\u094b\u0917\u0940
p2242
sg2002
(issf_api
FeatureSet
p2243
(dp2244
g291
(dp2245
S'posn'
p2246
S'100'
p2247
sS'name'
p2248
S'\xe0\xa4\xb8\xe0\xa4\xb9\xe0\xa4\xaf\xe0\xa5\x8b\xe0\xa4\x97\xe0\xa5\x80'
p2249
sS'drel'
p2250
S'nmod__adj:\xe0\xa4\xa6\xe0\xa4\xb2\xe0\xa5\x8b\xe0\xa4\x82'
p2251
sS'chunktype'
p2252
S'child:NP4'
p2253
sS'af'
p2254
S'\xe0\xa4\xb8\xe0\xa4\xb9\xe0\xa4\xaf\xe0\xa5\x8b\xe0\xa4\x97\xe0\xa5\x80,adj,any,any,,o,,'
p2255
ssbsg1697
I00
sg1700
I00
sg1711
Nsg1698
Nsg189
I4
sg175
I0
sg2020
Nsg1709
Nsg2021
S'JJ'
p2256
sg288
(issf_api
FeatureSet
p2257
(dp2258
g291
(dp2259
S'posn'
p2260
S'100'
p2261
sS'name'
p2262
S'\xe0\xa4\xb8\xe0\xa4\xb9\xe0\xa4\xaf\xe0\xa5\x8b\xe0\xa4\x97\xe0\xa5\x80'
p2263
sS'af'
p2264
S'\xe0\xa4\xb8\xe0\xa4\xb9\xe0\xa4\xaf\xe0\xa5\x8b\xe0\xa4\x97\xe0\xa5\x80,adj,any,any,,o,,'
p2265
ssbsg1718
I00
sba(issf_api
Word
p2266
(dp2267
g1999
I00
sg2000
V\u0926\u0932\u094b\u0902
p2268
sg2002
(issf_api
FeatureSet
p2269
(dp2270
g291
(dp2271
S'posn'
p2272
S'110'
p2273
sS'name'
p2274
S'\xe0\xa4\xa6\xe0\xa4\xb2\xe0\xa5\x8b\xe0\xa4\x82'
p2275
sS'af'
p2276
S'\xe0\xa4\xa6\xe0\xa4\xb2,n,m,pl,3,o,0_\xe0\xa4\x95\xe0\xa5\x87_\xe0\xa4\xb2\xe0\xa4\xbf\xe0\xa4\x8f,0'
p2277
sS'chunkid'
p2278
S'NP4'
p2279
sS'drel'
p2280
S'ccof:\xe0\xa4\x94\xe0\xa4\xb0'
p2281
sS'vpos'
p2282
S'vib_3_4'
p2283
sS'chunktype'
p2284
S'head:NP4'
p2285
ssbsg1697
I00
sg1700
I00
sg1711
Nsg1698
Nsg189
I4
sg175
I0
sg2020
Nsg1709
Nsg2021
S'NN'
p2286
sg288
(issf_api
FeatureSet
p2287
(dp2288
g291
(dp2289
S'posn'
p2290
S'110'
p2291
sS'name'
p2292
S'\xe0\xa4\xa6\xe0\xa4\xb2\xe0\xa5\x8b\xe0\xa4\x82'
p2293
sS'af'
p2294
S'\xe0\xa4\xa6\xe0\xa4\xb2,n,m,pl,3,o,0,0'
p2295
ssbsg1718
I00
sba(issf_api
Word
p2296
(dp2297
g1999
I00
sg2000
V\u0915\u0947
p2298
sg2002
(issf_api
FeatureSet
p2299
(dp2300
g291
(dp2301
S'posn'
p2302
S'120'
p2303
sS'name'
p2304
S'\xe0\xa4\x95\xe0\xa5\x87'
p2305
sS'drel'
p2306
S'lwg__psp:\xe0\xa4\xa6\xe0\xa4\xb2\xe0\xa5\x8b\xe0\xa4\x82'
p2307
sS'chunktype'
p2308
S'child:NP4'
p2309
sS'af'
p2310
S'\xe0\xa4\x95\xe0\xa5\x87,psp,,,,,,'
p2311
ssbsg1697
I00
sg1700
I00
sg1711
Nsg1698
Nsg189
I4
sg175
I0
sg2020
Nsg1709
Nsg2021
S'PSP'
p2312
sg288
(issf_api
FeatureSet
p2313
(dp2314
g291
(dp2315
S'posn'
p2316
S'120'
p2317
sS'name'
p2318
S'\xe0\xa4\x95\xe0\xa5\x87'
p2319
sS'af'
p2320
S'\xe0\xa4\x95\xe0\xa5\x87,psp,,,,,,'
p2321
ssbsg1718
I00
sba(issf_api
Word
p2322
(dp2323
g1999
I00
sg2000
V\u0932\u093f\u090f
p2324
sg2002
(issf_api
FeatureSet
p2325
(dp2326
g291
(dp2327
S'posn'
p2328
S'130'
p2329
sS'name'
p2330
S'\xe0\xa4\xb2\xe0\xa4\xbf\xe0\xa4\x8f'
p2331
sS'drel'
p2332
S'lwg__psp:\xe0\xa4\xa6\xe0\xa4\xb2\xe0\xa5\x8b\xe0\xa4\x82'
p2333
sS'chunktype'
p2334
S'child:NP4'
p2335
sS'af'
p2336
S'\xe0\xa4\xb2\xe0\xa4\xbf\xe0\xa4\x8f,psp,,,,,,'
p2337
ssbsg1697
I00
sg1700
I00
sg1711
Nsg1698
Nsg189
I4
sg175
I0
sg2020
Nsg1709
Nsg2021
S'PSP'
p2338
sg288
(issf_api
FeatureSet
p2339
(dp2340
g291
(dp2341
S'posn'
p2342
S'130'
p2343
sS'name'
p2344
S'\xe0\xa4\xb2\xe0\xa4\xbf\xe0\xa4\x8f'
p2345
sS'af'
p2346
S'\xe0\xa4\xb2\xe0\xa4\xbf\xe0\xa4\x8f,psp,,,,,,'
p2347
ssbsg1718
I00
sba(issf_api
Word
p2348
(dp2349
g1999
I00
sg2000
V\u091a\u0941\u0928\u093e\u0935
p2350
sg2002
(issf_api
FeatureSet
p2351
(dp2352
g291
(dp2353
S'posn'
p2354
S'140'
p2355
sS'name'
p2356
S'\xe0\xa4\x9a\xe0\xa5\x81\xe0\xa4\xa8\xe0\xa4\xbe\xe0\xa4\xb5'
p2357
sS'drel'
p2358
S'pof__cn:\xe0\xa4\xaa\xe0\xa5\x8d\xe0\xa4\xb0\xe0\xa4\x9a\xe0\xa4\xbe\xe0\xa4\xb0'
p2359
sS'chunktype'
p2360
S'child:NP5'
p2361
sS'af'
p2362
S'\xe0\xa4\x9a\xe0\xa5\x81\xe0\xa4\xa8\xe0\xa4\xbe\xe0\xa4\xb5,n,m,sg,3,d,0,0'
p2363
ssbsg1697
I00
sg1700
I00
sg1711
Nsg1698
Nsg189
I5
sg175
I0
sg2020
Nsg1709
Nsg2021
S'NNC'
p2364
sg288
(issf_api
FeatureSet
p2365
(dp2366
g291
(dp2367
S'posn'
p2368
S'140'
p2369
sS'name'
p2370
S'\xe0\xa4\x9a\xe0\xa5\x81\xe0\xa4\xa8\xe0\xa4\xbe\xe0\xa4\xb5'
p2371
sS'af'
p2372
S'\xe0\xa4\x9a\xe0\xa5\x81\xe0\xa4\xa8\xe0\xa4\xbe\xe0\xa4\xb5,n,m,sg,3,d,0,0'
p2373
ssbsg1718
I00
sba(issf_api
Word
p2374
(dp2375
g1999
I00
sg2000
V\u092a\u094d\u0930\u091a\u093e\u0930
p2376
sg2002
(issf_api
FeatureSet
p2377
(dp2378
g291
(dp2379
S'posn'
p2380
S'150'
p2381
sS'name'
p2382
S'\xe0\xa4\xaa\xe0\xa5\x8d\xe0\xa4\xb0\xe0\xa4\x9a\xe0\xa4\xbe\xe0\xa4\xb0'
p2383
sS'af'
p2384
S'\xe0\xa4\xaa\xe0\xa5\x8d\xe0\xa4\xb0\xe0\xa4\x9a\xe0\xa4\xbe\xe0\xa4\xb0,n,m,sg,3,d,0,0'
p2385
sS'chunkid'
p2386
S'NP5'
p2387
sS'drel'
p2388
S'pof:\xe0\xa4\x95\xe0\xa4\xb0'
p2389
sS'chunktype'
p2390
S'head:NP5'
p2391
ssbsg1697
I00
sg1700
I00
sg1711
Nsg1698
Nsg189
I5
sg175
I0
sg2020
Nsg1709
Nsg2021
S'NN'
p2392
sg288
(issf_api
FeatureSet
p2393
(dp2394
g291
(dp2395
S'posn'
p2396
S'150'
p2397
sS'name'
p2398
S'\xe0\xa4\xaa\xe0\xa5\x8d\xe0\xa4\xb0\xe0\xa4\x9a\xe0\xa4\xbe\xe0\xa4\xb0'
p2399
sS'af'
p2400
S'\xe0\xa4\xaa\xe0\xa5\x8d\xe0\xa4\xb0\xe0\xa4\x9a\xe0\xa4\xbe\xe0\xa4\xb0,n,m,sg,3,d,0,0'
p2401
ssbsg1718
I00
sba(issf_api
Word
p2402
(dp2403
g1999
I00
sg2000
V\u0915\u0930
p2404
sg2002
(issf_api
FeatureSet
p2405
(dp2406
g291
(dp2407
S'posn'
p2408
S'160'
p2409
sS'name'
p2410
S'\xe0\xa4\x95\xe0\xa4\xb0'
p2411
sS'af'
p2412
S'\xe0\xa4\x95\xe0\xa4\xb0,v,any,sg,3h,,0_\xe0\xa4\xb0\xe0\xa4\xb9+\xe0\xa4\xaf\xe0\xa4\xbe,0'
p2413
sS'chunkid'
p2414
S'VGNF'
p2415
sS'drel'
p2416
S'nmod__k1inv:\xe0\xa4\xb8\xe0\xa4\xbf\xe0\xa4\xa6\xe0\xa5\x8d\xe0\xa4\xa7\xe0\xa5\x82'
p2417
sS'vpos'
p2418
S'tam_2'
p2419
sS'chunktype'
p2420
S'head:VGNF'
p2421
ssbsg1697
I00
sg1700
I00
sg1711
Nsg1698
Nsg189
I6
sg175
I0
sg2020
Nsg1709
Nsg2021
S'VM'
p2422
sg288
(issf_api
FeatureSet
p2423
(dp2424
g291
(dp2425
S'posn'
p2426
S'160'
p2427
sS'name'
p2428
S'\xe0\xa4\x95\xe0\xa4\xb0'
p2429
sS'af'
p2430
S'\xe0\xa4\x95\xe0\xa4\xb0,v,any,any,any,,0,0'
p2431
ssbsg1718
I00
sba(issf_api
Word
p2432
(dp2433
g1999
I00
sg2000
V\u0930\u0939\u0947
p2434
sg2002
(issf_api
FeatureSet
p2435
(dp2436
g291
(dp2437
S'posn'
p2438
S'170'
p2439
sS'name'
p2440
S'\xe0\xa4\xb0\xe0\xa4\xb9\xe0\xa5\x87'
p2441
sS'drel'
p2442
S'lwg__vaux:\xe0\xa4\x95\xe0\xa4\xb0'
p2443
sS'chunktype'
p2444
S'child:VGNF'
p2445
sS'af'
p2446
S'\xe0\xa4\xb0\xe0\xa4\xb9,v,m,sg,3h,,\xe0\xa4\xaf\xe0\xa4\xbe,yA'
p2447
ssbsg1697
I00
sg1700
I00
sg1711
Nsg1698
Nsg189
I6
sg175
I0
sg2020
Nsg1709
Nsg2021
S'VAUX'
p2448
sg288
(issf_api
FeatureSet
p2449
(dp2450
g291
(dp2451
S'posn'
p2452
S'170'
p2453
sS'name'
p2454
S'\xe0\xa4\xb0\xe0\xa4\xb9\xe0\xa5\x87'
p2455
sS'af'
p2456
S'\xe0\xa4\xb0\xe0\xa4\xb9,v,m,sg,3h,,\xe0\xa4\xaf\xe0\xa4\xbe,yA'
p2457
ssbsg1718
I00
sba(issf_api
Word
p2458
(dp2459
g1999
I00
sg2000
V\u092a\u093e\u0930\u094d\u091f\u0940
p2460
sg2002
(issf_api
FeatureSet
p2461
(dp2462
g291
(dp2463
S'posn'
p2464
S'180'
p2465
sS'name'
p2466
S'\xe0\xa4\xaa\xe0\xa4\xbe\xe0\xa4\xb0\xe0\xa5\x8d\xe0\xa4\x9f\xe0\xa5\x802'
p2467
sS'af'
p2468
S'\xe0\xa4\xaa\xe0\xa4\xbe\xe0\xa4\xb0\xe0\xa5\x8d\xe0\xa4\x9f\xe0\xa5\x80,n,f,sg,3,o,0_\xe0\xa4\x95\xe0\xa4\xbe,0'
p2469
sS'chunkid'
p2470
S'NP6'
p2471
sS'drel'
p2472
S'r6:\xe0\xa4\xb8\xe0\xa4\xbe\xe0\xa4\x82\xe0\xa4\xb8\xe0\xa4\xa6'
p2473
sS'vpos'
p2474
S'vib_2'
p2475
sS'chunktype'
p2476
S'head:NP6'
p2477
ssbsg1697
I00
sg1700
I00
sg1711
Nsg1698
Nsg189
I7
sg175
I0
sg2020
Nsg1709
Nsg2021
S'NN'
p2478
sg288
(issf_api
FeatureSet
p2479
(dp2480
g291
(dp2481
S'posn'
p2482
S'180'
p2483
sS'name'
p2484
S'\xe0\xa4\xaa\xe0\xa4\xbe\xe0\xa4\xb0\xe0\xa5\x8d\xe0\xa4\x9f\xe0\xa5\x802'
p2485
sS'af'
p2486
S'\xe0\xa4\xaa\xe0\xa4\xbe\xe0\xa4\xb0\xe0\xa5\x8d\xe0\xa4\x9f\xe0\xa5\x80,n,f,sg,3,o,0,0'
p2487
ssbsg1718
I00
sba(issf_api
Word
p2488
(dp2489
g1999
I00
sg2000
V\u0915\u0947
p2490
sg2002
(issf_api
FeatureSet
p2491
(dp2492
g291
(dp2493
S'posn'
p2494
S'190'
p2495
sS'name'
p2496
S'\xe0\xa4\x95\xe0\xa5\x872'
p2497
sS'drel'
p2498
S'lwg__psp:\xe0\xa4\xaa\xe0\xa4\xbe\xe0\xa4\xb0\xe0\xa5\x8d\xe0\xa4\x9f\xe0\xa5\x802'
p2499
sS'chunktype'
p2500
S'child:NP6'
p2501
sS'af'
p2502
S'\xe0\xa4\x95\xe0\xa4\xbe,psp,m,sg,3h,d,,'
p2503
ssbsg1697
I00
sg1700
I00
sg1711
Nsg1698
Nsg189
I7
sg175
I0
sg2020
Nsg1709
Nsg2021
S'PSP'
p2504
sg288
(issf_api
FeatureSet
p2505
(dp2506
g291
(dp2507
S'posn'
p2508
S'190'
p2509
sS'name'
p2510
S'\xe0\xa4\x95\xe0\xa5\x872'
p2511
sS'af'
p2512
S'\xe0\xa4\x95\xe0\xa4\xbe,psp,m,sg,3h,d,,'
p2513
ssbsg1718
I00
sba(issf_api
Word
p2514
(dp2515
g1999
I00
sg2000
V\u0938\u093e\u0902\u0938\u0926
p2516
sg2002
(issf_api
FeatureSet
p2517
(dp2518
g291
(dp2519
S'posn'
p2520
S'200'
p2521
sS'name'
p2522
S'\xe0\xa4\xb8\xe0\xa4\xbe\xe0\xa4\x82\xe0\xa4\xb8\xe0\xa4\xa6'
p2523
sS'af'
p2524
S'\xe0\xa4\xb8\xe0\xa4\xbe\xe0\xa4\x82\xe0\xa4\xb8\xe0\xa4\xa6,n,m,sg,3,d,0,0'
p2525
sS'chunkid'
p2526
S'NP7'
p2527
sS'drel'
p2528
S'ccof:\xe0\xa4\x94\xe0\xa4\xb02'
p2529
sS'chunktype'
p2530
S'head:NP7'
p2531
ssbsg1697
I00
sg1700
I00
sg1711
Nsg1698
Nsg189
I8
sg175
I0
sg2020
Nsg1709
Nsg2021
S'NN'
p2532
sg288
(issf_api
FeatureSet
p2533
(dp2534
g291
(dp2535
S'posn'
p2536
S'200'
p2537
sS'name'
p2538
S'\xe0\xa4\xb8\xe0\xa4\xbe\xe0\xa4\x82\xe0\xa4\xb8\xe0\xa4\xa6'
p2539
sS'af'
p2540
S'\xe0\xa4\xb8\xe0\xa4\xbe\xe0\xa4\x82\xe0\xa4\xb8\xe0\xa4\xa6,n,m,sg,3,d,0,0'
p2541
ssbsg1718
I00
sba(issf_api
Word
p2542
(dp2543
g1999
I00
sg2000
V\u0914\u0930
p2544
sg2002
(issf_api
FeatureSet
p2545
(dp2546
g291
(dp2547
S'posn'
p2548
S'210'
p2549
sS'name'
p2550
S'\xe0\xa4\x94\xe0\xa4\xb02'
p2551
sS'af'
p2552
S'\xe0\xa4\x94\xe0\xa4\xb0,avy,,,,,,'
p2553
sS'chunkid'
p2554
S'CCP2'
p2555
sS'drel'
p2556
S'nmod:\xe0\xa4\xb8\xe0\xa4\xbf\xe0\xa4\xa6\xe0\xa5\x8d\xe0\xa4\xa7\xe0\xa5\x82'
p2557
sS'chunktype'
p2558
S'head:CCP2'
p2559
ssbsg1697
I00
sg1700
I00
sg1711
Nsg1698
Nsg189
I9
sg175
I0
sg2020
Nsg1709
Nsg2021
S'CC'
p2560
sg288
(issf_api
FeatureSet
p2561
(dp2562
g291
(dp2563
S'posn'
p2564
S'210'
p2565
sS'name'
p2566
S'\xe0\xa4\x94\xe0\xa4\xb02'
p2567
sS'af'
p2568
S'\xe0\xa4\x94\xe0\xa4\xb0,avy,,,,,,'
p2569
ssbsg1718
I00
sba(issf_api
Word
p2570
(dp2571
g1999
I00
sg2000
V\u0915\u094d\u0930\u093f\u0915\u0947\u091f
p2572
sg2002
(issf_api
FeatureSet
p2573
(dp2574
g291
(dp2575
S'posn'
p2576
S'220'
p2577
sS'name'
p2578
S'\xe0\xa4\x95\xe0\xa5\x8d\xe0\xa4\xb0\xe0\xa4\xbf\xe0\xa4\x95\xe0\xa5\x87\xe0\xa4\x9f'
p2579
sS'drel'
p2580
S'nmod__adj:\xe0\xa4\x96\xe0\xa4\xbf\xe0\xa4\xb2\xe0\xa4\xbe\xe0\xa4\xa1\xe0\xa4\xbc\xe0\xa5\x80'
p2581
sS'chunktype'
p2582
S'child:NP8'
p2583
sS'af'
p2584
S'\xe0\xa4\x95\xe0\xa5\x8d\xe0\xa4\xb0\xe0\xa4\xbf\xe0\xa4\x95\xe0\xa5\x87\xe0\xa4\x9f,n,m,sg,3,d,0,0'
p2585
ssbsg1697
I00
sg1700
I00
sg1711
Nsg1698
Nsg189
I10
sg175
I0
sg2020
Nsg1709
Nsg2021
S'NNP'
p2586
sg288
(issf_api
FeatureSet
p2587
(dp2588
g291
(dp2589
S'posn'
p2590
S'220'
p2591
sS'name'
p2592
S'\xe0\xa4\x95\xe0\xa5\x8d\xe0\xa4\xb0\xe0\xa4\xbf\xe0\xa4\x95\xe0\xa5\x87\xe0\xa4\x9f'
p2593
sS'af'
p2594
S'\xe0\xa4\x95\xe0\xa5\x8d\xe0\xa4\xb0\xe0\xa4\xbf\xe0\xa4\x95\xe0\xa5\x87\xe0\xa4\x9f,n,m,sg,3,d,0,0'
p2595
ssbsg1718
I00
sba(issf_api
Word
p2596
(dp2597
g1999
I00
sg2000
V\u0916\u093f\u0932\u093e\u0921\u093c\u0940
p2598
sg2002
(issf_api
FeatureSet
p2599
(dp2600
g291
(dp2601
S'posn'
p2602
S'230'
p2603
sS'name'
p2604
S'\xe0\xa4\x96\xe0\xa4\xbf\xe0\xa4\xb2\xe0\xa4\xbe\xe0\xa4\xa1\xe0\xa4\xbc\xe0\xa5\x80'
p2605
sS'af'
p2606
S'\xe0\xa4\x96\xe0\xa4\xbf\xe0\xa4\xb2\xe0\xa4\xbe\xe0\xa4\xa1\xe0\xa5\x80,n,m,sg,3,d,0,0'
p2607
sS'chunkid'
p2608
S'NP8'
p2609
sS'drel'
p2610
S'ccof:\xe0\xa4\x94\xe0\xa4\xb02'
p2611
sS'chunktype'
p2612
S'head:NP8'
p2613
ssbsg1697
I00
sg1700
I00
sg1711
Nsg1698
Nsg189
I10
sg175
I0
sg2020
Nsg1709
Nsg2021
S'NN'
p2614
sg288
(issf_api
FeatureSet
p2615
(dp2616
g291
(dp2617
S'posn'
p2618
S'230'
p2619
sS'name'
p2620
S'\xe0\xa4\x96\xe0\xa4\xbf\xe0\xa4\xb2\xe0\xa4\xbe\xe0\xa4\xa1\xe0\xa4\xbc\xe0\xa5\x80'
p2621
sS'af'
p2622
S'\xe0\xa4\x96\xe0\xa4\xbf\xe0\xa4\xb2\xe0\xa4\xbe\xe0\xa4\xa1\xe0\xa5\x80,n,m,sg,3,d,0,0'
p2623
ssbsg1718
I00
sba(issf_api
Word
p2624
(dp2625
g1999
I00
sg2000
V\u0928\u0935\u091c\u094b\u0924
p2626
sg2002
(issf_api
FeatureSet
p2627
(dp2628
g291
(dp2629
S'posn'
p2630
S'240'
p2631
sS'name'
p2632
S'\xe0\xa4\xa8\xe0\xa4\xb5\xe0\xa4\x9c\xe0\xa5\x8b\xe0\xa4\xa4'
p2633
sS'drel'
p2634
S'pof__cn:\xe0\xa4\xb8\xe0\xa4\xbf\xe0\xa4\xa6\xe0\xa5\x8d\xe0\xa4\xa7\xe0\xa5\x82'
p2635
sS'chunktype'
p2636
S'child:NP9'
p2637
sS'af'
p2638
S'\xe0\xa4\xa8\xe0\xa4\xb5\xe0\xa4\x9c\xe0\xa5\x8b\xe0\xa4\xa4,n,m,sg,3,d,0,0'
p2639
ssbsg1697
I00
sg1700
I00
sg1711
Nsg1698
Nsg189
I11
sg175
I0
sg2020
Nsg1709
Nsg2021
S'NNPC'
p2640
sg288
(issf_api
FeatureSet
p2641
(dp2642
g291
(dp2643
S'posn'
p2644
S'240'
p2645
sS'name'
p2646
S'\xe0\xa4\xa8\xe0\xa4\xb5\xe0\xa4\x9c\xe0\xa5\x8b\xe0\xa4\xa4'
p2647
sS'af'
p2648
S'\xe0\xa4\xa8\xe0\xa4\xb5\xe0\xa4\x9c\xe0\xa5\x8b\xe0\xa4\xa4,n,m,sg,3,d,0,0'
p2649
ssbsg1718
I00
sba(issf_api
Word
p2650
(dp2651
g1999
I00
sg2000
V\u0938\u093f\u0926\u094d\u0927\u0942
p2652
sg2002
(issf_api
FeatureSet
p2653
(dp2654
g291
(dp2655
S'posn'
p2656
S'250'
p2657
sS'name'
p2658
S'\xe0\xa4\xb8\xe0\xa4\xbf\xe0\xa4\xa6\xe0\xa5\x8d\xe0\xa4\xa7\xe0\xa5\x82'
p2659
sS'af'
p2660
S'\xe0\xa4\xb8\xe0\xa4\xbf\xe0\xa4\xa6\xe0\xa5\x8d\xe0\xa4\xa7\xe0\xa5\x82,n,any,sg,3,d,0,0'
p2661
sS'chunkid'
p2662
S'NP9'
p2663
sS'drel'
p2664
S'k1:\xe0\xa4\xb9\xe0\xa5\x88\xe0\xa4\x82'
p2665
sS'chunktype'
p2666
S'head:NP9'
p2667
ssbsg1697
I00
sg1700
I00
sg1711
Nsg1698
Nsg189
I11
sg175
I0
sg2020
Nsg1709
Nsg2021
S'NNP'
p2668
sg288
(issf_api
FeatureSet
p2669
(dp2670
g291
(dp2671
S'posn'
p2672
S'250'
p2673
sS'name'
p2674
S'\xe0\xa4\xb8\xe0\xa4\xbf\xe0\xa4\xa6\xe0\xa5\x8d\xe0\xa4\xa7\xe0\xa5\x82'
p2675
sS'af'
p2676
S'\xe0\xa4\xb8\xe0\xa4\xbf\xe0\xa4\xa6\xe0\xa5\x8d\xe0\xa4\xa7\xe0\xa5\x82,n,any,sg,3,d,0,0'
p2677
ssbsg1718
I00
sba(issf_api
Word
p2678
(dp2679
g1999
I00
sg2000
V\u091c\u0941\u092e\u0932\u0947\u092c\u093e\u091c\u0940
p2680
sg2002
(issf_api
FeatureSet
p2681
(dp2682
g291
(dp2683
S'posn'
p2684
S'260'
p2685
sS'name'
p2686
S'\xe0\xa4\x9c\xe0\xa5\x81\xe0\xa4\xae\xe0\xa4\xb2\xe0\xa5\x87\xe0\xa4\xac\xe0\xa4\xbe\xe0\xa4\x9c\xe0\xa5\x80'
p2687
sS'af'
p2688
S'\xe0\xa4\x9c\xe0\xa5\x81\xe0\xa4\xae\xe0\xa4\xb2\xe0\xa5\x87\xe0\xa4\xac\xe0\xa4\xbe\xe0\xa4\x9c\xe0\xa5\x80,n,f,sg,3,o,0_\xe0\xa4\xae\xe0\xa5\x87\xe0\xa4\x82,0'
p2689
sS'chunkid'
p2690
S'NP10'
p2691
sS'drel'
p2692
S'k7:\xe0\xa4\xb9\xe0\xa5\x88\xe0\xa4\x82'
p2693
sS'vpos'
p2694
S'vib_2'
p2695
sS'chunktype'
p2696
S'head:NP10'
p2697
ssbsg1697
I00
sg1700
I00
sg1711
Nsg1698
Nsg189
I12
sg175
I0
sg2020
Nsg1709
Nsg2021
S'NN'
p2698
sg288
(issf_api
FeatureSet
p2699
(dp2700
g291
(dp2701
S'posn'
p2702
S'260'
p2703
sS'name'
p2704
S'\xe0\xa4\x9c\xe0\xa5\x81\xe0\xa4\xae\xe0\xa4\xb2\xe0\xa5\x87\xe0\xa4\xac\xe0\xa4\xbe\xe0\xa4\x9c\xe0\xa5\x80'
p2705
sS'af'
p2706
S'\xe0\xa4\x9c\xe0\xa5\x81\xe0\xa4\xae\xe0\xa4\xb2\xe0\xa5\x87\xe0\xa4\xac\xe0\xa4\xbe\xe0\xa4\x9c\xe0\xa5\x80,n,f,sg,3,o,0,0'
p2707
ssbsg1718
I00
sba(issf_api
Word
p2708
(dp2709
g1999
I00
sg2000
V\u092e\u0947\u0902
p2710
sg2002
(issf_api
FeatureSet
p2711
(dp2712
g291
(dp2713
S'posn'
p2714
S'270'
p2715
sS'name'
p2716
S'\xe0\xa4\xae\xe0\xa5\x87\xe0\xa4\x822'
p2717
sS'drel'
p2718
S'lwg__psp:\xe0\xa4\x9c\xe0\xa5\x81\xe0\xa4\xae\xe0\xa4\xb2\xe0\xa5\x87\xe0\xa4\xac\xe0\xa4\xbe\xe0\xa4\x9c\xe0\xa5\x80'
p2719
sS'chunktype'
p2720
S'child:NP10'
p2721
sS'af'
p2722
S'\xe0\xa4\xae\xe0\xa5\x87\xe0\xa4\x82,psp,,,,,,'
p2723
ssbsg1697
I00
sg1700
I00
sg1711
Nsg1698
Nsg189
I12
sg175
I0
sg2020
Nsg1709
Nsg2021
S'PSP'
p2724
sg288
(issf_api
FeatureSet
p2725
(dp2726
g291
(dp2727
S'posn'
p2728
S'270'
p2729
sS'name'
p2730
S'\xe0\xa4\xae\xe0\xa5\x87\xe0\xa4\x822'
p2731
sS'af'
p2732
S'\xe0\xa4\xae\xe0\xa5\x87\xe0\xa4\x82,psp,,,,,,'
p2733
ssbsg1718
I00
sba(issf_api
Word
p2734
(dp2735
g1999
I00
sg2000
V\u092a\u0942\u0930\u0947
p2736
sg2002
(issf_api
FeatureSet
p2737
(dp2738
g291
(dp2739
S'posn'
p2740
S'280'
p2741
sS'name'
p2742
S'\xe0\xa4\xaa\xe0\xa5\x82\xe0\xa4\xb0\xe0\xa5\x87'
p2743
sS'drel'
p2744
S'nmod__adj:\xe0\xa4\xb0\xe0\xa4\x82\xe0\xa4\x97'
p2745
sS'chunktype'
p2746
S'child:NP11'
p2747
sS'af'
p2748
S'\xe0\xa4\xaa\xe0\xa5\x82\xe0\xa4\xb0\xe0\xa4\xbe,adj,m,sg,,o,,'
p2749
ssbsg1697
I00
sg1700
I00
sg1711
Nsg1698
Nsg189
I13
sg175
I0
sg2020
Nsg1709
Nsg2021
S'JJ'
p2750
sg288
(issf_api
FeatureSet
p2751
(dp2752
g291
(dp2753
S'posn'
p2754
S'280'
p2755
sS'name'
p2756
S'\xe0\xa4\xaa\xe0\xa5\x82\xe0\xa4\xb0\xe0\xa5\x87'
p2757
sS'af'
p2758
S'\xe0\xa4\xaa\xe0\xa5\x82\xe0\xa4\xb0\xe0\xa4\xbe,adj,m,sg,,o,,'
p2759
ssbsg1718
I00
sba(issf_api
Word
p2760
(dp2761
g1999
I00
sg2000
V\u0930\u0902\u0917
p2762
sg2002
(issf_api
FeatureSet
p2763
(dp2764
g291
(dp2765
S'posn'
p2766
S'290'
p2767
sS'name'
p2768
S'\xe0\xa4\xb0\xe0\xa4\x82\xe0\xa4\x97'
p2769
sS'af'
p2770
S'\xe0\xa4\xb0\xe0\xa4\x82\xe0\xa4\x97,n,m,sg,3,o,0_\xe0\xa4\xaa\xe0\xa4\xb0,0'
p2771
sS'chunkid'
p2772
S'NP11'
p2773
sS'drel'
p2774
S'k7:\xe0\xa4\xb9\xe0\xa5\x88\xe0\xa4\x82'
p2775
sS'vpos'
p2776
S'vib_3'
p2777
sS'chunktype'
p2778
S'head:NP11'
p2779
ssbsg1697
I00
sg1700
I00
sg1711
Nsg1698
Nsg189
I13
sg175
I0
sg2020
Nsg1709
Nsg2021
S'NN'
p2780
sg288
(issf_api
FeatureSet
p2781
(dp2782
g291
(dp2783
S'posn'
p2784
S'290'
p2785
sS'name'
p2786
S'\xe0\xa4\xb0\xe0\xa4\x82\xe0\xa4\x97'
p2787
sS'af'
p2788
S'\xe0\xa4\xb0\xe0\xa4\x82\xe0\xa4\x97,n,m,sg,3,o,0,0'
p2789
ssbsg1718
I00
sba(issf_api
Word
p2790
(dp2791
g1999
I00
sg2000
V\u092a\u0930
p2792
sg2002
(issf_api
FeatureSet
p2793
(dp2794
g291
(dp2795
S'posn'
p2796
S'300'
p2797
sS'name'
p2798
S'\xe0\xa4\xaa\xe0\xa4\xb0'
p2799
sS'drel'
p2800
S'lwg__psp:\xe0\xa4\xb0\xe0\xa4\x82\xe0\xa4\x97'
p2801
sS'chunktype'
p2802
S'child:NP11'
p2803
sS'af'
p2804
S'\xe0\xa4\xaa\xe0\xa4\xb0,psp,,,,,,'
p2805
ssbsg1697
I00
sg1700
I00
sg1711
Nsg1698
Nsg189
I13
sg175
I0
sg2020
Nsg1709
Nsg2021
S'PSP'
p2806
sg288
(issf_api
FeatureSet
p2807
(dp2808
g291
(dp2809
S'posn'
p2810
S'300'
p2811
sS'name'
p2812
S'\xe0\xa4\xaa\xe0\xa4\xb0'
p2813
sS'af'
p2814
S'\xe0\xa4\xaa\xe0\xa4\xb0,psp,,,,,,'
p2815
ssbsg1718
I00
sba(issf_api
Word
p2816
(dp2817
g1999
I00
sg2000
V\u0939\u0948\u0902
p2818
sg2002
(issf_api
FeatureSet
p2819
(dp2820
g291
(dp2821
S'posn'
p2822
S'310'
p2823
sS'name'
p2824
S'\xe0\xa4\xb9\xe0\xa5\x88\xe0\xa4\x82'
p2825
sS'af'
p2826
S'\xe0\xa4\xb9\xe0\xa5\x88,v,any,sg,3h,,\xe0\xa4\xb9\xe0\xa5\x88,hE'
p2827
sS'chunkid'
p2828
S'VGF'
p2829
sS'chunktype'
p2830
S'head:VGF'
p2831
sS'voicetype'
p2832
S'active'
p2833
sS'stype'
p2834
S'declarative'
p2835
ssbsg1697
I00
sg1700
I00
sg1711
Nsg1698
Nsg189
I14
sg175
I0
sg2020
Nsg1709
Nsg2021
S'VM'
p2836
sg288
(issf_api
FeatureSet
p2837
(dp2838
g291
(dp2839
S'posn'
p2840
S'310'
p2841
sS'name'
p2842
S'\xe0\xa4\xb9\xe0\xa5\x88\xe0\xa4\x82'
p2843
sS'af'
p2844
S'\xe0\xa4\xb9\xe0\xa5\x88,v,any,sg,3h,,\xe0\xa4\xb9\xe0\xa5\x88,hE'
p2845
ssbsg1718
I00
sba(issf_api
Word
p2846
(dp2847
g1999
I00
sg2000
V\u0964
sg2002
(issf_api
FeatureSet
p2848
(dp2849
g291
(dp2850
S'posn'
p2851
S'320'
p2852
sS'name'
p2853
S'\xe0\xa5\xa4'
p2854
sS'af'
p2855
S'\xe0\xa5\xa4,punc,,,,,,'
p2856
sS'chunkid'
p2857
S'BLK'
p2858
sS'drel'
p2859
S'rsym:\xe0\xa4\xb9\xe0\xa5\x88\xe0\xa4\x82'
p2860
sS'chunktype'
p2861
S'head:BLK'
p2862
ssbsg1697
I00
sg1700
I00
sg1711
Nsg1698
Nsg189
I15
sg175
I0
sg2020
Nsg1709
Nsg2021
S'SYM'
p2863
sg288
(issf_api
FeatureSet
p2864
(dp2865
g291
(dp2866
S'posn'
p2867
S'320'
p2868
sS'name'
p2869
S'\xe0\xa5\xa4'
p2870
sS'af'
p2871
S'\xe0\xa5\xa4,punc,,,,,,'
p2872
ssbsg1718
I00
sba(issf_api
Word
p2873
(dp2874
g1999
I00
sg2000
V\u0909\u0928\u094d\u0939\u094b\u0902\u0928\u0947
p2875
sg2002
(issf_api
FeatureSet
p2876
(dp2877
g291
(dp2878
S'posn'
p2879
S'10'
p2880
sS'name'
p2881
S'\xe0\xa4\x89\xe0\xa4\xa8\xe0\xa5\x8d\xe0\xa4\xb9\xe0\xa5\x8b\xe0\xa4\x82\xe0\xa4\xa8\xe0\xa5\x87'
p2882
sS'af'
p2883
S'\xe0\xa4\xb5\xe0\xa4\xb9,pn,any,sg,3h,o,\xe0\xa4\xa8\xe0\xa5\x87,ne'
p2884
sS'chunkid'
p2885
S'NP'
p2886
sS'drel'
p2887
S'k1:\xe0\xa4\xac\xe0\xa4\xa4\xe0\xa4\xbe\xe0\xa4\xaf\xe0\xa4\xbe'
p2888
sS'chunktype'
p2889
S'head:NP'
p2890
ssbsg1697
I01
sg1700
I00
sg1711
Nsg1698
Nsg189
I0
sg175
I1
sg2020
I0
sg1709
Nsg2021
S'PRP'
p2891
sg288
(issf_api
FeatureSet
p2892
(dp2893
g291
(dp2894
S'posn'
p2895
S'10'
p2896
sS'name'
p2897
S'\xe0\xa4\x89\xe0\xa4\xa8\xe0\xa5\x8d\xe0\xa4\xb9\xe0\xa5\x8b\xe0\xa4\x82\xe0\xa4\xa8\xe0\xa5\x87'
p2898
sS'af'
p2899
S'\xe0\xa4\xb5\xe0\xa4\xb9,pn,any,sg,3h,o,\xe0\xa4\xa8\xe0\xa5\x87,ne'
p2900
ssbsg1718
I00
sba(issf_api
Word
p2901
(dp2902
g1999
I00
sg2000
V\u0930\u093e\u091c\u0917
p2903
sg2002
(issf_api
FeatureSet
p2904
(dp2905
g291
(dp2906
S'posn'
p2907
S'20'
p2908
sS'name'
p2909
S'\xe0\xa4\xb0\xe0\xa4\xbe\xe0\xa4\x9c\xe0\xa4\x97'
p2910
sS'af'
p2911
S'\xe0\xa4\xb0\xe0\xa4\xbe\xe0\xa4\x9c\xe0\xa4\x97,n,m,sg,3,o,0_\xe0\xa4\x95\xe0\xa4\xbe,0'
p2912
sS'chunkid'
p2913
S'NP2'
p2914
sS'drel'
p2915
S'r6:\xe0\xa4\xaa\xe0\xa4\xa6'
p2916
sS'vpos'
p2917
S'vib_2'
p2918
sS'chunktype'
p2919
S'head:NP2'
p2920
ssbsg1697
I01
sg1700
I00
sg1711
Nsg1698
Nsg189
I1
sg175
I1
sg2020
I0
sg1709
Nsg2021
S'NNP'
p2921
sg288
(issf_api
FeatureSet
p2922
(dp2923
g291
(dp2924
S'posn'
p2925
S'20'
p2926
sS'name'
p2927
S'\xe0\xa4\xb0\xe0\xa4\xbe\xe0\xa4\x9c\xe0\xa4\x97'
p2928
sS'af'
p2929
S'\xe0\xa4\xb0\xe0\xa4\xbe\xe0\xa4\x9c\xe0\xa4\x97,n,m,sg,3,o,0,0'
p2930
ssbsg1718
I00
sba(issf_api
Word
p2931
(dp2932
g1999
I00
sg2000
V\u0915\u0947
p2933
sg2002
(issf_api
FeatureSet
p2934
(dp2935
g291
(dp2936
S'posn'
p2937
S'30'
p2938
sS'name'
p2939
S'\xe0\xa4\x95\xe0\xa5\x87'
p2940
sS'drel'
p2941
S'lwg__psp:\xe0\xa4\xb0\xe0\xa4\xbe\xe0\xa4\x9c\xe0\xa4\x97'
p2942
sS'chunktype'
p2943
S'child:NP2'
p2944
sS'af'
p2945
S'\xe0\xa4\x95\xe0\xa4\xbe,psp,m,sg,,o,,'
p2946
ssbsg1697
I01
sg1700
I00
sg1711
Nsg1698
Nsg189
I1
sg175
I1
sg2020
I0
sg1709
Nsg2021
S'PSP'
p2947
sg288
(issf_api
FeatureSet
p2948
(dp2949
g291
(dp2950
S'posn'
p2951
S'30'
p2952
sS'name'
p2953
S'\xe0\xa4\x95\xe0\xa5\x87'
p2954
sS'af'
p2955
S'\xe0\xa4\x95\xe0\xa4\xbe,psp,m,sg,,o,,'
p2956
ssbsg1718
I00
sba(issf_api
Word
p2957
(dp2958
g1999
I00
sg2000
V\u092e\u0941\u0916\u094d\u092f\u092e\u0902\u0924\u094d\u0930\u0940
p2959
sg2002
(issf_api
FeatureSet
p2960
(dp2961
g291
(dp2962
S'posn'
p2963
S'40'
p2964
sS'name'
p2965
S'\xe0\xa4\xae\xe0\xa5\x81\xe0\xa4\x96\xe0\xa5\x8d\xe0\xa4\xaf\xe0\xa4\xae\xe0\xa4\x82\xe0\xa4\xa4\xe0\xa5\x8d\xe0\xa4\xb0\xe0\xa5\x80'
p2966
sS'drel'
p2967
S'nmod__adj:\xe0\xa4\xaa\xe0\xa4\xa6'
p2968
sS'chunktype'
p2969
S'child:NP3'
p2970
sS'af'
p2971
S'\xe0\xa4\xae\xe0\xa5\x81\xe0\xa4\x96\xe0\xa5\x8d\xe0\xa4\xaf\xe0\xa4\xae\xe0\xa4\x82\xe0\xa4\xa4\xe0\xa5\x8d\xe0\xa4\xb0\xe0\xa5\x80,n,m,sg,3,d,0,0'
p2972
ssbsg1697
I01
sg1700
I00
sg1711
Nsg1698
Nsg189
I2
sg175
I1
sg2020
I0
sg1709
Nsg2021
S'NNP'
p2973
sg288
(issf_api
FeatureSet
p2974
(dp2975
g291
(dp2976
S'posn'
p2977
S'40'
p2978
sS'name'
p2979
S'\xe0\xa4\xae\xe0\xa5\x81\xe0\xa4\x96\xe0\xa5\x8d\xe0\xa4\xaf\xe0\xa4\xae\xe0\xa4\x82\xe0\xa4\xa4\xe0\xa5\x8d\xe0\xa4\xb0\xe0\xa5\x80'
p2980
sS'af'
p2981
S'\xe0\xa4\xae\xe0\xa5\x81\xe0\xa4\x96\xe0\xa5\x8d\xe0\xa4\xaf\xe0\xa4\xae\xe0\xa4\x82\xe0\xa4\xa4\xe0\xa5\x8d\xe0\xa4\xb0\xe0\xa5\x80,n,m,sg,3,d,0,0'
p2982
ssbsg1718
I00
sba(issf_api
Word
p2983
(dp2984
g1999
I00
sg2000
V\u092a\u0926
p2985
sg2002
(issf_api
FeatureSet
p2986
(dp2987
g291
(dp2988
S'posn'
p2989
S'50'
p2990
sS'name'
p2991
S'\xe0\xa4\xaa\xe0\xa4\xa6'
p2992
sS'af'
p2993
S'\xe0\xa4\xaa\xe0\xa4\xa6,n,m,sg,3,o,0_\xe0\xa4\x95\xe0\xa4\xbe,0'
p2994
sS'chunkid'
p2995
S'NP3'
p2996
sS'drel'
p2997
S'r6:\xe0\xa4\x89\xe0\xa4\xae\xe0\xa5\x8d\xe0\xa4\xae\xe0\xa5\x80\xe0\xa4\xa6\xe0\xa4\xb5\xe0\xa4\xbe\xe0\xa4\xb0'
p2998
sS'vpos'
p2999
S'vib_vib_3'
p3000
sS'chunktype'
p3001
S'head:NP3'
p3002
ssbsg1697
I01
sg1700
I00
sg1711
Nsg1698
Nsg189
I2
sg175
I1
sg2020
I0
sg1709
Nsg2021
S'NN'
p3003
sg288
(issf_api
FeatureSet
p3004
(dp3005
g291
(dp3006
S'posn'
p3007
S'50'
p3008
sS'name'
p3009
S'\xe0\xa4\xaa\xe0\xa4\xa6'
p3010
sS'af'
p3011
S'\xe0\xa4\xaa\xe0\xa4\xa6,n,m,sg,3,o,0,0'
p3012
ssbsg1718
I00
sba(issf_api
Word
p3013
(dp3014
g1999
I00
sg2000
V\u0915\u0947
p3015
sg2002
(issf_api
FeatureSet
p3016
(dp3017
g291
(dp3018
S'posn'
p3019
S'60'
p3020
sS'name'
p3021
S'\xe0\xa4\x95\xe0\xa5\x872'
p3022
sS'drel'
p3023
S'lwg__psp:\xe0\xa4\xaa\xe0\xa4\xa6'
p3024
sS'chunktype'
p3025
S'child:NP3'
p3026
sS'af'
p3027
S'\xe0\xa4\x95\xe0\xa4\xbe,psp,m,sg,,o,,'
p3028
ssbsg1697
I01
sg1700
I00
sg1711
Nsg1698
Nsg189
I2
sg175
I1
sg2020
I0
sg1709
Nsg2021
S'PSP'
p3029
sg288
(issf_api
FeatureSet
p3030
(dp3031
g291
(dp3032
S'posn'
p3033
S'60'
p3034
sS'name'
p3035
S'\xe0\xa4\x95\xe0\xa5\x872'
p3036
sS'af'
p3037
S'\xe0\xa4\x95\xe0\xa4\xbe,psp,m,sg,,o,,'
p3038
ssbsg1718
I00
sba(issf_api
Word
p3039
(dp3040
g1999
I00
sg2000
V\u0909\u092e\u094d\u092e\u0940\u0926\u0935\u093e\u0930
p3041
sg2002
(issf_api
FeatureSet
p3042
(dp3043
g291
(dp3044
S'posn'
p3045
S'70'
p3046
sS'name'
p3047
S'\xe0\xa4\x89\xe0\xa4\xae\xe0\xa5\x8d\xe0\xa4\xae\xe0\xa5\x80\xe0\xa4\xa6\xe0\xa4\xb5\xe0\xa4\xbe\xe0\xa4\xb0'
p3048
sS'af'
p3049
S'\xe0\xa4\x89\xe0\xa4\xae\xe0\xa5\x8d\xe0\xa4\xae\xe0\xa5\x80\xe0\xa4\xa6\xe0\xa4\xb5\xe0\xa4\xbe\xe0\xa4\xb0,n,m,sg,3,o,0,0'
p3050
sS'chunkid'
p3051
S'NP4'
p3052
sS'drel'
p3053
S'nmod:\xe0\xa4\x95\xe0\xa5\x81\xe0\xa4\xae\xe0\xa4\xbe\xe0\xa4\xb0'
p3054
sS'chunktype'
p3055
S'head:NP4'
p3056
ssbsg1697
I01
sg1700
I00
sg1711
Nsg1698
Nsg189
I3
sg175
I1
sg2020
I0
sg1709
Nsg2021
S'NN'
p3057
sg288
(issf_api
FeatureSet
p3058
(dp3059
g291
(dp3060
S'posn'
p3061
S'70'
p3062
sS'name'
p3063
S'\xe0\xa4\x89\xe0\xa4\xae\xe0\xa5\x8d\xe0\xa4\xae\xe0\xa5\x80\xe0\xa4\xa6\xe0\xa4\xb5\xe0\xa4\xbe\xe0\xa4\xb0'
p3064
sS'af'
p3065
S'\xe0\xa4\x89\xe0\xa4\xae\xe0\xa5\x8d\xe0\xa4\xae\xe0\xa5\x80\xe0\xa4\xa6\xe0\xa4\xb5\xe0\xa4\xbe\xe0\xa4\xb0,n,m,sg,3,o,0,0'
p3066
ssbsg1718
I00
sba(issf_api
Word
p3067
(dp3068
g1999
I00
sg2000
V\u0928\u093f\u0924\u0940\u0936
p3069
sg2002
(issf_api
FeatureSet
p3070
(dp3071
g291
(dp3072
S'posn'
p3073
S'80'
p3074
sS'name'
p3075
S'\xe0\xa4\xa8\xe0\xa4\xbf\xe0\xa4\xa4\xe0\xa5\x80\xe0\xa4\xb6'
p3076
sS'drel'
p3077
S'pof__cn:\xe0\xa4\x95\xe0\xa5\x81\xe0\xa4\xae\xe0\xa4\xbe\xe0\xa4\xb0'
p3078
sS'chunktype'
p3079
S'child:NP5'
p3080
sS'af'
p3081
S'\xe0\xa4\xa8\xe0\xa4\xbf\xe0\xa4\xa4\xe0\xa5\x80\xe0\xa4\xb6,n,m,sg,3,d,0,0'
p3082
ssbsg1697
I01
sg1700
I00
sg1711
Nsg1698
Nsg189
I4
sg175
I1
sg2020
I0
sg1709
Nsg2021
S'NNPC'
p3083
sg288
(issf_api
FeatureSet
p3084
(dp3085
g291
(dp3086
S'posn'
p3087
S'80'
p3088
sS'name'
p3089
S'\xe0\xa4\xa8\xe0\xa4\xbf\xe0\xa4\xa4\xe0\xa5\x80\xe0\xa4\xb6'
p3090
sS'af'
p3091
S'\xe0\xa4\xa8\xe0\xa4\xbf\xe0\xa4\xa4\xe0\xa5\x80\xe0\xa4\xb6,n,m,sg,3,d,0,0'
p3092
ssbsg1718
I00
sba(issf_api
Word
p3093
(dp3094
g1999
I00
sg2000
V\u0915\u0941\u092e\u093e\u0930
p3095
sg2002
(issf_api
FeatureSet
p3096
(dp3097
g291
(dp3098
S'posn'
p3099
S'90'
p3100
sS'name'
p3101
S'\xe0\xa4\x95\xe0\xa5\x81\xe0\xa4\xae\xe0\xa4\xbe\xe0\xa4\xb0'
p3102
sS'af'
p3103
S'\xe0\xa4\x95\xe0\xa5\x81\xe0\xa4\xae\xe0\xa4\xbe\xe0\xa4\xb0,n,m,sg,3,o,0_\xe0\xa4\x95\xe0\xa5\x8b,0'
p3104
sS'chunkid'
p3105
S'NP5'
p3106
sS'drel'
p3107
S'k2:\xe0\xa4\xac\xe0\xa4\xa4\xe0\xa4\xbe\xe0\xa4\xaf\xe0\xa4\xbe'
p3108
sS'vpos'
p3109
S'vib_3'
p3110
sS'chunktype'
p3111
S'head:NP5'
p3112
ssbsg1697
I01
sg1700
I00
sg1711
Nsg1698
Nsg189
I4
sg175
I1
sg2020
I0
sg1709
Nsg2021
S'NNP'
p3113
sg288
(issf_api
FeatureSet
p3114
(dp3115
g291
(dp3116
S'posn'
p3117
S'90'
p3118
sS'name'
p3119
S'\xe0\xa4\x95\xe0\xa5\x81\xe0\xa4\xae\xe0\xa4\xbe\xe0\xa4\xb0'
p3120
sS'af'
p3121
S'\xe0\xa4\x95\xe0\xa5\x81\xe0\xa4\xae\xe0\xa4\xbe\xe0\xa4\xb0,n,m,sg,3,o,0,0'
p3122
ssbsg1718
I00
sba(issf_api
Word
p3123
(dp3124
g1999
I00
sg2000
V\u0915\u094b
p3125
sg2002
(issf_api
FeatureSet
p3126
(dp3127
g291
(dp3128
S'posn'
p3129
S'100'
p3130
sS'name'
p3131
S'\xe0\xa4\x95\xe0\xa5\x8b'
p3132
sS'drel'
p3133
S'lwg__psp:\xe0\xa4\x95\xe0\xa5\x81\xe0\xa4\xae\xe0\xa4\xbe\xe0\xa4\xb0'
p3134
sS'chunktype'
p3135
S'child:NP5'
p3136
sS'af'
p3137
S'\xe0\xa4\x95\xe0\xa5\x8b,psp,,,,,,'
p3138
ssbsg1697
I01
sg1700
I00
sg1711
Nsg1698
Nsg189
I4
sg175
I1
sg2020
I0
sg1709
Nsg2021
S'PSP'
p3139
sg288
(issf_api
FeatureSet
p3140
(dp3141
g291
(dp3142
S'posn'
p3143
S'100'
p3144
sS'name'
p3145
S'\xe0\xa4\x95\xe0\xa5\x8b'
p3146
sS'af'
p3147
S'\xe0\xa4\x95\xe0\xa5\x8b,psp,,,,,,'
p3148
ssbsg1718
I00
sba(issf_api
Word
p3149
(dp3150
g1999
I00
sg2000
V\u0930\u093e\u0939\u0941\u0932
p3151
sg2002
(issf_api
FeatureSet
p3152
(dp3153
g291
(dp3154
S'posn'
p3155
S'110'
p3156
sS'name'
p3157
S'\xe0\xa4\xb0\xe0\xa4\xbe\xe0\xa4\xb9\xe0\xa5\x81\xe0\xa4\xb2'
p3158
sS'drel'
p3159
S'pof__cn:\xe0\xa4\xa6\xe0\xa5\x8d\xe0\xa4\xb0\xe0\xa4\xb5\xe0\xa4\xbf\xe0\xa4\xa1\xe0\xa4\xbc'
p3160
sS'chunktype'
p3161
S'child:NP6'
p3162
sS'af'
p3163
S'\xe0\xa4\xb0\xe0\xa4\xbe\xe0\xa4\xb9\xe0\xa5\x81\xe0\xa4\xb2,n,m,sg,3,d,0,0'
p3164
ssbsg1697
I01
sg1700
I00
sg1711
Nsg1698
Nsg189
I5
sg175
I1
sg2020
I0
sg1709
Nsg2021
S'NNPC'
p3165
sg288
(issf_api
FeatureSet
p3166
(dp3167
g291
(dp3168
S'posn'
p3169
S'110'
p3170
sS'name'
p3171
S'\xe0\xa4\xb0\xe0\xa4\xbe\xe0\xa4\xb9\xe0\xa5\x81\xe0\xa4\xb2'
p3172
sS'af'
p3173
S'\xe0\xa4\xb0\xe0\xa4\xbe\xe0\xa4\xb9\xe0\xa5\x81\xe0\xa4\xb2,n,m,sg,3,d,0,0'
p3174
ssbsg1718
I00
sba(issf_api
Word
p3175
(dp3176
g1999
I00
sg2000
V\u0926\u094d\u0930\u0935\u093f\u0921\u093c
p3177
sg2002
(issf_api
FeatureSet
p3178
(dp3179
g291
(dp3180
S'posn'
p3181
S'120'
p3182
sS'name'
p3183
S'\xe0\xa4\xa6\xe0\xa5\x8d\xe0\xa4\xb0\xe0\xa4\xb5\xe0\xa4\xbf\xe0\xa4\xa1\xe0\xa4\xbc'
p3184
sS'af'
p3185
S'\xe0\xa4\xa6\xe0\xa5\x8d\xe0\xa4\xb0\xe0\xa4\xb5\xe0\xa4\xbf\xe0\xa4\xa1,n,any,sg,3,o,0_\xe0\xa4\x95\xe0\xa4\xbe_\xe0\xa4\xa4\xe0\xa4\xb0\xe0\xa4\xb9,0'
p3186
sS'chunkid'
p3187
S'NP6'
p3188
sS'drel'
p3189
S'k2u:\xe0\xa4\xac\xe0\xa4\xa4\xe0\xa4\xbe\xe0\xa4\xaf\xe0\xa4\xbe'
p3190
sS'vpos'
p3191
S'vib_3_4'
p3192
sS'chunktype'
p3193
S'head:NP6'
p3194
ssbsg1697
I01
sg1700
I00
sg1711
Nsg1698
Nsg189
I5
sg175
I1
sg2020
I0
sg1709
Nsg2021
S'NNP'
p3195
sg288
(issf_api
FeatureSet
p3196
(dp3197
g291
(dp3198
S'posn'
p3199
S'120'
p3200
sS'name'
p3201
S'\xe0\xa4\xa6\xe0\xa5\x8d\xe0\xa4\xb0\xe0\xa4\xb5\xe0\xa4\xbf\xe0\xa4\xa1\xe0\xa4\xbc'
p3202
sS'af'
p3203
S'\xe0\xa4\xa6\xe0\xa5\x8d\xe0\xa4\xb0\xe0\xa4\xb5\xe0\xa4\xbf\xe0\xa4\xa1,n,any,sg,3,o,0,0'
p3204
ssbsg1718
I00
sba(issf_api
Word
p3205
(dp3206
g1999
I00
sg2000
V\u0915\u0940
p3207
sg2002
(issf_api
FeatureSet
p3208
(dp3209
g291
(dp3210
S'posn'
p3211
S'130'
p3212
sS'name'
p3213
S'\xe0\xa4\x95\xe0\xa5\x80'
p3214
sS'drel'
p3215
S'lwg__psp:\xe0\xa4\xa6\xe0\xa5\x8d\xe0\xa4\xb0\xe0\xa4\xb5\xe0\xa4\xbf\xe0\xa4\xa1\xe0\xa4\xbc'
p3216
sS'chunktype'
p3217
S'child:NP6'
p3218
sS'af'
p3219
S'\xe0\xa4\x95\xe0\xa4\xbe,psp,f,,,o,,'
p3220
ssbsg1697
I01
sg1700
I00
sg1711
Nsg1698
Nsg189
I5
sg175
I1
sg2020
I0
sg1709
Nsg2021
S'PSP'
p3221
sg288
(issf_api
FeatureSet
p3222
(dp3223
g291
(dp3224
S'posn'
p3225
S'130'
p3226
sS'name'
p3227
S'\xe0\xa4\x95\xe0\xa5\x80'
p3228
sS'af'
p3229
S'\xe0\xa4\x95\xe0\xa4\xbe,psp,f,,,o,,'
p3230
ssbsg1718
I00
sba(issf_api
Word
p3231
(dp3232
g1999
I00
sg2000
V\u0924\u0930\u0939
p3233
sg2002
(issf_api
FeatureSet
p3234
(dp3235
g291
(dp3236
S'posn'
p3237
S'140'
p3238
sS'name'
p3239
S'\xe0\xa4\xa4\xe0\xa4\xb0\xe0\xa4\xb9'
p3240
sS'drel'
p3241
S'lwg__psp:\xe0\xa4\xa6\xe0\xa5\x8d\xe0\xa4\xb0\xe0\xa4\xb5\xe0\xa4\xbf\xe0\xa4\xa1\xe0\xa4\xbc'
p3242
sS'chunktype'
p3243
S'child:NP6'
p3244
sS'af'
p3245
S'\xe0\xa4\xa4\xe0\xa4\xb0\xe0\xa4\xb9,n,f,,,o,,'
p3246
ssbsg1697
I01
sg1700
I00
sg1711
Nsg1698
Nsg189
I5
sg175
I1
sg2020
I0
sg1709
Nsg2021
S'PSP'
p3247
sg288
(issf_api
FeatureSet
p3248
(dp3249
g291
(dp3250
S'posn'
p3251
S'140'
p3252
sS'name'
p3253
S'\xe0\xa4\xa4\xe0\xa4\xb0\xe0\xa4\xb9'
p3254
sS'af'
p3255
S'\xe0\xa4\xa4\xe0\xa4\xb0\xe0\xa4\xb9,n,f,,,o,,'
p3256
ssbsg1718
I00
sba(issf_api
Word
p3257
(dp3258
g1999
I00
sg2000
V\u092e\u093f.
p3259
sg2002
(issf_api
FeatureSet
p3260
(dp3261
g291
(dp3262
S'posn'
p3263
S'150'
p3264
sS'name'
p3265
S'\xe0\xa4\xae\xe0\xa4\xbf.'
p3266
sS'drel'
p3267
S'pof__cn:\xe0\xa4\xa1\xe0\xa4\xbf\xe0\xa4\xaa\xe0\xa5\x87\xe0\xa4\x82\xe0\xa4\xa1\xe0\xa5\x87\xe0\xa4\xac\xe0\xa4\xb2'
p3268
sS'chunktype'
p3269
S'child:NP7'
p3270
sS'af'
p3271
S'\xe0\xa4\xae\xe0\xa4\xbf.,n,m,sg,3,d,0,0'
p3272
ssbsg1697
I01
sg1700
I00
sg1711
Nsg1698
Nsg189
I6
sg175
I1
sg2020
I0
sg1709
Nsg2021
S'NNC'
p3273
sg288
(issf_api
FeatureSet
p3274
(dp3275
g291
(dp3276
S'posn'
p3277
S'150'
p3278
sS'name'
p3279
S'\xe0\xa4\xae\xe0\xa4\xbf.'
p3280
sS'af'
p3281
S'\xe0\xa4\xae\xe0\xa4\xbf.,n,m,sg,3,d,0,0'
p3282
ssbsg1718
I00
sba(issf_api
Word
p3283
(dp3284
g1999
I00
sg2000
V\u0921\u093f\u092a\u0947\u0902\u0921\u0947\u092c\u0932
p3285
sg2002
(issf_api
FeatureSet
p3286
(dp3287
g291
(dp3288
S'posn'
p3289
S'120'
p3290
sS'name'
p3291
S'\xe0\xa4\xa1\xe0\xa4\xbf\xe0\xa4\xaa\xe0\xa5\x87\xe0\xa4\x82\xe0\xa4\xa1\xe0\xa5\x87\xe0\xa4\xac\xe0\xa4\xb2'
p3292
sS'af'
p3293
S'\xe0\xa4\xa1\xe0\xa4\xbf\xe0\xa4\xaa\xe0\xa5\x87\xe0\xa4\x82\xe0\xa4\xa1\xe0\xa5\x87\xe0\xa4\xac\xe0\xa4\xb2,n,any,sg,3,d,0,0'
p3294
sS'chunkid'
p3295
S'NP7'
p3296
sS'drel'
p3297
S'k2s:\xe0\xa4\xac\xe0\xa4\xa4\xe0\xa4\xbe\xe0\xa4\xaf\xe0\xa4\xbe'
p3298
sS'chunktype'
p3299
S'head:NP7'
p3300
ssbsg1697
I01
sg1700
I00
sg1711
Nsg1698
Nsg189
I6
sg175
I1
sg2020
I0
sg1709
Nsg2021
S'NNP'
p3301
sg288
(issf_api
FeatureSet
p3302
(dp3303
g291
(dp3304
S'posn'
p3305
S'120'
p3306
sS'name'
p3307
S'\xe0\xa4\xa1\xe0\xa4\xbf\xe0\xa4\xaa\xe0\xa5\x87\xe0\xa4\x82\xe0\xa4\xa1\xe0\xa5\x87\xe0\xa4\xac\xe0\xa4\xb2'
p3308
sS'af'
p3309
S'\xe0\xa4\xa1\xe0\xa4\xbf\xe0\xa4\xaa\xe0\xa5\x87\xe0\xa4\x82\xe0\xa4\xa1\xe0\xa5\x87\xe0\xa4\xac\xe0\xa4\xb2,n,any,sg,3,d,0,0'
p3310
ssbsg1718
I00
sba(issf_api
Word
p3311
(dp3312
g1999
I00
sg2000
V\u092c\u0924\u093e\u092f\u093e
p3313
sg2002
(issf_api
FeatureSet
p3314
(dp3315
g291
(dp3316
S'posn'
p3317
S'170'
p3318
sS'name'
p3319
S'\xe0\xa4\xac\xe0\xa4\xa4\xe0\xa4\xbe\xe0\xa4\xaf\xe0\xa4\xbe'
p3320
sS'af'
p3321
S'\xe0\xa4\xac\xe0\xa4\xa4\xe0\xa4\xbe,v,m,sg,3,,\xe0\xa4\xaf\xe0\xa4\xbe_\xe0\xa4\xb9\xe0\xa5\x88,yA'
p3322
sS'chunkid'
p3323
S'VGF'
p3324
sS'stype'
p3325
S'declarative'
p3326
sS'drel'
p3327
S'ccof:\xe0\xa4\xa4\xe0\xa5\x8b'
p3328
sS'voicetype'
p3329
S'active'
p3330
sS'vpos'
p3331
S'tam_2'
p3332
sS'chunktype'
p3333
S'head:VGF'
p3334
ssbsg1697
I01
sg1700
I00
sg1711
Nsg1698
Nsg189
I7
sg175
I1
sg2020
I0
sg1709
Nsg2021
S'VM'
p3335
sg288
(issf_api
FeatureSet
p3336
(dp3337
g291
(dp3338
S'posn'
p3339
S'170'
p3340
sS'name'
p3341
S'\xe0\xa4\xac\xe0\xa4\xa4\xe0\xa4\xbe\xe0\xa4\xaf\xe0\xa4\xbe'
p3342
sS'af'
p3343
S'\xe0\xa4\xac\xe0\xa4\xa4\xe0\xa4\xbe,v,m,sg,any,,\xe0\xa4\xaf\xe0\xa4\xbe,yA'
p3344
ssbsg1718
I00
sba(issf_api
Word
p3345
(dp3346
g1999
I00
sg2000
V\u0939\u0948
p3347
sg2002
(issf_api
FeatureSet
p3348
(dp3349
g291
(dp3350
S'posn'
p3351
S'180'
p3352
sS'name'
p3353
S'\xe0\xa4\xb9\xe0\xa5\x88'
p3354
sS'drel'
p3355
S'lwg__vaux:\xe0\xa4\xac\xe0\xa4\xa4\xe0\xa4\xbe\xe0\xa4\xaf\xe0\xa4\xbe'
p3356
sS'chunktype'
p3357
S'child:VGF'
p3358
sS'af'
p3359
S'\xe0\xa4\xb9\xe0\xa5\x88,v,any,sg,3,,\xe0\xa4\xb9\xe0\xa5\x88,hE'
p3360
ssbsg1697
I01
sg1700
I00
sg1711
Nsg1698
Nsg189
I7
sg175
I1
sg2020
I0
sg1709
Nsg2021
S'VAUX'
p3361
sg288
(issf_api
FeatureSet
p3362
(dp3363
g291
(dp3364
S'posn'
p3365
S'180'
p3366
sS'name'
p3367
S'\xe0\xa4\xb9\xe0\xa5\x88'
p3368
sS'af'
p3369
S'\xe0\xa4\xb9\xe0\xa5\x88,v,any,sg,3,,\xe0\xa4\xb9\xe0\xa5\x88,hE'
p3370
ssbsg1718
I00
sba(issf_api
Word
p3371
(dp3372
g1999
I00
sg2000
V\u0924\u094b
p3373
sg2002
(issf_api
FeatureSet
p3374
(dp3375
g291
(dp3376
S'posn'
p3377
S'190'
p3378
sS'chunkid'
p3379
S'CCP'
p3380
sS'name'
p3381
S'\xe0\xa4\xa4\xe0\xa5\x8b'
p3382
sS'chunktype'
p3383
S'head:CCP'
p3384
sS'af'
p3385
S'\xe0\xa4\xa4\xe0\xa5\x8b,avy,,,,,,'
p3386
ssbsg1697
I00
sg1700
I00
sg1711
g1731
sg1698
(lp3387
I32
aI33
aI34
aI35
aI36
aI37
aI38
aI39
aI40
aI41
aI42
aI43
aI44
aI45
aI46
aI47
aI48
aI49
asg189
I8
sg175
I1
sg2020
I0
sg1709
(lp3388
I51
aI52
aI53
aI54
aI55
aI56
aI57
aI58
aI59
aI60
aI61
aI62
aI63
aI64
aI65
aI66
aI67
aI68
aI69
aI70
aI71
asg2021
S'CC'
p3389
sg288
(issf_api
FeatureSet
p3390
(dp3391
g291
(dp3392
S'posn'
p3393
S'190'
p3394
sS'name'
p3395
S'\xe0\xa4\xa4\xe0\xa5\x8b'
p3396
sS'af'
p3397
S'\xe0\xa4\xa4\xe0\xa5\x8b,avy,,,,,,'
p3398
ssbsg1718
I01
sba(issf_api
Word
p3399
(dp3400
g1999
I00
sg2000
V\u0932\u094b\u0915
p3401
sg2002
(issf_api
FeatureSet
p3402
(dp3403
g291
(dp3404
S'posn'
p3405
S'200'
p3406
sS'name'
p3407
S'\xe0\xa4\xb2\xe0\xa5\x8b\xe0\xa4\x95'
p3408
sS'drel'
p3409
S'pof__cn:\xe0\xa4\xaa\xe0\xa4\xbe\xe0\xa4\xb0\xe0\xa5\x8d\xe0\xa4\x9f\xe0\xa5\x80'
p3410
sS'chunktype'
p3411
S'child:NP8'
p3412
sS'af'
p3413
S'\xe0\xa4\xb2\xe0\xa5\x8b\xe0\xa4\x95,n,m,sg,3,d,0,0'
p3414
ssbsg1697
I00
sg1700
I01
sg1711
Nsg1698
Nsg189
I9
sg175
I1
sg2020
I0
sg1709
Nsg2021
S'NNPC'
p3415
sg288
(issf_api
FeatureSet
p3416
(dp3417
g291
(dp3418
S'posn'
p3419
S'200'
p3420
sS'name'
p3421
S'\xe0\xa4\xb2\xe0\xa5\x8b\xe0\xa4\x95'
p3422
sS'af'
p3423
S'\xe0\xa4\xb2\xe0\xa5\x8b\xe0\xa4\x95,n,m,sg,3,d,0,0'
p3424
ssbsg1718
I00
sba(issf_api
Word
p3425
(dp3426
g1999
I00
sg2000
V\u091c\u0928\u0936\u0915\u094d\u0924\u093f
p3427
sg2002
(issf_api
FeatureSet
p3428
(dp3429
g291
(dp3430
S'posn'
p3431
S'210'
p3432
sS'name'
p3433
S'\xe0\xa4\x9c\xe0\xa4\xa8\xe0\xa4\xb6\xe0\xa4\x95\xe0\xa5\x8d\xe0\xa4\xa4\xe0\xa4\xbf'
p3434
sS'drel'
p3435
S'pof__cn:\xe0\xa4\xaa\xe0\xa4\xbe\xe0\xa4\xb0\xe0\xa5\x8d\xe0\xa4\x9f\xe0\xa5\x80'
p3436
sS'chunktype'
p3437
S'child:NP8'
p3438
sS'af'
p3439
S'\xe0\xa4\x9c\xe0\xa4\xa8\xe0\xa4\xb6\xe0\xa4\x95\xe0\xa5\x8d\xe0\xa4\xa4\xe0\xa4\xbf,n,f,sg,3,d,0,0'
p3440
ssbsg1697
I00
sg1700
I01
sg1711
Nsg1698
Nsg189
I9
sg175
I1
sg2020
I0
sg1709
Nsg2021
S'NNPC'
p3441
sg288
(issf_api
FeatureSet
p3442
(dp3443
g291
(dp3444
S'posn'
p3445
S'210'
p3446
sS'name'
p3447
S'\xe0\xa4\x9c\xe0\xa4\xa8\xe0\xa4\xb6\xe0\xa4\x95\xe0\xa5\x8d\xe0\xa4\xa4\xe0\xa4\xbf'
p3448
sS'af'
p3449
S'\xe0\xa4\x9c\xe0\xa4\xa8\xe0\xa4\xb6\xe0\xa4\x95\xe0\xa5\x8d\xe0\xa4\xa4\xe0\xa4\xbf,n,f,sg,3,d,0,0'
p3450
ssbsg1718
I00
sba(issf_api
Word
p3451
(dp3452
g1999
I00
sg2000
V\u092a\u093e\u0930\u094d\u091f\u0940
p3453
sg2002
(issf_api
FeatureSet
p3454
(dp3455
g291
(dp3456
S'posn'
p3457
S'220'
p3458
sS'name'
p3459
S'\xe0\xa4\xaa\xe0\xa4\xbe\xe0\xa4\xb0\xe0\xa5\x8d\xe0\xa4\x9f\xe0\xa5\x80'
p3460
sS'af'
p3461
S'\xe0\xa4\xaa\xe0\xa4\xbe\xe0\xa4\xb0\xe0\xa5\x8d\xe0\xa4\x9f\xe0\xa5\x80,n,f,sg,3,o,0,0'
p3462
sS'chunkid'
p3463
S'NP8'
p3464
sS'drel'
p3465
S'r6:\xe0\xa4\xa8\xe0\xa5\x87\xe0\xa4\xa4\xe0\xa4\xbe'
p3466
sS'chunktype'
p3467
S'head:NP8'
p3468
ssbsg1697
I00
sg1700
I01
sg1711
Nsg1698
Nsg189
I9
sg175
I1
sg2020
I0
sg1709
Nsg2021
S'NNP'
p3469
sg288
(issf_api
FeatureSet
p3470
(dp3471
g291
(dp3472
S'posn'
p3473
S'220'
p3474
sS'name'
p3475
S'\xe0\xa4\xaa\xe0\xa4\xbe\xe0\xa4\xb0\xe0\xa5\x8d\xe0\xa4\x9f\xe0\xa5\x80'
p3476
sS'af'
p3477
S'\xe0\xa4\xaa\xe0\xa4\xbe\xe0\xa4\xb0\xe0\xa5\x8d\xe0\xa4\x9f\xe0\xa5\x80,n,f,sg,3,o,0,0'
p3478
ssbsg1718
I00
sba(issf_api
Word
p3479
(dp3480
g1999
I00
sg2000
V(
sg2002
(issf_api
FeatureSet
p3481
(dp3482
g291
(dp3483
S'posn'
p3484
S'230'
p3485
sS'name'
p3486
S'('
sS'drel'
p3487
S'rsym:\xe0\xa4\xb2\xe0\xa5\x8b\xe0\xa4\x9c\xe0\xa4\xaa\xe0\xa4\xbe'
p3488
sS'chunktype'
p3489
S'child:NP9'
p3490
sS'af'
p3491
S'(,punc,,,,,,'
p3492
ssbsg1697
I00
sg1700
I01
sg1711
Nsg1698
Nsg189
I10
sg175
I1
sg2020
I0
sg1709
Nsg2021
S'SYM'
p3493
sg288
(issf_api
FeatureSet
p3494
(dp3495
g291
(dp3496
S'posn'
p3497
S'230'
p3498
sS'name'
p3499
S'('
sS'af'
p3500
S'(,punc,,,,,,'
p3501
ssbsg1718
I00
sba(issf_api
Word
p3502
(dp3503
g1999
I00
sg2000
V\u0932\u094b\u091c\u092a\u093e
p3504
sg2002
(issf_api
FeatureSet
p3505
(dp3506
g291
(dp3507
S'posn'
p3508
S'240'
p3509
sS'name'
p3510
S'\xe0\xa4\xb2\xe0\xa5\x8b\xe0\xa4\x9c\xe0\xa4\xaa\xe0\xa4\xbe'
p3511
sS'af'
p3512
S'\xe0\xa4\xb2\xe0\xa5\x8b\xe0\xa4\x9c\xe0\xa4\xaa\xe0\xa4\xbe,n,f,sg,3,o,0,0'
p3513
sS'chunkid'
p3514
S'NP9'
p3515
sS'drel'
p3516
S'rs:\xe0\xa4\xaa\xe0\xa4\xbe\xe0\xa4\xb0\xe0\xa5\x8d\xe0\xa4\x9f\xe0\xa5\x80'
p3517
sS'chunktype'
p3518
S'head:NP9'
p3519
ssbsg1697
I00
sg1700
I01
sg1711
Nsg1698
Nsg189
I10
sg175
I1
sg2020
I0
sg1709
Nsg2021
S'NNP'
p3520
sg288
(issf_api
FeatureSet
p3521
(dp3522
g291
(dp3523
S'posn'
p3524
S'240'
p3525
sS'name'
p3526
S'\xe0\xa4\xb2\xe0\xa5\x8b\xe0\xa4\x9c\xe0\xa4\xaa\xe0\xa4\xbe'
p3527
sS'af'
p3528
S'\xe0\xa4\xb2\xe0\xa5\x8b\xe0\xa4\x9c\xe0\xa4\xaa\xe0\xa4\xbe,n,f,sg,3,o,0,0'
p3529
ssbsg1718
I00
sba(issf_api
Word
p3530
(dp3531
g1999
I00
sg2000
V)
sg2002
(issf_api
FeatureSet
p3532
(dp3533
g291
(dp3534
S'posn'
p3535
S'250'
p3536
sS'name'
p3537
S')'
sS'drel'
p3538
S'rsym:\xe0\xa4\xb2\xe0\xa5\x8b\xe0\xa4\x9c\xe0\xa4\xaa\xe0\xa4\xbe'
p3539
sS'chunktype'
p3540
S'child:NP9'
p3541
sS'af'
p3542
S'),punc,,,,,,'
p3543
ssbsg1697
I00
sg1700
I01
sg1711
Nsg1698
Nsg189
I10
sg175
I1
sg2020
I0
sg1709
Nsg2021
S'SYM'
p3544
sg288
(issf_api
FeatureSet
p3545
(dp3546
g291
(dp3547
S'posn'
p3548
S'250'
p3549
sS'name'
p3550
S')'
sS'af'
p3551
S'),punc,,,,,,'
p3552
ssbsg1718
I00
sba(issf_api
Word
p3553
(dp3554
g1999
I00
sg2000
V\u0915\u0947
p3555
sg2002
(issf_api
FeatureSet
p3556
(dp3557
g291
(dp3558
S'name'
p3559
S'\xe0\xa4\x95\xe0\xa5\x873'
p3560
sS'drel'
p3561
S'fragof:\xe0\xa4\xaa\xe0\xa4\xbe\xe0\xa4\xb0\xe0\xa5\x8d\xe0\xa4\x9f\xe0\xa5\x80'
p3562
sS'chunktype'
p3563
S'head:FRAGP'
p3564
sS'chunkid'
p3565
S'FRAGP'
p3566
ssbsg1697
I00
sg1700
I01
sg1711
Nsg1698
Nsg189
I11
sg175
I1
sg2020
I0
sg1709
Nsg2021
S'PSP'
p3567
sg288
(issf_api
FeatureSet
p3568
(dp3569
g291
(dp3570
S'posn'
p3571
S'260'
p3572
sS'name'
p3573
S'\xe0\xa4\x95\xe0\xa5\x873'
p3574
sS'af'
p3575
S'\xe0\xa4\x95\xe0\xa4\xbe,psp,m,sg,,o,,'
p3576
ssbsg1718
I00
sba(issf_api
Word
p3577
(dp3578
g1999
I00
sg2000
V\u0928\u0947\u0924\u093e
p3579
sg2002
(issf_api
FeatureSet
p3580
(dp3581
g291
(dp3582
S'posn'
p3583
S'270'
p3584
sS'name'
p3585
S'\xe0\xa4\xa8\xe0\xa5\x87\xe0\xa4\xa4\xe0\xa4\xbe'
p3586
sS'af'
p3587
S'\xe0\xa4\xa8\xe0\xa5\x87\xe0\xa4\xa4\xe0\xa4\xbe,n,m,sg,3,o,0,0'
p3588
sS'chunkid'
p3589
S'NP10'
p3590
sS'drel'
p3591
S'nmod:\xe0\xa4\xaa\xe0\xa4\xbe\xe0\xa4\xb8\xe0\xa4\xb5\xe0\xa4\xbe\xe0\xa4\xa8'
p3592
sS'chunktype'
p3593
S'head:NP10'
p3594
ssbsg1697
I00
sg1700
I01
sg1711
Nsg1698
Nsg189
I12
sg175
I1
sg2020
I0
sg1709
Nsg2021
S'NN'
p3595
sg288
(issf_api
FeatureSet
p3596
(dp3597
g291
(dp3598
S'posn'
p3599
S'270'
p3600
sS'name'
p3601
S'\xe0\xa4\xa8\xe0\xa5\x87\xe0\xa4\xa4\xe0\xa4\xbe'
p3602
sS'af'
p3603
S'\xe0\xa4\xa8\xe0\xa5\x87\xe0\xa4\xa4\xe0\xa4\xbe,n,m,sg,3,o,0,0'
p3604
ssbsg1718
I00
sba(issf_api
Word
p3605
(dp3606
g1999
I00
sg2000
V\u0930\u093e\u092e\u0935\u093f\u0932\u093e\u0938
p3607
sg2002
(issf_api
FeatureSet
p3608
(dp3609
g291
(dp3610
S'posn'
p3611
S'280'
p3612
sS'name'
p3613
S'\xe0\xa4\xb0\xe0\xa4\xbe\xe0\xa4\xae\xe0\xa4\xb5\xe0\xa4\xbf\xe0\xa4\xb2\xe0\xa4\xbe\xe0\xa4\xb8'
p3614
sS'drel'
p3615
S'pof__cn:\xe0\xa4\xaa\xe0\xa4\xbe\xe0\xa4\xb8\xe0\xa4\xb5\xe0\xa4\xbe\xe0\xa4\xa8'
p3616
sS'chunktype'
p3617
S'child:NP11'
p3618
sS'af'
p3619
S'\xe0\xa4\xb0\xe0\xa4\xbe\xe0\xa4\xae\xe0\xa4\xb5\xe0\xa4\xbf\xe0\xa4\xb2\xe0\xa4\xbe\xe0\xa4\xb8,n,m,sg,3,d,0,0'
p3620
ssbsg1697
I00
sg1700
I01
sg1711
Nsg1698
Nsg189
I13
sg175
I1
sg2020
I0
sg1709
Nsg2021
S'NNPC'
p3621
sg288
(issf_api
FeatureSet
p3622
(dp3623
g291
(dp3624
S'posn'
p3625
S'280'
p3626
sS'name'
p3627
S'\xe0\xa4\xb0\xe0\xa4\xbe\xe0\xa4\xae\xe0\xa4\xb5\xe0\xa4\xbf\xe0\xa4\xb2\xe0\xa4\xbe\xe0\xa4\xb8'
p3628
sS'af'
p3629
S'\xe0\xa4\xb0\xe0\xa4\xbe\xe0\xa4\xae\xe0\xa4\xb5\xe0\xa4\xbf\xe0\xa4\xb2\xe0\xa4\xbe\xe0\xa4\xb8,n,m,sg,3,d,0,0'
p3630
ssbsg1718
I00
sba(issf_api
Word
p3631
(dp3632
g1999
I00
sg2000
V\u092a\u093e\u0938\u0935\u093e\u0928
p3633
sg2002
(issf_api
FeatureSet
p3634
(dp3635
g291
(dp3636
S'posn'
p3637
S'290'
p3638
sS'name'
p3639
S'\xe0\xa4\xaa\xe0\xa4\xbe\xe0\xa4\xb8\xe0\xa4\xb5\xe0\xa4\xbe\xe0\xa4\xa8'
p3640
sS'af'
p3641
S'\xe0\xa4\xaa\xe0\xa4\xbe\xe0\xa4\xb8\xe0\xa4\xb5\xe0\xa4\xbe\xe0\xa4\xa8,n,any,sg,3,o,0_\xe0\xa4\x95\xe0\xa5\x8b,0'
p3642
sS'chunkid'
p3643
S'NP11'
p3644
sS'drel'
p3645
S'k4:\xe0\xa4\xa6\xe0\xa4\xbf\xe0\xa4\xaf\xe0\xa4\xbe'
p3646
sS'vpos'
p3647
S'vib_3'
p3648
sS'chunktype'
p3649
S'head:NP11'
p3650
ssbsg1697
I00
sg1700
I01
sg1711
Nsg1698
Nsg189
I13
sg175
I1
sg2020
I0
sg1709
Nsg2021
S'NNP'
p3651
sg288
(issf_api
FeatureSet
p3652
(dp3653
g291
(dp3654
S'posn'
p3655
S'290'
p3656
sS'name'
p3657
S'\xe0\xa4\xaa\xe0\xa4\xbe\xe0\xa4\xb8\xe0\xa4\xb5\xe0\xa4\xbe\xe0\xa4\xa8'
p3658
sS'af'
p3659
S'\xe0\xa4\xaa\xe0\xa4\xbe\xe0\xa4\xb8\xe0\xa4\xb5\xe0\xa4\xbe\xe0\xa4\xa8,n,any,sg,3,o,0,0'
p3660
ssbsg1718
I00
sba(issf_api
Word
p3661
(dp3662
g1999
I00
sg2000
V\u0915\u094b
p3663
sg2002
(issf_api
FeatureSet
p3664
(dp3665
g291
(dp3666
S'posn'
p3667
S'300'
p3668
sS'name'
p3669
S'\xe0\xa4\x95\xe0\xa5\x8b2'
p3670
sS'drel'
p3671
S'lwg__psp:\xe0\xa4\xaa\xe0\xa4\xbe\xe0\xa4\xb8\xe0\xa4\xb5\xe0\xa4\xbe\xe0\xa4\xa8'
p3672
sS'chunktype'
p3673
S'child:NP11'
p3674
sS'af'
p3675
S'\xe0\xa4\x95\xe0\xa5\x8b,psp,,,,,,'
p3676
ssbsg1697
I00
sg1700
I01
sg1711
Nsg1698
Nsg189
I13
sg175
I1
sg2020
I0
sg1709
Nsg2021
S'PSP'
p3677
sg288
(issf_api
FeatureSet
p3678
(dp3679
g291
(dp3680
S'posn'
p3681
S'300'
p3682
sS'name'
p3683
S'\xe0\xa4\x95\xe0\xa5\x8b2'
p3684
sS'af'
p3685
S'\xe0\xa4\x95\xe0\xa5\x8b,psp,,,,,,'
p3686
ssbsg1718
I00
sba(issf_api
Word
p3687
(dp3688
g1999
I00
sg2000
V\u092a\u093e\u0915\u093f\u0938\u094d\u0924\u093e\u0928
p3689
sg2002
(issf_api
FeatureSet
p3690
(dp3691
g291
(dp3692
S'posn'
p3693
S'310'
p3694
sS'name'
p3695
S'\xe0\xa4\xaa\xe0\xa4\xbe\xe0\xa4\x95\xe0\xa4\xbf\xe0\xa4\xb8\xe0\xa5\x8d\xe0\xa4\xa4\xe0\xa4\xbe\xe0\xa4\xa8'
p3696
sS'af'
p3697
S'\xe0\xa4\xaa\xe0\xa4\xbe\xe0\xa4\x95\xe0\xa4\xbf\xe0\xa4\xb8\xe0\xa5\x8d\xe0\xa4\xa4\xe0\xa4\xbe\xe0\xa4\xa8,n,m,sg,3,o,0_\xe0\xa4\x95\xe0\xa4\xbe,0'
p3698
sS'chunkid'
p3699
S'NP12'
p3700
sS'drel'
p3701
S'r6:\xe0\xa4\x85\xe0\xa4\x82\xe0\xa4\xaa\xe0\xa4\xbe\xe0\xa4\xaf\xe0\xa4\xb0'
p3702
sS'vpos'
p3703
S'vib_2'
p3704
sS'chunktype'
p3705
S'head:NP12'
p3706
ssbsg1697
I00
sg1700
I01
sg1711
Nsg1698
Nsg189
I14
sg175
I1
sg2020
I0
sg1709
Nsg2021
S'NNP'
p3707
sg288
(issf_api
FeatureSet
p3708
(dp3709
g291
(dp3710
S'posn'
p3711
S'310'
p3712
sS'name'
p3713
S'\xe0\xa4\xaa\xe0\xa4\xbe\xe0\xa4\x95\xe0\xa4\xbf\xe0\xa4\xb8\xe0\xa5\x8d\xe0\xa4\xa4\xe0\xa4\xbe\xe0\xa4\xa8'
p3714
sS'af'
p3715
S'\xe0\xa4\xaa\xe0\xa4\xbe\xe0\xa4\x95\xe0\xa4\xbf\xe0\xa4\xb8\xe0\xa5\x8d\xe0\xa4\xa4\xe0\xa4\xbe\xe0\xa4\xa8,n,m,sg,3,o,0,0'
p3716
ssbsg1718
I00
sba(issf_api
Word
p3717
(dp3718
g1999
I00
sg2000
V\u0915\u0947
p3719
sg2002
(issf_api
FeatureSet
p3720
(dp3721
g291
(dp3722
S'posn'
p3723
S'320'
p3724
sS'name'
p3725
S'\xe0\xa4\x95\xe0\xa5\x874'
p3726
sS'drel'
p3727
S'lwg__psp:\xe0\xa4\xaa\xe0\xa4\xbe\xe0\xa4\x95\xe0\xa4\xbf\xe0\xa4\xb8\xe0\xa5\x8d\xe0\xa4\xa4\xe0\xa4\xbe\xe0\xa4\xa8'
p3728
sS'chunktype'
p3729
S'child:NP12'
p3730
sS'af'
p3731
S'\xe0\xa4\x95\xe0\xa4\xbe,psp,m,sg,,o,,'
p3732
ssbsg1697
I00
sg1700
I01
sg1711
Nsg1698
Nsg189
I14
sg175
I1
sg2020
I0
sg1709
Nsg2021
S'PSP'
p3733
sg288
(issf_api
FeatureSet
p3734
(dp3735
g291
(dp3736
S'posn'
p3737
S'320'
p3738
sS'name'
p3739
S'\xe0\xa4\x95\xe0\xa5\x874'
p3740
sS'af'
p3741
S'\xe0\xa4\x95\xe0\xa4\xbe,psp,m,sg,,o,,'
p3742
ssbsg1718
I00
sba(issf_api
Word
p3743
(dp3744
g1999
I00
sg2000
V\u0935\u093f\u0935\u093e\u0926\u093f\u0924
p3745
sg2002
(issf_api
FeatureSet
p3746
(dp3747
g291
(dp3748
S'posn'
p3749
S'330'
p3750
sS'name'
p3751
S'\xe0\xa4\xb5\xe0\xa4\xbf\xe0\xa4\xb5\xe0\xa4\xbe\xe0\xa4\xa6\xe0\xa4\xbf\xe0\xa4\xa4'
p3752
sS'drel'
p3753
S'nmod__adj:\xe0\xa4\x85\xe0\xa4\x82\xe0\xa4\xaa\xe0\xa4\xbe\xe0\xa4\xaf\xe0\xa4\xb0'
p3754
sS'chunktype'
p3755
S'child:NP13'
p3756
sS'af'
p3757
S'\xe0\xa4\xb5\xe0\xa4\xbf\xe0\xa4\xb5\xe0\xa4\xbe\xe0\xa4\xa6\xe0\xa4\xbf\xe0\xa4\xa4,adj,any,any,,o,,'
p3758
ssbsg1697
I00
sg1700
I01
sg1711
Nsg1698
Nsg189
I15
sg175
I1
sg2020
I0
sg1709
Nsg2021
S'JJ'
p3759
sg288
(issf_api
FeatureSet
p3760
(dp3761
g291
(dp3762
S'posn'
p3763
S'330'
p3764
sS'name'
p3765
S'\xe0\xa4\xb5\xe0\xa4\xbf\xe0\xa4\xb5\xe0\xa4\xbe\xe0\xa4\xa6\xe0\xa4\xbf\xe0\xa4\xa4'
p3766
sS'af'
p3767
S'\xe0\xa4\xb5\xe0\xa4\xbf\xe0\xa4\xb5\xe0\xa4\xbe\xe0\xa4\xa6\xe0\xa4\xbf\xe0\xa4\xa4,adj,any,any,,o,,'
p3768
ssbsg1718
I00
sba(issf_api
Word
p3769
(dp3770
g1999
I00
sg2000
V\u0905\u0902\u092a\u093e\u092f\u0930
p3771
sg2002
(issf_api
FeatureSet
p3772
(dp3773
g291
(dp3774
S'posn'
p3775
S'340'
p3776
sS'name'
p3777
S'\xe0\xa4\x85\xe0\xa4\x82\xe0\xa4\xaa\xe0\xa4\xbe\xe0\xa4\xaf\xe0\xa4\xb0'
p3778
sS'af'
p3779
S'\xe0\xa4\x85\xe0\xa4\x82\xe0\xa4\xaa\xe0\xa4\xbe\xe0\xa4\xaf\xe0\xa4\xb0,n,m,sg,3,o,0,0'
p3780
sS'chunkid'
p3781
S'NP13'
p3782
sS'drel'
p3783
S'nmod:\xe0\xa4\xb0\xe0\xa4\xbe\xe0\xa4\xa3\xe0\xa4\xbe'
p3784
sS'chunktype'
p3785
S'head:NP13'
p3786
ssbsg1697
I00
sg1700
I01
sg1711
Nsg1698
Nsg189
I15
sg175
I1
sg2020
I0
sg1709
Nsg2021
S'NN'
p3787
sg288
(issf_api
FeatureSet
p3788
(dp3789
g291
(dp3790
S'posn'
p3791
S'340'
p3792
sS'name'
p3793
S'\xe0\xa4\x85\xe0\xa4\x82\xe0\xa4\xaa\xe0\xa4\xbe\xe0\xa4\xaf\xe0\xa4\xb0'
p3794
sS'af'
p3795
S'\xe0\xa4\x85\xe0\xa4\x82\xe0\xa4\xaa\xe0\xa4\xbe\xe0\xa4\xaf\xe0\xa4\xb0,n,m,sg,3,o,0,0'
p3796
ssbsg1718
I00
sba(issf_api
Word
p3797
(dp3798
g1999
I00
sg2000
V\u0936\u0915\u0942\u0930
p3799
sg2002
(issf_api
FeatureSet
p3800
(dp3801
g291
(dp3802
S'posn'
p3803
S'350'
p3804
sS'name'
p3805
S'\xe0\xa4\xb6\xe0\xa4\x95\xe0\xa5\x82\xe0\xa4\xb0'
p3806
sS'drel'
p3807
S'pof__cn:\xe0\xa4\xb0\xe0\xa4\xbe\xe0\xa4\xa3\xe0\xa4\xbe'
p3808
sS'chunktype'
p3809
S'child:NP14'
p3810
sS'af'
p3811
S'\xe0\xa4\xb6\xe0\xa4\x95\xe0\xa5\x82\xe0\xa4\xb0,n,m,sg,3,d,0,0'
p3812
ssbsg1697
I00
sg1700
I01
sg1711
Nsg1698
Nsg189
I16
sg175
I1
sg2020
I0
sg1709
Nsg2021
S'NNPC'
p3813
sg288
(issf_api
FeatureSet
p3814
(dp3815
g291
(dp3816
S'posn'
p3817
S'350'
p3818
sS'name'
p3819
S'\xe0\xa4\xb6\xe0\xa4\x95\xe0\xa5\x82\xe0\xa4\xb0'
p3820
sS'af'
p3821
S'\xe0\xa4\xb6\xe0\xa4\x95\xe0\xa5\x82\xe0\xa4\xb0,n,m,sg,3,d,0,0'
p3822
ssbsg1718
I00
sba(issf_api
Word
p3823
(dp3824
g1999
I00
sg2000
V\u0930\u093e\u0923\u093e
p3825
sg2002
(issf_api
FeatureSet
p3826
(dp3827
g291
(dp3828
S'posn'
p3829
S'360'
p3830
sS'name'
p3831
S'\xe0\xa4\xb0\xe0\xa4\xbe\xe0\xa4\xa3\xe0\xa4\xbe'
p3832
sS'af'
p3833
S'\xe0\xa4\xb0\xe0\xa4\xbe\xe0\xa4\xa3\xe0\xa4\xbe,n,any,sg,3,o,0_\xe0\xa4\x9c\xe0\xa5\x88\xe0\xa4\xb8\xe0\xa4\xbe,0'
p3834
sS'chunkid'
p3835
S'NP14'
p3836
sS'drel'
p3837
S'nmod:\xe0\xa4\x95\xe0\xa4\xb0\xe0\xa4\xbe\xe0\xa4\xb0'
p3838
sS'vpos'
p3839
S'vib_3'
p3840
sS'chunktype'
p3841
S'head:NP14'
p3842
ssbsg1697
I00
sg1700
I01
sg1711
Nsg1698
Nsg189
I16
sg175
I1
sg2020
I0
sg1709
Nsg2021
S'NNP'
p3843
sg288
(issf_api
FeatureSet
p3844
(dp3845
g291
(dp3846
S'posn'
p3847
S'360'
p3848
sS'name'
p3849
S'\xe0\xa4\xb0\xe0\xa4\xbe\xe0\xa4\xa3\xe0\xa4\xbe'
p3850
sS'af'
p3851
S'\xe0\xa4\xb0\xe0\xa4\xbe\xe0\xa4\xa3\xe0\xa4\xbe,n,any,sg,3,o,0,0'
p3852
ssbsg1718
I00
sba(issf_api
Word
p3853
(dp3854
g1999
I00
sg2000
V\u091c\u0948\u0938\u093e
p3855
sg2002
(issf_api
FeatureSet
p3856
(dp3857
g291
(dp3858
S'posn'
p3859
S'370'
p3860
sS'name'
p3861
S'\xe0\xa4\x9c\xe0\xa5\x88\xe0\xa4\xb8\xe0\xa4\xbe'
p3862
sS'drel'
p3863
S'lwg__psp:\xe0\xa4\xb0\xe0\xa4\xbe\xe0\xa4\xa3\xe0\xa4\xbe'
p3864
sS'chunktype'
p3865
S'child:NP14'
p3866
sS'af'
p3867
S'\xe0\xa4\x9c\xe0\xa5\x88\xe0\xa4\xb8\xe0\xa4\xbe,psp,m,sg,,d,,'
p3868
ssbsg1697
I00
sg1700
I01
sg1711
Nsg1698
Nsg189
I16
sg175
I1
sg2020
I0
sg1709
Nsg2021
S'PSP'
p3869
sg288
(issf_api
FeatureSet
p3870
(dp3871
g291
(dp3872
S'posn'
p3873
S'370'
p3874
sS'name'
p3875
S'\xe0\xa4\x9c\xe0\xa5\x88\xe0\xa4\xb8\xe0\xa4\xbe'
p3876
sS'af'
p3877
S'\xe0\xa4\x9c\xe0\xa5\x88\xe0\xa4\xb8\xe0\xa4\xbe,psp,m,sg,,d,,'
p3878
ssbsg1718
I00
sba(issf_api
Word
p3879
(dp3880
g1999
I00
sg2000
V\u0915\u0930\u093e\u0930
p3881
sg2002
(issf_api
FeatureSet
p3882
(dp3883
g291
(dp3884
S'posn'
p3885
S'380'
p3886
sS'name'
p3887
S'\xe0\xa4\x95\xe0\xa4\xb0\xe0\xa4\xbe\xe0\xa4\xb0'
p3888
sS'af'
p3889
S'\xe0\xa4\x95\xe0\xa4\xb0\xe0\xa4\xbe\xe0\xa4\xb0,n,m,sg,3,d,0,0'
p3890
sS'chunkid'
p3891
S'NP15'
p3892
sS'drel'
p3893
S'pof:\xe0\xa4\xa6\xe0\xa4\xbf\xe0\xa4\xaf\xe0\xa4\xbe'
p3894
sS'chunktype'
p3895
S'head:NP15'
p3896
ssbsg1697
I00
sg1700
I01
sg1711
Nsg1698
Nsg189
I17
sg175
I1
sg2020
I0
sg1709
Nsg2021
S'NN'
p3897
sg288
(issf_api
FeatureSet
p3898
(dp3899
g291
(dp3900
S'posn'
p3901
S'380'
p3902
sS'name'
p3903
S'\xe0\xa4\x95\xe0\xa4\xb0\xe0\xa4\xbe\xe0\xa4\xb0'
p3904
sS'af'
p3905
S'\xe0\xa4\x95\xe0\xa4\xb0\xe0\xa4\xbe\xe0\xa4\xb0,n,m,sg,3,d,0,0'
p3906
ssbsg1718
I00
sba(issf_api
Word
p3907
(dp3908
g1999
I00
sg2000
V\u0926\u093f\u092f\u093e
p3909
sg2002
(issf_api
FeatureSet
p3910
(dp3911
g291
(dp3912
S'posn'
p3913
S'390'
p3914
sS'name'
p3915
S'\xe0\xa4\xa6\xe0\xa4\xbf\xe0\xa4\xaf\xe0\xa4\xbe'
p3916
sS'af'
p3917
S'\xe0\xa4\xa6\xe0\xa5\x87,v,m,sg,any,,\xe0\xa4\xaf\xe0\xa4\xbe,yA'
p3918
sS'chunkid'
p3919
S'VGF2'
p3920
sS'stype'
p3921
S'declarative'
p3922
sS'drel'
p3923
S'ccof:\xe0\xa4\xa4\xe0\xa5\x8b'
p3924
sS'voicetype'
p3925
S'active'
p3926
sS'chunktype'
p3927
S'head:VGF2'
p3928
ssbsg1697
I00
sg1700
I01
sg1711
Nsg1698
Nsg189
I18
sg175
I1
sg2020
I0
sg1709
Nsg2021
S'VM'
p3929
sg288
(issf_api
FeatureSet
p3930
(dp3931
g291
(dp3932
S'posn'
p3933
S'390'
p3934
sS'name'
p3935
S'\xe0\xa4\xa6\xe0\xa4\xbf\xe0\xa4\xaf\xe0\xa4\xbe'
p3936
sS'af'
p3937
S'\xe0\xa4\xa6\xe0\xa5\x87,v,m,sg,any,,\xe0\xa4\xaf\xe0\xa4\xbe,yA'
p3938
ssbsg1718
I00
sba(issf_api
Word
p3939
(dp3940
g1999
I00
sg2000
V\u0964
sg2002
(issf_api
FeatureSet
p3941
(dp3942
g291
(dp3943
S'posn'
p3944
S'400'
p3945
sS'name'
p3946
S'\xe0\xa5\xa4'
p3947
sS'af'
p3948
S'\xe0\xa5\xa4,punc,,,,,,'
p3949
sS'chunkid'
p3950
S'BLK'
p3951
sS'drel'
p3952
S'rsym:\xe0\xa4\xa4\xe0\xa5\x8b'
p3953
sS'chunktype'
p3954
S'head:BLK'
p3955
ssbsg1697
I00
sg1700
I01
sg1711
Nsg1698
Nsg189
I19
sg175
I1
sg2020
I0
sg1709
Nsg2021
S'SYM'
p3956
sg288
(issf_api
FeatureSet
p3957
(dp3958
g291
(dp3959
S'posn'
p3960
S'400'
p3961
sS'name'
p3962
S'\xe0\xa5\xa4'
p3963
sS'af'
p3964
S'\xe0\xa5\xa4,punc,,,,,,'
p3965
ssbsg1718
I00
sba(issf_api
Word
p3966
(dp3967
g1999
I00
sg2000
V\u0938\u093f\u0926\u094d\u0927\u0942
p3968
sg2002
(issf_api
FeatureSet
p3969
(dp3970
g291
(dp3971
S'posn'
p3972
S'10'
p3973
sS'name'
p3974
S'\xe0\xa4\xb8\xe0\xa4\xbf\xe0\xa4\xa6\xe0\xa5\x8d\xe0\xa4\xa7\xe0\xa5\x82'
p3975
sS'af'
p3976
S'\xe0\xa4\xb8\xe0\xa4\xbf\xe0\xa4\xa6\xe0\xa5\x8d\xe0\xa4\xa7\xe0\xa5\x82,n,any,sg,3,o,0_\xe0\xa4\xa8\xe0\xa5\x87,0'
p3977
sS'chunkid'
p3978
S'NP'
p3979
sS'drel'
p3980
S'k1:\xe0\xa4\x95\xe0\xa4\xb9\xe0\xa4\xbe'
p3981
sS'vpos'
p3982
S'vib_2'
p3983
sS'chunktype'
p3984
S'head:NP'
p3985
ssbsg1697
I00
sg1700
I00
sg1711
Nsg1698
Nsg189
I0
sg175
I2
sg2020
Nsg1709
Nsg2021
S'NNP'
p3986
sg288
(issf_api
FeatureSet
p3987
(dp3988
g291
(dp3989
S'posn'
p3990
S'10'
p3991
sS'name'
p3992
S'\xe0\xa4\xb8\xe0\xa4\xbf\xe0\xa4\xa6\xe0\xa5\x8d\xe0\xa4\xa7\xe0\xa5\x82'
p3993
sS'af'
p3994
S'\xe0\xa4\xb8\xe0\xa4\xbf\xe0\xa4\xa6\xe0\xa5\x8d\xe0\xa4\xa7\xe0\xa5\x82,n,any,sg,3,o,0,0'
p3995
ssbsg1718
I00
sba(issf_api
Word
p3996
(dp3997
g1999
I00
sg2000
V\u0928\u0947
p3998
sg2002
(issf_api
FeatureSet
p3999
(dp4000
g291
(dp4001
S'posn'
p4002
S'20'
p4003
sS'name'
p4004
S'\xe0\xa4\xa8\xe0\xa5\x87'
p4005
sS'drel'
p4006
S'lwg__psp:\xe0\xa4\xb8\xe0\xa4\xbf\xe0\xa4\xa6\xe0\xa5\x8d\xe0\xa4\xa7\xe0\xa5\x82'
p4007
sS'chunktype'
p4008
S'child:NP'
p4009
sS'af'
p4010
S'\xe0\xa4\xa8\xe0\xa5\x87,psp,,,,,,'
p4011
ssbsg1697
I00
sg1700
I00
sg1711
Nsg1698
Nsg189
I0
sg175
I2
sg2020
Nsg1709
Nsg2021
S'PSP'
p4012
sg288
(issf_api
FeatureSet
p4013
(dp4014
g291
(dp4015
S'posn'
p4016
S'20'
p4017
sS'name'
p4018
S'\xe0\xa4\xa8\xe0\xa5\x87'
p4019
sS'af'
p4020
S'\xe0\xa4\xa8\xe0\xa5\x87,psp,,,,,,'
p4021
ssbsg1718
I00
sba(issf_api
Word
p4022
(dp4023
g1999
I00
sg2000
V\u092a\u091f\u0928\u093e
p4024
sg2002
(issf_api
FeatureSet
p4025
(dp4026
g291
(dp4027
S'posn'
p4028
S'30'
p4029
sS'name'
p4030
S'\xe0\xa4\xaa\xe0\xa4\x9f\xe0\xa4\xa8\xe0\xa4\xbe'
p4031
sS'af'
p4032
S'\xe0\xa4\xaa\xe0\xa4\x9f\xe0\xa4\xa8\xe0\xa4\xbe,n,m,sg,3,o,0_\xe0\xa4\xae\xe0\xa5\x87\xe0\xa4\x82,0'
p4033
sS'chunkid'
p4034
S'NP2'
p4035
sS'drel'
p4036
S'k7p:\xe0\xa4\x95\xe0\xa4\xb9\xe0\xa4\xbe'
p4037
sS'vpos'
p4038
S'vib_2'
p4039
sS'chunktype'
p4040
S'head:NP2'
p4041
ssbsg1697
I00
sg1700
I00
sg1711
Nsg1698
Nsg189
I1
sg175
I2
sg2020
Nsg1709
Nsg2021
S'NNP'
p4042
sg288
(issf_api
FeatureSet
p4043
(dp4044
g291
(dp4045
S'posn'
p4046
S'30'
p4047
sS'name'
p4048
S'\xe0\xa4\xaa\xe0\xa4\x9f\xe0\xa4\xa8\xe0\xa4\xbe'
p4049
sS'af'
p4050
S'\xe0\xa4\xaa\xe0\xa4\x9f\xe0\xa4\xa8\xe0\xa4\xbe,n,m,sg,3,o,0,0'
p4051
ssbsg1718
I00
sba(issf_api
Word
p4052
(dp4053
g1999
I00
sg2000
V\u092e\u0947\u0902
p4054
sg2002
(issf_api
FeatureSet
p4055
(dp4056
g291
(dp4057
S'posn'
p4058
S'40'
p4059
sS'name'
p4060
S'\xe0\xa4\xae\xe0\xa5\x87\xe0\xa4\x82'
p4061
sS'drel'
p4062
S'lwg__psp:\xe0\xa4\xaa\xe0\xa4\x9f\xe0\xa4\xa8\xe0\xa4\xbe'
p4063
sS'chunktype'
p4064
S'child:NP2'
p4065
sS'af'
p4066
S'\xe0\xa4\xae\xe0\xa5\x87\xe0\xa4\x82,psp,,,,,,'
p4067
ssbsg1697
I00
sg1700
I00
sg1711
Nsg1698
Nsg189
I1
sg175
I2
sg2020
Nsg1709
Nsg2021
S'PSP'
p4068
sg288
(issf_api
FeatureSet
p4069
(dp4070
g291
(dp4071
S'posn'
p4072
S'40'
p4073
sS'name'
p4074
S'\xe0\xa4\xae\xe0\xa5\x87\xe0\xa4\x82'
p4075
sS'af'
p4076
S'\xe0\xa4\xae\xe0\xa5\x87\xe0\xa4\x82,psp,,,,,,'
p4077
ssbsg1718
I00
sba(issf_api
Word
p4078
(dp4079
g1999
I00
sg2000
V\u092c\u0941\u0927\u0935\u093e\u0930
p4080
sg2002
(issf_api
FeatureSet
p4081
(dp4082
g291
(dp4083
S'posn'
p4084
S'50'
p4085
sS'name'
p4086
S'\xe0\xa4\xac\xe0\xa5\x81\xe0\xa4\xa7\xe0\xa4\xb5\xe0\xa4\xbe\xe0\xa4\xb0'
p4087
sS'af'
p4088
S'\xe0\xa4\xac\xe0\xa5\x81\xe0\xa4\xa7\xe0\xa4\xb5\xe0\xa4\xbe\xe0\xa4\xb0,n,m,sg,3,o,0_\xe0\xa4\x95\xe0\xa5\x8b,0'
p4089
sS'chunkid'
p4090
S'NP3'
p4091
sS'drel'
p4092
S'k7t:\xe0\xa4\x95\xe0\xa4\xb9\xe0\xa4\xbe'
p4093
sS'vpos'
p4094
S'vib_2'
p4095
sS'chunktype'
p4096
S'head:NP3'
p4097
ssbsg1697
I00
sg1700
I00
sg1711
Nsg1698
Nsg189
I2
sg175
I2
sg2020
Nsg1709
Nsg2021
S'NNP'
p4098
sg288
(issf_api
FeatureSet
p4099
(dp4100
g291
(dp4101
S'posn'
p4102
S'50'
p4103
sS'name'
p4104
S'\xe0\xa4\xac\xe0\xa5\x81\xe0\xa4\xa7\xe0\xa4\xb5\xe0\xa4\xbe\xe0\xa4\xb0'
p4105
sS'af'
p4106
S'\xe0\xa4\xac\xe0\xa5\x81\xe0\xa4\xa7\xe0\xa4\xb5\xe0\xa4\xbe\xe0\xa4\xb0,n,m,sg,3,o,0,0'
p4107
ssbsg1718
I00
sba(issf_api
Word
p4108
(dp4109
g1999
I00
sg2000
V\u0915\u094b
p4110
sg2002
(issf_api
FeatureSet
p4111
(dp4112
g291
(dp4113
S'posn'
p4114
S'60'
p4115
sS'name'
p4116
S'\xe0\xa4\x95\xe0\xa5\x8b'
p4117
sS'drel'
p4118
S'lwg__psp:\xe0\xa4\xac\xe0\xa5\x81\xe0\xa4\xa7\xe0\xa4\xb5\xe0\xa4\xbe\xe0\xa4\xb0'
p4119
sS'chunktype'
p4120
S'child:NP3'
p4121
sS'af'
p4122
S'\xe0\xa4\x95\xe0\xa5\x8b,psp,,,,,,'
p4123
ssbsg1697
I00
sg1700
I00
sg1711
Nsg1698
Nsg189
I2
sg175
I2
sg2020
Nsg1709
Nsg2021
S'PSP'
p4124
sg288
(issf_api
FeatureSet
p4125
(dp4126
g291
(dp4127
S'posn'
p4128
S'60'
p4129
sS'name'
p4130
S'\xe0\xa4\x95\xe0\xa5\x8b'
p4131
sS'af'
p4132
S'\xe0\xa4\x95\xe0\xa5\x8b,psp,,,,,,'
p4133
ssbsg1718
I00
sba(issf_api
Word
p4134
(dp4135
g1999
I00
sg2000
V\u0915\u0939\u093e
p4136
sg2002
(issf_api
FeatureSet
p4137
(dp4138
g291
(dp4139
S'posn'
p4140
S'70'
p4141
sS'name'
p4142
S'\xe0\xa4\x95\xe0\xa4\xb9\xe0\xa4\xbe'
p4143
sS'af'
p4144
S'\xe0\xa4\x95\xe0\xa4\xb9,v,m,sg,any,,\xe0\xa4\xaf\xe0\xa4\xbe,yA'
p4145
sS'chunkid'
p4146
S'VGF'
p4147
sS'chunktype'
p4148
S'head:VGF'
p4149
sS'voicetype'
p4150
S'active'
p4151
sS'stype'
p4152
S'declarative'
p4153
ssbsg1697
I00
sg1700
I00
sg1711
Nsg1698
Nsg189
I3
sg175
I2
sg2020
Nsg1709
Nsg2021
S'VM'
p4154
sg288
(issf_api
FeatureSet
p4155
(dp4156
g291
(dp4157
S'posn'
p4158
S'70'
p4159
sS'name'
p4160
S'\xe0\xa4\x95\xe0\xa4\xb9\xe0\xa4\xbe'
p4161
sS'af'
p4162
S'\xe0\xa4\x95\xe0\xa4\xb9,v,m,sg,any,,\xe0\xa4\xaf\xe0\xa4\xbe,yA'
p4163
ssbsg1718
I00
sba(issf_api
Word
p4164
(dp4165
g1999
I00
sg2000
V\u0915\u093f
p4166
sg2002
(issf_api
FeatureSet
p4167
(dp4168
g291
(dp4169
S'posn'
p4170
S'80'
p4171
sS'name'
p4172
S'\xe0\xa4\x95\xe0\xa4\xbf'
p4173
sS'af'
p4174
S'\xe0\xa4\x95\xe0\xa4\xbf,avy,,,,,,'
p4175
sS'chunkid'
p4176
S'CCP'
p4177
sS'drel'
p4178
S'k2:\xe0\xa4\x95\xe0\xa4\xb9\xe0\xa4\xbe'
p4179
sS'chunktype'
p4180
S'head:CCP'
p4181
ssbsg1697
I00
sg1700
I00
sg1711
Nsg1698
Nsg189
I4
sg175
I2
sg2020
Nsg1709
Nsg2021
S'CC'
p4182
sg288
(issf_api
FeatureSet
p4183
(dp4184
g291
(dp4185
S'posn'
p4186
S'80'
p4187
sS'name'
p4188
S'\xe0\xa4\x95\xe0\xa4\xbf'
p4189
sS'af'
p4190
S'\xe0\xa4\x95\xe0\xa4\xbf,avy,,,,,,'
p4191
ssbsg1718
I00
sba(issf_api
Word
p4192
(dp4193
g1999
I00
sg2000
V\u092c\u093f\u0939\u093e\u0930
p4194
sg2002
(issf_api
FeatureSet
p4195
(dp4196
g291
(dp4197
S'posn'
p4198
S'90'
p4199
sS'name'
p4200
S'\xe0\xa4\xac\xe0\xa4\xbf\xe0\xa4\xb9\xe0\xa4\xbe\xe0\xa4\xb0'
p4201
sS'drel'
p4202
S'pof__cn:\xe0\xa4\xb5\xe0\xa4\xbf\xe0\xa4\xa7\xe0\xa4\xbe\xe0\xa4\xa8\xe0\xa4\xb8\xe0\xa4\xad\xe0\xa4\xbe'
p4203
sS'chunktype'
p4204
S'child:NP4'
p4205
sS'af'
p4206
S'\xe0\xa4\xac\xe0\xa4\xbf\xe0\xa4\xb9\xe0\xa4\xbe\xe0\xa4\xb0,n,m,sg,3,d,0,0'
p4207
ssbsg1697
I00
sg1700
I00
sg1711
Nsg1698
Nsg189
I5
sg175
I2
sg2020
Nsg1709
Nsg2021
S'NNPC'
p4208
sg288
(issf_api
FeatureSet
p4209
(dp4210
g291
(dp4211
S'posn'
p4212
S'90'
p4213
sS'name'
p4214
S'\xe0\xa4\xac\xe0\xa4\xbf\xe0\xa4\xb9\xe0\xa4\xbe\xe0\xa4\xb0'
p4215
sS'af'
p4216
S'\xe0\xa4\xac\xe0\xa4\xbf\xe0\xa4\xb9\xe0\xa4\xbe\xe0\xa4\xb0,n,m,sg,3,d,0,0'
p4217
ssbsg1718
I00
sba(issf_api
Word
p4218
(dp4219
g1999
I00
sg2000
V\u0935\u093f\u0927\u093e\u0928\u0938\u092d\u093e
p4220
sg2002
(issf_api
FeatureSet
p4221
(dp4222
g291
(dp4223
S'posn'
p4224
S'100'
p4225
sS'name'
p4226
S'\xe0\xa4\xb5\xe0\xa4\xbf\xe0\xa4\xa7\xe0\xa4\xbe\xe0\xa4\xa8\xe0\xa4\xb8\xe0\xa4\xad\xe0\xa4\xbe'
p4227
sS'af'
p4228
S'\xe0\xa4\xb5\xe0\xa4\xbf\xe0\xa4\xa7\xe0\xa4\xbe\xe0\xa4\xa8\xe0\xa4\xb8\xe0\xa4\xad\xe0\xa4\xbe,n,f,sg,3,o,0_\xe0\xa4\x95\xe0\xa4\xbe,0'
p4229
sS'chunkid'
p4230
S'NP4'
p4231
sS'drel'
p4232
S'r6:\xe0\xa4\x9a\xe0\xa5\x81\xe0\xa4\xa8\xe0\xa4\xbe\xe0\xa4\xb5'
p4233
sS'vpos'
p4234
S'vib_3'
p4235
sS'chunktype'
p4236
S'head:NP4'
p4237
ssbsg1697
I00
sg1700
I00
sg1711
Nsg1698
Nsg189
I5
sg175
I2
sg2020
Nsg1709
Nsg2021
S'NNP'
p4238
sg288
(issf_api
FeatureSet
p4239
(dp4240
g291
(dp4241
S'posn'
p4242
S'100'
p4243
sS'name'
p4244
S'\xe0\xa4\xb5\xe0\xa4\xbf\xe0\xa4\xa7\xe0\xa4\xbe\xe0\xa4\xa8\xe0\xa4\xb8\xe0\xa4\xad\xe0\xa4\xbe'
p4245
sS'af'
p4246
S'\xe0\xa4\xb5\xe0\xa4\xbf\xe0\xa4\xa7\xe0\xa4\xbe\xe0\xa4\xa8\xe0\xa4\xb8\xe0\xa4\xad\xe0\xa4\xbe,n,f,sg,3,o,0,0'
p4247
ssbsg1718
I00
sba(issf_api
Word
p4248
(dp4249
g1999
I00
sg2000
V\u0915\u0947
p4250
sg2002
(issf_api
FeatureSet
p4251
(dp4252
g291
(dp4253
S'posn'
p4254
S'110'
p4255
sS'name'
p4256
S'\xe0\xa4\x95\xe0\xa5\x87'
p4257
sS'drel'
p4258
S'lwg__psp:\xe0\xa4\xb5\xe0\xa4\xbf\xe0\xa4\xa7\xe0\xa4\xbe\xe0\xa4\xa8\xe0\xa4\xb8\xe0\xa4\xad\xe0\xa4\xbe'
p4259
sS'chunktype'
p4260
S'child:NP4'
p4261
sS'af'
p4262
S'\xe0\xa4\x95\xe0\xa4\xbe,psp,m,sg,,o,,'
p4263
ssbsg1697
I00
sg1700
I00
sg1711
Nsg1698
Nsg189
I5
sg175
I2
sg2020
Nsg1709
Nsg2021
S'PSP'
p4264
sg288
(issf_api
FeatureSet
p4265
(dp4266
g291
(dp4267
S'posn'
p4268
S'110'
p4269
sS'name'
p4270
S'\xe0\xa4\x95\xe0\xa5\x87'
p4271
sS'af'
p4272
S'\xe0\xa4\x95\xe0\xa4\xbe,psp,m,sg,,o,,'
p4273
ssbsg1718
I00
sba(issf_api
Word
p4274
(dp4275
g1999
I00
sg2000
V\u091a\u0941\u0928\u093e\u0935
p4276
sg2002
(issf_api
FeatureSet
p4277
(dp4278
g291
(dp4279
S'posn'
p4280
S'120'
p4281
sS'name'
p4282
S'\xe0\xa4\x9a\xe0\xa5\x81\xe0\xa4\xa8\xe0\xa4\xbe\xe0\xa4\xb5'
p4283
sS'af'
p4284
S'\xe0\xa4\x9a\xe0\xa5\x81\xe0\xa4\xa8\xe0\xa4\xbe\xe0\xa4\xb5,n,m,sg,3,o,0_\xe0\xa4\xae\xe0\xa5\x87\xe0\xa4\x82,0'
p4285
sS'chunkid'
p4286
S'NP5'
p4287
sS'drel'
p4288
S'k7:\xe0\xa4\xb9\xe0\xa5\x88'
p4289
sS'vpos'
p4290
S'vib_2'
p4291
sS'chunktype'
p4292
S'head:NP5'
p4293
ssbsg1697
I00
sg1700
I00
sg1711
Nsg1698
Nsg189
I6
sg175
I2
sg2020
Nsg1709
Nsg2021
S'NN'
p4294
sg288
(issf_api
FeatureSet
p4295
(dp4296
g291
(dp4297
S'posn'
p4298
S'120'
p4299
sS'name'
p4300
S'\xe0\xa4\x9a\xe0\xa5\x81\xe0\xa4\xa8\xe0\xa4\xbe\xe0\xa4\xb5'
p4301
sS'af'
p4302
S'\xe0\xa4\x9a\xe0\xa5\x81\xe0\xa4\xa8\xe0\xa4\xbe\xe0\xa4\xb5,n,m,sg,3,o,0,0'
p4303
ssbsg1718
I00
sba(issf_api
Word
p4304
(dp4305
g1999
I00
sg2000
V\u092e\u0947\u0902
p4306
sg2002
(issf_api
FeatureSet
p4307
(dp4308
g291
(dp4309
S'posn'
p4310
S'130'
p4311
sS'name'
p4312
S'\xe0\xa4\xae\xe0\xa5\x87\xe0\xa4\x822'
p4313
sS'drel'
p4314
S'lwg__psp:\xe0\xa4\x9a\xe0\xa5\x81\xe0\xa4\xa8\xe0\xa4\xbe\xe0\xa4\xb5'
p4315
sS'chunktype'
p4316
S'child:NP5'
p4317
sS'af'
p4318
S'\xe0\xa4\xae\xe0\xa5\x87\xe0\xa4\x82,psp,,,,,,'
p4319
ssbsg1697
I00
sg1700
I00
sg1711
Nsg1698
Nsg189
I6
sg175
I2
sg2020
Nsg1709
Nsg2021
S'PSP'
p4320
sg288
(issf_api
FeatureSet
p4321
(dp4322
g291
(dp4323
S'posn'
p4324
S'130'
p4325
sS'name'
p4326
S'\xe0\xa4\xae\xe0\xa5\x87\xe0\xa4\x822'
p4327
sS'af'
p4328
S'\xe0\xa4\xae\xe0\xa5\x87\xe0\xa4\x82,psp,,,,,,'
p4329
ssbsg1718
I00
sba(issf_api
Word
p4330
(dp4331
g1999
I00
sg2000
V\u091f\u0940\u092e
p4332
sg2002
(issf_api
FeatureSet
p4333
(dp4334
g291
(dp4335
S'posn'
p4336
S'140'
p4337
sS'name'
p4338
S'\xe0\xa4\x9f\xe0\xa5\x80\xe0\xa4\xae'
p4339
sS'drel'
p4340
S'nmod:\xe0\xa4\xac\xe0\xa4\xbf\xe0\xa4\xb9\xe0\xa4\xbe\xe0\xa4\xb02'
p4341
sS'chunktype'
p4342
S'child:NP6'
p4343
sS'af'
p4344
S'\xe0\xa4\x9f\xe0\xa5\x80\xe0\xa4\xae,n,f,sg,3,d,0,0'
p4345
ssbsg1697
I00
sg1700
I00
sg1711
Nsg1698
Nsg189
I7
sg175
I2
sg2020
Nsg1709
Nsg2021
S'NN'
p4346
sg288
(issf_api
FeatureSet
p4347
(dp4348
g291
(dp4349
S'posn'
p4350
S'140'
p4351
sS'name'
p4352
S'\xe0\xa4\x9f\xe0\xa5\x80\xe0\xa4\xae'
p4353
sS'af'
p4354
S'\xe0\xa4\x9f\xe0\xa5\x80\xe0\xa4\xae,n,f,sg,3,d,0,0'
p4355
ssbsg1718
I00
sba(issf_api
Word
p4356
(dp4357
g1999
I00
sg2000
V\u092c\u093f\u0939\u093e\u0930
p4358
sg2002
(issf_api
FeatureSet
p4359
(dp4360
g291
(dp4361
S'posn'
p4362
S'150'
p4363
sS'name'
p4364
S'\xe0\xa4\xac\xe0\xa4\xbf\xe0\xa4\xb9\xe0\xa4\xbe\xe0\xa4\xb02'
p4365
sS'af'
p4366
S'\xe0\xa4\xac\xe0\xa4\xbf\xe0\xa4\xb9\xe0\xa4\xbe\xe0\xa4\xb0,n,m,sg,3,d,0,0'
p4367
sS'chunkid'
p4368
S'NP6'
p4369
sS'drel'
p4370
S'ccof:\xe0\xa4\x94\xe0\xa4\xb0'
p4371
sS'chunktype'
p4372
S'head:NP6'
p4373
ssbsg1697
I00
sg1700
I00
sg1711
Nsg1698
Nsg189
I7
sg175
I2
sg2020
Nsg1709
Nsg2021
S'NNP'
p4374
sg288
(issf_api
FeatureSet
p4375
(dp4376
g291
(dp4377
S'posn'
p4378
S'150'
p4379
sS'name'
p4380
S'\xe0\xa4\xac\xe0\xa4\xbf\xe0\xa4\xb9\xe0\xa4\xbe\xe0\xa4\xb02'
p4381
sS'af'
p4382
S'\xe0\xa4\xac\xe0\xa4\xbf\xe0\xa4\xb9\xe0\xa4\xbe\xe0\xa4\xb0,n,m,sg,3,d,0,0'
p4383
ssbsg1718
I00
sba(issf_api
Word
p4384
(dp4385
g1999
I00
sg2000
V(
sg2002
(issf_api
FeatureSet
p4386
(dp4387
g291
(dp4388
S'posn'
p4389
S'160'
p4390
sS'name'
p4391
S'('
sS'drel'
p4392
S'rsym:\xe0\xa4\xb0\xe0\xa4\xbe\xe0\xa4\x9c\xe0\xa4\x97'
p4393
sS'chunktype'
p4394
S'child:NP7'
p4395
sS'af'
p4396
S'(,punc,,,,,,'
p4397
ssbsg1697
I00
sg1700
I00
sg1711
Nsg1698
Nsg189
I8
sg175
I2
sg2020
Nsg1709
Nsg2021
S'SYM'
p4398
sg288
(issf_api
FeatureSet
p4399
(dp4400
g291
(dp4401
S'posn'
p4402
S'160'
p4403
sS'name'
p4404
S'('
sS'af'
p4405
S'(,punc,,,,,,'
p4406
ssbsg1718
I00
sba(issf_api
Word
p4407
(dp4408
g1999
I00
sg2000
V\u0930\u093e\u091c\u0917
p4409
sg2002
(issf_api
FeatureSet
p4410
(dp4411
g291
(dp4412
S'posn'
p4413
S'170'
p4414
sS'name'
p4415
S'\xe0\xa4\xb0\xe0\xa4\xbe\xe0\xa4\x9c\xe0\xa4\x97'
p4416
sS'af'
p4417
S'\xe0\xa4\xb0\xe0\xa4\xbe\xe0\xa4\x9c\xe0\xa4\x97,n,m,sg,3,d,0,0'
p4418
sS'chunkid'
p4419
S'NP7'
p4420
sS'drel'
p4421
S'nmod:\xe0\xa4\xac\xe0\xa4\xbf\xe0\xa4\xb9\xe0\xa4\xbe\xe0\xa4\xb02'
p4422
sS'chunktype'
p4423
S'head:NP7'
p4424
ssbsg1697
I00
sg1700
I00
sg1711
Nsg1698
Nsg189
I8
sg175
I2
sg2020
Nsg1709
Nsg2021
S'NNP'
p4425
sg288
(issf_api
FeatureSet
p4426
(dp4427
g291
(dp4428
S'posn'
p4429
S'170'
p4430
sS'name'
p4431
S'\xe0\xa4\xb0\xe0\xa4\xbe\xe0\xa4\x9c\xe0\xa4\x97'
p4432
sS'af'
p4433
S'\xe0\xa4\xb0\xe0\xa4\xbe\xe0\xa4\x9c\xe0\xa4\x97,n,m,sg,3,d,0,0'
p4434
ssbsg1718
I00
sba(issf_api
Word
p4435
(dp4436
g1999
I00
sg2000
V)
sg2002
(issf_api
FeatureSet
p4437
(dp4438
g291
(dp4439
S'posn'
p4440
S'180'
p4441
sS'name'
p4442
S')'
sS'drel'
p4443
S'rsym:\xe0\xa4\xb0\xe0\xa4\xbe\xe0\xa4\x9c\xe0\xa4\x97'
p4444
sS'chunktype'
p4445
S'child:NP7'
p4446
sS'af'
p4447
S'),punc,,,,,,'
p4448
ssbsg1697
I00
sg1700
I00
sg1711
Nsg1698
Nsg189
I8
sg175
I2
sg2020
Nsg1709
Nsg2021
S'SYM'
p4449
sg288
(issf_api
FeatureSet
p4450
(dp4451
g291
(dp4452
S'posn'
p4453
S'180'
p4454
sS'name'
p4455
S')'
sS'af'
p4456
S'),punc,,,,,,'
p4457
ssbsg1718
I00
sba(issf_api
Word
p4458
(dp4459
g1999
I00
sg2000
V\u0914\u0930
p4460
sg2002
(issf_api
FeatureSet
p4461
(dp4462
g291
(dp4463
S'posn'
p4464
S'190'
p4465
sS'name'
p4466
S'\xe0\xa4\x94\xe0\xa4\xb0'
p4467
sS'af'
p4468
S'\xe0\xa4\x94\xe0\xa4\xb0,avy,,,,,,'
p4469
sS'chunkid'
p4470
S'CCP2'
p4471
sS'drel'
p4472
S'k7:\xe0\xa4\xb9\xe0\xa5\x88'
p4473
sS'chunktype'
p4474
S'head:CCP2'
p4475
ssbsg1697
I00
sg1700
I00
sg1711
Nsg1698
Nsg189
I9
sg175
I2
sg2020
Nsg1709
Nsg2021
S'CC'
p4476
sg288
(issf_api
FeatureSet
p4477
(dp4478
g291
(dp4479
S'posn'
p4480
S'190'
p4481
sS'name'
p4482
S'\xe0\xa4\x94\xe0\xa4\xb0'
p4483
sS'af'
p4484
S'\xe0\xa4\x94\xe0\xa4\xb0,avy,,,,,,'
p4485
ssbsg1718
I00
sba(issf_api
Word
p4486
(dp4487
g1999
I00
sg2000
V\u0932\u093e\u0932\u0942
p4488
sg2002
(issf_api
FeatureSet
p4489
(dp4490
g291
(dp4491
S'posn'
p4492
S'200'
p4493
sS'name'
p4494
S'\xe0\xa4\xb2\xe0\xa4\xbe\xe0\xa4\xb2\xe0\xa5\x82'
p4495
sS'drel'
p4496
S'nmod__adj:\xe0\xa4\xb0\xe0\xa4\xbe\xe0\xa4\xac\xe0\xa4\xa1\xe0\xa4\xbc\xe0\xa5\x80'
p4497
sS'chunktype'
p4498
S'child:NP8'
p4499
sS'af'
p4500
S'\xe0\xa4\xb2\xe0\xa4\xbe\xe0\xa4\xb2\xe0\xa5\x82,n,m,sg,3,d,0,0'
p4501
ssbsg1697
I00
sg1700
I00
sg1711
Nsg1698
Nsg189
I10
sg175
I2
sg2020
Nsg1709
Nsg2021
S'NNP'
p4502
sg288
(issf_api
FeatureSet
p4503
(dp4504
g291
(dp4505
S'posn'
p4506
S'200'
p4507
sS'name'
p4508
S'\xe0\xa4\xb2\xe0\xa4\xbe\xe0\xa4\xb2\xe0\xa5\x82'
p4509
sS'af'
p4510
S'\xe0\xa4\xb2\xe0\xa4\xbe\xe0\xa4\xb2\xe0\xa5\x82,n,m,sg,3,d,0,0'
p4511
ssbsg1718
I00
sba(issf_api
Word
p4512
(dp4513
g1999
I00
sg2000
V-
sg2002
(issf_api
FeatureSet
p4514
(dp4515
g291
(dp4516
S'posn'
p4517
S'210'
p4518
sS'name'
p4519
S'-'
sS'drel'
p4520
S'rsym:\xe0\xa4\xb0\xe0\xa4\xbe\xe0\xa4\xac\xe0\xa4\xa1\xe0\xa4\xbc\xe0\xa5\x80'
p4521
sS'chunktype'
p4522
S'child:NP8'
p4523
sS'af'
p4524
S'-,punc,,,,,,'
p4525
ssbsg1697
I00
sg1700
I00
sg1711
Nsg1698
Nsg189
I10
sg175
I2
sg2020
Nsg1709
Nsg2021
S'SYM'
p4526
sg288
(issf_api
FeatureSet
p4527
(dp4528
g291
(dp4529
S'posn'
p4530
S'210'
p4531
sS'name'
p4532
S'-'
sS'af'
p4533
S'-,punc,,,,,,'
p4534
ssbsg1718
I00
sba(issf_api
Word
p4535
(dp4536
g1999
I00
sg2000
V\u0930\u093e\u092c\u0921\u093c\u0940
p4537
sg2002
(issf_api
FeatureSet
p4538
(dp4539
g291
(dp4540
S'posn'
p4541
S'220'
p4542
sS'name'
p4543
S'\xe0\xa4\xb0\xe0\xa4\xbe\xe0\xa4\xac\xe0\xa4\xa1\xe0\xa4\xbc\xe0\xa5\x80'
p4544
sS'af'
p4545
S'\xe0\xa4\xb0\xe0\xa4\xbe\xe0\xa4\xac\xe0\xa4\xa1\xe0\xa4\xbc\xe0\xa5\x80,n,f,sg,3,o,0_\xe0\xa4\x95\xe0\xa5\x87_\xe0\xa4\xac\xe0\xa5\x80\xe0\xa4\x9a,0'
p4546
sS'chunkid'
p4547
S'NP8'
p4548
sS'drel'
p4549
S'ccof:\xe0\xa4\x94\xe0\xa4\xb0'
p4550
sS'vpos'
p4551
S'vib_vib_4_5'
p4552
sS'chunktype'
p4553
S'head:NP8'
p4554
ssbsg1697
I00
sg1700
I00
sg1711
Nsg1698
Nsg189
I10
sg175
I2
sg2020
Nsg1709
Nsg2021
S'NNP'
p4555
sg288
(issf_api
FeatureSet
p4556
(dp4557
g291
(dp4558
S'posn'
p4559
S'220'
p4560
sS'name'
p4561
S'\xe0\xa4\xb0\xe0\xa4\xbe\xe0\xa4\xac\xe0\xa4\xa1\xe0\xa4\xbc\xe0\xa5\x80'
p4562
sS'af'
p4563
S'\xe0\xa4\xb0\xe0\xa4\xbe\xe0\xa4\xac\xe0\xa4\xa1\xe0\xa4\xbc\xe0\xa5\x80,n,f,sg,3,o,0,0'
p4564
ssbsg1718
I00
sba(issf_api
Word
p4565
(dp4566
g1999
I00
sg2000
V\u0915\u0947
p4567
sg2002
(issf_api
FeatureSet
p4568
(dp4569
g291
(dp4570
S'posn'
p4571
S'230'
p4572
sS'name'
p4573
S'\xe0\xa4\x95\xe0\xa5\x872'
p4574
sS'drel'
p4575
S'lwg__psp:\xe0\xa4\xb0\xe0\xa4\xbe\xe0\xa4\xac\xe0\xa4\xa1\xe0\xa4\xbc\xe0\xa5\x80'
p4576
sS'chunktype'
p4577
S'child:NP8'
p4578
sS'af'
p4579
S'\xe0\xa4\x95\xe0\xa5\x87,psp,,,,,,'
p4580
ssbsg1697
I00
sg1700
I00
sg1711
Nsg1698
Nsg189
I10
sg175
I2
sg2020
Nsg1709
Nsg2021
S'PSP'
p4581
sg288
(issf_api
FeatureSet
p4582
(dp4583
g291
(dp4584
S'posn'
p4585
S'230'
p4586
sS'name'
p4587
S'\xe0\xa4\x95\xe0\xa5\x872'
p4588
sS'af'
p4589
S'\xe0\xa4\x95\xe0\xa5\x87,psp,,,,,,'
p4590
ssbsg1718
I00
sba(issf_api
Word
p4591
(dp4592
g1999
I00
sg2000
V\u092c\u0940\u091a
p4593
sg2002
(issf_api
FeatureSet
p4594
(dp4595
g291
(dp4596
S'posn'
p4597
S'240'
p4598
sS'name'
p4599
S'\xe0\xa4\xac\xe0\xa5\x80\xe0\xa4\x9a'
p4600
sS'drel'
p4601
S'lwg__psp:\xe0\xa4\xb0\xe0\xa4\xbe\xe0\xa4\xac\xe0\xa4\xa1\xe0\xa4\xbc\xe0\xa5\x80'
p4602
sS'chunktype'
p4603
S'child:NP8'
p4604
sS'af'
p4605
S'\xe0\xa4\xac\xe0\xa5\x80\xe0\xa4\x9a,nst,m,sg,3,d,,'
p4606
ssbsg1697
I00
sg1700
I00
sg1711
Nsg1698
Nsg189
I10
sg175
I2
sg2020
Nsg1709
Nsg2021
S'NST'
p4607
sg288
(issf_api
FeatureSet
p4608
(dp4609
g291
(dp4610
S'posn'
p4611
S'240'
p4612
sS'name'
p4613
S'\xe0\xa4\xac\xe0\xa5\x80\xe0\xa4\x9a'
p4614
sS'af'
p4615
S'\xe0\xa4\xac\xe0\xa5\x80\xe0\xa4\x9a,nst,m,sg,3,d,,'
p4616
ssbsg1718
I00
sba(issf_api
Word
p4617
(dp4618
g1999
I00
sg2000
V\u092e\u0941\u0915\u093e\u092c\u0932\u093e
p4619
sg2002
(issf_api
FeatureSet
p4620
(dp4621
g291
(dp4622
S'posn'
p4623
S'250'
p4624
sS'name'
p4625
S'\xe0\xa4\xae\xe0\xa5\x81\xe0\xa4\x95\xe0\xa4\xbe\xe0\xa4\xac\xe0\xa4\xb2\xe0\xa4\xbe'
p4626
sS'af'
p4627
S'\xe0\xa4\xae\xe0\xa5\x81\xe0\xa4\x95\xe0\xa4\xbe\xe0\xa4\xac\xe0\xa4\xb2\xe0\xa4\xbe,n,m,sg,3,d,0,0'
p4628
sS'chunkid'
p4629
S'NP9'
p4630
sS'drel'
p4631
S'k1:\xe0\xa4\xb9\xe0\xa5\x88'
p4632
sS'chunktype'
p4633
S'head:NP9'
p4634
ssbsg1697
I00
sg1700
I00
sg1711
Nsg1698
Nsg189
I11
sg175
I2
sg2020
Nsg1709
Nsg2021
S'NN'
p4635
sg288
(issf_api
FeatureSet
p4636
(dp4637
g291
(dp4638
S'posn'
p4639
S'250'
p4640
sS'name'
p4641
S'\xe0\xa4\xae\xe0\xa5\x81\xe0\xa4\x95\xe0\xa4\xbe\xe0\xa4\xac\xe0\xa4\xb2\xe0\xa4\xbe'
p4642
sS'af'
p4643
S'\xe0\xa4\xae\xe0\xa5\x81\xe0\xa4\x95\xe0\xa4\xbe\xe0\xa4\xac\xe0\xa4\xb2\xe0\xa4\xbe,n,m,sg,3,d,0,0'
p4644
ssbsg1718
I00
sba(issf_api
Word
p4645
(dp4646
g1999
I00
sg2000
V\u0939\u0948
p4647
sg2002
(issf_api
FeatureSet
p4648
(dp4649
g291
(dp4650
S'posn'
p4651
S'260'
p4652
sS'name'
p4653
S'\xe0\xa4\xb9\xe0\xa5\x88'
p4654
sS'af'
p4655
S'\xe0\xa4\xb9\xe0\xa5\x88,v,any,sg,3,,\xe0\xa4\xb9\xe0\xa5\x88,hE'
p4656
sS'chunkid'
p4657
S'VGF2'
p4658
sS'stype'
p4659
S'declarative'
p4660
sS'drel'
p4661
S'ccof:\xe0\xa4\x95\xe0\xa4\xbf'
p4662
sS'voicetype'
p4663
S'active'
p4664
sS'chunktype'
p4665
S'head:VGF2'
p4666
ssbsg1697
I00
sg1700
I00
sg1711
Nsg1698
Nsg189
I12
sg175
I2
sg2020
Nsg1709
Nsg2021
S'VM'
p4667
sg288
(issf_api
FeatureSet
p4668
(dp4669
g291
(dp4670
S'posn'
p4671
S'260'
p4672
sS'name'
p4673
S'\xe0\xa4\xb9\xe0\xa5\x88'
p4674
sS'af'
p4675
S'\xe0\xa4\xb9\xe0\xa5\x88,v,any,sg,3,,\xe0\xa4\xb9\xe0\xa5\x88,hE'
p4676
ssbsg1718
I00
sba(issf_api
Word
p4677
(dp4678
g1999
I00
sg2000
V\u0964
sg2002
(issf_api
FeatureSet
p4679
(dp4680
g291
(dp4681
S'posn'
p4682
S'270'
p4683
sS'name'
p4684
S'\xe0\xa5\xa4'
p4685
sS'af'
p4686
S'\xe0\xa5\xa4,punc,,,,,,'
p4687
sS'chunkid'
p4688
S'BLK'
p4689
sS'drel'
p4690
S'rsym:\xe0\xa4\x95\xe0\xa4\xb9\xe0\xa4\xbe'
p4691
sS'chunktype'
p4692
S'head:BLK'
p4693
ssbsg1697
I00
sg1700
I00
sg1711
Nsg1698
Nsg189
I13
sg175
I2
sg2020
Nsg1709
Nsg2021
S'SYM'
p4694
sg288
(issf_api
FeatureSet
p4695
(dp4696
g291
(dp4697
S'posn'
p4698
S'270'
p4699
sS'name'
p4700
S'\xe0\xa5\xa4'
p4701
sS'af'
p4702
S'\xe0\xa5\xa4,punc,,,,,,'
p4703
ssbsg1718
I00
sba(issf_api
Word
p4704
(dp4705
g1999
I00
sg2000
V\u0907\u0938\u092e\u0947\u0902
p4706
sg2002
(issf_api
FeatureSet
p4707
(dp4708
g291
(dp4709
S'posn'
p4710
S'10'
p4711
sS'name'
p4712
S'\xe0\xa4\x87\xe0\xa4\xb8\xe0\xa4\xae\xe0\xa5\x87\xe0\xa4\x82'
p4713
sS'af'
p4714
S'\xe0\xa4\xaf\xe0\xa4\xb9,pn,any,sg,3,o,\xe0\xa4\xae\xe0\xa5\x87\xe0\xa4\x82,meM'
p4715
sS'chunkid'
p4716
S'NP'
p4717
sS'drel'
p4718
S'k7:\xe0\xa4\xb9\xe0\xa5\x8b\xe0\xa4\x97\xe0\xa5\x80'
p4719
sS'chunktype'
p4720
S'head:NP'
p4721
ssbsg1697
I00
sg1700
I00
sg1711
Nsg1698
Nsg189
I0
sg175
I3
sg2020
Nsg1709
Nsg2021
S'PRP'
p4722
sg288
(issf_api
FeatureSet
p4723
(dp4724
g291
(dp4725
S'posn'
p4726
S'10'
p4727
sS'name'
p4728
S'\xe0\xa4\x87\xe0\xa4\xb8\xe0\xa4\xae\xe0\xa5\x87\xe0\xa4\x82'
p4729
sS'af'
p4730
S'\xe0\xa4\xaf\xe0\xa4\xb9,pn,any,sg,3,o,\xe0\xa4\xae\xe0\xa5\x87\xe0\xa4\x82,meM'
p4731
ssbsg1718
I00
sba(issf_api
Word
p4732
(dp4733
g1999
I00
sg2000
V\u091c\u0940\u0924
p4734
sg2002
(issf_api
FeatureSet
p4735
(dp4736
g291
(dp4737
S'posn'
p4738
S'20'
p4739
sS'name'
p4740
S'\xe0\xa4\x9c\xe0\xa5\x80\xe0\xa4\xa4'
p4741
sS'af'
p4742
S'\xe0\xa4\x9c\xe0\xa5\x80\xe0\xa4\xa4,n,f,sg,3,d,0,0'
p4743
sS'chunkid'
p4744
S'NP2'
p4745
sS'drel'
p4746
S'pof:\xe0\xa4\xb9\xe0\xa5\x8b\xe0\xa4\x97\xe0\xa5\x80'
p4747
sS'chunktype'
p4748
S'head:NP2'
p4749
ssbsg1697
I00
sg1700
I00
sg1711
Nsg1698
Nsg189
I1
sg175
I3
sg2020
Nsg1709
Nsg2021
S'NN'
p4750
sg288
(issf_api
FeatureSet
p4751
(dp4752
g291
(dp4753
S'posn'
p4754
S'20'
p4755
sS'name'
p4756
S'\xe0\xa4\x9c\xe0\xa5\x80\xe0\xa4\xa4'
p4757
sS'af'
p4758
S'\xe0\xa4\x9c\xe0\xa5\x80\xe0\xa4\xa4,n,f,sg,3,d,0,0'
p4759
ssbsg1718
I00
sba(issf_api
Word
p4760
(dp4761
g1999
I00
sg2000
V\u0930\u093e\u091c\u0917
p4762
sg2002
(issf_api
FeatureSet
p4763
(dp4764
g291
(dp4765
S'posn'
p4766
S'30'
p4767
sS'name'
p4768
S'\xe0\xa4\xb0\xe0\xa4\xbe\xe0\xa4\x9c\xe0\xa4\x97'
p4769
sS'af'
p4770
S'\xe0\xa4\xb0\xe0\xa4\xbe\xe0\xa4\x9c\xe0\xa4\x97,n,m,sg,3,o,0_\xe0\xa4\x95\xe0\xa4\xbe,0'
p4771
sS'chunkid'
p4772
S'NP3'
p4773
sS'drel'
p4774
S'r6-k1:\xe0\xa4\x9c\xe0\xa5\x80\xe0\xa4\xa4'
p4775
sS'vpos'
p4776
S'vib_2'
p4777
sS'chunktype'
p4778
S'head:NP3'
p4779
ssbsg1697
I00
sg1700
I00
sg1711
Nsg1698
Nsg189
I2
sg175
I3
sg2020
Nsg1709
Nsg2021
S'NNP'
p4780
sg288
(issf_api
FeatureSet
p4781
(dp4782
g291
(dp4783
S'posn'
p4784
S'30'
p4785
sS'name'
p4786
S'\xe0\xa4\xb0\xe0\xa4\xbe\xe0\xa4\x9c\xe0\xa4\x97'
p4787
sS'af'
p4788
S'\xe0\xa4\xb0\xe0\xa4\xbe\xe0\xa4\x9c\xe0\xa4\x97,n,m,sg,3,o,0,0'
p4789
ssbsg1718
I00
sba(issf_api
Word
p4790
(dp4791
g1999
I00
sg2000
V\u0915\u0940
p4792
sg2002
(issf_api
FeatureSet
p4793
(dp4794
g291
(dp4795
S'posn'
p4796
S'40'
p4797
sS'name'
p4798
S'\xe0\xa4\x95\xe0\xa5\x80'
p4799
sS'drel'
p4800
S'lwg__psp:\xe0\xa4\xb0\xe0\xa4\xbe\xe0\xa4\x9c\xe0\xa4\x97'
p4801
sS'chunktype'
p4802
S'child:NP3'
p4803
sS'af'
p4804
S'\xe0\xa4\x95\xe0\xa4\xbe,psp,f,sg,,d,,'
p4805
ssbsg1697
I00
sg1700
I00
sg1711
Nsg1698
Nsg189
I2
sg175
I3
sg2020
Nsg1709
Nsg2021
S'PSP'
p4806
sg288
(issf_api
FeatureSet
p4807
(dp4808
g291
(dp4809
S'posn'
p4810
S'40'
p4811
sS'name'
p4812
S'\xe0\xa4\x95\xe0\xa5\x80'
p4813
sS'af'
p4814
S'\xe0\xa4\x95\xe0\xa4\xbe,psp,f,sg,,d,,'
p4815
ssbsg1718
I00
sba(issf_api
Word
p4816
(dp4817
g1999
I00
sg2000
V\u0939\u094b\u0917\u0940
p4818
sg2002
(issf_api
FeatureSet
p4819
(dp4820
g291
(dp4821
S'posn'
p4822
S'50'
p4823
sS'name'
p4824
S'\xe0\xa4\xb9\xe0\xa5\x8b\xe0\xa4\x97\xe0\xa5\x80'
p4825
sS'af'
p4826
S'\xe0\xa4\xb9\xe0\xa5\x8b,v,f,sg,3,,\xe0\xa4\x97\xe0\xa4\xbe,gA'
p4827
sS'chunkid'
p4828
S'VGF'
p4829
sS'chunktype'
p4830
S'head:VGF'
p4831
sS'voicetype'
p4832
S'active'
p4833
sS'stype'
p4834
S'declarative'
p4835
ssbsg1697
I00
sg1700
I00
sg1711
Nsg1698
Nsg189
I3
sg175
I3
sg2020
Nsg1709
Nsg2021
S'VM'
p4836
sg288
(issf_api
FeatureSet
p4837
(dp4838
g291
(dp4839
S'posn'
p4840
S'50'
p4841
sS'name'
p4842
S'\xe0\xa4\xb9\xe0\xa5\x8b\xe0\xa4\x97\xe0\xa5\x80'
p4843
sS'af'
p4844
S'\xe0\xa4\xb9\xe0\xa5\x8b,v,f,sg,3,,\xe0\xa4\x97\xe0\xa4\xbe,gA'
p4845
ssbsg1718
I00
sba(issf_api
Word
p4846
(dp4847
g1999
I00
sg2000
V\u0964
sg2002
(issf_api
FeatureSet
p4848
(dp4849
g291
(dp4850
S'posn'
p4851
S'60'
p4852
sS'name'
p4853
S'\xe0\xa5\xa4'
p4854
sS'af'
p4855
S'\xe0\xa5\xa4,punc,,,,,,'
p4856
sS'chunkid'
p4857
S'BLK'
p4858
sS'drel'
p4859
S'rsym:\xe0\xa4\xb9\xe0\xa5\x8b\xe0\xa4\x97\xe0\xa5\x80'
p4860
sS'chunktype'
p4861
S'head:BLK'
p4862
ssbsg1697
I00
sg1700
I00
sg1711
Nsg1698
Nsg189
I4
sg175
I3
sg2020
Nsg1709
Nsg2021
S'SYM'
p4863
sg288
(issf_api
FeatureSet
p4864
(dp4865
g291
(dp4866
S'posn'
p4867
S'60'
p4868
sS'name'
p4869
S'\xe0\xa5\xa4'
p4870
sS'af'
p4871
S'\xe0\xa5\xa4,punc,,,,,,'
p4872
ssbsg1718
I00
sba(issf_api
Word
p4873
(dp4874
g1999
I00
sg2000
V\u0909\u0928\u094d\u0939\u094b\u0902\u0928\u0947
p4875
sg2002
(issf_api
FeatureSet
p4876
(dp4877
g291
(dp4878
S'posn'
p4879
S'10'
p4880
sS'name'
p4881
S'\xe0\xa4\x89\xe0\xa4\xa8\xe0\xa5\x8d\xe0\xa4\xb9\xe0\xa5\x8b\xe0\xa4\x82\xe0\xa4\xa8\xe0\xa5\x87'
p4882
sS'af'
p4883
S'\xe0\xa4\xb5\xe0\xa4\xb9,pn,any,sg,3h,o,\xe0\xa4\xa8\xe0\xa5\x87,ne'
p4884
sS'chunkid'
p4885
S'NP'
p4886
sS'drel'
p4887
S'k1:\xe0\xa4\x95\xe0\xa4\xb9\xe0\xa4\xbe'
p4888
sS'chunktype'
p4889
S'head:NP'
p4890
ssbsg1697
I00
sg1700
I00
sg1711
Nsg1698
Nsg189
I0
sg175
I4
sg2020
Nsg1709
Nsg2021
S'PRP'
p4891
sg288
(issf_api
FeatureSet
p4892
(dp4893
g291
(dp4894
S'posn'
p4895
S'10'
p4896
sS'name'
p4897
S'\xe0\xa4\x89\xe0\xa4\xa8\xe0\xa5\x8d\xe0\xa4\xb9\xe0\xa5\x8b\xe0\xa4\x82\xe0\xa4\xa8\xe0\xa5\x87'
p4898
sS'af'
p4899
S'\xe0\xa4\xb5\xe0\xa4\xb9,pn,any,sg,3h,o,\xe0\xa4\xa8\xe0\xa5\x87,ne'
p4900
ssbsg1718
I00
sba(issf_api
Word
p4901
(dp4902
g1999
I00
sg2000
V\u0915\u0939\u093e
p4903
sg2002
(issf_api
FeatureSet
p4904
(dp4905
g291
(dp4906
S'posn'
p4907
S'20'
p4908
sS'name'
p4909
S'\xe0\xa4\x95\xe0\xa4\xb9\xe0\xa4\xbe'
p4910
sS'af'
p4911
S'\xe0\xa4\x95\xe0\xa4\xb9,v,m,sg,any,,\xe0\xa4\xaf\xe0\xa4\xbe,yA'
p4912
sS'chunkid'
p4913
S'VGF'
p4914
sS'chunktype'
p4915
S'head:VGF'
p4916
sS'voicetype'
p4917
S'active'
p4918
sS'stype'
p4919
S'declarative'
p4920
ssbsg1697
I00
sg1700
I00
sg1711
Nsg1698
Nsg189
I1
sg175
I4
sg2020
Nsg1709
Nsg2021
S'VM'
p4921
sg288
(issf_api
FeatureSet
p4922
(dp4923
g291
(dp4924
S'posn'
p4925
S'20'
p4926
sS'name'
p4927
S'\xe0\xa4\x95\xe0\xa4\xb9\xe0\xa4\xbe'
p4928
sS'af'
p4929
S'\xe0\xa4\x95\xe0\xa4\xb9,v,m,sg,any,,\xe0\xa4\xaf\xe0\xa4\xbe,yA'
p4930
ssbsg1718
I00
sba(issf_api
Word
p4931
(dp4932
g1999
I00
sg2000
V\u0915\u093f
p4933
sg2002
(issf_api
FeatureSet
p4934
(dp4935
g291
(dp4936
S'posn'
p4937
S'30'
p4938
sS'name'
p4939
S'\xe0\xa4\x95\xe0\xa4\xbf'
p4940
sS'af'
p4941
S'\xe0\xa4\x95\xe0\xa4\xbf,avy,,,,,,'
p4942
sS'chunkid'
p4943
S'CCP'
p4944
sS'drel'
p4945
S'k2:\xe0\xa4\x95\xe0\xa4\xb9\xe0\xa4\xbe'
p4946
sS'chunktype'
p4947
S'head:CCP'
p4948
ssbsg1697
I00
sg1700
I00
sg1711
Nsg1698
Nsg189
I2
sg175
I4
sg2020
Nsg1709
Nsg2021
S'CC'
p4949
sg288
(issf_api
FeatureSet
p4950
(dp4951
g291
(dp4952
S'posn'
p4953
S'30'
p4954
sS'name'
p4955
S'\xe0\xa4\x95\xe0\xa4\xbf'
p4956
sS'af'
p4957
S'\xe0\xa4\x95\xe0\xa4\xbf,avy,,,,,,'
p4958
ssbsg1718
I00
sba(issf_api
Word
p4959
(dp4960
g1999
I00
sg2000
V\u0939\u092e\u0928\u0947
p4961
sg2002
(issf_api
FeatureSet
p4962
(dp4963
g291
(dp4964
S'posn'
p4965
S'40'
p4966
sS'name'
p4967
S'\xe0\xa4\xb9\xe0\xa4\xae\xe0\xa4\xa8\xe0\xa5\x87'
p4968
sS'af'
p4969
S'\xe0\xa4\xb9\xe0\xa4\xae,pn,any,sg,1,o,\xe0\xa4\xa8\xe0\xa5\x87,ne'
p4970
sS'chunkid'
p4971
S'NP2'
p4972
sS'drel'
p4973
S'k1:\xe0\xa4\xa6\xe0\xa5\x87\xe0\xa4\x96\xe0\xa4\xbe'
p4974
sS'chunktype'
p4975
S'head:NP2'
p4976
ssbsg1697
I01
sg1700
I00
sg1711
Nsg1698
Nsg189
I3
sg175
I4
sg2020
I1
sg1709
Nsg2021
S'PRP'
p4977
sg288
(issf_api
FeatureSet
p4978
(dp4979
g291
(dp4980
S'posn'
p4981
S'40'
p4982
sS'name'
p4983
S'\xe0\xa4\xb9\xe0\xa4\xae\xe0\xa4\xa8\xe0\xa5\x87'
p4984
sS'af'
p4985
S'\xe0\xa4\xb9\xe0\xa4\xae,pn,any,sg,1,o,\xe0\xa4\xa8\xe0\xa5\x87,ne'
p4986
ssbsg1718
I00
sba(issf_api
Word
p4987
(dp4988
g1999
I00
sg2000
V\u0935\u093e\u091c\u092a\u0947\u092f\u0940
p4989
sg2002
(issf_api
FeatureSet
p4990
(dp4991
g291
(dp4992
S'posn'
p4993
S'50'
p4994
sS'name'
p4995
S'\xe0\xa4\xb5\xe0\xa4\xbe\xe0\xa4\x9c\xe0\xa4\xaa\xe0\xa5\x87\xe0\xa4\xaf\xe0\xa5\x80'
p4996
sS'drel'
p4997
S'pof__cn:\xe0\xa4\xb8\xe0\xa4\xb0\xe0\xa4\x95\xe0\xa4\xbe\xe0\xa4\xb0'
p4998
sS'chunktype'
p4999
S'child:NP3'
p5000
sS'af'
p5001
S'\xe0\xa4\xb5\xe0\xa4\xbe\xe0\xa4\x9c\xe0\xa4\xaa\xe0\xa5\x87\xe0\xa4\xaf\xe0\xa5\x80,n,any,sg,3,d,0,0'
p5002
ssbsg1697
I01
sg1700
I00
sg1711
Nsg1698
Nsg189
I4
sg175
I4
sg2020
I1
sg1709
Nsg2021
S'NNPC'
p5003
sg288
(issf_api
FeatureSet
p5004
(dp5005
g291
(dp5006
S'posn'
p5007
S'50'
p5008
sS'name'
p5009
S'\xe0\xa4\xb5\xe0\xa4\xbe\xe0\xa4\x9c\xe0\xa4\xaa\xe0\xa5\x87\xe0\xa4\xaf\xe0\xa5\x80'
p5010
sS'af'
p5011
S'\xe0\xa4\xb5\xe0\xa4\xbe\xe0\xa4\x9c\xe0\xa4\xaa\xe0\xa5\x87\xe0\xa4\xaf\xe0\xa5\x80,n,any,sg,3,d,0,0'
p5012
ssbsg1718
I00
sba(issf_api
Word
p5013
(dp5014
g1999
I00
sg2000
V\u0938\u0930\u0915\u093e\u0930
p5015
sg2002
(issf_api
FeatureSet
p5016
(dp5017
g291
(dp5018
S'posn'
p5019
S'60'
p5020
sS'name'
p5021
S'\xe0\xa4\xb8\xe0\xa4\xb0\xe0\xa4\x95\xe0\xa4\xbe\xe0\xa4\xb0'
p5022
sS'af'
p5023
S'\xe0\xa4\xb8\xe0\xa4\xb0\xe0\xa4\x95\xe0\xa4\xbe\xe0\xa4\xb0,n,f,sg,3,o,0_\xe0\xa4\xae\xe0\xa5\x87\xe0\xa4\x82,0'
p5024
sS'chunkid'
p5025
S'NP3'
p5026
sS'drel'
p5027
S'k7:\xe0\xa4\xa6\xe0\xa5\x87\xe0\xa4\x96\xe0\xa4\xbe'
p5028
sS'vpos'
p5029
S'vib_3'
p5030
sS'chunktype'
p5031
S'head:NP3'
p5032
ssbsg1697
I01
sg1700
I00
sg1711
Nsg1698
Nsg189
I4
sg175
I4
sg2020
I1
sg1709
Nsg2021
S'NNP'
p5033
sg288
(issf_api
FeatureSet
p5034
(dp5035
g291
(dp5036
S'posn'
p5037
S'60'
p5038
sS'name'
p5039
S'\xe0\xa4\xb8\xe0\xa4\xb0\xe0\xa4\x95\xe0\xa4\xbe\xe0\xa4\xb0'
p5040
sS'af'
p5041
S'\xe0\xa4\xb8\xe0\xa4\xb0\xe0\xa4\x95\xe0\xa4\xbe\xe0\xa4\xb0,n,f,sg,3,o,0,0'
p5042
ssbsg1718
I00
sba(issf_api
Word
p5043
(dp5044
g1999
I00
sg2000
V\u092e\u0947\u0902
p5045
sg2002
(issf_api
FeatureSet
p5046
(dp5047
g291
(dp5048
S'posn'
p5049
S'70'
p5050
sS'name'
p5051
S'\xe0\xa4\xae\xe0\xa5\x87\xe0\xa4\x82'
p5052
sS'drel'
p5053
S'lwg__psp:\xe0\xa4\xb8\xe0\xa4\xb0\xe0\xa4\x95\xe0\xa4\xbe\xe0\xa4\xb0'
p5054
sS'chunktype'
p5055
S'child:NP3'
p5056
sS'af'
p5057
S'\xe0\xa4\xae\xe0\xa5\x87\xe0\xa4\x82,psp,,,,,,'
p5058
ssbsg1697
I01
sg1700
I00
sg1711
Nsg1698
Nsg189
I4
sg175
I4
sg2020
I1
sg1709
Nsg2021
S'PSP'
p5059
sg288
(issf_api
FeatureSet
p5060
(dp5061
g291
(dp5062
S'posn'
p5063
S'70'
p5064
sS'name'
p5065
S'\xe0\xa4\xae\xe0\xa5\x87\xe0\xa4\x82'
p5066
sS'af'
p5067
S'\xe0\xa4\xae\xe0\xa5\x87\xe0\xa4\x82,psp,,,,,,'
p5068
ssbsg1718
I00
sba(issf_api
Word
p5069
(dp5070
g1999
I00
sg2000
V\u0928\u093f\u0924\u0940\u0936
p5071
sg2002
(issf_api
FeatureSet
p5072
(dp5073
g291
(dp5074
S'posn'
p5075
S'80'
p5076
sS'name'
p5077
S'\xe0\xa4\xa8\xe0\xa4\xbf\xe0\xa4\xa4\xe0\xa5\x80\xe0\xa4\xb6'
p5078
sS'af'
p5079
S'\xe0\xa4\xa8\xe0\xa4\xbf\xe0\xa4\xa4\xe0\xa5\x80\xe0\xa4\xb6,n,m,sg,3,o,0_\xe0\xa4\x95\xe0\xa4\xbe,0'
p5080
sS'chunkid'
p5081
S'NP4'
p5082
sS'drel'
p5083
S'r6:\xe0\xa4\x95\xe0\xa4\xbe\xe0\xa4\xae'
p5084
sS'vpos'
p5085
S'vib_2'
p5086
sS'chunktype'
p5087
S'head:NP4'
p5088
ssbsg1697
I01
sg1700
I00
sg1711
Nsg1698
Nsg189
I5
sg175
I4
sg2020
I1
sg1709
Nsg2021
S'NNP'
p5089
sg288
(issf_api
FeatureSet
p5090
(dp5091
g291
(dp5092
S'posn'
p5093
S'80'
p5094
sS'name'
p5095
S'\xe0\xa4\xa8\xe0\xa4\xbf\xe0\xa4\xa4\xe0\xa5\x80\xe0\xa4\xb6'
p5096
sS'af'
p5097
S'\xe0\xa4\xa8\xe0\xa4\xbf\xe0\xa4\xa4\xe0\xa5\x80\xe0\xa4\xb6,n,m,sg,3,o,0,0'
p5098
ssbsg1718
I00
sba(issf_api
Word
p5099
(dp5100
g1999
I00
sg2000
V\u0915\u0947
p5101
sg2002
(issf_api
FeatureSet
p5102
(dp5103
g291
(dp5104
S'posn'
p5105
S'90'
p5106
sS'name'
p5107
S'\xe0\xa4\x95\xe0\xa5\x87'
p5108
sS'drel'
p5109
S'lwg__psp:\xe0\xa4\xa8\xe0\xa4\xbf\xe0\xa4\xa4\xe0\xa5\x80\xe0\xa4\xb6'
p5110
sS'chunktype'
p5111
S'child:NP4'
p5112
sS'af'
p5113
S'\xe0\xa4\x95\xe0\xa4\xbe,psp,m,sg,,o,,'
p5114
ssbsg1697
I01
sg1700
I00
sg1711
Nsg1698
Nsg189
I5
sg175
I4
sg2020
I1
sg1709
Nsg2021
S'PSP'
p5115
sg288
(issf_api
FeatureSet
p5116
(dp5117
g291
(dp5118
S'posn'
p5119
S'90'
p5120
sS'name'
p5121
S'\xe0\xa4\x95\xe0\xa5\x87'
p5122
sS'af'
p5123
S'\xe0\xa4\x95\xe0\xa4\xbe,psp,m,sg,,o,,'
p5124
ssbsg1718
I00
sba(issf_api
Word
p5125
(dp5126
g1999
I00
sg2000
V\u0915\u093e\u092e
p5127
sg2002
(issf_api
FeatureSet
p5128
(dp5129
g291
(dp5130
S'posn'
p5131
S'100'
p5132
sS'name'
p5133
S'\xe0\xa4\x95\xe0\xa4\xbe\xe0\xa4\xae'
p5134
sS'af'
p5135
S'\xe0\xa4\x95\xe0\xa4\xbe\xe0\xa4\xae,n,m,sg,3,o,0_\xe0\xa4\x95\xe0\xa5\x8b,0'
p5136
sS'chunkid'
p5137
S'NP5'
p5138
sS'drel'
p5139
S'k2:\xe0\xa4\xa6\xe0\xa5\x87\xe0\xa4\x96\xe0\xa4\xbe'
p5140
sS'vpos'
p5141
S'vib_2'
p5142
sS'chunktype'
p5143
S'head:NP5'
p5144
ssbsg1697
I01
sg1700
I00
sg1711
Nsg1698
Nsg189
I6
sg175
I4
sg2020
I1
sg1709
Nsg2021
S'NN'
p5145
sg288
(issf_api
FeatureSet
p5146
(dp5147
g291
(dp5148
S'posn'
p5149
S'100'
p5150
sS'name'
p5151
S'\xe0\xa4\x95\xe0\xa4\xbe\xe0\xa4\xae'
p5152
sS'af'
p5153
S'\xe0\xa4\x95\xe0\xa4\xbe\xe0\xa4\xae,n,m,sg,3,o,0,0'
p5154
ssbsg1718
I00
sba(issf_api
Word
p5155
(dp5156
g1999
I00
sg2000
V\u0915\u094b
p5157
sg2002
(issf_api
FeatureSet
p5158
(dp5159
g291
(dp5160
S'posn'
p5161
S'110'
p5162
sS'name'
p5163
S'\xe0\xa4\x95\xe0\xa5\x8b'
p5164
sS'drel'
p5165
S'lwg__psp:\xe0\xa4\x95\xe0\xa4\xbe\xe0\xa4\xae'
p5166
sS'chunktype'
p5167
S'child:NP5'
p5168
sS'af'
p5169
S'\xe0\xa4\x95\xe0\xa5\x8b,psp,,,,,,'
p5170
ssbsg1697
I01
sg1700
I00
sg1711
Nsg1698
Nsg189
I6
sg175
I4
sg2020
I1
sg1709
Nsg2021
S'PSP'
p5171
sg288
(issf_api
FeatureSet
p5172
(dp5173
g291
(dp5174
S'posn'
p5175
S'110'
p5176
sS'name'
p5177
S'\xe0\xa4\x95\xe0\xa5\x8b'
p5178
sS'af'
p5179
S'\xe0\xa4\x95\xe0\xa5\x8b,psp,,,,,,'
p5180
ssbsg1718
I00
sba(issf_api
Word
p5181
(dp5182
g1999
I00
sg2000
V\u0926\u0947\u0916\u093e
p5183
sg2002
(issf_api
FeatureSet
p5184
(dp5185
g291
(dp5186
S'posn'
p5187
S'120'
p5188
sS'name'
p5189
S'\xe0\xa4\xa6\xe0\xa5\x87\xe0\xa4\x96\xe0\xa4\xbe'
p5190
sS'af'
p5191
S'\xe0\xa4\xa6\xe0\xa5\x87\xe0\xa4\x96,v,m,sg,3,,\xe0\xa4\xaf\xe0\xa4\xbe_\xe0\xa4\xb9\xe0\xa5\x88,yA'
p5192
sS'chunkid'
p5193
S'VGF2'
p5194
sS'stype'
p5195
S'declarative'
p5196
sS'drel'
p5197
S'ccof:\xe0\xa4\x95\xe0\xa4\xbf'
p5198
sS'voicetype'
p5199
S'active'
p5200
sS'vpos'
p5201
S'tam_2'
p5202
sS'chunktype'
p5203
S'head:VGF2'
p5204
ssbsg1697
I01
sg1700
I00
sg1711
Nsg1698
Nsg189
I7
sg175
I4
sg2020
I1
sg1709
Nsg2021
S'VM'
p5205
sg288
(issf_api
FeatureSet
p5206
(dp5207
g291
(dp5208
S'posn'
p5209
S'120'
p5210
sS'name'
p5211
S'\xe0\xa4\xa6\xe0\xa5\x87\xe0\xa4\x96\xe0\xa4\xbe'
p5212
sS'af'
p5213
S'\xe0\xa4\xa6\xe0\xa5\x87\xe0\xa4\x96,v,m,sg,any,,\xe0\xa4\xaf\xe0\xa4\xbe,yA'
p5214
ssbsg1718
I00
sba(issf_api
Word
p5215
(dp5216
g1999
I00
sg2000
V\u0939\u0948
p5217
sg2002
(issf_api
FeatureSet
p5218
(dp5219
g291
(dp5220
S'posn'
p5221
S'130'
p5222
sS'name'
p5223
S'\xe0\xa4\xb9\xe0\xa5\x88'
p5224
sS'drel'
p5225
S'lwg__vaux:\xe0\xa4\xa6\xe0\xa5\x87\xe0\xa4\x96\xe0\xa4\xbe'
p5226
sS'chunktype'
p5227
S'child:VGF2'
p5228
sS'af'
p5229
S'\xe0\xa4\xb9\xe0\xa5\x88,v,any,sg,3,,\xe0\xa4\xb9\xe0\xa5\x88,hE'
p5230
ssbsg1697
I01
sg1700
I00
sg1711
Nsg1698
Nsg189
I7
sg175
I4
sg2020
I1
sg1709
Nsg2021
S'VAUX'
p5231
sg288
(issf_api
FeatureSet
p5232
(dp5233
g291
(dp5234
S'posn'
p5235
S'130'
p5236
sS'name'
p5237
S'\xe0\xa4\xb9\xe0\xa5\x88'
p5238
sS'af'
p5239
S'\xe0\xa4\xb9\xe0\xa5\x88,v,any,sg,3,,\xe0\xa4\xb9\xe0\xa5\x88,hE'
p5240
ssbsg1718
I00
sba(issf_api
Word
p5241
(dp5242
g1999
I00
sg2000
V\u0964
sg2002
(issf_api
FeatureSet
p5243
(dp5244
g291
(dp5245
S'posn'
p5246
S'140'
p5247
sS'name'
p5248
S'\xe0\xa5\xa4'
p5249
sS'af'
p5250
S'\xe0\xa5\xa4,punc,,,,,,'
p5251
sS'chunkid'
p5252
S'BLK'
p5253
sS'drel'
p5254
S'rsym:\xe0\xa4\x95\xe0\xa4\xb9\xe0\xa4\xbe'
p5255
sS'chunktype'
p5256
S'head:BLK'
p5257
ssbsg1697
I01
sg1700
I00
sg1711
Nsg1698
Nsg189
I8
sg175
I4
sg2020
I1
sg1709
Nsg2021
S'SYM'
p5258
sg288
(issf_api
FeatureSet
p5259
(dp5260
g291
(dp5261
S'posn'
p5262
S'140'
p5263
sS'name'
p5264
S'\xe0\xa5\xa4'
p5265
sS'af'
p5266
S'\xe0\xa5\xa4,punc,,,,,,'
p5267
ssbsg1718
I00
sba(issf_api
Word
p5268
(dp5269
g1999
I00
sg2000
V\u0907\u0938\u0932\u093f\u090f
p5270
sg2002
(issf_api
FeatureSet
p5271
(dp5272
g291
(dp5273
S'posn'
p5274
S'10'
p5275
sS'name'
p5276
S'\xe0\xa4\x87\xe0\xa4\xb8\xe0\xa4\xb2\xe0\xa4\xbf\xe0\xa4\x8f'
p5277
sS'af'
p5278
S'\xe0\xa4\x87\xe0\xa4\xb8\xe0\xa4\xb2\xe0\xa4\xbf\xe0\xa4\xaf\xe0\xa5\x87,pn,,,,,,'
p5279
sS'chunkid'
p5280
S'NP'
p5281
sS'drel'
p5282
S'rt:\xe0\xa4\xa6\xe0\xa5\x80'
p5283
sS'chunktype'
p5284
S'head:NP'
p5285
ssbsg1697
I00
sg1700
I00
sg1711
g1791
sg1698
(lp5286
I108
aI109
aI110
aI111
aI112
aI113
aI114
aI115
aI116
aI117
aI118
asg189
I0
sg175
I5
sg2020
I1
sg1709
(lp5287
I120
aI121
aI122
aI123
aI124
aI125
aI126
aI127
aI128
aI129
asg2021
S'PRP'
p5288
sg288
(issf_api
FeatureSet
p5289
(dp5290
g291
(dp5291
S'posn'
p5292
S'10'
p5293
sS'name'
p5294
S'\xe0\xa4\x87\xe0\xa4\xb8\xe0\xa4\xb2\xe0\xa4\xbf\xe0\xa4\x8f'
p5295
sS'af'
p5296
S'\xe0\xa4\x87\xe0\xa4\xb8\xe0\xa4\xb2\xe0\xa4\xbf\xe0\xa4\xaf\xe0\xa5\x87,pn,,,,,,'
p5297
ssbsg1718
I01
sba(issf_api
Word
p5298
(dp5299
g1999
I00
sg2000
V\u0909\u0928\u094d\u0939\u0947\u0902
p5300
sg2002
(issf_api
FeatureSet
p5301
(dp5302
g291
(dp5303
S'posn'
p5304
S'20'
p5305
sS'name'
p5306
S'\xe0\xa4\x89\xe0\xa4\xa8\xe0\xa5\x8d\xe0\xa4\xb9\xe0\xa5\x87\xe0\xa4\x82'
p5307
sS'af'
p5308
S'\xe0\xa4\xb5\xe0\xa4\xb9,pn,any,sg,3h,o,\xe0\xa4\x95\xe0\xa5\x8b,ko'
p5309
sS'chunkid'
p5310
S'NP2'
p5311
sS'drel'
p5312
S'k4:\xe0\xa4\xa6\xe0\xa5\x80'
p5313
sS'chunktype'
p5314
S'head:NP2'
p5315
ssbsg1697
I00
sg1700
I01
sg1711
Nsg1698
Nsg189
I1
sg175
I5
sg2020
I1
sg1709
Nsg2021
S'PRP'
p5316
sg288
(issf_api
FeatureSet
p5317
(dp5318
g291
(dp5319
S'posn'
p5320
S'20'
p5321
sS'name'
p5322
S'\xe0\xa4\x89\xe0\xa4\xa8\xe0\xa5\x8d\xe0\xa4\xb9\xe0\xa5\x87\xe0\xa4\x82'
p5323
sS'af'
p5324
S'\xe0\xa4\xb5\xe0\xa4\xb9,pn,any,sg,3h,o,\xe0\xa4\x95\xe0\xa5\x8b,ko'
p5325
ssbsg1718
I00
sba(issf_api
Word
p5326
(dp5327
g1999
I00
sg2000
V\u092e\u093f.
p5328
sg2002
(issf_api
FeatureSet
p5329
(dp5330
g291
(dp5331
S'posn'
p5332
S'30'
p5333
sS'name'
p5334
S'\xe0\xa4\xae\xe0\xa4\xbf.'
p5335
sS'drel'
p5336
S'pof__cn:\xe0\xa4\xa1\xe0\xa4\xbf\xe0\xa4\xaa\xe0\xa5\x87\xe0\xa4\x82\xe0\xa4\xa1\xe0\xa5\x87\xe0\xa4\xac\xe0\xa4\xb2'
p5337
sS'chunktype'
p5338
S'child:NP3'
p5339
sS'af'
p5340
S'\xe0\xa4\xae\xe0\xa4\xbf.,n,m,sg,3,d,0,0'
p5341
ssbsg1697
I00
sg1700
I01
sg1711
Nsg1698
Nsg189
I2
sg175
I5
sg2020
I1
sg1709
Nsg2021
S'NNC'
p5342
sg288
(issf_api
FeatureSet
p5343
(dp5344
g291
(dp5345
S'posn'
p5346
S'30'
p5347
sS'name'
p5348
S'\xe0\xa4\xae\xe0\xa4\xbf.'
p5349
sS'af'
p5350
S'\xe0\xa4\xae\xe0\xa4\xbf.,n,m,sg,3,d,0,0'
p5351
ssbsg1718
I00
sba(issf_api
Word
p5352
(dp5353
g1999
I00
sg2000
V\u0921\u093f\u092a\u0947\u0902\u0921\u0947\u092c\u0932
p5354
sg2002
(issf_api
FeatureSet
p5355
(dp5356
g291
(dp5357
S'posn'
p5358
S'100'
p5359
sS'name'
p5360
S'\xe0\xa4\xa1\xe0\xa4\xbf\xe0\xa4\xaa\xe0\xa5\x87\xe0\xa4\x82\xe0\xa4\xa1\xe0\xa5\x87\xe0\xa4\xac\xe0\xa4\xb2'
p5361
sS'af'
p5362
S'\xe0\xa4\xa1\xe0\xa4\xbf\xe0\xa4\xaa\xe0\xa5\x87\xe0\xa4\x82\xe0\xa4\xa1\xe0\xa5\x87\xe0\xa4\xac\xe0\xa4\xb2,n,m,sg,3,o,0_\xe0\xa4\x95\xe0\xa4\xbe,0'
p5363
sS'chunkid'
p5364
S'NP3'
p5365
sS'drel'
p5366
S'r6:\xe0\xa4\xb8\xe0\xa4\x82\xe0\xa4\x9c\xe0\xa5\x8d\xe0\xa4\x9e\xe0\xa4\xbe'
p5367
sS'vpos'
p5368
S'vib_3'
p5369
sS'chunktype'
p5370
S'head:NP3'
p5371
ssbsg1697
I00
sg1700
I01
sg1711
Nsg1698
Nsg189
I2
sg175
I5
sg2020
I1
sg1709
Nsg2021
S'NNP'
p5372
sg288
(issf_api
FeatureSet
p5373
(dp5374
g291
(dp5375
S'posn'
p5376
S'100'
p5377
sS'name'
p5378
S'\xe0\xa4\xa1\xe0\xa4\xbf\xe0\xa4\xaa\xe0\xa5\x87\xe0\xa4\x82\xe0\xa4\xa1\xe0\xa5\x87\xe0\xa4\xac\xe0\xa4\xb2'
p5379
sS'af'
p5380
S'\xe0\xa4\xa1\xe0\xa4\xbf\xe0\xa4\xaa\xe0\xa5\x87\xe0\xa4\x82\xe0\xa4\xa1\xe0\xa5\x87\xe0\xa4\xac\xe0\xa4\xb2,n,m,sg,3,o,0,0'
p5381
ssbsg1718
I00
sba(issf_api
Word
p5382
(dp5383
g1999
I00
sg2000
V\u0915\u0940
p5384
sg2002
(issf_api
FeatureSet
p5385
(dp5386
g291
(dp5387
S'posn'
p5388
S'50'
p5389
sS'name'
p5390
S'\xe0\xa4\x95\xe0\xa5\x80'
p5391
sS'drel'
p5392
S'lwg__psp:\xe0\xa4\xa1\xe0\xa4\xbf\xe0\xa4\xaa\xe0\xa5\x87\xe0\xa4\x82\xe0\xa4\xa1\xe0\xa5\x87\xe0\xa4\xac\xe0\xa4\xb2'
p5393
sS'chunktype'
p5394
S'child:NP3'
p5395
sS'af'
p5396
S'\xe0\xa4\x95\xe0\xa4\xbe,psp,f,sg,,d,,'
p5397
ssbsg1697
I00
sg1700
I01
sg1711
Nsg1698
Nsg189
I2
sg175
I5
sg2020
I1
sg1709
Nsg2021
S'PSP'
p5398
sg288
(issf_api
FeatureSet
p5399
(dp5400
g291
(dp5401
S'posn'
p5402
S'50'
p5403
sS'name'
p5404
S'\xe0\xa4\x95\xe0\xa5\x80'
p5405
sS'af'
p5406
S'\xe0\xa4\x95\xe0\xa4\xbe,psp,f,sg,,d,,'
p5407
ssbsg1718
I00
sba(issf_api
Word
p5408
(dp5409
g1999
I00
sg2000
V\u0938\u0902\u091c\u094d\u091e\u093e
p5410
sg2002
(issf_api
FeatureSet
p5411
(dp5412
g291
(dp5413
S'posn'
p5414
S'60'
p5415
sS'name'
p5416
S'\xe0\xa4\xb8\xe0\xa4\x82\xe0\xa4\x9c\xe0\xa5\x8d\xe0\xa4\x9e\xe0\xa4\xbe'
p5417
sS'af'
p5418
S'\xe0\xa4\xb8\xe0\xa4\x82\xe0\xa4\x9c\xe0\xa5\x8d\xe0\xa4\x9e\xe0\xa4\xbe,n,f,sg,3,d,0,0'
p5419
sS'chunkid'
p5420
S'NP4'
p5421
sS'drel'
p5422
S'k2:\xe0\xa4\xa6\xe0\xa5\x80'
p5423
sS'chunktype'
p5424
S'head:NP4'
p5425
ssbsg1697
I00
sg1700
I01
sg1711
Nsg1698
Nsg189
I3
sg175
I5
sg2020
I1
sg1709
Nsg2021
S'NN'
p5426
sg288
(issf_api
FeatureSet
p5427
(dp5428
g291
(dp5429
S'posn'
p5430
S'60'
p5431
sS'name'
p5432
S'\xe0\xa4\xb8\xe0\xa4\x82\xe0\xa4\x9c\xe0\xa5\x8d\xe0\xa4\x9e\xe0\xa4\xbe'
p5433
sS'af'
p5434
S'\xe0\xa4\xb8\xe0\xa4\x82\xe0\xa4\x9c\xe0\xa5\x8d\xe0\xa4\x9e\xe0\xa4\xbe,n,f,sg,3,d,0,0'
p5435
ssbsg1718
I00
sba(issf_api
Word
p5436
(dp5437
g1999
I00
sg2000
V\u0926\u0940
p5438
sg2002
(issf_api
FeatureSet
p5439
(dp5440
g291
(dp5441
S'posn'
p5442
S'70'
p5443
sS'name'
p5444
S'\xe0\xa4\xa6\xe0\xa5\x80'
p5445
sS'af'
p5446
S'\xe0\xa4\xa6\xe0\xa5\x87,v,f,sg,3,,\xe0\xa4\xaf\xe0\xa4\xbe_\xe0\xa4\x9c\xe0\xa4\xbe_\xe0\xa4\xb8\xe0\xa4\x95+\xe0\xa4\xa4\xe0\xa4\xbe_\xe0\xa4\xb9\xe0\xa5\x88,yA'
p5447
sS'chunkid'
p5448
S'VGF'
p5449
sS'chunktype'
p5450
S'head:VGF'
p5451
sS'voicetype'
p5452
S'active'
p5453
sS'vpos'
p5454
S'tam_2_3_4'
p5455
sS'stype'
p5456
S'declarative'
p5457
ssbsg1697
I00
sg1700
I01
sg1711
Nsg1698
Nsg189
I4
sg175
I5
sg2020
I1
sg1709
Nsg2021
S'VM'
p5458
sg288
(issf_api
FeatureSet
p5459
(dp5460
g291
(dp5461
S'posn'
p5462
S'70'
p5463
sS'name'
p5464
S'\xe0\xa4\xa6\xe0\xa5\x80'
p5465
sS'af'
p5466
S'\xe0\xa4\xa6\xe0\xa5\x87,v,f,sg,any,,\xe0\xa4\xaf\xe0\xa4\xbe,yA'
p5467
ssbsg1718
I00
sba(issf_api
Word
p5468
(dp5469
g1999
I00
sg2000
V\u091c\u093e
p5470
sg2002
(issf_api
FeatureSet
p5471
(dp5472
g291
(dp5473
S'posn'
p5474
S'80'
p5475
sS'name'
p5476
S'\xe0\xa4\x9c\xe0\xa4\xbe'
p5477
sS'drel'
p5478
S'lwg__vaux:\xe0\xa4\xa6\xe0\xa5\x80'
p5479
sS'chunktype'
p5480
S'child:VGF'
p5481
sS'af'
p5482
S'\xe0\xa4\x9c\xe0\xa4\xbe,v,any,any,any,,0,0'
p5483
ssbsg1697
I00
sg1700
I01
sg1711
Nsg1698
Nsg189
I4
sg175
I5
sg2020
I1
sg1709
Nsg2021
S'VAUX'
p5484
sg288
(issf_api
FeatureSet
p5485
(dp5486
g291
(dp5487
S'posn'
p5488
S'80'
p5489
sS'name'
p5490
S'\xe0\xa4\x9c\xe0\xa4\xbe'
p5491
sS'af'
p5492
S'\xe0\xa4\x9c\xe0\xa4\xbe,v,any,any,any,,0,0'
p5493
ssbsg1718
I00
sba(issf_api
Word
p5494
(dp5495
g1999
I00
sg2000
V\u0938\u0915\u0924\u0940
p5496
sg2002
(issf_api
FeatureSet
p5497
(dp5498
g291
(dp5499
S'posn'
p5500
S'90'
p5501
sS'name'
p5502
S'\xe0\xa4\xb8\xe0\xa4\x95\xe0\xa4\xa4\xe0\xa5\x80'
p5503
sS'drel'
p5504
S'lwg__vaux:\xe0\xa4\xa6\xe0\xa5\x80'
p5505
sS'chunktype'
p5506
S'child:VGF'
p5507
sS'af'
p5508
S'\xe0\xa4\xb8\xe0\xa4\x95,v,f,sg,any,,\xe0\xa4\xa4\xe0\xa4\xbe,wA'
p5509
ssbsg1697
I00
sg1700
I01
sg1711
Nsg1698
Nsg189
I4
sg175
I5
sg2020
I1
sg1709
Nsg2021
S'VAUX'
p5510
sg288
(issf_api
FeatureSet
p5511
(dp5512
g291
(dp5513
S'posn'
p5514
S'90'
p5515
sS'name'
p5516
S'\xe0\xa4\xb8\xe0\xa4\x95\xe0\xa4\xa4\xe0\xa5\x80'
p5517
sS'af'
p5518
S'\xe0\xa4\xb8\xe0\xa4\x95,v,f,sg,any,,\xe0\xa4\xa4\xe0\xa4\xbe,wA'
p5519
ssbsg1718
I00
sba(issf_api
Word
p5520
(dp5521
g1999
I00
sg2000
V\u0939\u0948
p5522
sg2002
(issf_api
FeatureSet
p5523
(dp5524
g291
(dp5525
S'posn'
p5526
S'100'
p5527
sS'name'
p5528
S'\xe0\xa4\xb9\xe0\xa5\x88'
p5529
sS'drel'
p5530
S'lwg__vaux:\xe0\xa4\xa6\xe0\xa5\x80'
p5531
sS'chunktype'
p5532
S'child:VGF'
p5533
sS'af'
p5534
S'\xe0\xa4\xb9\xe0\xa5\x88,v,any,sg,3,,\xe0\xa4\xb9\xe0\xa5\x88,hE'
p5535
ssbsg1697
I00
sg1700
I01
sg1711
Nsg1698
Nsg189
I4
sg175
I5
sg2020
I1
sg1709
Nsg2021
S'VAUX'
p5536
sg288
(issf_api
FeatureSet
p5537
(dp5538
g291
(dp5539
S'posn'
p5540
S'100'
p5541
sS'name'
p5542
S'\xe0\xa4\xb9\xe0\xa5\x88'
p5543
sS'af'
p5544
S'\xe0\xa4\xb9\xe0\xa5\x88,v,any,sg,3,,\xe0\xa4\xb9\xe0\xa5\x88,hE'
p5545
ssbsg1718
I00
sba(issf_api
Word
p5546
(dp5547
g1999
I00
sg2000
V\u0964
sg2002
(issf_api
FeatureSet
p5548
(dp5549
g291
(dp5550
S'posn'
p5551
S'110'
p5552
sS'name'
p5553
S'\xe0\xa5\xa4'
p5554
sS'af'
p5555
S'\xe0\xa5\xa4,punc,,,,,,'
p5556
sS'chunkid'
p5557
S'BLK'
p5558
sS'drel'
p5559
S'rsym:\xe0\xa4\xa6\xe0\xa5\x80'
p5560
sS'chunktype'
p5561
S'head:BLK'
p5562
ssbsg1697
I00
sg1700
I01
sg1711
Nsg1698
Nsg189
I5
sg175
I5
sg2020
I1
sg1709
Nsg2021
S'SYM'
p5563
sg288
(issf_api
FeatureSet
p5564
(dp5565
g291
(dp5566
S'posn'
p5567
S'110'
p5568
sS'name'
p5569
S'\xe0\xa5\xa4'
p5570
sS'af'
p5571
S'\xe0\xa5\xa4,punc,,,,,,'
p5572
ssbsg1718
I00
sba(issf_api
Word
p5573
(dp5574
g1999
I00
sg2000
V\u0915\u093e\u0902\u0917\u094d\u0930\u0947\u0938
p5575
sg2002
(issf_api
FeatureSet
p5576
(dp5577
g291
(dp5578
S'posn'
p5579
S'10'
p5580
sS'name'
p5581
S'\xe0\xa4\x95\xe0\xa4\xbe\xe0\xa4\x82\xe0\xa4\x97\xe0\xa5\x8d\xe0\xa4\xb0\xe0\xa5\x87\xe0\xa4\xb8'
p5582
sS'af'
p5583
S'\xe0\xa4\x95\xe0\xa4\xbe\xe0\xa4\x82\xe0\xa4\x97\xe0\xa5\x8d\xe0\xa4\xb0\xe0\xa5\x87\xe0\xa4\xb8,n,f,sg,3,o,0_\xe0\xa4\x95\xe0\xa5\x87_\xe0\xa4\xac\xe0\xa4\xbe\xe0\xa4\xb0\xe0\xa5\x87_\xe0\xa4\xae\xe0\xa5\x87\xe0\xa4\x82,0'
p5584
sS'chunkid'
p5585
S'NP'
p5586
sS'drel'
p5587
S'k7:\xe0\xa4\x95\xe0\xa4\xb9\xe0\xa4\xbe'
p5588
sS'vpos'
p5589
S'vib_2_3_4'
p5590
sS'chunktype'
p5591
S'head:NP'
p5592
ssbsg1697
I00
sg1700
I00
sg1711
Nsg1698
Nsg189
I0
sg175
I6
sg2020
Nsg1709
Nsg2021
S'NNP'
p5593
sg288
(issf_api
FeatureSet
p5594
(dp5595
g291
(dp5596
S'posn'
p5597
S'10'
p5598
sS'name'
p5599
S'\xe0\xa4\x95\xe0\xa4\xbe\xe0\xa4\x82\xe0\xa4\x97\xe0\xa5\x8d\xe0\xa4\xb0\xe0\xa5\x87\xe0\xa4\xb8'
p5600
sS'af'
p5601
S'\xe0\xa4\x95\xe0\xa4\xbe\xe0\xa4\x82\xe0\xa4\x97\xe0\xa5\x8d\xe0\xa4\xb0\xe0\xa5\x87\xe0\xa4\xb8,n,f,sg,3,o,0,0'
p5602
ssbsg1718
I00
sba(issf_api
Word
p5603
(dp5604
g1999
I00
sg2000
V\u0915\u0947
p5605
sg2002
(issf_api
FeatureSet
p5606
(dp5607
g291
(dp5608
S'posn'
p5609
S'20'
p5610
sS'name'
p5611
S'\xe0\xa4\x95\xe0\xa5\x87'
p5612
sS'drel'
p5613
S'lwg__psp:\xe0\xa4\x95\xe0\xa4\xbe\xe0\xa4\x82\xe0\xa4\x97\xe0\xa5\x8d\xe0\xa4\xb0\xe0\xa5\x87\xe0\xa4\xb8'
p5614
sS'chunktype'
p5615
S'child:NP'
p5616
sS'af'
p5617
S'\xe0\xa4\x95\xe0\xa5\x87,psp,,,,,,'
p5618
ssbsg1697
I00
sg1700
I00
sg1711
Nsg1698
Nsg189
I0
sg175
I6
sg2020
Nsg1709
Nsg2021
S'PSP'
p5619
sg288
(issf_api
FeatureSet
p5620
(dp5621
g291
(dp5622
S'posn'
p5623
S'20'
p5624
sS'name'
p5625
S'\xe0\xa4\x95\xe0\xa5\x87'
p5626
sS'af'
p5627
S'\xe0\xa4\x95\xe0\xa5\x87,psp,,,,,,'
p5628
ssbsg1718
I00
sba(issf_api
Word
p5629
(dp5630
g1999
I00
sg2000
V\u092c\u093e\u0930\u0947
p5631
sg2002
(issf_api
FeatureSet
p5632
(dp5633
g291
(dp5634
S'posn'
p5635
S'30'
p5636
sS'name'
p5637
S'\xe0\xa4\xac\xe0\xa4\xbe\xe0\xa4\xb0\xe0\xa5\x87'
p5638
sS'drel'
p5639
S'lwg__psp:\xe0\xa4\x95\xe0\xa4\xbe\xe0\xa4\x82\xe0\xa4\x97\xe0\xa5\x8d\xe0\xa4\xb0\xe0\xa5\x87\xe0\xa4\xb8'
p5640
sS'chunktype'
p5641
S'child:NP'
p5642
sS'af'
p5643
S'\xe0\xa4\xac\xe0\xa4\xbe\xe0\xa4\xb0\xe0\xa5\x87,psp,,,,,,'
p5644
ssbsg1697
I00
sg1700
I00
sg1711
Nsg1698
Nsg189
I0
sg175
I6
sg2020
Nsg1709
Nsg2021
S'PSP'
p5645
sg288
(issf_api
FeatureSet
p5646
(dp5647
g291
(dp5648
S'posn'
p5649
S'30'
p5650
sS'name'
p5651
S'\xe0\xa4\xac\xe0\xa4\xbe\xe0\xa4\xb0\xe0\xa5\x87'
p5652
sS'af'
p5653
S'\xe0\xa4\xac\xe0\xa4\xbe\xe0\xa4\xb0\xe0\xa5\x87,psp,,,,,,'
p5654
ssbsg1718
I00
sba(issf_api
Word
p5655
(dp5656
g1999
I00
sg2000
V\u092e\u0947\u0902
p5657
sg2002
(issf_api
FeatureSet
p5658
(dp5659
g291
(dp5660
S'posn'
p5661
S'40'
p5662
sS'name'
p5663
S'\xe0\xa4\xae\xe0\xa5\x87\xe0\xa4\x82'
p5664
sS'drel'
p5665
S'lwg__psp:\xe0\xa4\x95\xe0\xa4\xbe\xe0\xa4\x82\xe0\xa4\x97\xe0\xa5\x8d\xe0\xa4\xb0\xe0\xa5\x87\xe0\xa4\xb8'
p5666
sS'chunktype'
p5667
S'child:NP'
p5668
sS'af'
p5669
S'\xe0\xa4\xae\xe0\xa5\x87\xe0\xa4\x82,psp,,,,,,'
p5670
ssbsg1697
I00
sg1700
I00
sg1711
Nsg1698
Nsg189
I0
sg175
I6
sg2020
Nsg1709
Nsg2021
S'PSP'
p5671
sg288
(issf_api
FeatureSet
p5672
(dp5673
g291
(dp5674
S'posn'
p5675
S'40'
p5676
sS'name'
p5677
S'\xe0\xa4\xae\xe0\xa5\x87\xe0\xa4\x82'
p5678
sS'af'
p5679
S'\xe0\xa4\xae\xe0\xa5\x87\xe0\xa4\x82,psp,,,,,,'
p5680
ssbsg1718
I00
sba(issf_api
Word
p5681
(dp5682
g1999
I00
sg2000
V\u0938\u093f\u0926\u094d\u0927\u0942
p5683
sg2002
(issf_api
FeatureSet
p5684
(dp5685
g291
(dp5686
S'posn'
p5687
S'50'
p5688
sS'name'
p5689
S'\xe0\xa4\xb8\xe0\xa4\xbf\xe0\xa4\xa6\xe0\xa5\x8d\xe0\xa4\xa7\xe0\xa5\x82'
p5690
sS'af'
p5691
S'\xe0\xa4\xb8\xe0\xa4\xbf\xe0\xa4\xa6\xe0\xa5\x8d\xe0\xa4\xa7\xe0\xa5\x82,n,any,sg,3,o,0_\xe0\xa4\xa8\xe0\xa5\x87,0'
p5692
sS'chunkid'
p5693
S'NP2'
p5694
sS'drel'
p5695
S'k1:\xe0\xa4\x95\xe0\xa4\xb9\xe0\xa4\xbe'
p5696
sS'vpos'
p5697
S'vib_2'
p5698
sS'chunktype'
p5699
S'head:NP2'
p5700
ssbsg1697
I00
sg1700
I00
sg1711
Nsg1698
Nsg189
I1
sg175
I6
sg2020
Nsg1709
Nsg2021
S'NNP'
p5701
sg288
(issf_api
FeatureSet
p5702
(dp5703
g291
(dp5704
S'posn'
p5705
S'50'
p5706
sS'name'
p5707
S'\xe0\xa4\xb8\xe0\xa4\xbf\xe0\xa4\xa6\xe0\xa5\x8d\xe0\xa4\xa7\xe0\xa5\x82'
p5708
sS'af'
p5709
S'\xe0\xa4\xb8\xe0\xa4\xbf\xe0\xa4\xa6\xe0\xa5\x8d\xe0\xa4\xa7\xe0\xa5\x82,n,any,sg,3,o,0,0'
p5710
ssbsg1718
I00
sba(issf_api
Word
p5711
(dp5712
g1999
I00
sg2000
V\u0928\u0947
p5713
sg2002
(issf_api
FeatureSet
p5714
(dp5715
g291
(dp5716
S'posn'
p5717
S'60'
p5718
sS'name'
p5719
S'\xe0\xa4\xa8\xe0\xa5\x87'
p5720
sS'drel'
p5721
S'lwg__psp:\xe0\xa4\xb8\xe0\xa4\xbf\xe0\xa4\xa6\xe0\xa5\x8d\xe0\xa4\xa7\xe0\xa5\x82'
p5722
sS'chunktype'
p5723
S'child:NP2'
p5724
sS'af'
p5725
S'\xe0\xa4\xa8\xe0\xa5\x87,psp,,,,,,'
p5726
ssbsg1697
I00
sg1700
I00
sg1711
Nsg1698
Nsg189
I1
sg175
I6
sg2020
Nsg1709
Nsg2021
S'PSP'
p5727
sg288
(issf_api
FeatureSet
p5728
(dp5729
g291
(dp5730
S'posn'
p5731
S'60'
p5732
sS'name'
p5733
S'\xe0\xa4\xa8\xe0\xa5\x87'
p5734
sS'af'
p5735
S'\xe0\xa4\xa8\xe0\xa5\x87,psp,,,,,,'
p5736
ssbsg1718
I00
sba(issf_api
Word
p5737
(dp5738
g1999
I00
sg2000
V\u0915\u0939\u093e
p5739
sg2002
(issf_api
FeatureSet
p5740
(dp5741
g291
(dp5742
S'posn'
p5743
S'70'
p5744
sS'name'
p5745
S'\xe0\xa4\x95\xe0\xa4\xb9\xe0\xa4\xbe'
p5746
sS'af'
p5747
S'\xe0\xa4\x95\xe0\xa4\xb9,v,m,sg,any,,\xe0\xa4\xaf\xe0\xa4\xbe,yA'
p5748
sS'chunkid'
p5749
S'VGF'
p5750
sS'chunktype'
p5751
S'head:VGF'
p5752
sS'voicetype'
p5753
S'active'
p5754
sS'stype'
p5755
S'declarative'
p5756
ssbsg1697
I00
sg1700
I00
sg1711
Nsg1698
Nsg189
I2
sg175
I6
sg2020
Nsg1709
Nsg2021
S'VM'
p5757
sg288
(issf_api
FeatureSet
p5758
(dp5759
g291
(dp5760
S'posn'
p5761
S'70'
p5762
sS'name'
p5763
S'\xe0\xa4\x95\xe0\xa4\xb9\xe0\xa4\xbe'
p5764
sS'af'
p5765
S'\xe0\xa4\x95\xe0\xa4\xb9,v,m,sg,any,,\xe0\xa4\xaf\xe0\xa4\xbe,yA'
p5766
ssbsg1718
I00
sba(issf_api
Word
p5767
(dp5768
g1999
I00
sg2000
V\u0915\u093f
p5769
sg2002
(issf_api
FeatureSet
p5770
(dp5771
g291
(dp5772
S'posn'
p5773
S'80'
p5774
sS'name'
p5775
S'\xe0\xa4\x95\xe0\xa4\xbf'
p5776
sS'af'
p5777
S'\xe0\xa4\x95\xe0\xa4\xbf,avy,,,,,,'
p5778
sS'chunkid'
p5779
S'CCP'
p5780
sS'drel'
p5781
S'k2:\xe0\xa4\x95\xe0\xa4\xb9\xe0\xa4\xbe'
p5782
sS'chunktype'
p5783
S'head:CCP'
p5784
ssbsg1697
I00
sg1700
I00
sg1711
Nsg1698
Nsg189
I3
sg175
I6
sg2020
Nsg1709
Nsg2021
S'CC'
p5785
sg288
(issf_api
FeatureSet
p5786
(dp5787
g291
(dp5788
S'posn'
p5789
S'80'
p5790
sS'name'
p5791
S'\xe0\xa4\x95\xe0\xa4\xbf'
p5792
sS'af'
p5793
S'\xe0\xa4\x95\xe0\xa4\xbf,avy,,,,,,'
p5794
ssbsg1718
I00
sba(issf_api
Word
p5795
(dp5796
g1999
I00
sg2000
V\u0935\u0939
p5797
sg2002
(issf_api
FeatureSet
p5798
(dp5799
g291
(dp5800
S'posn'
p5801
S'90'
p5802
sS'name'
p5803
S'\xe0\xa4\xb5\xe0\xa4\xb9'
p5804
sS'af'
p5805
S'\xe0\xa4\xb5\xe0\xa4\xb9,pn,any,sg,3,d,0,0'
p5806
sS'chunkid'
p5807
S'NP3'
p5808
sS'drel'
p5809
S'k1:\xe0\xa4\xb9\xe0\xa5\x88'
p5810
sS'chunktype'
p5811
S'head:NP3'
p5812
ssbsg1697
I00
sg1700
I00
sg1711
Nsg1698
Nsg189
I4
sg175
I6
sg2020
Nsg1709
Nsg2021
S'PRP'
p5813
sg288
(issf_api
FeatureSet
p5814
(dp5815
g291
(dp5816
S'posn'
p5817
S'90'
p5818
sS'name'
p5819
S'\xe0\xa4\xb5\xe0\xa4\xb9'
p5820
sS'af'
p5821
S'\xe0\xa4\xb5\xe0\xa4\xb9,pn,any,sg,3,d,0,0'
p5822
ssbsg1718
I00
sba(issf_api
Word
p5823
(dp5824
g1999
I00
sg2000
V\u0930\u093e\u091c\u0926
p5825
sg2002
(issf_api
FeatureSet
p5826
(dp5827
g291
(dp5828
S'posn'
p5829
S'100'
p5830
sS'name'
p5831
S'\xe0\xa4\xb0\xe0\xa4\xbe\xe0\xa4\x9c\xe0\xa4\xa6'
p5832
sS'af'
p5833
S'\xe0\xa4\xb0\xe0\xa4\xbe\xe0\xa4\x9c\xe0\xa4\xa6,n,m,sg,3,o,0_\xe0\xa4\x95\xe0\xa4\xbe,0'
p5834
sS'chunkid'
p5835
S'NP4'
p5836
sS'drel'
p5837
S'r6:\xe0\xa4\xb0\xe0\xa4\xbf\xe0\xa4\x9c\xe0\xa4\xb0\xe0\xa5\x8d\xe0\xa4\xb5'
p5838
sS'vpos'
p5839
S'vib_2'
p5840
sS'chunktype'
p5841
S'head:NP4'
p5842
ssbsg1697
I00
sg1700
I00
sg1711
Nsg1698
Nsg189
I5
sg175
I6
sg2020
Nsg1709
Nsg2021
S'NNP'
p5843
sg288
(issf_api
FeatureSet
p5844
(dp5845
g291
(dp5846
S'posn'
p5847
S'100'
p5848
sS'name'
p5849
S'\xe0\xa4\xb0\xe0\xa4\xbe\xe0\xa4\x9c\xe0\xa4\xa6'
p5850
sS'af'
p5851
S'\xe0\xa4\xb0\xe0\xa4\xbe\xe0\xa4\x9c\xe0\xa4\xa6,n,m,sg,3,o,0,0'
p5852
ssbsg1718
I00
sba(issf_api
Word
p5853
(dp5854
g1999
I00
sg2000
V\u0915\u0947
p5855
sg2002
(issf_api
FeatureSet
p5856
(dp5857
g291
(dp5858
S'posn'
p5859
S'110'
p5860
sS'name'
p5861
S'\xe0\xa4\x95\xe0\xa5\x872'
p5862
sS'drel'
p5863
S'lwg__psp:\xe0\xa4\xb0\xe0\xa4\xbe\xe0\xa4\x9c\xe0\xa4\xa6'
p5864
sS'chunktype'
p5865
S'child:NP4'
p5866
sS'af'
p5867
S'\xe0\xa4\x95\xe0\xa4\xbe,psp,m,sg,,o,,'
p5868
ssbsg1697
I00
sg1700
I00
sg1711
Nsg1698
Nsg189
I5
sg175
I6
sg2020
Nsg1709
Nsg2021
S'PSP'
p5869
sg288
(issf_api
FeatureSet
p5870
(dp5871
g291
(dp5872
S'posn'
p5873
S'110'
p5874
sS'name'
p5875
S'\xe0\xa4\x95\xe0\xa5\x872'
p5876
sS'af'
p5877
S'\xe0\xa4\x95\xe0\xa4\xbe,psp,m,sg,,o,,'
p5878
ssbsg1718
I00
sba(issf_api
Word
p5879
(dp5880
g1999
I00
sg2000
V\u0930\u093f\u091c\u0930\u094d\u0935
p5881
sg2002
(issf_api
FeatureSet
p5882
(dp5883
g291
(dp5884
S'posn'
p5885
S'120'
p5886
sS'name'
p5887
S'\xe0\xa4\xb0\xe0\xa4\xbf\xe0\xa4\x9c\xe0\xa4\xb0\xe0\xa5\x8d\xe0\xa4\xb5'
p5888
sS'af'
p5889
S'\xe0\xa4\xb0\xe0\xa4\xbf\xe0\xa4\x9c\xe0\xa4\xb0\xe0\xa5\x8d\xe0\xa4\xb5,n,m,sg,3,o,0_\xe0\xa4\x95\xe0\xa4\xbe_\xe0\xa4\xa4\xe0\xa4\xb0\xe0\xa4\xb9,0'
p5890
sS'chunkid'
p5891
S'NP5'
p5892
sS'drel'
p5893
S'k1u:\xe0\xa4\xb9\xe0\xa5\x88'
p5894
sS'vpos'
p5895
S'vib_2_3'
p5896
sS'chunktype'
p5897
S'head:NP5'
p5898
ssbsg1697
I00
sg1700
I00
sg1711
Nsg1698
Nsg189
I6
sg175
I6
sg2020
Nsg1709
Nsg2021
S'NN'
p5899
sg288
(issf_api
FeatureSet
p5900
(dp5901
g291
(dp5902
S'posn'
p5903
S'120'
p5904
sS'name'
p5905
S'\xe0\xa4\xb0\xe0\xa4\xbf\xe0\xa4\x9c\xe0\xa4\xb0\xe0\xa5\x8d\xe0\xa4\xb5'
p5906
sS'af'
p5907
S'\xe0\xa4\xb0\xe0\xa4\xbf\xe0\xa4\x9c\xe0\xa4\xb0\xe0\xa5\x8d\xe0\xa4\xb5,n,m,sg,3,o,0,0'
p5908
ssbsg1718
I00
sba(issf_api
Word
p5909
(dp5910
g1999
I00
sg2000
V\u0915\u0940
p5911
sg2002
(issf_api
FeatureSet
p5912
(dp5913
g291
(dp5914
S'posn'
p5915
S'130'
p5916
sS'name'
p5917
S'\xe0\xa4\x95\xe0\xa5\x80'
p5918
sS'drel'
p5919
S'lwg__psp:\xe0\xa4\xb0\xe0\xa4\xbf\xe0\xa4\x9c\xe0\xa4\xb0\xe0\xa5\x8d\xe0\xa4\xb5'
p5920
sS'chunktype'
p5921
S'child:NP5'
p5922
sS'af'
p5923
S'\xe0\xa4\x95\xe0\xa4\xbe,psp,f,,,o,,'
p5924
ssbsg1697
I00
sg1700
I00
sg1711
Nsg1698
Nsg189
I6
sg175
I6
sg2020
Nsg1709
Nsg2021
S'PSP'
p5925
sg288
(issf_api
FeatureSet
p5926
(dp5927
g291
(dp5928
S'posn'
p5929
S'130'
p5930
sS'name'
p5931
S'\xe0\xa4\x95\xe0\xa5\x80'
p5932
sS'af'
p5933
S'\xe0\xa4\x95\xe0\xa4\xbe,psp,f,,,o,,'
p5934
ssbsg1718
I00
sba(issf_api
Word
p5935
(dp5936
g1999
I00
sg2000
V\u0924\u0930\u0939
p5937
sg2002
(issf_api
FeatureSet
p5938
(dp5939
g291
(dp5940
S'posn'
p5941
S'140'
p5942
sS'name'
p5943
S'\xe0\xa4\xa4\xe0\xa4\xb0\xe0\xa4\xb9'
p5944
sS'drel'
p5945
S'lwg__psp:\xe0\xa4\xb0\xe0\xa4\xbf\xe0\xa4\x9c\xe0\xa4\xb0\xe0\xa5\x8d\xe0\xa4\xb5'
p5946
sS'chunktype'
p5947
S'child:NP5'
p5948
sS'af'
p5949
S'\xe0\xa4\xa4\xe0\xa4\xb0\xe0\xa4\xb9,n,f,,,o,,'
p5950
ssbsg1697
I00
sg1700
I00
sg1711
Nsg1698
Nsg189
I6
sg175
I6
sg2020
Nsg1709
Nsg2021
S'PSP'
p5951
sg288
(issf_api
FeatureSet
p5952
(dp5953
g291
(dp5954
S'posn'
p5955
S'140'
p5956
sS'name'
p5957
S'\xe0\xa4\xa4\xe0\xa4\xb0\xe0\xa4\xb9'
p5958
sS'af'
p5959
S'\xe0\xa4\xa4\xe0\xa4\xb0\xe0\xa4\xb9,n,f,,,o,,'
p5960
ssbsg1718
I00
sba(issf_api
Word
p5961
(dp5962
g1999
I00
sg2000
V\u0939\u0948
p5963
sg2002
(issf_api
FeatureSet
p5964
(dp5965
g291
(dp5966
S'posn'
p5967
S'150'
p5968
sS'name'
p5969
S'\xe0\xa4\xb9\xe0\xa5\x88'
p5970
sS'af'
p5971
S'\xe0\xa4\xb9\xe0\xa5\x88,v,any,sg,3,,\xe0\xa4\xb9\xe0\xa5\x88,hE'
p5972
sS'chunkid'
p5973
S'VGF2'
p5974
sS'stype'
p5975
S'declarative'
p5976
sS'drel'
p5977
S'ccof:\xe0\xa4\x95\xe0\xa4\xbf'
p5978
sS'voicetype'
p5979
S'active'
p5980
sS'chunktype'
p5981
S'head:VGF2'
p5982
ssbsg1697
I00
sg1700
I00
sg1711
Nsg1698
Nsg189
I7
sg175
I6
sg2020
Nsg1709
Nsg2021
S'VM'
p5983
sg288
(issf_api
FeatureSet
p5984
(dp5985
g291
(dp5986
S'posn'
p5987
S'150'
p5988
sS'name'
p5989
S'\xe0\xa4\xb9\xe0\xa5\x88'
p5990
sS'af'
p5991
S'\xe0\xa4\xb9\xe0\xa5\x88,v,any,sg,3,,\xe0\xa4\xb9\xe0\xa5\x88,hE'
p5992
ssbsg1718
I00
sba(issf_api
Word
p5993
(dp5994
g1999
I00
sg2000
V\u0964
sg2002
(issf_api
FeatureSet
p5995
(dp5996
g291
(dp5997
S'posn'
p5998
S'160'
p5999
sS'name'
p6000
S'\xe0\xa5\xa4'
p6001
sS'af'
p6002
S'\xe0\xa5\xa4,punc,,,,,,'
p6003
sS'chunkid'
p6004
S'BLK'
p6005
sS'drel'
p6006
S'rsym:\xe0\xa4\x95\xe0\xa4\xb9\xe0\xa4\xbe'
p6007
sS'chunktype'
p6008
S'head:BLK'
p6009
ssbsg1697
I00
sg1700
I00
sg1711
Nsg1698
Nsg189
I8
sg175
I6
sg2020
Nsg1709
Nsg2021
S'SYM'
p6010
sg288
(issf_api
FeatureSet
p6011
(dp6012
g291
(dp6013
S'posn'
p6014
S'160'
p6015
sS'name'
p6016
S'\xe0\xa5\xa4'
p6017
sS'af'
p6018
S'\xe0\xa5\xa4,punc,,,,,,'
p6019
ssbsg1718
I00
sba(issf_api
Word
p6020
(dp6021
g1999
I00
sg2000
V\u0907\u0938
p6022
sg2002
(issf_api
FeatureSet
p6023
(dp6024
g291
(dp6025
S'posn'
p6026
S'10'
p6027
sS'name'
p6028
S'\xe0\xa4\x87\xe0\xa4\xb8'
p6029
sS'drel'
p6030
S'nmod__adj:\xe0\xa4\x9a\xe0\xa5\x81\xe0\xa4\xa8\xe0\xa4\xbe\xe0\xa4\xb5'
p6031
sS'chunktype'
p6032
S'child:NP'
p6033
sS'af'
p6034
S'\xe0\xa4\xaf\xe0\xa4\xb9,pn,any,sg,3,o,,'
p6035
ssbsg1697
I00
sg1700
I00
sg1711
Nsg1698
Nsg189
I0
sg175
I7
sg2020
Nsg1709
Nsg2021
S'DEM'
p6036
sg288
(issf_api
FeatureSet
p6037
(dp6038
g291
(dp6039
S'posn'
p6040
S'10'
p6041
sS'name'
p6042
S'\xe0\xa4\x87\xe0\xa4\xb8'
p6043
sS'af'
p6044
S'\xe0\xa4\xaf\xe0\xa4\xb9,pn,any,sg,3,o,,'
p6045
ssbsg1718
I00
sba(issf_api
Word
p6046
(dp6047
g1999
I00
sg2000
V\u091a\u0941\u0928\u093e\u0935
p6048
sg2002
(issf_api
FeatureSet
p6049
(dp6050
g291
(dp6051
S'posn'
p6052
S'20'
p6053
sS'name'
p6054
S'\xe0\xa4\x9a\xe0\xa5\x81\xe0\xa4\xa8\xe0\xa4\xbe\xe0\xa4\xb5'
p6055
sS'af'
p6056
S'\xe0\xa4\x9a\xe0\xa5\x81\xe0\xa4\xa8\xe0\xa4\xbe\xe0\xa4\xb5,n,m,sg,3,o,0_\xe0\xa4\xae\xe0\xa5\x87\xe0\xa4\x82,0'
p6057
sS'chunkid'
p6058
S'NP'
p6059
sS'drel'
p6060
S'k7:\xe0\xa4\x95\xe0\xa4\xb9\xe0\xa4\xbe'
p6061
sS'vpos'
p6062
S'vib_3'
p6063
sS'chunktype'
p6064
S'head:NP'
p6065
ssbsg1697
I00
sg1700
I00
sg1711
Nsg1698
Nsg189
I0
sg175
I7
sg2020
Nsg1709
Nsg2021
S'NN'
p6066
sg288
(issf_api
FeatureSet
p6067
(dp6068
g291
(dp6069
S'posn'
p6070
S'20'
p6071
sS'name'
p6072
S'\xe0\xa4\x9a\xe0\xa5\x81\xe0\xa4\xa8\xe0\xa4\xbe\xe0\xa4\xb5'
p6073
sS'af'
p6074
S'\xe0\xa4\x9a\xe0\xa5\x81\xe0\xa4\xa8\xe0\xa4\xbe\xe0\xa4\xb5,n,m,sg,3,o,0,0'
p6075
ssbsg1718
I00
sba(issf_api
Word
p6076
(dp6077
g1999
I00
sg2000
V\u092e\u0947\u0902
p6078
sg2002
(issf_api
FeatureSet
p6079
(dp6080
g291
(dp6081
S'posn'
p6082
S'30'
p6083
sS'name'
p6084
S'\xe0\xa4\xae\xe0\xa5\x87\xe0\xa4\x82'
p6085
sS'drel'
p6086
S'lwg__psp:\xe0\xa4\x9a\xe0\xa5\x81\xe0\xa4\xa8\xe0\xa4\xbe\xe0\xa4\xb5'
p6087
sS'chunktype'
p6088
S'child:NP'
p6089
sS'af'
p6090
S'\xe0\xa4\xae\xe0\xa5\x87\xe0\xa4\x82,psp,,,,,,'
p6091
ssbsg1697
I00
sg1700
I00
sg1711
Nsg1698
Nsg189
I0
sg175
I7
sg2020
Nsg1709
Nsg2021
S'PSP'
p6092
sg288
(issf_api
FeatureSet
p6093
(dp6094
g291
(dp6095
S'posn'
p6096
S'30'
p6097
sS'name'
p6098
S'\xe0\xa4\xae\xe0\xa5\x87\xe0\xa4\x82'
p6099
sS'af'
p6100
S'\xe0\xa4\xae\xe0\xa5\x87\xe0\xa4\x82,psp,,,,,,'
p6101
ssbsg1718
I00
sba(issf_api
Word
p6102
(dp6103
g1999
I00
sg2000
V\u092f\u0939
p6104
sg2002
(issf_api
FeatureSet
p6105
(dp6106
g291
(dp6107
S'posn'
p6108
S'40'
p6109
sS'name'
p6110
S'\xe0\xa4\xaf\xe0\xa4\xb9'
p6111
sS'af'
p6112
S'\xe0\xa4\xaf\xe0\xa4\xb9,pn,any,sg,3,d,0,0'
p6113
sS'chunkid'
p6114
S'NP2'
p6115
sS'drel'
p6116
S'k2:\xe0\xa4\x95\xe0\xa4\xb9\xe0\xa4\xbe'
p6117
sS'chunktype'
p6118
S'head:NP2'
p6119
ssbsg1697
I00
sg1700
I00
sg1711
Nsg1698
Nsg189
I1
sg175
I7
sg2020
Nsg1709
Nsg2021
S'PRP'
p6120
sg288
(issf_api
FeatureSet
p6121
(dp6122
g291
(dp6123
S'posn'
p6124
S'40'
p6125
sS'name'
p6126
S'\xe0\xa4\xaf\xe0\xa4\xb9'
p6127
sS'af'
p6128
S'\xe0\xa4\xaf\xe0\xa4\xb9,pn,any,sg,3,d,0,0'
p6129
ssbsg1718
I00
sba(issf_api
Word
p6130
(dp6131
g1999
I00
sg2000
V\u092d\u0940
p6132
sg2002
(issf_api
FeatureSet
p6133
(dp6134
g291
(dp6135
S'posn'
p6136
S'50'
p6137
sS'name'
p6138
S'\xe0\xa4\xad\xe0\xa5\x80'
p6139
sS'drel'
p6140
S'lwg__rp:\xe0\xa4\xaf\xe0\xa4\xb9'
p6141
sS'chunktype'
p6142
S'child:NP2'
p6143
sS'af'
p6144
S'\xe0\xa4\xad\xe0\xa5\x80,avy,,,,,,'
p6145
ssbsg1697
I00
sg1700
I00
sg1711
Nsg1698
Nsg189
I1
sg175
I7
sg2020
Nsg1709
Nsg2021
S'RP'
p6146
sg288
(issf_api
FeatureSet
p6147
(dp6148
g291
(dp6149
S'posn'
p6150
S'50'
p6151
sS'name'
p6152
S'\xe0\xa4\xad\xe0\xa5\x80'
p6153
sS'af'
p6154
S'\xe0\xa4\xad\xe0\xa5\x80,avy,,,,,,'
p6155
ssbsg1718
I00
sba(issf_api
Word
p6156
(dp6157
g1999
I00
sg2000
V\u0928\u0939\u0940\u0902
p6158
sg2002
(issf_api
FeatureSet
p6159
(dp6160
g291
(dp6161
S'posn'
p6162
S'60'
p6163
sS'name'
p6164
S'\xe0\xa4\xa8\xe0\xa4\xb9\xe0\xa5\x80\xe0\xa4\x82'
p6165
sS'drel'
p6166
S'lwg__neg:\xe0\xa4\x95\xe0\xa4\xb9\xe0\xa4\xbe'
p6167
sS'chunktype'
p6168
S'child:VGF'
p6169
sS'af'
p6170
S'\xe0\xa4\xa8\xe0\xa4\xb9\xe0\xa5\x80\xe0\xa4\x82,avy,,,,,,'
p6171
ssbsg1697
I00
sg1700
I00
sg1711
Nsg1698
Nsg189
I2
sg175
I7
sg2020
Nsg1709
Nsg2021
S'NEG'
p6172
sg288
(issf_api
FeatureSet
p6173
(dp6174
g291
(dp6175
S'posn'
p6176
S'60'
p6177
sS'name'
p6178
S'\xe0\xa4\xa8\xe0\xa4\xb9\xe0\xa5\x80\xe0\xa4\x82'
p6179
sS'af'
p6180
S'\xe0\xa4\xa8\xe0\xa4\xb9\xe0\xa5\x80\xe0\xa4\x82,avy,,,,,,'
p6181
ssbsg1718
I00
sba(issf_api
Word
p6182
(dp6183
g1999
I00
sg2000
V\u0915\u0939\u093e
p6184
sg2002
(issf_api
FeatureSet
p6185
(dp6186
g291
(dp6187
S'posn'
p6188
S'70'
p6189
sS'name'
p6190
S'\xe0\xa4\x95\xe0\xa4\xb9\xe0\xa4\xbe'
p6191
sS'af'
p6192
S'\xe0\xa4\x95\xe0\xa4\xb9,v,any,sg,any,,\xe0\xa4\xaf\xe0\xa4\xbe_\xe0\xa4\x9c\xe0\xa4\xbe_\xe0\xa4\xb8\xe0\xa4\x95+\xe0\xa4\xa4\xe0\xa4\xbe,yA'
p6193
sS'chunkid'
p6194
S'VGF'
p6195
sS'chunktype'
p6196
S'head:VGF'
p6197
sS'voicetype'
p6198
S'active'
p6199
sS'vpos'
p6200
S'tam_3_4'
p6201
sS'stype'
p6202
S'declarative'
p6203
ssbsg1697
I00
sg1700
I00
sg1711
Nsg1698
Nsg189
I2
sg175
I7
sg2020
Nsg1709
Nsg2021
S'VM'
p6204
sg288
(issf_api
FeatureSet
p6205
(dp6206
g291
(dp6207
S'posn'
p6208
S'70'
p6209
sS'name'
p6210
S'\xe0\xa4\x95\xe0\xa4\xb9\xe0\xa4\xbe'
p6211
sS'af'
p6212
S'\xe0\xa4\x95\xe0\xa4\xb9,v,m,sg,any,,\xe0\xa4\xaf\xe0\xa4\xbe,yA'
p6213
ssbsg1718
I00
sba(issf_api
Word
p6214
(dp6215
g1999
I00
sg2000
V\u091c\u093e
p6216
sg2002
(issf_api
FeatureSet
p6217
(dp6218
g291
(dp6219
S'posn'
p6220
S'80'
p6221
sS'name'
p6222
S'\xe0\xa4\x9c\xe0\xa4\xbe'
p6223
sS'drel'
p6224
S'lwg__vaux:\xe0\xa4\x95\xe0\xa4\xb9\xe0\xa4\xbe'
p6225
sS'chunktype'
p6226
S'child:VGF'
p6227
sS'af'
p6228
S'\xe0\xa4\x9c\xe0\xa4\xbe,v,any,any,any,,0,0'
p6229
ssbsg1697
I00
sg1700
I00
sg1711
Nsg1698
Nsg189
I2
sg175
I7
sg2020
Nsg1709
Nsg2021
S'VAUX'
p6230
sg288
(issf_api
FeatureSet
p6231
(dp6232
g291
(dp6233
S'posn'
p6234
S'80'
p6235
sS'name'
p6236
S'\xe0\xa4\x9c\xe0\xa4\xbe'
p6237
sS'af'
p6238
S'\xe0\xa4\x9c\xe0\xa4\xbe,v,any,any,any,,0,0'
p6239
ssbsg1718
I00
sba(issf_api
Word
p6240
(dp6241
g1999
I00
sg2000
V\u0938\u0915\u0924\u093e
p6242
sg2002
(issf_api
FeatureSet
p6243
(dp6244
g291
(dp6245
S'posn'
p6246
S'90'
p6247
sS'name'
p6248
S'\xe0\xa4\xb8\xe0\xa4\x95\xe0\xa4\xa4\xe0\xa4\xbe'
p6249
sS'drel'
p6250
S'lwg__vaux:\xe0\xa4\x95\xe0\xa4\xb9\xe0\xa4\xbe'
p6251
sS'chunktype'
p6252
S'child:VGF'
p6253
sS'af'
p6254
S'\xe0\xa4\xb8\xe0\xa4\x95,v,m,sg,any,,\xe0\xa4\xa4\xe0\xa4\xbe,wA'
p6255
ssbsg1697
I00
sg1700
I00
sg1711
Nsg1698
Nsg189
I2
sg175
I7
sg2020
Nsg1709
Nsg2021
S'VAUX'
p6256
sg288
(issf_api
FeatureSet
p6257
(dp6258
g291
(dp6259
S'posn'
p6260
S'90'
p6261
sS'name'
p6262
S'\xe0\xa4\xb8\xe0\xa4\x95\xe0\xa4\xa4\xe0\xa4\xbe'
p6263
sS'af'
p6264
S'\xe0\xa4\xb8\xe0\xa4\x95,v,m,sg,any,,\xe0\xa4\xa4\xe0\xa4\xbe,wA'
p6265
ssbsg1718
I00
sba(issf_api
Word
p6266
(dp6267
g1999
I00
sg2000
V\u0915\u093f
p6268
sg2002
(issf_api
FeatureSet
p6269
(dp6270
g291
(dp6271
S'posn'
p6272
S'100'
p6273
sS'name'
p6274
S'\xe0\xa4\x95\xe0\xa4\xbf'
p6275
sS'af'
p6276
S'\xe0\xa4\x95\xe0\xa4\xbf,avy,,,,,,'
p6277
sS'chunkid'
p6278
S'CCP'
p6279
sS'drel'
p6280
S'rs:\xe0\xa4\xaf\xe0\xa4\xb9'
p6281
sS'chunktype'
p6282
S'head:CCP'
p6283
ssbsg1697
I00
sg1700
I00
sg1711
Nsg1698
Nsg189
I3
sg175
I7
sg2020
Nsg1709
Nsg2021
S'CC'
p6284
sg288
(issf_api
FeatureSet
p6285
(dp6286
g291
(dp6287
S'posn'
p6288
S'100'
p6289
sS'name'
p6290
S'\xe0\xa4\x95\xe0\xa4\xbf'
p6291
sS'af'
p6292
S'\xe0\xa4\x95\xe0\xa4\xbf,avy,,,,,,'
p6293
ssbsg1718
I00
sba(issf_api
Word
p6294
(dp6295
g1999
I00
sg2000
V\u0915\u093e\u0902\u0917\u094d\u0930\u0947\u0938
p6296
sg2002
(issf_api
FeatureSet
p6297
(dp6298
g291
(dp6299
S'posn'
p6300
S'110'
p6301
sS'name'
p6302
S'\xe0\xa4\x95\xe0\xa4\xbe\xe0\xa4\x82\xe0\xa4\x97\xe0\xa5\x8d\xe0\xa4\xb0\xe0\xa5\x87\xe0\xa4\xb8'
p6303
sS'af'
p6304
S'\xe0\xa4\x95\xe0\xa4\xbe\xe0\xa4\x82\xe0\xa4\x97\xe0\xa5\x8d\xe0\xa4\xb0\xe0\xa5\x87\xe0\xa4\xb8,n,f,sg,3,o,0_\xe0\xa4\x95\xe0\xa4\xbe,0'
p6305
sS'chunkid'
p6306
S'NP3'
p6307
sS'drel'
p6308
S'r6:\xe0\xa4\x96\xe0\xa4\xbe\xe0\xa4\xa4\xe0\xa4\xbe'
p6309
sS'vpos'
p6310
S'vib_2'
p6311
sS'chunktype'
p6312
S'head:NP3'
p6313
ssbsg1697
I00
sg1700
I00
sg1711
Nsg1698
Nsg189
I4
sg175
I7
sg2020
Nsg1709
Nsg2021
S'NNP'
p6314
sg288
(issf_api
FeatureSet
p6315
(dp6316
g291
(dp6317
S'posn'
p6318
S'110'
p6319
sS'name'
p6320
S'\xe0\xa4\x95\xe0\xa4\xbe\xe0\xa4\x82\xe0\xa4\x97\xe0\xa5\x8d\xe0\xa4\xb0\xe0\xa5\x87\xe0\xa4\xb8'
p6321
sS'af'
p6322
S'\xe0\xa4\x95\xe0\xa4\xbe\xe0\xa4\x82\xe0\xa4\x97\xe0\xa5\x8d\xe0\xa4\xb0\xe0\xa5\x87\xe0\xa4\xb8,n,f,sg,3,o,0,0'
p6323
ssbsg1718
I00
sba(issf_api
Word
p6324
(dp6325
g1999
I00
sg2000
V\u0915\u093e
p6326
sg2002
(issf_api
FeatureSet
p6327
(dp6328
g291
(dp6329
S'posn'
p6330
S'120'
p6331
sS'name'
p6332
S'\xe0\xa4\x95\xe0\xa4\xbe'
p6333
sS'drel'
p6334
S'lwg__psp:\xe0\xa4\x95\xe0\xa4\xbe\xe0\xa4\x82\xe0\xa4\x97\xe0\xa5\x8d\xe0\xa4\xb0\xe0\xa5\x87\xe0\xa4\xb8'
p6335
sS'chunktype'
p6336
S'child:NP3'
p6337
sS'af'
p6338
S'\xe0\xa4\x95\xe0\xa4\xbe,psp,m,sg,,d,,'
p6339
ssbsg1697
I00
sg1700
I00
sg1711
Nsg1698
Nsg189
I4
sg175
I7
sg2020
Nsg1709
Nsg2021
S'PSP'
p6340
sg288
(issf_api
FeatureSet
p6341
(dp6342
g291
(dp6343
S'posn'
p6344
S'120'
p6345
sS'name'
p6346
S'\xe0\xa4\x95\xe0\xa4\xbe'
p6347
sS'af'
p6348
S'\xe0\xa4\x95\xe0\xa4\xbe,psp,m,sg,,d,,'
p6349
ssbsg1718
I00
sba(issf_api
Word
p6350
(dp6351
g1999
I00
sg2000
V\u0916\u093e\u0924\u093e
p6352
sg2002
(issf_api
FeatureSet
p6353
(dp6354
g291
(dp6355
S'posn'
p6356
S'130'
p6357
sS'name'
p6358
S'\xe0\xa4\x96\xe0\xa4\xbe\xe0\xa4\xa4\xe0\xa4\xbe'
p6359
sS'af'
p6360
S'\xe0\xa4\x96\xe0\xa4\xbe\xe0\xa4\xa4\xe0\xa4\xbe,n,m,sg,3,d,0,0'
p6361
sS'chunkid'
p6362
S'NP4'
p6363
sS'drel'
p6364
S'k2:\xe0\xa4\x96\xe0\xa5\x81\xe0\xa4\xb2\xe0\xa5\x87\xe0\xa4\x97\xe0\xa4\xbe'
p6365
sS'chunktype'
p6366
S'head:NP4'
p6367
ssbsg1697
I00
sg1700
I00
sg1711
Nsg1698
Nsg189
I5
sg175
I7
sg2020
Nsg1709
Nsg2021
S'NN'
p6368
sg288
(issf_api
FeatureSet
p6369
(dp6370
g291
(dp6371
S'posn'
p6372
S'130'
p6373
sS'name'
p6374
S'\xe0\xa4\x96\xe0\xa4\xbe\xe0\xa4\xa4\xe0\xa4\xbe'
p6375
sS'af'
p6376
S'\xe0\xa4\x96\xe0\xa4\xbe\xe0\xa4\xa4\xe0\xa4\xbe,n,m,sg,3,d,0,0'
p6377
ssbsg1718
I00
sba(issf_api
Word
p6378
(dp6379
g1999
I00
sg2000
V\u092d\u0940
p6380
sg2002
(issf_api
FeatureSet
p6381
(dp6382
g291
(dp6383
S'posn'
p6384
S'140'
p6385
sS'name'
p6386
S'\xe0\xa4\xad\xe0\xa5\x802'
p6387
sS'drel'
p6388
S'lwg__rp:\xe0\xa4\x96\xe0\xa4\xbe\xe0\xa4\xa4\xe0\xa4\xbe'
p6389
sS'chunktype'
p6390
S'child:NP4'
p6391
sS'af'
p6392
S'\xe0\xa4\xad\xe0\xa5\x80,avy,,,,,,'
p6393
ssbsg1697
I00
sg1700
I00
sg1711
Nsg1698
Nsg189
I5
sg175
I7
sg2020
Nsg1709
Nsg2021
S'RP'
p6394
sg288
(issf_api
FeatureSet
p6395
(dp6396
g291
(dp6397
S'posn'
p6398
S'140'
p6399
sS'name'
p6400
S'\xe0\xa4\xad\xe0\xa5\x802'
p6401
sS'af'
p6402
S'\xe0\xa4\xad\xe0\xa5\x80,avy,,,,,,'
p6403
ssbsg1718
I00
sba(issf_api
Word
p6404
(dp6405
g1999
I00
sg2000
V\u0916\u0941\u0932\u0947\u0917\u093e
p6406
sg2002
(issf_api
FeatureSet
p6407
(dp6408
g291
(dp6409
S'posn'
p6410
S'150'
p6411
sS'name'
p6412
S'\xe0\xa4\x96\xe0\xa5\x81\xe0\xa4\xb2\xe0\xa5\x87\xe0\xa4\x97\xe0\xa4\xbe'
p6413
sS'af'
p6414
S'\xe0\xa4\x96\xe0\xa5\x81\xe0\xa4\xb2,v,m,sg,3,,\xe0\xa4\x97\xe0\xa4\xbe,gA'
p6415
sS'chunkid'
p6416
S'VGF2'
p6417
sS'stype'
p6418
S'declarative'
p6419
sS'drel'
p6420
S'ccof:\xe0\xa4\xaf\xe0\xa4\xbe'
p6421
sS'voicetype'
p6422
S'active'
p6423
sS'chunktype'
p6424
S'head:VGF2'
p6425
ssbsg1697
I00
sg1700
I00
sg1711
Nsg1698
Nsg189
I6
sg175
I7
sg2020
Nsg1709
Nsg2021
S'VM'
p6426
sg288
(issf_api
FeatureSet
p6427
(dp6428
g291
(dp6429
S'posn'
p6430
S'150'
p6431
sS'name'
p6432
S'\xe0\xa4\x96\xe0\xa5\x81\xe0\xa4\xb2\xe0\xa5\x87\xe0\xa4\x97\xe0\xa4\xbe'
p6433
sS'af'
p6434
S'\xe0\xa4\x96\xe0\xa5\x81\xe0\xa4\xb2,v,m,sg,3,,\xe0\xa4\x97\xe0\xa4\xbe,gA'
p6435
ssbsg1718
I00
sba(issf_api
Word
p6436
(dp6437
g1999
I00
sg2000
V\u092f\u093e
p6438
sg2002
(issf_api
FeatureSet
p6439
(dp6440
g291
(dp6441
S'posn'
p6442
S'160'
p6443
sS'name'
p6444
S'\xe0\xa4\xaf\xe0\xa4\xbe'
p6445
sS'af'
p6446
S'\xe0\xa4\xaf\xe0\xa4\xbe,avy,,,,,,'
p6447
sS'chunkid'
p6448
S'CCP2'
p6449
sS'drel'
p6450
S'ccof:\xe0\xa4\x95\xe0\xa4\xbf'
p6451
sS'chunktype'
p6452
S'head:CCP2'
p6453
ssbsg1697
I00
sg1700
I00
sg1711
Nsg1698
Nsg189
I7
sg175
I7
sg2020
Nsg1709
Nsg2021
S'CC'
p6454
sg288
(issf_api
FeatureSet
p6455
(dp6456
g291
(dp6457
S'posn'
p6458
S'160'
p6459
sS'name'
p6460
S'\xe0\xa4\xaf\xe0\xa4\xbe'
p6461
sS'af'
p6462
S'\xe0\xa4\xaf\xe0\xa4\xbe,avy,,,,,,'
p6463
ssbsg1718
I00
sba(issf_api
Word
p6464
(dp6465
g1999
I00
sg2000
V\u0928\u0939\u0940\u0902
p6466
sg2002
(issf_api
FeatureSet
p6467
(dp6468
g291
(dp6469
S'posn'
p6470
S'170'
p6471
sS'name'
p6472
S'\xe0\xa4\xa8\xe0\xa4\xb9\xe0\xa5\x80\xe0\xa4\x822'
p6473
sS'af'
p6474
S'\xe0\xa4\xa8\xe0\xa4\xb9\xe0\xa5\x80\xe0\xa4\x82,avy,,,,,,'
p6475
sS'chunkid'
p6476
S'NEGP'
p6477
sS'drel'
p6478
S'vmod:NULL'
p6479
sS'chunktype'
p6480
S'head:NEGP'
p6481
ssbsg1697
I00
sg1700
I00
sg1711
Nsg1698
Nsg189
I8
sg175
I7
sg2020
Nsg1709
Nsg2021
S'NEG'
p6482
sg288
(issf_api
FeatureSet
p6483
(dp6484
g291
(dp6485
S'posn'
p6486
S'170'
p6487
sS'name'
p6488
S'\xe0\xa4\xa8\xe0\xa4\xb9\xe0\xa5\x80\xe0\xa4\x822'
p6489
sS'af'
p6490
S'\xe0\xa4\xa8\xe0\xa4\xb9\xe0\xa5\x80\xe0\xa4\x82,avy,,,,,,'
p6491
ssbsg1718
I00
sba(issf_api
Word
p6492
(dp6493
g1999
I00
sg2000
V\u0964
sg2002
(issf_api
FeatureSet
p6494
(dp6495
g291
(dp6496
S'name'
p6497
S'NULL'
p6498
sS'dmrel'
p6499
S'ccof:\xe0\xa4\xaf\xe0\xa4\xbe'
p6500
sS'chunkid'
p6501
S'NULL__VGF'
p6502
sS'mtype'
p6503
S'gap'
p6504
sS'troot'
p6505
S'\xe0\xa4\xb9\xe0\xa5\x88'
p6506
sS'chunktype'
p6507
S'head:NULL__VGF'
p6508
sS'voicetype'
p6509
S'active'
p6510
sS'stype'
p6511
S'declarative'
p6512
ssbsg1697
I00
sg1700
I00
sg1711
Nsg1698
Nsg189
I9
sg175
I7
sg2020
Nsg1709
Nsg2021
S'SYM'
p6513
sg288
(issf_api
FeatureSet
p6514
(dp6515
g291
(dp6516
S'posn'
p6517
S'180'
p6518
sS'name'
p6519
S'\xe0\xa5\xa4'
p6520
sS'af'
p6521
S'\xe0\xa5\xa4,punc,,,,,,'
p6522
ssbsg1718
I00
sbasb.