(iannotated_data
discourseFile
p1
(dp2
S'annToRawMapping'
p3
(dp4
I0
(I0
tp5
sI1
(I1
tp6
sI2
(I2
tp7
sI3
(I3
tp8
sI4
(I4
tp9
sI5
(I5
tp10
sI6
(I6
tp11
sI7
(I7
tp12
sI8
(I8
tp13
sI9
(I9
tp14
sI10
(I10
tp15
sI11
(I11
tp16
sI12
(I12
tp17
sI13
(I13
tp18
sI14
(I14
tp19
sI15
(I15
tp20
sI16
(I16
tp21
sI17
(I17
tp22
sI18
(I18
tp23
sI19
(I19
tp24
sI20
(I20
tp25
sI21
(I21
tp26
sI22
(I22
tp27
sI23
(I23
tp28
sI24
(I24
tp29
sI25
(I25
tp30
sI26
(I26
tp31
sI27
(I27
tp32
sI28
(I28
tp33
sI29
(I29
tp34
sI30
(I30
tp35
sI31
(I31
tp36
sI32
(I32
tp37
sI33
(I33
tp38
sI34
(I34
tp39
sI35
(I35
tp40
sI36
(I36
tp41
sI37
(I37
tp42
sI38
(I38
tp43
sI39
(I39
tp44
sI40
(I40
tp45
sI41
(I41
tp46
sI42
(I42
tp47
sI43
(I43
tp48
sI44
(I44
tp49
sI45
(I45
tp50
sI46
(I46
tp51
sI47
(I47
tp52
sI48
(I48
tp53
sI49
(I49
tp54
sI50
(I50
tp55
sI51
(I51
tp56
sI52
(I52
tp57
sI53
(I53
tp58
sI54
(I54
tp59
sI55
(I55
tp60
sI56
(I56
tp61
sI57
(I57
tp62
sI58
(I58
tp63
sI59
(I59
tp64
sI60
(I60
tp65
sI61
(I61
tp66
sI62
(I62
tp67
sI63
(I63
tp68
sI64
(I64
tp69
sI65
(I65
tp70
sI66
(I66
tp71
sI67
(I67
tp72
sI68
(I68
tp73
sI69
(I69
tp74
sI70
(I70
tp75
sI71
(I71
tp76
sI72
(I72
tp77
sI73
(I73
tp78
sI74
(I74
tp79
sI75
(I75
tp80
sI76
(I76
tp81
sI77
(I77
tp82
sI78
(I78
tp83
sI79
(I79
tp84
sI80
(I80
tp85
sI81
(I81
tp86
sI82
(I82
tp87
sI83
(I83
tp88
sI84
(I84
tp89
sI85
(I85
tp90
sI86
(I86
tp91
sI87
(I87
tp92
sI88
(I88
tp93
sI89
(I89
tp94
sI90
(I90
tp95
sI91
(I91
tp96
sI92
(I92
tp97
sI93
(I93
tp98
sI94
(I94
tp99
sI95
(I95
tp100
sI96
(I96
tp101
sI97
(I97
tp102
sI98
(I98
tp103
sI99
(I99
tp104
sI100
(I100
tp105
sI101
(I101
tp106
sI102
(I102
tp107
sI103
(I103
tp108
sI104
(I104
tp109
sI105
(I105
tp110
sI106
(I106
tp111
sI107
(I107
tp112
sI108
(I108
tp113
sI109
(I109
tp114
sI110
(I110
tp115
sI111
(I111
tp116
sI112
(I112
tp117
sI113
(I113
tp118
sI114
(I114
tp119
sI115
(I115
tp120
sI116
(I116
tp121
sI117
(I117
tp122
sI118
(I118
tp123
sI119
(I119
tp124
sI120
(I120
tp125
sI121
(I121
tp126
sI122
(I122
tp127
sI123
(I123
tp128
sI124
(I124
tp129
sI125
(I125
tp130
sI126
(I126
tp131
sI127
(I127
tp132
sI128
(I128
tp133
sI129
(I129
tp134
sI130
(I130
tp135
sI131
(I131
tp136
sI132
(I132
tp137
sI133
(I133
tp138
sI134
(I133
tp139
sI135
(I134
tp140
sI136
(I135
tp141
sI137
(I136
tp142
sI138
(I137
tp143
sI139
(I138
tp144
sI140
(I139
tp145
sI141
(I140
tp146
sI142
(I141
tp147
sI143
(I142
tp148
sI144
(I143
tp149
sI145
(I144
tp150
sI146
(I145
tp151
sI147
(I146
tp152
sI148
(I147
tp153
sI149
(I148
tp154
sI150
(I149
tp155
sI151
(I150
tp156
sI152
(I151
tp157
sI153
(I152
tp158
sI154
(I153
tp159
sI155
(I154
tp160
sI156
(I155
tp161
sI157
(I156
tp162
sI158
(I157
tp163
sI159
(I158
tp164
sI160
(I159
tp165
sI161
(I160
tp166
sI162
(I161
tp167
sI163
(I162
tp168
sI164
(I163
tp169
sI165
(I164
tp170
sI166
(I165
tp171
sI167
(I166
tp172
sI168
(I167
tp173
sI169
(I168
tp174
ssS'sentenceList'
p175
(lp176
(issf_api
Sentence
p177
(dp178
S'rootNode'
p179
(lp180
sS'sentenceNum'
p181
I0
sS'wordNumList'
p182
(lp183
I0
aI1
aI2
aI3
aI4
aI5
aI6
aI7
aI8
aI9
aI10
aI11
aI12
aI13
aI14
aI15
aI16
aI17
aI18
aI19
aI20
aI21
aI22
asS'nodeDict'
p184
(dp185
S'VGF'
p186
(issf_api
Node
p187
(dp188
S'nodeRelation'
p189
S'None'
p190
sS'nodeName'
p191
g186
sS'nodeParent'
p192
g190
sS'nodeLevel'
p193
I-1
sS'chunkNum'
p194
I8
sS'childList'
p195
(lp196
sbsS'CCP'
p197
(issf_api
Node
p198
(dp199
g189
S'k1'
p200
sg191
g197
sg192
S'VGF'
p201
sg193
I-1
sg194
I2
sg195
(lp202
sbsS'JJP'
p203
(issf_api
Node
p204
(dp205
g189
S'pof'
p206
sg191
g203
sg192
S'VGF'
p207
sg193
I-1
sg194
I7
sg195
(lp208
sbsS'NP5'
p209
(issf_api
Node
p210
(dp211
g189
S'k7p'
p212
sg191
g209
sg192
S'VGF'
p213
sg193
I-1
sg194
I5
sg195
(lp214
sbsS'BLK'
p215
(issf_api
Node
p216
(dp217
g189
S'rsym'
p218
sg191
g215
sg192
S'VGF'
p219
sg193
I-1
sg194
I9
sg195
(lp220
sbsS'NP'
p221
(issf_api
Node
p222
(dp223
g189
S'ccof'
p224
sg191
g221
sg192
S'CCP'
p225
sg193
I-1
sg194
I0
sg195
(lp226
sbsS'NP4'
p227
(issf_api
Node
p228
(dp229
g189
S'rs'
p230
sg191
g227
sg192
S'NP3'
p231
sg193
I-1
sg194
I4
sg195
(lp232
sbsS'NP6'
p233
(issf_api
Node
p234
(dp235
g189
S'k7'
p236
sg191
g233
sg192
S'VGF'
p237
sg193
I-1
sg194
I6
sg195
(lp238
sbsS'NP3'
p239
(issf_api
Node
p240
(dp241
g189
S'ccof'
p242
sg191
g239
sg192
S'CCP'
p243
sg193
I-1
sg194
I3
sg195
(lp244
sbsS'NP2'
p245
(issf_api
Node
p246
(dp247
g189
S'rs'
p248
sg191
g245
sg192
S'NP'
p249
sg193
I-1
sg194
I1
sg195
(lp250
sbssS'chunkList'
p251
(lp252
(issf_api
Chunk
p253
(dp254
g191
g221
sg194
I0
sS'chunkTag'
p255
S'NP'
p256
sg181
I0
sg182
(lp257
I0
aI1
aI2
asS'featureSet'
p258
(issf_api
FeatureSet
p259
(dp260
S'featureDict'
p261
(dp262
S'drel'
p263
S'ccof:CCP'
p264
sS'name'
p265
g221
ssbsba(issf_api
Chunk
p266
(dp267
g191
g245
sg194
I1
sg255
S'NP'
p268
sg181
I0
sg182
(lp269
I3
aI4
aI5
asg258
(issf_api
FeatureSet
p270
(dp271
g261
(dp272
S'drel'
p273
S'rs:NP'
p274
sS'name'
p275
g245
ssbsba(issf_api
Chunk
p276
(dp277
g191
g197
sg194
I2
sg255
S'CCP'
p278
sg181
I0
sg182
(lp279
I6
asg258
(issf_api
FeatureSet
p280
(dp281
g261
(dp282
S'drel'
p283
S'k1:VGF'
p284
sS'name'
p285
g197
ssbsba(issf_api
Chunk
p286
(dp287
g191
g239
sg194
I3
sg255
S'NP'
p288
sg181
I0
sg182
(lp289
I7
aI8
asg258
(issf_api
FeatureSet
p290
(dp291
g261
(dp292
S'drel'
p293
S'ccof:CCP'
p294
sS'name'
p295
g239
ssbsba(issf_api
Chunk
p296
(dp297
g191
g227
sg194
I4
sg255
S'NP'
p298
sg181
I0
sg182
(lp299
I9
aI10
aI11
asg258
(issf_api
FeatureSet
p300
(dp301
g261
(dp302
S'drel'
p303
S'rs:NP3'
p304
sS'name'
p305
g227
ssbsba(issf_api
Chunk
p306
(dp307
g191
g209
sg194
I5
sg255
S'NP'
p308
sg181
I0
sg182
(lp309
I12
aI13
aI14
asg258
(issf_api
FeatureSet
p310
(dp311
g261
(dp312
S'drel'
p313
S'k7p:VGF'
p314
sS'name'
p315
g209
ssbsba(issf_api
Chunk
p316
(dp317
g191
g233
sg194
I6
sg255
S'NP'
p318
sg181
I0
sg182
(lp319
I15
aI16
aI17
asg258
(issf_api
FeatureSet
p320
(dp321
g261
(dp322
S'drel'
p323
S'k7:VGF'
p324
sS'name'
p325
g233
ssbsba(issf_api
Chunk
p326
(dp327
g191
g203
sg194
I7
sg255
S'JJP'
p328
sg181
I0
sg182
(lp329
I18
asg258
(issf_api
FeatureSet
p330
(dp331
g261
(dp332
S'drel'
p333
S'pof:VGF'
p334
sS'name'
p335
g203
ssbsba(issf_api
Chunk
p336
(dp337
g191
g186
sg194
I8
sg255
S'VGF'
p338
sg181
I0
sg182
(lp339
I19
aI20
aI21
asg258
(issf_api
FeatureSet
p340
(dp341
g261
(dp342
S'name'
p343
g186
sS'stype'
p344
S'declarative'
p345
sS'voicetype'
p346
S'active'
p347
ssbsba(issf_api
Chunk
p348
(dp349
g191
g215
sg194
I9
sg255
S'BLK'
p350
sg181
I0
sg182
(lp351
I22
asg258
(issf_api
FeatureSet
p352
(dp353
g261
(dp354
S'drel'
p355
S'rsym:VGF'
p356
sS'name'
p357
g215
ssbsbasba(issf_api
Sentence
p358
(dp359
g179
(lp360
sg181
I1
sg182
(lp361
I23
aI24
aI25
aI26
aI27
aI28
aI29
aI30
aI31
aI32
aI33
aI34
aI35
aI36
aI37
aI38
aI39
aI40
aI41
aI42
aI43
aI44
aI45
aI46
asg184
(dp362
S'VGF'
p363
(issf_api
Node
p364
(dp365
g189
g190
sg191
g363
sg192
g190
sg193
I-1
sg194
I3
sg195
(lp366
sbsS'VGF3'
p367
(issf_api
Node
p368
(dp369
g189
S'vmod'
p370
sg191
g367
sg192
S'VGF2'
p371
sg193
I-1
sg194
I11
sg195
(lp372
sbsS'CCP'
p373
(issf_api
Node
p374
(dp375
g189
S'k2'
p376
sg191
g373
sg192
S'VGF'
p377
sg193
I-1
sg194
I4
sg195
(lp378
sbsS'VGF2'
p379
(issf_api
Node
p380
(dp381
g189
S'ccof'
p382
sg191
g379
sg192
S'CCP'
p383
sg193
I-1
sg194
I7
sg195
(lp384
sbsS'NP5'
p385
(issf_api
Node
p386
(dp387
g189
S'k1'
p388
sg191
g385
sg192
S'VGF2'
p389
sg193
I-1
sg194
I6
sg195
(lp390
sbsS'NP8'
p391
(issf_api
Node
p392
(dp393
g189
S'pof'
p394
sg191
g391
sg192
S'VGF3'
p395
sg193
I-1
sg194
I10
sg195
(lp396
sbsS'BLK'
p397
(issf_api
Node
p398
(dp399
g189
S'rsym'
p400
sg191
g397
sg192
S'VGF'
p401
sg193
I-1
sg194
I12
sg195
(lp402
sbsS'NP'
p403
(issf_api
Node
p404
(dp405
g189
S'sent-adv'
p406
sg191
g403
sg192
S'VGF'
p407
sg193
I-1
sg194
I0
sg195
(lp408
sbsS'NP4'
p409
(issf_api
Node
p410
(dp411
g189
S'k7p'
p412
sg191
g409
sg192
S'VGF2'
p413
sg193
I-1
sg194
I5
sg195
(lp414
sbsS'NP7'
p415
(issf_api
Node
p416
(dp417
g189
S'r6-k2'
p418
sg191
g415
sg192
S'NP8'
p419
sg193
I-1
sg194
I9
sg195
(lp420
sbsS'NP6'
p421
(issf_api
Node
p422
(dp423
g189
S'k1'
p424
sg191
g421
sg192
S'VGF3'
p425
sg193
I-1
sg194
I8
sg195
(lp426
sbsS'NP3'
p427
(issf_api
Node
p428
(dp429
g189
S'k7t'
p430
sg191
g427
sg192
S'VGF'
p431
sg193
I-1
sg194
I2
sg195
(lp432
sbsS'NP2'
p433
(issf_api
Node
p434
(dp435
g189
S'k1'
p436
sg191
g433
sg192
S'VGF'
p437
sg193
I-1
sg194
I1
sg195
(lp438
sbssg251
(lp439
(issf_api
Chunk
p440
(dp441
g191
g403
sg194
I0
sg255
S'NP'
p442
sg181
I1
sg182
(lp443
I23
aI24
asg258
(issf_api
FeatureSet
p444
(dp445
g261
(dp446
S'drel'
p447
S'sent-adv:VGF'
p448
sS'name'
p449
g403
ssbsba(issf_api
Chunk
p450
(dp451
g191
g433
sg194
I1
sg255
S'NP'
p452
sg181
I1
sg182
(lp453
I25
aI26
asg258
(issf_api
FeatureSet
p454
(dp455
g261
(dp456
S'drel'
p457
S'k1:VGF'
p458
sS'name'
p459
g433
ssbsba(issf_api
Chunk
p460
(dp461
g191
g427
sg194
I2
sg255
S'NP'
p462
sg181
I1
sg182
(lp463
I27
aI28
asg258
(issf_api
FeatureSet
p464
(dp465
g261
(dp466
S'drel'
p467
S'k7t:VGF'
p468
sS'name'
p469
g427
ssbsba(issf_api
Chunk
p470
(dp471
g191
g363
sg194
I3
sg255
S'VGF'
p472
sg181
I1
sg182
(lp473
I29
asg258
(issf_api
FeatureSet
p474
(dp475
g261
(dp476
S'name'
p477
g363
sS'stype'
p478
S'declarative'
p479
sS'voicetype'
p480
S'active'
p481
ssbsba(issf_api
Chunk
p482
(dp483
g191
g373
sg194
I4
sg255
S'CCP'
p484
sg181
I1
sg182
(lp485
I30
asg258
(issf_api
FeatureSet
p486
(dp487
g261
(dp488
S'drel'
p489
S'k2:VGF'
p490
sS'name'
p491
g373
ssbsba(issf_api
Chunk
p492
(dp493
g191
g409
sg194
I5
sg255
S'NP'
p494
sg181
I1
sg182
(lp495
I31
aI32
aI33
asg258
(issf_api
FeatureSet
p496
(dp497
g261
(dp498
S'drel'
p499
S'k7p:VGF2'
p500
sS'name'
p501
g409
ssbsba(issf_api
Chunk
p502
(dp503
g191
g385
sg194
I6
sg255
S'NP'
p504
sg181
I1
sg182
(lp505
I34
asg258
(issf_api
FeatureSet
p506
(dp507
g261
(dp508
S'drel'
p509
S'k1:VGF2'
p510
sS'name'
p511
g385
ssbsba(issf_api
Chunk
p512
(dp513
g191
g379
sg194
I7
sg255
S'VGF'
p514
sg181
I1
sg182
(lp515
I35
aI36
asg258
(issf_api
FeatureSet
p516
(dp517
g261
(dp518
S'voicetype'
p519
S"active'"
p520
sS'drel'
p521
S'ccof:CCP'
p522
sS'stype'
p523
S'declarative'
p524
sS'name'
p525
g379
ssbsba(issf_api
Chunk
p526
(dp527
g191
g421
sg194
I8
sg255
S'NP'
p528
sg181
I1
sg182
(lp529
I37
aI38
aI39
asg258
(issf_api
FeatureSet
p530
(dp531
g261
(dp532
S'drel'
p533
S'k1:VGF3'
p534
sS'name'
p535
g421
ssbsba(issf_api
Chunk
p536
(dp537
g191
g415
sg194
I9
sg255
S'NP'
p538
sg181
I1
sg182
(lp539
I40
aI41
asg258
(issf_api
FeatureSet
p540
(dp541
g261
(dp542
S'drel'
p543
S'r6-k2:NP8'
p544
sS'name'
p545
g415
ssbsba(issf_api
Chunk
p546
(dp547
g191
g391
sg194
I10
sg255
S'NP'
p548
sg181
I1
sg182
(lp549
I42
asg258
(issf_api
FeatureSet
p550
(dp551
g261
(dp552
S'drel'
p553
S'pof:VGF3'
p554
sS'name'
p555
g391
ssbsba(issf_api
Chunk
p556
(dp557
g191
g367
sg194
I11
sg255
S'VGF'
p558
sg181
I1
sg182
(lp559
I43
aI44
aI45
asg258
(issf_api
FeatureSet
p560
(dp561
g261
(dp562
S'voicetype'
p563
S"active'"
p564
sS'drel'
p565
S'vmod:VGF2'
p566
sS'stype'
p567
S'declarative'
p568
sS'name'
p569
g367
ssbsba(issf_api
Chunk
p570
(dp571
g191
g397
sg194
I12
sg255
S'BLK'
p572
sg181
I1
sg182
(lp573
I46
asg258
(issf_api
FeatureSet
p574
(dp575
g261
(dp576
S'drel'
p577
S'rsym:VGF'
p578
sS'name'
p579
g397
ssbsbasba(issf_api
Sentence
p580
(dp581
g179
(lp582
sg181
I2
sg182
(lp583
I47
aI48
aI49
aI50
aI51
aI52
aI53
aI54
aI55
aI56
aI57
aI58
aI59
aI60
aI61
aI62
aI63
aI64
aI65
aI66
aI67
aI68
aI69
aI70
aI71
aI72
aI73
aI74
asg184
(dp584
S'NULL__VGF'
p585
(issf_api
Node
p586
(dp587
g189
S'ccof'
p588
sg191
g585
sg192
S'CCP2'
p589
sg193
I-1
sg194
I-1
sg195
(lp590
sbsS'NP11'
p591
(issf_api
Node
p592
(dp593
g189
S'k7p'
p594
sg191
g591
sg192
S'NULL__VGF'
p595
sg193
I-1
sg194
I14
sg195
(lp596
sbsS'NP10'
p597
(issf_api
Node
p598
(dp599
g189
S'r6'
p600
sg191
g597
sg192
S'NP11'
p601
sg193
I-1
sg194
I13
sg195
(lp602
sbsS'VGF'
p603
(issf_api
Node
p604
(dp605
g189
g190
sg191
g603
sg192
g190
sg193
I-1
sg194
I3
sg195
(lp606
sbsS'CCP'
p607
(issf_api
Node
p608
(dp609
g189
S'k2'
p610
sg191
g607
sg192
S'VGF'
p611
sg193
I-1
sg194
I4
sg195
(lp612
sbsS'VGF2'
p613
(issf_api
Node
p614
(dp615
g189
S'ccof'
p616
sg191
g613
sg192
S'CCP'
p617
sg193
I-1
sg194
I10
sg195
(lp618
sbsS'NP5'
p619
(issf_api
Node
p620
(dp621
g189
S'r6'
p622
sg191
g619
sg192
S'NP6'
p623
sg193
I-1
sg194
I6
sg195
(lp624
sbsS'NP9'
p625
(issf_api
Node
p626
(dp627
g189
S'k1'
p628
sg191
g625
sg192
S'NULL__VGF'
p629
sg193
I-1
sg194
I12
sg195
(lp630
sbsS'NP8'
p631
(issf_api
Node
p632
(dp633
g189
S'pof'
p634
sg191
g631
sg192
S'VGF2'
p635
sg193
I-1
sg194
I9
sg195
(lp636
sbsS'BLK'
p637
(issf_api
Node
p638
(dp639
g189
S'rsym'
p640
sg191
g637
sg192
S'VGF'
p641
sg193
I-1
sg194
I15
sg195
(lp642
sbsS'NP'
p643
(issf_api
Node
p644
(dp645
g189
S'r6'
p646
sg191
g643
sg192
S'NP2'
p647
sg193
I-1
sg194
I0
sg195
(lp648
sbsS'NP4'
p649
(issf_api
Node
p650
(dp651
g189
S'k7a'
p652
sg191
g649
sg192
S'VGF2'
p653
sg193
I-1
sg194
I5
sg195
(lp654
sbsS'NP7'
p655
(issf_api
Node
p656
(dp657
g189
S'k7p'
p658
sg191
g655
sg192
S'VGF2'
p659
sg193
I-1
sg194
I8
sg195
(lp660
sbsS'NP6'
p661
(issf_api
Node
p662
(dp663
g189
S'k1'
p664
sg191
g661
sg192
S'VGF2'
p665
sg193
I-1
sg194
I7
sg195
(lp666
sbsS'CCP2'
p667
(issf_api
Node
p668
(dp669
g189
S'vmod'
p670
sg191
g667
sg192
S'VGF2'
p671
sg193
I-1
sg194
I11
sg195
(lp672
sbsS'NP3'
p673
(issf_api
Node
p674
(dp675
g189
S'k7t'
p676
sg191
g673
sg192
S'VGF'
p677
sg193
I-1
sg194
I2
sg195
(lp678
sbsS'NP2'
p679
(issf_api
Node
p680
(dp681
g189
S'k1'
p682
sg191
g679
sg192
S'VGF'
p683
sg193
I-1
sg194
I1
sg195
(lp684
sbssg251
(lp685
(issf_api
Chunk
p686
(dp687
g191
g643
sg194
I0
sg255
S'NP'
p688
sg181
I2
sg182
(lp689
I47
aI48
asg258
(issf_api
FeatureSet
p690
(dp691
g261
(dp692
S'drel'
p693
S'r6:NP2'
p694
sS'name'
p695
g643
ssbsba(issf_api
Chunk
p696
(dp697
g191
g679
sg194
I1
sg255
S'NP'
p698
sg181
I2
sg182
(lp699
I49
aI50
aI51
asg258
(issf_api
FeatureSet
p700
(dp701
g261
(dp702
S'drel'
p703
S'k1:VGF'
p704
sS'name'
p705
g679
ssbsba(issf_api
Chunk
p706
(dp707
g191
g673
sg194
I2
sg255
S'NP'
p708
sg181
I2
sg182
(lp709
I52
aI53
asg258
(issf_api
FeatureSet
p710
(dp711
g261
(dp712
S'drel'
p713
S'k7t:VGF'
p714
sS'name'
p715
g673
ssbsba(issf_api
Chunk
p716
(dp717
g191
g603
sg194
I3
sg255
S'VGF'
p718
sg181
I2
sg182
(lp719
I54
asg258
(issf_api
FeatureSet
p720
(dp721
g261
(dp722
S'name'
p723
g603
sS'stype'
p724
S'declarative'
p725
sS'voicetype'
p726
S'active'
p727
ssbsba(issf_api
Chunk
p728
(dp729
g191
g607
sg194
I4
sg255
S'CCP'
p730
sg181
I2
sg182
(lp731
I55
asg258
(issf_api
FeatureSet
p732
(dp733
g261
(dp734
S'drel'
p735
S'k2:VGF'
p736
sS'name'
p737
g607
ssbsba(issf_api
Chunk
p738
(dp739
g191
g649
sg194
I5
sg255
S'NP'
p740
sg181
I2
sg182
(lp741
I56
aI57
aI58
aI59
asg258
(issf_api
FeatureSet
p742
(dp743
g261
(dp744
S'drel'
p745
S'k7a:VGF2'
p746
sS'name'
p747
g649
ssbsba(issf_api
Chunk
p748
(dp749
g191
g619
sg194
I6
sg255
S'NP'
p750
sg181
I2
sg182
(lp751
I60
aI61
asg258
(issf_api
FeatureSet
p752
(dp753
g261
(dp754
S'drel'
p755
S'r6:NP6'
p756
sS'name'
p757
g619
ssbsba(issf_api
Chunk
p758
(dp759
g191
g661
sg194
I7
sg255
S'NP'
p760
sg181
I2
sg182
(lp761
I62
asg258
(issf_api
FeatureSet
p762
(dp763
g261
(dp764
S'drel'
p765
S'k1:VGF2'
p766
sS'name'
p767
g661
ssbsba(issf_api
Chunk
p768
(dp769
g191
g655
sg194
I8
sg255
S'NP'
p770
sg181
I2
sg182
(lp771
I63
aI64
aI65
asg258
(issf_api
FeatureSet
p772
(dp773
g261
(dp774
S'drel'
p775
S'k7p:VGF2'
p776
sS'name'
p777
g655
ssbsba(issf_api
Chunk
p778
(dp779
g191
g631
sg194
I9
sg255
S'NP'
p780
sg181
I2
sg182
(lp781
I66
asg258
(issf_api
FeatureSet
p782
(dp783
g261
(dp784
S'drel'
p785
S'pof:VGF2'
p786
sS'name'
p787
g631
ssbsba(issf_api
Chunk
p788
(dp789
g191
g613
sg194
I10
sg255
S'VGF'
p790
sg181
I2
sg182
(lp791
I67
asg258
(issf_api
FeatureSet
p792
(dp793
g261
(dp794
S'voicetype'
p795
S"active'"
p796
sS'drel'
p797
S'ccof:CCP'
p798
sS'stype'
p799
S'declarative'
p800
sS'name'
p801
g613
ssbsba(issf_api
Chunk
p802
(dp803
g191
g667
sg194
I11
sg255
S'CCP'
p804
sg181
I2
sg182
(lp805
I68
asg258
(issf_api
FeatureSet
p806
(dp807
g261
(dp808
S'drel'
p809
S'vmod:VGF2'
p810
sS'name'
p811
g667
ssbsba(issf_api
Chunk
p812
(dp813
g191
g625
sg194
I12
sg255
S'NP'
p814
sg181
I2
sg182
(lp815
I69
aI70
asg258
(issf_api
FeatureSet
p816
(dp817
g261
(dp818
S'drel'
p819
S'k1:NULL__VGF'
p820
sS'name'
p821
g625
ssbsba(issf_api
Chunk
p822
(dp823
g191
g597
sg194
I13
sg255
S'NP'
p824
sg181
I2
sg182
(lp825
I71
asg258
(issf_api
FeatureSet
p826
(dp827
g261
(dp828
S'drel'
p829
S'r6:NP11'
p830
sS'name'
p831
g597
ssbsba(issf_api
Chunk
p832
(dp833
g191
g591
sg194
I14
sg255
S'NP'
p834
sg181
I2
sg182
(lp835
I72
aI73
asg258
(issf_api
FeatureSet
p836
(dp837
g261
(dp838
S'drel'
p839
S'k7p:NULL__VGF'
p840
sS'name'
p841
g591
ssbsba(issf_api
Chunk
p842
(dp843
g191
g637
sg194
I15
sg255
S'BLK'
p844
sg181
I2
sg182
(lp845
I74
asg258
(issf_api
FeatureSet
p846
(dp847
g261
(dp848
S'drel'
p849
S'rsym:VGF'
p850
sS'name'
p851
g637
ssbsbasba(issf_api
Sentence
p852
(dp853
g179
(lp854
sg181
I3
sg182
(lp855
I75
aI76
aI77
aI78
aI79
aI80
aI81
aI82
aI83
aI84
asg184
(dp856
S'NP'
p857
(issf_api
Node
p858
(dp859
g189
S'k7'
p860
sg191
g857
sg192
S'VGF'
p861
sg193
I-1
sg194
I0
sg195
(lp862
sbsS'VGF'
p863
(issf_api
Node
p864
(dp865
g189
g190
sg191
g863
sg192
g190
sg193
I-1
sg194
I3
sg195
(lp866
sbsS'JJP'
p867
(issf_api
Node
p868
(dp869
g189
S'pof'
p870
sg191
g867
sg192
S'VGF'
p871
sg193
I-1
sg194
I2
sg195
(lp872
sbsS'BLK'
p873
(issf_api
Node
p874
(dp875
g189
S'rsym'
p876
sg191
g873
sg192
S'VGF'
p877
sg193
I-1
sg194
I4
sg195
(lp878
sbsS'NP2'
p879
(issf_api
Node
p880
(dp881
g189
S'k2'
p882
sg191
g879
sg192
S'VGF'
p883
sg193
I-1
sg194
I1
sg195
(lp884
sbssg251
(lp885
(issf_api
Chunk
p886
(dp887
g191
g857
sg194
I0
sg255
S'NP'
p888
sg181
I3
sg182
(lp889
I75
aI76
asg258
(issf_api
FeatureSet
p890
(dp891
g261
(dp892
S'drel'
p893
S'k7:VGF'
p894
sS'name'
p895
g857
ssbsba(issf_api
Chunk
p896
(dp897
g191
g879
sg194
I1
sg255
S'NP'
p898
sg181
I3
sg182
(lp899
I77
aI78
asg258
(issf_api
FeatureSet
p900
(dp901
g261
(dp902
S'drel'
p903
S'k2:VGF'
p904
sS'name'
p905
g879
ssbsba(issf_api
Chunk
p906
(dp907
g191
g867
sg194
I2
sg255
S'JJP'
p908
sg181
I3
sg182
(lp909
I79
asg258
(issf_api
FeatureSet
p910
(dp911
g261
(dp912
S'drel'
p913
S'pof:VGF'
p914
sS'name'
p915
g867
ssbsba(issf_api
Chunk
p916
(dp917
g191
g863
sg194
I3
sg255
S'VGF'
p918
sg181
I3
sg182
(lp919
I80
aI81
aI82
aI83
asg258
(issf_api
FeatureSet
p920
(dp921
g261
(dp922
S'name'
p923
g863
sS'stype'
p924
S'declarative'
p925
sS'voicetype'
p926
S'passive'
p927
ssbsba(issf_api
Chunk
p928
(dp929
g191
g873
sg194
I4
sg255
S'BLK'
p930
sg181
I3
sg182
(lp931
I84
asg258
(issf_api
FeatureSet
p932
(dp933
g261
(dp934
S'drel'
p935
S'rsym:VGF'
p936
sS'name'
p937
g873
ssbsbasba(issf_api
Sentence
p938
(dp939
g179
(lp940
sg181
I4
sg182
(lp941
I85
aI86
aI87
aI88
aI89
aI90
aI91
aI92
aI93
aI94
aI95
aI96
aI97
aI98
aI99
aI100
aI101
aI102
aI103
aI104
aI105
aI106
aI107
aI108
aI109
aI110
aI111
aI112
aI113
asg184
(dp942
S'VGF2'
p943
(issf_api
Node
p944
(dp945
g189
S'ccof'
p946
sg191
g943
sg192
S'CCP2'
p947
sg193
I-1
sg194
I16
sg195
(lp948
sbsS'NP11'
p949
(issf_api
Node
p950
(dp951
g189
S'k1'
p952
sg191
g949
sg192
S'VGF2'
p953
sg193
I-1
sg194
I13
sg195
(lp954
sbsS'NP10'
p955
(issf_api
Node
p956
(dp957
g189
S'r6'
p958
sg191
g955
sg192
S'NP11'
p959
sg193
I-1
sg194
I12
sg195
(lp960
sbsS'VGF'
p961
(issf_api
Node
p962
(dp963
g189
g190
sg191
g961
sg192
g190
sg193
I-1
sg194
I9
sg195
(lp964
sbsS'NP12'
p965
(issf_api
Node
p966
(dp967
g189
S'pof'
p968
sg191
g965
sg192
S'VGF2'
p969
sg193
I-1
sg194
I15
sg195
(lp970
sbsS'CCP'
p971
(issf_api
Node
p972
(dp973
g189
S'nmod'
p974
sg191
g971
sg192
S'NP7'
p975
sg193
I-1
sg194
I5
sg195
(lp976
sbsS'RBP'
p977
(issf_api
Node
p978
(dp979
g189
S'adv'
p980
sg191
g977
sg192
S'VGF2'
p981
sg193
I-1
sg194
I14
sg195
(lp982
sbsS'NP5'
p983
(issf_api
Node
p984
(dp985
g189
S'ccof'
p986
sg191
g983
sg192
S'CCP'
p987
sg193
I-1
sg194
I4
sg195
(lp988
sbsS'NP9'
p989
(issf_api
Node
p990
(dp991
g189
S'k7p'
p992
sg191
g989
sg192
S'VGF2'
p993
sg193
I-1
sg194
I11
sg195
(lp994
sbsS'NP8'
p995
(issf_api
Node
p996
(dp997
g189
S'k1'
p998
sg191
g995
sg192
S'VGF'
p999
sg193
I-1
sg194
I8
sg195
(lp1000
sbsS'BLK'
p1001
(issf_api
Node
p1002
(dp1003
g189
S'rsym'
p1004
sg191
g1001
sg192
S'VGF'
p1005
sg193
I-1
sg194
I17
sg195
(lp1006
sbsS'NP'
p1007
(issf_api
Node
p1008
(dp1009
g189
S'k7p'
p1010
sg191
g1007
sg192
S'VGF'
p1011
sg193
I-1
sg194
I0
sg195
(lp1012
sbsS'NP4'
p1013
(issf_api
Node
p1014
(dp1015
g189
S'ccof'
p1016
sg191
g1013
sg192
S'CCP'
p1017
sg193
I-1
sg194
I3
sg195
(lp1018
sbsS'NP7'
p1019
(issf_api
Node
p1020
(dp1021
g189
S'r6'
p1022
sg191
g1019
sg192
S'NP8'
p1023
sg193
I-1
sg194
I7
sg195
(lp1024
sbsS'NP6'
p1025
(issf_api
Node
p1026
(dp1027
g189
S'ccof'
p1028
sg191
g1025
sg192
S'CCP'
p1029
sg193
I-1
sg194
I6
sg195
(lp1030
sbsS'CCP2'
p1031
(issf_api
Node
p1032
(dp1033
g189
S'k2'
p1034
sg191
g1031
sg192
S'VGF'
p1035
sg193
I-1
sg194
I10
sg195
(lp1036
sbsS'NP3'
p1037
(issf_api
Node
p1038
(dp1039
g189
S'ccof'
p1040
sg191
g1037
sg192
S'CCP'
p1041
sg193
I-1
sg194
I2
sg195
(lp1042
sbsS'NP2'
p1043
(issf_api
Node
p1044
(dp1045
g189
S'r6'
p1046
sg191
g1043
sg192
S'NP3'
p1047
sg193
I-1
sg194
I1
sg195
(lp1048
sbssg251
(lp1049
(issf_api
Chunk
p1050
(dp1051
g191
g1007
sg194
I0
sg255
S'NP'
p1052
sg181
I4
sg182
(lp1053
I85
asg258
(issf_api
FeatureSet
p1054
(dp1055
g261
(dp1056
S'drel'
p1057
S'k7p:VGF'
p1058
sS'name'
p1059
g1007
ssbsba(issf_api
Chunk
p1060
(dp1061
g191
g1043
sg194
I1
sg255
S'NP'
p1062
sg181
I4
sg182
(lp1063
I86
aI87
asg258
(issf_api
FeatureSet
p1064
(dp1065
g261
(dp1066
S'drel'
p1067
S'r6:NP3'
p1068
sS'name'
p1069
g1043
ssbsba(issf_api
Chunk
p1070
(dp1071
g191
g1037
sg194
I2
sg255
S'NP'
p1072
sg181
I4
sg182
(lp1073
I88
aI89
asg258
(issf_api
FeatureSet
p1074
(dp1075
g261
(dp1076
S'drel'
p1077
S'ccof:CCP'
p1078
sS'name'
p1079
g1037
ssbsba(issf_api
Chunk
p1080
(dp1081
g191
g1013
sg194
I3
sg255
S'NP'
p1082
sg181
I4
sg182
(lp1083
I90
aI91
asg258
(issf_api
FeatureSet
p1084
(dp1085
g261
(dp1086
S'drel'
p1087
S'ccof:CCP'
p1088
sS'name'
p1089
g1013
ssbsba(issf_api
Chunk
p1090
(dp1091
g191
g983
sg194
I4
sg255
S'NP'
p1092
sg181
I4
sg182
(lp1093
I92
asg258
(issf_api
FeatureSet
p1094
(dp1095
g261
(dp1096
S'drel'
p1097
S'ccof:CCP'
p1098
sS'name'
p1099
g983
ssbsba(issf_api
Chunk
p1100
(dp1101
g191
g971
sg194
I5
sg255
S'CCP'
p1102
sg181
I4
sg182
(lp1103
I93
asg258
(issf_api
FeatureSet
p1104
(dp1105
g261
(dp1106
S'drel'
p1107
S'nmod:NP7'
p1108
sS'name'
p1109
g971
ssbsba(issf_api
Chunk
p1110
(dp1111
g191
g1025
sg194
I6
sg255
S'NP'
p1112
sg181
I4
sg182
(lp1113
I94
asg258
(issf_api
FeatureSet
p1114
(dp1115
g261
(dp1116
S'drel'
p1117
S'ccof:CCP'
p1118
sS'name'
p1119
g1025
ssbsba(issf_api
Chunk
p1120
(dp1121
g191
g1019
sg194
I7
sg255
S'NP'
p1122
sg181
I4
sg182
(lp1123
I95
aI96
asg258
(issf_api
FeatureSet
p1124
(dp1125
g261
(dp1126
S'drel'
p1127
S'r6:NP8'
p1128
sS'name'
p1129
g1019
ssbsba(issf_api
Chunk
p1130
(dp1131
g191
g995
sg194
I8
sg255
S'NP'
p1132
sg181
I4
sg182
(lp1133
I97
aI98
aI99
asg258
(issf_api
FeatureSet
p1134
(dp1135
g261
(dp1136
S'drel'
p1137
S'k1:VGF'
p1138
sS'name'
p1139
g995
ssbsba(issf_api
Chunk
p1140
(dp1141
g191
g961
sg194
I9
sg255
S'VGF'
p1142
sg181
I4
sg182
(lp1143
I100
asg258
(issf_api
FeatureSet
p1144
(dp1145
g261
(dp1146
S'name'
p1147
g961
sS'stype'
p1148
S'declarative'
p1149
sS'voicetype'
p1150
S'active'
p1151
ssbsba(issf_api
Chunk
p1152
(dp1153
g191
g1031
sg194
I10
sg255
S'CCP'
p1154
sg181
I4
sg182
(lp1155
I101
asg258
(issf_api
FeatureSet
p1156
(dp1157
g261
(dp1158
S'drel'
p1159
S'k2:VGF'
p1160
sS'name'
p1161
g1031
ssbsba(issf_api
Chunk
p1162
(dp1163
g191
g989
sg194
I11
sg255
S'NP'
p1164
sg181
I4
sg182
(lp1165
I102
aI103
asg258
(issf_api
FeatureSet
p1166
(dp1167
g261
(dp1168
S'drel'
p1169
S'k7p:VGF2'
p1170
sS'name'
p1171
g989
ssbsba(issf_api
Chunk
p1172
(dp1173
g191
g955
sg194
I12
sg255
S'NP'
p1174
sg181
I4
sg182
(lp1175
I104
aI105
aI106
asg258
(issf_api
FeatureSet
p1176
(dp1177
g261
(dp1178
S'drel'
p1179
S'r6:NP11'
p1180
sS'name'
p1181
g955
ssbsba(issf_api
Chunk
p1182
(dp1183
g191
g949
sg194
I13
sg255
S'NP'
p1184
sg181
I4
sg182
(lp1185
I107
asg258
(issf_api
FeatureSet
p1186
(dp1187
g261
(dp1188
S'drel'
p1189
S'k1:VGF2'
p1190
sS'name'
p1191
g949
ssbsba(issf_api
Chunk
p1192
(dp1193
g191
g977
sg194
I14
sg255
S'RBP'
p1194
sg181
I4
sg182
(lp1195
I108
aI109
asg258
(issf_api
FeatureSet
p1196
(dp1197
g261
(dp1198
S'drel'
p1199
S'adv:VGF2'
p1200
sS'name'
p1201
g977
ssbsba(issf_api
Chunk
p1202
(dp1203
g191
g965
sg194
I15
sg255
S'NP'
p1204
sg181
I4
sg182
(lp1205
I110
asg258
(issf_api
FeatureSet
p1206
(dp1207
g261
(dp1208
S'drel'
p1209
S'pof:VGF2'
p1210
sS'name'
p1211
g965
ssbsba(issf_api
Chunk
p1212
(dp1213
g191
g943
sg194
I16
sg255
S'VGF'
p1214
sg181
I4
sg182
(lp1215
I111
aI112
asg258
(issf_api
FeatureSet
p1216
(dp1217
g261
(dp1218
S'voicetype'
p1219
S"active'"
p1220
sS'drel'
p1221
S'ccof:CCP2'
p1222
sS'stype'
p1223
S'declarative'
p1224
sS'name'
p1225
g943
ssbsba(issf_api
Chunk
p1226
(dp1227
g191
g1001
sg194
I17
sg255
S'BLK'
p1228
sg181
I4
sg182
(lp1229
I113
asg258
(issf_api
FeatureSet
p1230
(dp1231
g261
(dp1232
S'drel'
p1233
S'rsym:VGF'
p1234
sS'name'
p1235
g1001
ssbsbasba(issf_api
Sentence
p1236
(dp1237
g179
(lp1238
sg181
I5
sg182
(lp1239
I114
aI115
aI116
aI117
aI118
aI119
aI120
aI121
aI122
aI123
aI124
aI125
aI126
aI127
aI128
aI129
aI130
aI131
aI132
asg184
(dp1240
S'VGF'
p1241
(issf_api
Node
p1242
(dp1243
g189
g190
sg191
g1241
sg192
g190
sg193
I-1
sg194
I7
sg195
(lp1244
sbsS'NP5'
p1245
(issf_api
Node
p1246
(dp1247
g189
S'k7'
p1248
sg191
g1245
sg192
S'VGF'
p1249
sg193
I-1
sg194
I4
sg195
(lp1250
sbsS'BLK'
p1251
(issf_api
Node
p1252
(dp1253
g189
S'rsym'
p1254
sg191
g1251
sg192
S'VGF'
p1255
sg193
I-1
sg194
I8
sg195
(lp1256
sbsS'NP'
p1257
(issf_api
Node
p1258
(dp1259
g189
S'k7t'
p1260
sg191
g1257
sg192
S'VGF'
p1261
sg193
I-1
sg194
I0
sg195
(lp1262
sbsS'NP4'
p1263
(issf_api
Node
p1264
(dp1265
g189
S'r6'
p1266
sg191
g1263
sg192
S'NP5'
p1267
sg193
I-1
sg194
I3
sg195
(lp1268
sbsS'NP7'
p1269
(issf_api
Node
p1270
(dp1271
g189
S'pof'
p1272
sg191
g1269
sg192
S'VGF'
p1273
sg193
I-1
sg194
I6
sg195
(lp1274
sbsS'NP6'
p1275
(issf_api
Node
p1276
(dp1277
g189
S'r6-k2'
p1278
sg191
g1275
sg192
S'NP7'
p1279
sg193
I-1
sg194
I5
sg195
(lp1280
sbsS'NP3'
p1281
(issf_api
Node
p1282
(dp1283
g189
S'k7p'
p1284
sg191
g1281
sg192
S'VGF'
p1285
sg193
I-1
sg194
I2
sg195
(lp1286
sbsS'NP2'
p1287
(issf_api
Node
p1288
(dp1289
g189
S'r6'
p1290
sg191
g1287
sg192
S'NP3'
p1291
sg193
I-1
sg194
I1
sg195
(lp1292
sbssg251
(lp1293
(issf_api
Chunk
p1294
(dp1295
g191
g1257
sg194
I0
sg255
S'NP'
p1296
sg181
I5
sg182
(lp1297
I114
aI115
aI116
aI117
asg258
(issf_api
FeatureSet
p1298
(dp1299
g261
(dp1300
S'drel'
p1301
S'k7t:VGF'
p1302
sS'name'
p1303
g1257
ssbsba(issf_api
Chunk
p1304
(dp1305
g191
g1287
sg194
I1
sg255
S'NP'
p1306
sg181
I5
sg182
(lp1307
I118
aI119
asg258
(issf_api
FeatureSet
p1308
(dp1309
g261
(dp1310
S'drel'
p1311
S'r6:NP3'
p1312
sS'name'
p1313
g1287
ssbsba(issf_api
Chunk
p1314
(dp1315
g191
g1281
sg194
I2
sg255
S'NP'
p1316
sg181
I5
sg182
(lp1317
I120
aI121
aI122
asg258
(issf_api
FeatureSet
p1318
(dp1319
g261
(dp1320
S'drel'
p1321
S'k7p:VGF'
p1322
sS'name'
p1323
g1281
ssbsba(issf_api
Chunk
p1324
(dp1325
g191
g1263
sg194
I3
sg255
S'NP'
p1326
sg181
I5
sg182
(lp1327
I123
aI124
aI125
asg258
(issf_api
FeatureSet
p1328
(dp1329
g261
(dp1330
S'drel'
p1331
S'r6:NP5'
p1332
sS'name'
p1333
g1263
ssbsba(issf_api
Chunk
p1334
(dp1335
g191
g1245
sg194
I4
sg255
S'NP'
p1336
sg181
I5
sg182
(lp1337
I126
aI127
asg258
(issf_api
FeatureSet
p1338
(dp1339
g261
(dp1340
S'drel'
p1341
S'k7:VGF'
p1342
sS'name'
p1343
g1245
ssbsba(issf_api
Chunk
p1344
(dp1345
g191
g1275
sg194
I5
sg255
S'NP'
p1346
sg181
I5
sg182
(lp1347
I128
asg258
(issf_api
FeatureSet
p1348
(dp1349
g261
(dp1350
S'drel'
p1351
S'r6-k2:NP7'
p1352
sS'name'
p1353
g1275
ssbsba(issf_api
Chunk
p1354
(dp1355
g191
g1269
sg194
I6
sg255
S'NP'
p1356
sg181
I5
sg182
(lp1357
I129
asg258
(issf_api
FeatureSet
p1358
(dp1359
g261
(dp1360
S'drel'
p1361
S'pof:VGF'
p1362
sS'name'
p1363
g1269
ssbsba(issf_api
Chunk
p1364
(dp1365
g191
g1241
sg194
I7
sg255
S'VGF'
p1366
sg181
I5
sg182
(lp1367
I130
aI131
asg258
(issf_api
FeatureSet
p1368
(dp1369
g261
(dp1370
S'name'
p1371
g1241
sS'stype'
p1372
S'declarative'
p1373
sS'voicetype'
p1374
S'active'
p1375
ssbsba(issf_api
Chunk
p1376
(dp1377
g191
g1251
sg194
I8
sg255
S'BLK'
p1378
sg181
I5
sg182
(lp1379
I132
asg258
(issf_api
FeatureSet
p1380
(dp1381
g261
(dp1382
S'drel'
p1383
S'rsym:VGF'
p1384
sS'name'
p1385
g1251
ssbsbasba(issf_api
Sentence
p1386
(dp1387
g179
(lp1388
sg181
I6
sg182
(lp1389
I133
aI134
aI135
aI136
aI137
aI138
aI139
aI140
aI141
aI142
aI143
aI144
aI145
aI146
aI147
aI148
aI149
aI150
asg184
(dp1390
S'VGF'
p1391
(issf_api
Node
p1392
(dp1393
g189
g190
sg191
g1391
sg192
g190
sg193
I-1
sg194
I2
sg195
(lp1394
sbsS'CCP'
p1395
(issf_api
Node
p1396
(dp1397
g189
S'k2'
p1398
sg191
g1395
sg192
S'VGF'
p1399
sg193
I-1
sg194
I3
sg195
(lp1400
sbsS'VGF2'
p1401
(issf_api
Node
p1402
(dp1403
g189
S'ccof'
p1404
sg191
g1401
sg192
S'CCP'
p1405
sg193
I-1
sg194
I6
sg195
(lp1406
sbsS'BLK'
p1407
(issf_api
Node
p1408
(dp1409
g189
S'rsym'
p1410
sg191
g1407
sg192
S'VGF'
p1411
sg193
I-1
sg194
I7
sg195
(lp1412
sbsS'NP'
p1413
(issf_api
Node
p1414
(dp1415
g189
S'sent-adv'
p1416
sg191
g1413
sg192
S'VGF'
p1417
sg193
I-1
sg194
I0
sg195
(lp1418
sbsS'NP4'
p1419
(issf_api
Node
p1420
(dp1421
g189
S'k5'
p1422
sg191
g1419
sg192
S'VGF2'
p1423
sg193
I-1
sg194
I5
sg195
(lp1424
sbsS'NP3'
p1425
(issf_api
Node
p1426
(dp1427
g189
S'k1'
p1428
sg191
g1425
sg192
S'VGF2'
p1429
sg193
I-1
sg194
I4
sg195
(lp1430
sbsS'NP2'
p1431
(issf_api
Node
p1432
(dp1433
g189
S'k1'
p1434
sg191
g1431
sg192
S'VGF'
p1435
sg193
I-1
sg194
I1
sg195
(lp1436
sbssg251
(lp1437
(issf_api
Chunk
p1438
(dp1439
g191
g1413
sg194
I0
sg255
S'NP'
p1440
sg181
I6
sg182
(lp1441
I133
asg258
(issf_api
FeatureSet
p1442
(dp1443
g261
(dp1444
S'drel'
p1445
S'sent-adv:VGF'
p1446
sS'name'
p1447
g1413
ssbsba(issf_api
Chunk
p1448
(dp1449
g191
g1431
sg194
I1
sg255
S'NP'
p1450
sg181
I6
sg182
(lp1451
I134
aI135
aI136
aI137
asg258
(issf_api
FeatureSet
p1452
(dp1453
g261
(dp1454
S'drel'
p1455
S'k1:VGF'
p1456
sS'name'
p1457
g1431
ssbsba(issf_api
Chunk
p1458
(dp1459
g191
g1391
sg194
I2
sg255
S'VGF'
p1460
sg181
I6
sg182
(lp1461
I138
asg258
(issf_api
FeatureSet
p1462
(dp1463
g261
(dp1464
S'name'
p1465
g1391
sS'stype'
p1466
S'declarative'
p1467
sS'voicetype'
p1468
S'active'
p1469
ssbsba(issf_api
Chunk
p1470
(dp1471
g191
g1395
sg194
I3
sg255
S'CCP'
p1472
sg181
I6
sg182
(lp1473
I139
asg258
(issf_api
FeatureSet
p1474
(dp1475
g261
(dp1476
S'drel'
p1477
S'k2:VGF'
p1478
sS'name'
p1479
g1395
ssbsba(issf_api
Chunk
p1480
(dp1481
g191
g1425
sg194
I4
sg255
S'NP'
p1482
sg181
I6
sg182
(lp1483
I140
aI141
aI142
asg258
(issf_api
FeatureSet
p1484
(dp1485
g261
(dp1486
S'drel'
p1487
S'k1:VGF2'
p1488
sS'name'
p1489
g1425
ssbsba(issf_api
Chunk
p1490
(dp1491
g191
g1419
sg194
I5
sg255
S'NP'
p1492
sg181
I6
sg182
(lp1493
I143
aI144
aI145
asg258
(issf_api
FeatureSet
p1494
(dp1495
g261
(dp1496
S'drel'
p1497
S'k5:VGF2'
p1498
sS'name'
p1499
g1419
ssbsba(issf_api
Chunk
p1500
(dp1501
g191
g1401
sg194
I6
sg255
S'VGF'
p1502
sg181
I6
sg182
(lp1503
I146
aI147
aI148
aI149
asg258
(issf_api
FeatureSet
p1504
(dp1505
g261
(dp1506
S'voicetype'
p1507
S"active'"
p1508
sS'drel'
p1509
S'ccof:CCP'
p1510
sS'stype'
p1511
S'declarative'
p1512
sS'name'
p1513
g1401
ssbsba(issf_api
Chunk
p1514
(dp1515
g191
g1407
sg194
I7
sg255
S'BLK'
p1516
sg181
I6
sg182
(lp1517
I150
asg258
(issf_api
FeatureSet
p1518
(dp1519
g261
(dp1520
S'drel'
p1521
S'rsym:VGF'
p1522
sS'name'
p1523
g1407
ssbsbasba(issf_api
Sentence
p1524
(dp1525
g179
(lp1526
sg181
I7
sg182
(lp1527
I151
aI152
aI153
aI154
aI155
aI156
aI157
aI158
aI159
aI160
aI161
aI162
aI163
asg184
(dp1528
S'NP'
p1529
(issf_api
Node
p1530
(dp1531
g189
S'k2'
p1532
sg191
g1529
sg192
S'VGF'
p1533
sg193
I-1
sg194
I0
sg195
(lp1534
sbsS'VGF'
p1535
(issf_api
Node
p1536
(dp1537
g189
g190
sg191
g1535
sg192
g190
sg193
I-1
sg194
I3
sg195
(lp1538
sbsS'BLK'
p1539
(issf_api
Node
p1540
(dp1541
g189
S'rsym'
p1542
sg191
g1539
sg192
S'VGF'
p1543
sg193
I-1
sg194
I4
sg195
(lp1544
sbsS'NP3'
p1545
(issf_api
Node
p1546
(dp1547
g189
S'pof'
p1548
sg191
g1545
sg192
S'VGF'
p1549
sg193
I-1
sg194
I2
sg195
(lp1550
sbsS'NP2'
p1551
(issf_api
Node
p1552
(dp1553
g189
S'r6-k2'
p1554
sg191
g1551
sg192
S'NP3'
p1555
sg193
I-1
sg194
I1
sg195
(lp1556
sbssg251
(lp1557
(issf_api
Chunk
p1558
(dp1559
g191
g1529
sg194
I0
sg255
S'NP'
p1560
sg181
I7
sg182
(lp1561
I151
aI152
aI153
aI154
aI155
asg258
(issf_api
FeatureSet
p1562
(dp1563
g261
(dp1564
S'drel'
p1565
S'k2:VGF'
p1566
sS'name'
p1567
g1529
ssbsba(issf_api
Chunk
p1568
(dp1569
g191
g1551
sg194
I1
sg255
S'NP'
p1570
sg181
I7
sg182
(lp1571
I156
aI157
aI158
asg258
(issf_api
FeatureSet
p1572
(dp1573
g261
(dp1574
S'drel'
p1575
S'r6-k2:NP3'
p1576
sS'name'
p1577
g1551
ssbsba(issf_api
Chunk
p1578
(dp1579
g191
g1545
sg194
I2
sg255
S'NP'
p1580
sg181
I7
sg182
(lp1581
I159
asg258
(issf_api
FeatureSet
p1582
(dp1583
g261
(dp1584
S'drel'
p1585
S'pof:VGF'
p1586
sS'name'
p1587
g1545
ssbsba(issf_api
Chunk
p1588
(dp1589
g191
g1535
sg194
I3
sg255
S'VGF'
p1590
sg181
I7
sg182
(lp1591
I160
aI161
aI162
asg258
(issf_api
FeatureSet
p1592
(dp1593
g261
(dp1594
S'name'
p1595
g1535
sS'stype'
p1596
S'declarative'
p1597
sS'voicetype'
p1598
S'active'
p1599
ssbsba(issf_api
Chunk
p1600
(dp1601
g191
g1539
sg194
I4
sg255
S'BLK'
p1602
sg181
I7
sg182
(lp1603
I163
asg258
(issf_api
FeatureSet
p1604
(dp1605
g261
(dp1606
S'drel'
p1607
S'rsym:VGF'
p1608
sS'name'
p1609
g1539
ssbsbasba(issf_api
Sentence
p1610
(dp1611
g179
(lp1612
sg181
I8
sg182
(lp1613
I164
aI165
aI166
aI167
aI168
aI169
asg184
(dp1614
S'NP'
p1615
(issf_api
Node
p1616
(dp1617
g189
S'k7p'
p1618
sg191
g1615
sg192
S'VGF'
p1619
sg193
I-1
sg194
I0
sg195
(lp1620
sbsS'VGF'
p1621
(issf_api
Node
p1622
(dp1623
g189
g190
sg191
g1621
sg192
g190
sg193
I-1
sg194
I2
sg195
(lp1624
sbsS'BLK'
p1625
(issf_api
Node
p1626
(dp1627
g189
S'rsym'
p1628
sg191
g1625
sg192
S'VGF'
p1629
sg193
I-1
sg194
I3
sg195
(lp1630
sbsS'NP2'
p1631
(issf_api
Node
p1632
(dp1633
g189
S'k1'
p1634
sg191
g1631
sg192
S'VGF'
p1635
sg193
I-1
sg194
I1
sg195
(lp1636
sbssg251
(lp1637
(issf_api
Chunk
p1638
(dp1639
g191
g1615
sg194
I0
sg255
S'NP'
p1640
sg181
I8
sg182
(lp1641
I164
aI165
aI166
asg258
(issf_api
FeatureSet
p1642
(dp1643
g261
(dp1644
S'drel'
p1645
S'k7p:VGF'
p1646
sS'name'
p1647
g1615
ssbsba(issf_api
Chunk
p1648
(dp1649
g191
g1631
sg194
I1
sg255
S'NP'
p1650
sg181
I8
sg182
(lp1651
I167
asg258
(issf_api
FeatureSet
p1652
(dp1653
g261
(dp1654
S'drel'
p1655
S'k1:VGF'
p1656
sS'name'
p1657
g1631
ssbsba(issf_api
Chunk
p1658
(dp1659
g191
g1621
sg194
I2
sg255
S'VGF'
p1660
sg181
I8
sg182
(lp1661
I168
asg258
(issf_api
FeatureSet
p1662
(dp1663
g261
(dp1664
S'name'
p1665
g1621
sS'stype'
p1666
S'declarative'
p1667
sS'voicetype'
p1668
S'active'
p1669
ssbsba(issf_api
Chunk
p1670
(dp1671
g191
g1625
sg194
I3
sg255
S'BLK'
p1672
sg181
I8
sg182
(lp1673
I169
asg258
(issf_api
FeatureSet
p1674
(dp1675
g261
(dp1676
S'drel'
p1677
S'rsym:VGF'
p1678
sS'name'
p1679
g1625
ssbsbasbasS'relationList'
p1680
(lp1681
(iextract_relations
discourseRelation
p1682
(dp1683
S'arg1Trees'
p1684
(lp1685
sS'arg2Sentence'
p1686
(lp1687
sS'arg1Sentence'
p1688
(lp1689
sS'connList'
p1690
(lp1691
I23
asS'isPaired'
p1692
I00
sS'arg1'
p1693
NsS'arg1Span'
p1694
V121..218
p1695
sS'arg2'
p1696
NsS'arg2Trees'
p1697
(lp1698
sS'fileName'
p1699
S'../data/raw/Section_17/fullnews_id_2612812_date_21_7_2004.utf8'
p1700
sS'connTrees'
p1701
(lp1702
sS'arg2List'
p1703
(lp1704
I25
aI26
aI27
aI28
aI29
aI30
aI31
aI32
aI33
aI34
aI35
aI36
aI37
aI38
aI39
aI40
aI41
aI42
aI43
aI44
aI45
aI46
asS'arg2Span'
p1705
V225..322
p1706
sS'sense'
p1707
VComparison.Contrast.Juxtaposition
p1708
sS'relationType'
p1709
VExplicit
p1710
sS'connSpan'
p1711
V220..223
p1712
sS'arg1List'
p1713
(lp1714
I0
aI1
aI2
aI3
aI4
aI5
aI6
aI7
aI8
aI9
aI10
aI11
aI12
aI13
aI14
aI15
aI16
aI17
aI18
aI19
aI20
aI21
asS'conn'
p1715
V\u0909\u0927\u0930
p1716
sba(iextract_relations
discourseRelation
p1717
(dp1718
g1684
(lp1719
sg1686
(lp1720
sg1688
(lp1721
sg1690
(lp1722
sg1692
I00
sg1693
Nsg1694
V252..282
p1723
sg1696
Nsg1697
(lp1724
sg1699
g1700
sg1701
(lp1725
sg1703
(lp1726
sg1705
V284..322
p1727
sg1707
VContingency.Cause.Reason
p1728
sg1709
VImplicit
p1729
sg1711
V
sg1713
(lp1730
sg1715
VkyoMki
p1731
sba(iextract_relations
discourseRelation
p1732
(dp1733
g1684
(lp1734
sg1686
(lp1735
sg1688
(lp1736
sg1690
(lp1737
sg1692
I00
sg1693
Nsg1694
V121..219
p1738
sg1696
Nsg1697
(lp1739
sg1699
g1700
sg1701
(lp1740
sg1703
(lp1741
sg1705
V322..477
p1742
sg1707
VExpansion.Restatement.Specification
p1743
sg1709
VImplicit
p1744
sg1711
V
sg1713
(lp1745
sg1715
Vxarasal
p1746
sba(iextract_relations
discourseRelation
p1747
(dp1748
g1684
(lp1749
sg1686
(lp1750
sg1688
(lp1751
sg1690
(lp1752
I68
asg1692
I00
sg1693
Nsg1694
V369..442
p1753
sg1696
Nsg1697
(lp1754
sg1699
g1700
sg1701
(lp1755
sg1703
(lp1756
I69
aI70
aI71
aI72
aI73
aI74
asg1705
V448..477
p1757
sg1707
VComparison.Contrast.Juxtaposition
p1758
sg1709
VExplicit
p1759
sg1711
V443..447
p1760
sg1713
(lp1761
I56
aI57
aI58
aI59
aI60
aI61
aI62
aI63
aI64
aI65
aI66
aI67
asg1715
V\u091c\u092c\u0915\u093f
p1762
sba(iextract_relations
discourseRelation
p1763
(dp1764
g1684
(lp1765
sg1686
(lp1766
sg1688
(lp1767
sg1690
(lp1768
sg1692
I00
sg1693
Nsg1694
V369..477
p1769
sg1696
Nsg1697
(lp1770
sg1699
g1700
sg1701
(lp1771
sg1703
(lp1772
sg1705
V478..517
p1773
sg1707
S'_Without_sense'
p1774
sg1709
VEntRel
p1775
sg1711
V
sg1713
(lp1776
sg1715
Nsba(iextract_relations
discourseRelation
p1777
(dp1778
g1684
(lp1779
sg1686
(lp1780
sg1688
(lp1781
sg1690
(lp1782
sg1692
I00
sg1693
Nsg1694
V322..517
p1783
sg1696
Nsg1697
(lp1784
sg1699
g1700
sg1701
(lp1785
sg1703
(lp1786
sg1705
V518..656
p1787
sg1707
VComparison.Contrast.Juxtaposition
p1788
sg1709
VImplicit
p1789
sg1711
V
sg1713
(lp1790
sg1715
VxUsarI ora
p1791
sba(iextract_relations
discourseRelation
p1792
(dp1793
g1684
(lp1794
sg1686
(lp1795
sg1688
(lp1796
sg1690
(lp1797
sg1692
I00
sg1693
Nsg1694
V533..656
p1798
sg1696
Nsg1697
(lp1799
sg1699
g1700
sg1701
(lp1800
sg1703
(lp1801
sg1705
V657..749
p1802
sg1707
VContingency.Cause.Reason
p1803
sg1709
VImplicit
p1804
sg1711
V
sg1713
(lp1805
sg1715
VkyoMki
p1806
sba(iextract_relations
discourseRelation
p1807
(dp1808
g1684
(lp1809
sg1686
(lp1810
sg1688
(lp1811
sg1690
(lp1812
I133
aI134
asg1692
I00
sg1693
Nsg1694
V518..748
p1813
sg1696
Nsg1697
(lp1814
sg1699
g1700
sg1701
(lp1815
sg1703
(lp1816
I135
aI136
aI137
aI138
aI139
aI140
aI141
aI142
aI143
aI144
aI145
aI146
aI147
aI148
aI149
aI150
asg1705
V753..828
p1817
sg1707
VComparison.Contrast.Juxtaposition
p1818
sg1709
VExplicit
p1819
sg1711
V750..753
p1820
sg1713
(lp1821
I85
aI86
aI87
aI88
aI89
aI90
aI91
aI92
aI93
aI94
aI95
aI96
aI97
aI98
aI99
aI100
aI101
aI102
aI103
aI104
aI105
aI106
aI107
aI108
aI109
aI110
aI111
aI112
aI113
aI114
aI115
aI116
aI117
aI118
aI119
aI120
aI121
aI122
aI123
aI124
aI125
aI126
aI127
aI128
aI129
aI130
aI131
asg1715
V\u0909\u0927\u0930
p1822
sba(iextract_relations
discourseRelation
p1823
(dp1824
g1684
(lp1825
sg1686
(lp1826
sg1688
(lp1827
sg1690
(lp1828
sg1692
I00
sg1693
Nsg1694
V783..828
p1829
sg1696
Nsg1697
(lp1830
sg1699
g1700
sg1701
(lp1831
sg1703
(lp1832
sg1705
V829..892
p1833
sg1707
VExpansion.Conjunction
p1834
sg1709
VImplicit
p1835
sg1711
V
sg1713
(lp1836
sg1715
VOra
p1837
sba(iextract_relations
discourseRelation
p1838
(dp1839
g1684
(lp1840
sg1686
(lp1841
sg1688
(lp1842
sg1690
(lp1843
sg1692
I00
sg1693
Nsg1694
V829..893
p1844
sg1696
Nsg1697
(lp1845
sg1699
g1700
sg1701
(lp1846
sg1703
(lp1847
sg1705
V894..922
p1848
sg1707
VExpansion.Restatement.Generalization
p1849
sg1709
VImplicit
p1850
sg1711
V
sg1713
(lp1851
sg1715
VisI prakAra
p1852
sbasS'rawData'
p1853
V<DOC>\u000a<DOCNO>fullnews_id_2612812_date_21_7_2004.utf8</DOCNO>\u000a<TEXT>\u000a\u000a\u000a\u092c\u0940\u0921\u0940\u0906\u0930 \u0938\u0902\u092f\u0941\u0915\u094d\u0924 \u0917\u0936\u0924 \u092a\u0930 \u0930\u093e\u091c\u0940\u000a\u000a\u000a\u000a\u092a\u094d\u0930\u0947\u000a\u000a\u0936\u093f\u0932\u093e\u0902\u0917\u0964  \u000a\u000a\u000a\u000a\u000a\u000a\u0938\u0940\u092e\u093e \u0938\u0941\u0930\u0915\u094d\u0937\u093e \u092c\u0932 (\u092c\u0940\u090f\u0938\u090f\u092b) \u0914\u0930 \u092c\u093e\u0902\u0917\u094d\u0932\u093e\u0926\u0947\u0936 \u0930\u093e\u0907\u092b\u0932\u094d\u0938 (\u092c\u0940\u0921\u0940\u0906\u0930) \u0938\u0940\u092e\u093e \u0915\u0947 \u092a\u093e\u0938 \u0938\u0902\u092f\u0941\u0915\u094d\u0924 \u0917\u0936\u0924 \u092a\u0930 \u0930\u093e\u091c\u0940 \u0939\u094b \u0917\u090f \u0939\u0948\u0902\u0964 \u0909\u0927\u0930, \u092c\u0940\u090f\u0938\u090f\u092b \u0928\u0947 \u0936\u0928\u093f\u0935\u093e\u0930 \u0915\u094b \u0915\u0939\u093e \u0915\u093f \u0905\u0902\u0924\u0930\u0930\u093e\u0937\u094d\u091f\u094d\u0930\u0940\u092f \u0938\u0940\u092e\u093e \u092a\u0930 \u0936\u093e\u0902\u0924\u093f \u0939\u0948, \u0915\u093f\u0938\u0940 \u0928\u0947 \u092d\u0940 \u0918\u0941\u0938\u092a\u0948\u0920 \u0915\u0940 \u0915\u094b\u0936\u093f\u0936 \u0928\u0939\u0940\u0902 \u0915\u0940 \u0939\u0948\u0964\u092c\u0940\u090f\u0938\u090f\u092b \u0915\u0947 \u0935\u0930\u093f\u0937\u094d\u0920 \u0905\u0927\u093f\u0915\u093e\u0930\u0940 \u0928\u0947 \u0936\u0928\u093f\u0935\u093e\u0930 \u0915\u094b \u092c\u0924\u093e\u092f\u093e \u0915\u093f \u092a\u094d\u0930\u0938\u094d\u0924\u093e\u0935\u093f\u0924 \u0938\u092e\u091d\u094c\u0924\u0947 \u0915\u0947 \u0924\u0939\u0924 \u092c\u0940\u090f\u0938\u090f\u092b \u0915\u0947 \u091c\u0935\u093e\u0928 \u092d\u093e\u0930\u0924\u0940\u092f \u0915\u094d\u0937\u0947\u0924\u094d\u0930 \u092e\u0947\u0902 \u0928\u093f\u0917\u0930\u093e\u0928\u0940 \u0915\u0930\u0947\u0902\u0917\u0947 \u091c\u092c\u0915\u093f \u092c\u0940\u0921\u0940\u0906\u0930 \u091c\u0935\u093e\u0928 \u0905\u092a\u0928\u0947 \u0915\u094d\u0937\u0947\u0924\u094d\u0930 \u092e\u0947\u0902\u0964 \u0907\u0938 \u092a\u0930 \u0935\u093f\u0938\u094d\u0924\u0943\u0924 \u092f\u094b\u091c\u0928\u093e \u0924\u0948\u092f\u093e\u0930 \u0915\u0940 \u091c\u093e \u0930\u0939\u0940 \u0939\u0948\u0964 \u092f\u0939\u093e\u0902 \u092c\u0940\u090f\u0938\u090f\u092b \u0915\u0947 \u0905\u0938\u092e, \u092e\u0947\u0918\u093e\u0932\u092f, \u092e\u0923\u093f\u092a\u0941\u0930 \u0914\u0930 \u0928\u0917\u093e\u0932\u0948\u0902\u0921 \u092e\u0941\u0916\u094d\u092f\u093e\u0932\u092f \u0915\u0947 \u0935\u0930\u093f\u0937\u094d\u0920 \u0905\u0927\u093f\u0915\u093e\u0930\u0940 \u0928\u0947 \u092c\u0924\u093e\u092f\u093e \u0915\u093f \u0938\u0940\u092e\u093e \u092a\u0930 \u0938\u0902\u092f\u0941\u0915\u094d\u0924 \u0928\u093f\u0917\u0930\u093e\u0928\u0940 \u0915\u093e \u0915\u093e\u092e \u091c\u0932\u094d\u0926 \u0939\u0940 \u0936\u0941\u0930\u0942 \u0939\u094b \u091c\u093e\u090f\u0917\u093e\u0964 \u092a\u093f\u091b\u0932\u0947 \u0967\u096f \u092e\u0908 \u0915\u094b \u092c\u093e\u0902\u0917\u094d\u0932\u093e\u0926\u0947\u0936 \u0915\u0947 \u0924\u093e\u0902\u092c\u093f\u0932 \u0915\u094d\u0937\u0947\u0924\u094d\u0930 \u092e\u0947\u0902 \u0921\u0940\u0906\u0908\u091c\u0940 \u0938\u094d\u0924\u0930 \u0915\u0940 \u092c\u0948\u0920\u0915 \u092e\u0947\u0902 \u0907\u0938\u0915\u093e \u092b\u0948\u0938\u0932\u093e \u0915\u093f\u092f\u093e \u0917\u092f\u093e\u0964 \u0909\u0927\u0930\u090f\u0915 \u0935\u0930\u093f\u0937\u094d\u0920 \u0905\u0927\u093f\u0915\u093e\u0930\u0940 \u0928\u0947 \u092c\u0924\u093e\u092f\u093e \u0915\u093f \u0915\u094b\u0908 \u092d\u0940 \u092c\u093e\u0902\u0917\u094d\u0932\u093e\u0926\u0947\u0936\u0940 \u0938\u0940\u092e\u093e \u092a\u093e\u0930 \u0938\u0947 \u0928\u0939\u0940\u0902 \u0906 \u0930\u0939\u093e \u0939\u0948\u0964 \u092c\u093e\u0902\u0917\u094d\u0932\u093e\u0926\u0947\u0936\u0940 \u0938\u0941\u0930\u0915\u094d\u0937\u093e \u092c\u0932\u094b\u0902 \u0938\u0947 \u092d\u0940 \u0915\u093f\u0938\u0940 \u0924\u0930\u0939 \u0915\u0940 \u0926\u0916\u0932\u0902\u0926\u093e\u091c\u0940 \u0928\u0939\u0940\u0902 \u0939\u0941\u0908 \u0939\u0948\u0964 \u092c\u093e\u0902\u0917\u094d\u0932\u093e\u0926\u0947\u0936 \u0938\u0940\u092e\u093e \u092a\u0930 \u0936\u093e\u0902\u0924\u093f \u0939\u0948\u0964 \u000a\u000a\u000a\u000a\u000a</TEXT>\u000a</DOC>
p1854
sS'rawFileName'
p1855
g1700
sS'rawToAnnMapping'
p1856
(dp1857
I0
(I0
tp1858
sI1
(I1
tp1859
sI2
(I2
tp1860
sI3
(I3
tp1861
sI4
(I4
tp1862
sI5
(I5
tp1863
sI6
(I6
tp1864
sI7
(I7
tp1865
sI8
(I8
tp1866
sI9
(I9
tp1867
sI10
(I10
tp1868
sI11
(I11
tp1869
sI12
(I12
tp1870
sI13
(I13
tp1871
sI14
(I14
tp1872
sI15
(I15
tp1873
sI16
(I16
tp1874
sI17
(I17
tp1875
sI18
(I18
tp1876
sI19
(I19
tp1877
sI20
(I20
tp1878
sI21
(I21
tp1879
sI22
(I22
tp1880
sI23
(I23
tp1881
sI24
(I24
tp1882
sI25
(I25
tp1883
sI26
(I26
tp1884
sI27
(I27
tp1885
sI28
(I28
tp1886
sI29
(I29
tp1887
sI30
(I30
tp1888
sI31
(I31
tp1889
sI32
(I32
tp1890
sI33
(I33
tp1891
sI34
(I34
tp1892
sI35
(I35
tp1893
sI36
(I36
tp1894
sI37
(I37
tp1895
sI38
(I38
tp1896
sI39
(I39
tp1897
sI40
(I40
tp1898
sI41
(I41
tp1899
sI42
(I42
tp1900
sI43
(I43
tp1901
sI44
(I44
tp1902
sI45
(I45
tp1903
sI46
(I46
tp1904
sI47
(I47
tp1905
sI48
(I48
tp1906
sI49
(I49
tp1907
sI50
(I50
tp1908
sI51
(I51
tp1909
sI52
(I52
tp1910
sI53
(I53
tp1911
sI54
(I54
tp1912
sI55
(I55
tp1913
sI56
(I56
tp1914
sI57
(I57
tp1915
sI58
(I58
tp1916
sI59
(I59
tp1917
sI60
(I60
tp1918
sI61
(I61
tp1919
sI62
(I62
tp1920
sI63
(I63
tp1921
sI64
(I64
tp1922
sI65
(I65
tp1923
sI66
(I66
tp1924
sI67
(I67
tp1925
sI68
(I68
tp1926
sI69
(I69
tp1927
sI70
(I70
tp1928
sI71
(I71
tp1929
sI72
(I72
tp1930
sI73
(I73
tp1931
sI74
(I74
tp1932
sI75
(I75
tp1933
sI76
(I76
tp1934
sI77
(I77
tp1935
sI78
(I78
tp1936
sI79
(I79
tp1937
sI80
(I80
tp1938
sI81
(I81
tp1939
sI82
(I82
tp1940
sI83
(I83
tp1941
sI84
(I84
tp1942
sI85
(I85
tp1943
sI86
(I86
tp1944
sI87
(I87
tp1945
sI88
(I88
tp1946
sI89
(I89
tp1947
sI90
(I90
tp1948
sI91
(I91
tp1949
sI92
(I92
tp1950
sI93
(I93
tp1951
sI94
(I94
tp1952
sI95
(I95
tp1953
sI96
(I96
tp1954
sI97
(I97
tp1955
sI98
(I98
tp1956
sI99
(I99
tp1957
sI100
(I100
tp1958
sI101
(I101
tp1959
sI102
(I102
tp1960
sI103
(I103
tp1961
sI104
(I104
tp1962
sI105
(I105
tp1963
sI106
(I106
tp1964
sI107
(I107
tp1965
sI108
(I108
tp1966
sI109
(I109
tp1967
sI110
(I110
tp1968
sI111
(I111
tp1969
sI112
(I112
tp1970
sI113
(I113
tp1971
sI114
(I114
tp1972
sI115
(I115
tp1973
sI116
(I116
tp1974
sI117
(I117
tp1975
sI118
(I118
tp1976
sI119
(I119
tp1977
sI120
(I120
tp1978
sI121
(I121
tp1979
sI122
(I122
tp1980
sI123
(I123
tp1981
sI124
(I124
tp1982
sI125
(I125
tp1983
sI126
(I126
tp1984
sI127
(I127
tp1985
sI128
(I128
tp1986
sI129
(I129
tp1987
sI130
(I130
tp1988
sI131
(I131
tp1989
sI132
(I132
tp1990
sI133
(I133
I134
tp1991
sI134
(I135
tp1992
sI135
(I136
tp1993
sI136
(I137
tp1994
sI137
(I138
tp1995
sI138
(I139
tp1996
sI139
(I140
tp1997
sI140
(I141
tp1998
sI141
(I142
tp1999
sI142
(I143
tp2000
sI143
(I144
tp2001
sI144
(I145
tp2002
sI145
(I146
tp2003
sI146
(I147
tp2004
sI147
(I148
tp2005
sI148
(I149
tp2006
sI149
(I150
tp2007
sI150
(I151
tp2008
sI151
(I152
tp2009
sI152
(I153
tp2010
sI153
(I154
tp2011
sI154
(I155
tp2012
sI155
(I156
tp2013
sI156
(I157
tp2014
sI157
(I158
tp2015
sI158
(I159
tp2016
sI159
(I160
tp2017
sI160
(I161
tp2018
sI161
(I162
tp2019
sI162
(I163
tp2020
sI163
(I164
tp2021
sI164
(I165
tp2022
sI165
(I166
tp2023
sI166
(I167
tp2024
sI167
(I168
tp2025
sI168
(I169
tp2026
ssS'globalWordList'
p2027
(lp2028
(issf_api
Word
p2029
(dp2030
S'splitConn'
p2031
I00
sS'word'
p2032
V\u0938\u0940\u092e\u093e
p2033
sS'extraFeatureSet'
p2034
(issf_api
FeatureSet
p2035
(dp2036
g261
(dp2037
S'posn'
p2038
S'10'
p2039
sS'name'
p2040
S'\xe0\xa4\xb8\xe0\xa5\x80\xe0\xa4\xae\xe0\xa4\xbe'
p2041
sS'drel'
p2042
S'pof__cn:\xe0\xa4\xac\xe0\xa4\xb2'
p2043
sS'chunktype'
p2044
S'child:NP'
p2045
sS'af'
p2046
S'\xe0\xa4\xb8\xe0\xa5\x80\xe0\xa4\xae\xe0\xa4\xbe,n,f,sg,3,d,0,0'
p2047
ssbsg1693
I01
sg1696
I00
sg1707
Nsg1694
Nsg194
I0
sg181
I0
sS'relationNum'
p2048
I0
sg1705
NsS'wordTag'
p2049
S'NNPC'
p2050
sg258
(issf_api
FeatureSet
p2051
(dp2052
g261
(dp2053
S'posn'
p2054
S'10'
p2055
sS'name'
p2056
S'\xe0\xa4\xb8\xe0\xa5\x80\xe0\xa4\xae\xe0\xa4\xbe'
p2057
sS'af'
p2058
S'\xe0\xa4\xb8\xe0\xa5\x80\xe0\xa4\xae\xe0\xa4\xbe,n,f,sg,3,d,0,0'
p2059
ssbsg1715
I00
sba(issf_api
Word
p2060
(dp2061
g2031
I00
sg2032
V\u0938\u0941\u0930\u0915\u094d\u0937\u093e
p2062
sg2034
(issf_api
FeatureSet
p2063
(dp2064
g261
(dp2065
S'posn'
p2066
S'20'
p2067
sS'name'
p2068
S'\xe0\xa4\xb8\xe0\xa5\x81\xe0\xa4\xb0\xe0\xa4\x95\xe0\xa5\x8d\xe0\xa4\xb7\xe0\xa4\xbe'
p2069
sS'drel'
p2070
S'pof__cn:\xe0\xa4\xac\xe0\xa4\xb2'
p2071
sS'chunktype'
p2072
S'child:NP'
p2073
sS'af'
p2074
S'\xe0\xa4\xb8\xe0\xa5\x81\xe0\xa4\xb0\xe0\xa4\x95\xe0\xa5\x8d\xe0\xa4\xb7\xe0\xa4\xbe,n,f,sg,3,d,0,0'
p2075
ssbsg1693
I01
sg1696
I00
sg1707
Nsg1694
Nsg194
I0
sg181
I0
sg2048
I0
sg1705
Nsg2049
S'NNPC'
p2076
sg258
(issf_api
FeatureSet
p2077
(dp2078
g261
(dp2079
S'posn'
p2080
S'20'
p2081
sS'name'
p2082
S'\xe0\xa4\xb8\xe0\xa5\x81\xe0\xa4\xb0\xe0\xa4\x95\xe0\xa5\x8d\xe0\xa4\xb7\xe0\xa4\xbe'
p2083
sS'af'
p2084
S'\xe0\xa4\xb8\xe0\xa5\x81\xe0\xa4\xb0\xe0\xa4\x95\xe0\xa5\x8d\xe0\xa4\xb7\xe0\xa4\xbe,n,f,sg,3,d,0,0'
p2085
ssbsg1715
I00
sba(issf_api
Word
p2086
(dp2087
g2031
I00
sg2032
V\u092c\u0932
p2088
sg2034
(issf_api
FeatureSet
p2089
(dp2090
g261
(dp2091
S'posn'
p2092
S'30'
p2093
sS'name'
p2094
S'\xe0\xa4\xac\xe0\xa4\xb2'
p2095
sS'af'
p2096
S'\xe0\xa4\xac\xe0\xa4\xb2,n,m,sg,3,d,0,0'
p2097
sS'chunkid'
p2098
S'NP'
p2099
sS'drel'
p2100
S'ccof:\xe0\xa4\x94\xe0\xa4\xb0'
p2101
sS'chunktype'
p2102
S'head:NP'
p2103
ssbsg1693
I01
sg1696
I00
sg1707
Nsg1694
Nsg194
I0
sg181
I0
sg2048
I0
sg1705
Nsg2049
S'NNP'
p2104
sg258
(issf_api
FeatureSet
p2105
(dp2106
g261
(dp2107
S'posn'
p2108
S'30'
p2109
sS'name'
p2110
S'\xe0\xa4\xac\xe0\xa4\xb2'
p2111
sS'af'
p2112
S'\xe0\xa4\xac\xe0\xa4\xb2,n,m,sg,3,d,0,0'
p2113
ssbsg1715
I00
sba(issf_api
Word
p2114
(dp2115
g2031
I00
sg2032
V(
sg2034
(issf_api
FeatureSet
p2116
(dp2117
g261
(dp2118
S'posn'
p2119
S'40'
p2120
sS'name'
p2121
S'('
sS'drel'
p2122
S'rsym:\xe0\xa4\xac\xe0\xa5\x80\xe0\xa4\x8f\xe0\xa4\xb8\xe0\xa4\x8f\xe0\xa4\xab'
p2123
sS'chunktype'
p2124
S'child:NP2'
p2125
sS'af'
p2126
S',punc,,,,,,'
p2127
ssbsg1693
I01
sg1696
I00
sg1707
Nsg1694
Nsg194
I1
sg181
I0
sg2048
I0
sg1705
Nsg2049
S'SYM'
p2128
sg258
(issf_api
FeatureSet
p2129
(dp2130
g261
(dp2131
S'posn'
p2132
S'40'
p2133
sS'name'
p2134
S'('
sS'af'
p2135
S',punc,,,,,,'
p2136
ssbsg1715
I00
sba(issf_api
Word
p2137
(dp2138
g2031
I00
sg2032
V\u092c\u0940\u090f\u0938\u090f\u092b
p2139
sg2034
(issf_api
FeatureSet
p2140
(dp2141
g261
(dp2142
S'posn'
p2143
S'50'
p2144
sS'name'
p2145
S'\xe0\xa4\xac\xe0\xa5\x80\xe0\xa4\x8f\xe0\xa4\xb8\xe0\xa4\x8f\xe0\xa4\xab'
p2146
sS'af'
p2147
S'\xe0\xa4\xac\xe0\xa5\x80\xe0\xa4\x8f\xe0\xa4\xb8\xe0\xa4\x8f\xe0\xa4\xab,n,m,sg,3,d,0,0'
p2148
sS'chunkid'
p2149
S'NP2'
p2150
sS'drel'
p2151
S'rs:\xe0\xa4\xac\xe0\xa4\xb2'
p2152
sS'chunktype'
p2153
S'head:NP2'
p2154
ssbsg1693
I01
sg1696
I00
sg1707
Nsg1694
Nsg194
I1
sg181
I0
sg2048
I0
sg1705
Nsg2049
S'NNP'
p2155
sg258
(issf_api
FeatureSet
p2156
(dp2157
g261
(dp2158
S'posn'
p2159
S'50'
p2160
sS'name'
p2161
S'\xe0\xa4\xac\xe0\xa5\x80\xe0\xa4\x8f\xe0\xa4\xb8\xe0\xa4\x8f\xe0\xa4\xab'
p2162
sS'af'
p2163
S'\xe0\xa4\xac\xe0\xa5\x80\xe0\xa4\x8f\xe0\xa4\xb8\xe0\xa4\x8f\xe0\xa4\xab,n,m,sg,3,d,0,0'
p2164
ssbsg1715
I00
sba(issf_api
Word
p2165
(dp2166
g2031
I00
sg2032
V)
sg2034
(issf_api
FeatureSet
p2167
(dp2168
g261
(dp2169
S'posn'
p2170
S'60'
p2171
sS'name'
p2172
S')'
sS'drel'
p2173
S'rsym:\xe0\xa4\xac\xe0\xa5\x80\xe0\xa4\x8f\xe0\xa4\xb8\xe0\xa4\x8f\xe0\xa4\xab'
p2174
sS'chunktype'
p2175
S'child:NP2'
p2176
sS'af'
p2177
S',punc,,,,,,'
p2178
ssbsg1693
I01
sg1696
I00
sg1707
Nsg1694
Nsg194
I1
sg181
I0
sg2048
I0
sg1705
Nsg2049
S'SYM'
p2179
sg258
(issf_api
FeatureSet
p2180
(dp2181
g261
(dp2182
S'posn'
p2183
S'60'
p2184
sS'name'
p2185
S')'
sS'af'
p2186
S',punc,,,,,,'
p2187
ssbsg1715
I00
sba(issf_api
Word
p2188
(dp2189
g2031
I00
sg2032
V\u0914\u0930
p2190
sg2034
(issf_api
FeatureSet
p2191
(dp2192
g261
(dp2193
S'posn'
p2194
S'70'
p2195
sS'name'
p2196
S'\xe0\xa4\x94\xe0\xa4\xb0'
p2197
sS'af'
p2198
S'\xe0\xa4\x94\xe0\xa4\xb0,avy,,,,,,'
p2199
sS'chunkid'
p2200
S'CCP'
p2201
sS'drel'
p2202
S'k1:\xe0\xa4\xb9\xe0\xa5\x8b'
p2203
sS'chunktype'
p2204
S'head:CCP'
p2205
ssbsg1693
I01
sg1696
I00
sg1707
Nsg1694
Nsg194
I2
sg181
I0
sg2048
I0
sg1705
Nsg2049
S'CC'
p2206
sg258
(issf_api
FeatureSet
p2207
(dp2208
g261
(dp2209
S'posn'
p2210
S'70'
p2211
sS'name'
p2212
S'\xe0\xa4\x94\xe0\xa4\xb0'
p2213
sS'af'
p2214
S'\xe0\xa4\x94\xe0\xa4\xb0,avy,,,,,,'
p2215
ssbsg1715
I00
sba(issf_api
Word
p2216
(dp2217
g2031
I00
sg2032
V\u092c\u093e\u0902\u0917\u094d\u0932\u093e\u0926\u0947\u0936
p2218
sg2034
(issf_api
FeatureSet
p2219
(dp2220
g261
(dp2221
S'posn'
p2222
S'80'
p2223
sS'name'
p2224
S'\xe0\xa4\xac\xe0\xa4\xbe\xe0\xa4\x82\xe0\xa4\x97\xe0\xa5\x8d\xe0\xa4\xb2\xe0\xa4\xbe\xe0\xa4\xa6\xe0\xa5\x87\xe0\xa4\xb6'
p2225
sS'drel'
p2226
S'pof__cn:\xe0\xa4\xb0\xe0\xa4\xbe\xe0\xa4\x87\xe0\xa4\xab\xe0\xa4\xb2\xe0\xa5\x8d\xe0\xa4\xb8'
p2227
sS'chunktype'
p2228
S'child:NP3'
p2229
sS'af'
p2230
S'\xe0\xa4\xac\xe0\xa4\xbe\xe0\xa4\x82\xe0\xa4\x97\xe0\xa5\x8d\xe0\xa4\xb2\xe0\xa4\xbe\xe0\xa4\xa6\xe0\xa5\x87\xe0\xa4\xb6,n,m,sg,3,d,0,0'
p2231
ssbsg1693
I01
sg1696
I00
sg1707
Nsg1694
Nsg194
I3
sg181
I0
sg2048
I0
sg1705
Nsg2049
S'NNPC'
p2232
sg258
(issf_api
FeatureSet
p2233
(dp2234
g261
(dp2235
S'posn'
p2236
S'80'
p2237
sS'name'
p2238
S'\xe0\xa4\xac\xe0\xa4\xbe\xe0\xa4\x82\xe0\xa4\x97\xe0\xa5\x8d\xe0\xa4\xb2\xe0\xa4\xbe\xe0\xa4\xa6\xe0\xa5\x87\xe0\xa4\xb6'
p2239
sS'af'
p2240
S'\xe0\xa4\xac\xe0\xa4\xbe\xe0\xa4\x82\xe0\xa4\x97\xe0\xa5\x8d\xe0\xa4\xb2\xe0\xa4\xbe\xe0\xa4\xa6\xe0\xa5\x87\xe0\xa4\xb6,n,m,sg,3,d,0,0'
p2241
ssbsg1715
I00
sba(issf_api
Word
p2242
(dp2243
g2031
I00
sg2032
V\u0930\u093e\u0907\u092b\u0932\u094d\u0938
p2244
sg2034
(issf_api
FeatureSet
p2245
(dp2246
g261
(dp2247
S'posn'
p2248
S'90'
p2249
sS'name'
p2250
S'\xe0\xa4\xb0\xe0\xa4\xbe\xe0\xa4\x87\xe0\xa4\xab\xe0\xa4\xb2\xe0\xa5\x8d\xe0\xa4\xb8'
p2251
sS'af'
p2252
S'\xe0\xa4\xb0\xe0\xa4\xbe\xe0\xa4\x87\xe0\xa4\xab\xe0\xa4\xb2,n,f,pl,3,d,0,0'
p2253
sS'chunkid'
p2254
S'NP3'
p2255
sS'drel'
p2256
S'ccof:\xe0\xa4\x94\xe0\xa4\xb0'
p2257
sS'chunktype'
p2258
S'head:NP3'
p2259
ssbsg1693
I01
sg1696
I00
sg1707
Nsg1694
Nsg194
I3
sg181
I0
sg2048
I0
sg1705
Nsg2049
S'NNP'
p2260
sg258
(issf_api
FeatureSet
p2261
(dp2262
g261
(dp2263
S'posn'
p2264
S'90'
p2265
sS'name'
p2266
S'\xe0\xa4\xb0\xe0\xa4\xbe\xe0\xa4\x87\xe0\xa4\xab\xe0\xa4\xb2\xe0\xa5\x8d\xe0\xa4\xb8'
p2267
sS'af'
p2268
S'\xe0\xa4\xb0\xe0\xa4\xbe\xe0\xa4\x87\xe0\xa4\xab\xe0\xa4\xb2,n,f,pl,3,d,0,0'
p2269
ssbsg1715
I00
sba(issf_api
Word
p2270
(dp2271
g2031
I00
sg2032
V(
sg2034
(issf_api
FeatureSet
p2272
(dp2273
g261
(dp2274
S'posn'
p2275
S'100'
p2276
sS'name'
p2277
S'(2'
p2278
sS'drel'
p2279
S'rsym:\xe0\xa4\xac\xe0\xa5\x80\xe0\xa4\xa1\xe0\xa5\x80\xe0\xa4\x86\xe0\xa4\xb0'
p2280
sS'chunktype'
p2281
S'child:NP4'
p2282
sS'af'
p2283
S',punc,,,,,,'
p2284
ssbsg1693
I01
sg1696
I00
sg1707
Nsg1694
Nsg194
I4
sg181
I0
sg2048
I0
sg1705
Nsg2049
S'SYM'
p2285
sg258
(issf_api
FeatureSet
p2286
(dp2287
g261
(dp2288
S'posn'
p2289
S'100'
p2290
sS'name'
p2291
S'(2'
p2292
sS'af'
p2293
S',punc,,,,,,'
p2294
ssbsg1715
I00
sba(issf_api
Word
p2295
(dp2296
g2031
I00
sg2032
V\u092c\u0940\u0921\u0940\u0906\u0930
p2297
sg2034
(issf_api
FeatureSet
p2298
(dp2299
g261
(dp2300
S'posn'
p2301
S'110'
p2302
sS'name'
p2303
S'\xe0\xa4\xac\xe0\xa5\x80\xe0\xa4\xa1\xe0\xa5\x80\xe0\xa4\x86\xe0\xa4\xb0'
p2304
sS'af'
p2305
S'\xe0\xa4\xac\xe0\xa5\x80\xe0\xa4\xa1\xe0\xa5\x80\xe0\xa4\x86\xe0\xa4\xb0,n,m,sg,3,d,0,0'
p2306
sS'chunkid'
p2307
S'NP4'
p2308
sS'drel'
p2309
S'rs:\xe0\xa4\xb0\xe0\xa4\xbe\xe0\xa4\x87\xe0\xa4\xab\xe0\xa4\xb2\xe0\xa5\x8d\xe0\xa4\xb8'
p2310
sS'chunktype'
p2311
S'head:NP4'
p2312
ssbsg1693
I01
sg1696
I00
sg1707
Nsg1694
Nsg194
I4
sg181
I0
sg2048
I0
sg1705
Nsg2049
S'NNP'
p2313
sg258
(issf_api
FeatureSet
p2314
(dp2315
g261
(dp2316
S'posn'
p2317
S'110'
p2318
sS'name'
p2319
S'\xe0\xa4\xac\xe0\xa5\x80\xe0\xa4\xa1\xe0\xa5\x80\xe0\xa4\x86\xe0\xa4\xb0'
p2320
sS'af'
p2321
S'\xe0\xa4\xac\xe0\xa5\x80\xe0\xa4\xa1\xe0\xa5\x80\xe0\xa4\x86\xe0\xa4\xb0,n,m,sg,3,d,0,0'
p2322
ssbsg1715
I00
sba(issf_api
Word
p2323
(dp2324
g2031
I00
sg2032
V)
sg2034
(issf_api
FeatureSet
p2325
(dp2326
g261
(dp2327
S'posn'
p2328
S'120'
p2329
sS'name'
p2330
S')2'
p2331
sS'drel'
p2332
S'rsym:\xe0\xa4\xac\xe0\xa5\x80\xe0\xa4\xa1\xe0\xa5\x80\xe0\xa4\x86\xe0\xa4\xb0'
p2333
sS'chunktype'
p2334
S'child:NP4'
p2335
sS'af'
p2336
S',punc,,,,,,'
p2337
ssbsg1693
I01
sg1696
I00
sg1707
Nsg1694
Nsg194
I4
sg181
I0
sg2048
I0
sg1705
Nsg2049
S'SYM'
p2338
sg258
(issf_api
FeatureSet
p2339
(dp2340
g261
(dp2341
S'posn'
p2342
S'120'
p2343
sS'name'
p2344
S')2'
p2345
sS'af'
p2346
S',punc,,,,,,'
p2347
ssbsg1715
I00
sba(issf_api
Word
p2348
(dp2349
g2031
I00
sg2032
V\u0938\u0940\u092e\u093e
p2350
sg2034
(issf_api
FeatureSet
p2351
(dp2352
g261
(dp2353
S'posn'
p2354
S'130'
p2355
sS'name'
p2356
S'\xe0\xa4\xb8\xe0\xa5\x80\xe0\xa4\xae\xe0\xa4\xbe2'
p2357
sS'af'
p2358
S'\xe0\xa4\xb8\xe0\xa5\x80\xe0\xa4\xae\xe0\xa4\xbe,n,f,sg,3,o,0_\xe0\xa4\x95\xe0\xa5\x87_\xe0\xa4\xaa\xe0\xa4\xbe\xe0\xa4\xb8,0'
p2359
sS'chunkid'
p2360
S'NP5'
p2361
sS'drel'
p2362
S'k7p:\xe0\xa4\xb9\xe0\xa5\x8b'
p2363
sS'vpos'
p2364
S'vib_2_3'
p2365
sS'chunktype'
p2366
S'head:NP5'
p2367
ssbsg1693
I01
sg1696
I00
sg1707
Nsg1694
Nsg194
I5
sg181
I0
sg2048
I0
sg1705
Nsg2049
S'NN'
p2368
sg258
(issf_api
FeatureSet
p2369
(dp2370
g261
(dp2371
S'posn'
p2372
S'130'
p2373
sS'name'
p2374
S'\xe0\xa4\xb8\xe0\xa5\x80\xe0\xa4\xae\xe0\xa4\xbe2'
p2375
sS'af'
p2376
S'\xe0\xa4\xb8\xe0\xa5\x80\xe0\xa4\xae\xe0\xa4\xbe,n,f,sg,3,o,0,0'
p2377
ssbsg1715
I00
sba(issf_api
Word
p2378
(dp2379
g2031
I00
sg2032
V\u0915\u0947
p2380
sg2034
(issf_api
FeatureSet
p2381
(dp2382
g261
(dp2383
S'posn'
p2384
S'140'
p2385
sS'name'
p2386
S'\xe0\xa4\x95\xe0\xa5\x87'
p2387
sS'drel'
p2388
S'lwg__psp:\xe0\xa4\xb8\xe0\xa5\x80\xe0\xa4\xae\xe0\xa4\xbe2'
p2389
sS'chunktype'
p2390
S'child:NP5'
p2391
sS'af'
p2392
S'\xe0\xa4\x95\xe0\xa5\x87,psp,,,,,,'
p2393
ssbsg1693
I01
sg1696
I00
sg1707
Nsg1694
Nsg194
I5
sg181
I0
sg2048
I0
sg1705
Nsg2049
S'PSP'
p2394
sg258
(issf_api
FeatureSet
p2395
(dp2396
g261
(dp2397
S'posn'
p2398
S'140'
p2399
sS'name'
p2400
S'\xe0\xa4\x95\xe0\xa5\x87'
p2401
sS'af'
p2402
S'\xe0\xa4\x95\xe0\xa5\x87,psp,,,,,,'
p2403
ssbsg1715
I00
sba(issf_api
Word
p2404
(dp2405
g2031
I00
sg2032
V\u092a\u093e\u0938
p2406
sg2034
(issf_api
FeatureSet
p2407
(dp2408
g261
(dp2409
S'posn'
p2410
S'150'
p2411
sS'name'
p2412
S'\xe0\xa4\xaa\xe0\xa4\xbe\xe0\xa4\xb8'
p2413
sS'drel'
p2414
S'lwg__psp:\xe0\xa4\xb8\xe0\xa5\x80\xe0\xa4\xae\xe0\xa4\xbe2'
p2415
sS'chunktype'
p2416
S'child:NP5'
p2417
sS'af'
p2418
S'\xe0\xa4\xaa\xe0\xa4\xbe\xe0\xa4\xb8,nst,m,sg,3,d,,'
p2419
ssbsg1693
I01
sg1696
I00
sg1707
Nsg1694
Nsg194
I5
sg181
I0
sg2048
I0
sg1705
Nsg2049
S'NST'
p2420
sg258
(issf_api
FeatureSet
p2421
(dp2422
g261
(dp2423
S'posn'
p2424
S'150'
p2425
sS'name'
p2426
S'\xe0\xa4\xaa\xe0\xa4\xbe\xe0\xa4\xb8'
p2427
sS'af'
p2428
S'\xe0\xa4\xaa\xe0\xa4\xbe\xe0\xa4\xb8,nst,m,sg,3,d,,'
p2429
ssbsg1715
I00
sba(issf_api
Word
p2430
(dp2431
g2031
I00
sg2032
V\u0938\u0902\u092f\u0941\u0915\u094d\u0924
p2432
sg2034
(issf_api
FeatureSet
p2433
(dp2434
g261
(dp2435
S'posn'
p2436
S'160'
p2437
sS'name'
p2438
S'\xe0\xa4\xb8\xe0\xa4\x82\xe0\xa4\xaf\xe0\xa5\x81\xe0\xa4\x95\xe0\xa5\x8d\xe0\xa4\xa4'
p2439
sS'drel'
p2440
S'nmod__adj:\xe0\xa4\x97\xe0\xa4\xb6\xe0\xa5\x8d\xe0\xa4\xa4'
p2441
sS'chunktype'
p2442
S'child:NP6'
p2443
sS'af'
p2444
S'\xe0\xa4\xb8\xe0\xa4\x82\xe0\xa4\xaf\xe0\xa5\x81\xe0\xa4\x95\xe0\xa5\x8d\xe0\xa4\xa4,adj,any,any,,o,,'
p2445
ssbsg1693
I01
sg1696
I00
sg1707
Nsg1694
Nsg194
I6
sg181
I0
sg2048
I0
sg1705
Nsg2049
S'JJ'
p2446
sg258
(issf_api
FeatureSet
p2447
(dp2448
g261
(dp2449
S'posn'
p2450
S'160'
p2451
sS'name'
p2452
S'\xe0\xa4\xb8\xe0\xa4\x82\xe0\xa4\xaf\xe0\xa5\x81\xe0\xa4\x95\xe0\xa5\x8d\xe0\xa4\xa4'
p2453
sS'af'
p2454
S'\xe0\xa4\xb8\xe0\xa4\x82\xe0\xa4\xaf\xe0\xa5\x81\xe0\xa4\x95\xe0\xa5\x8d\xe0\xa4\xa4,adj,any,any,,o,,'
p2455
ssbsg1715
I00
sba(issf_api
Word
p2456
(dp2457
g2031
I00
sg2032
V\u0917\u0936\u094d\u0924
p2458
sg2034
(issf_api
FeatureSet
p2459
(dp2460
g261
(dp2461
S'posn'
p2462
S'170'
p2463
sS'name'
p2464
S'\xe0\xa4\x97\xe0\xa4\xb6\xe0\xa5\x8d\xe0\xa4\xa4'
p2465
sS'af'
p2466
S'\xe0\xa4\x97\xe0\xa4\xb6\xe0\xa5\x8d\xe0\xa4\xa4,n,f,sg,3,o,0_\xe0\xa4\xaa\xe0\xa4\xb0,0'
p2467
sS'chunkid'
p2468
S'NP6'
p2469
sS'drel'
p2470
S'k7:\xe0\xa4\xb9\xe0\xa5\x8b'
p2471
sS'vpos'
p2472
S'vib_3'
p2473
sS'chunktype'
p2474
S'head:NP6'
p2475
ssbsg1693
I01
sg1696
I00
sg1707
Nsg1694
Nsg194
I6
sg181
I0
sg2048
I0
sg1705
Nsg2049
S'NN'
p2476
sg258
(issf_api
FeatureSet
p2477
(dp2478
g261
(dp2479
S'posn'
p2480
S'170'
p2481
sS'name'
p2482
S'\xe0\xa4\x97\xe0\xa4\xb6\xe0\xa5\x8d\xe0\xa4\xa4'
p2483
sS'af'
p2484
S'\xe0\xa4\x97\xe0\xa4\xb6\xe0\xa5\x8d\xe0\xa4\xa4,n,f,sg,3,o,0,0'
p2485
ssbsg1715
I00
sba(issf_api
Word
p2486
(dp2487
g2031
I00
sg2032
V\u092a\u0930
p2488
sg2034
(issf_api
FeatureSet
p2489
(dp2490
g261
(dp2491
S'posn'
p2492
S'180'
p2493
sS'name'
p2494
S'\xe0\xa4\xaa\xe0\xa4\xb0'
p2495
sS'drel'
p2496
S'lwg__psp:\xe0\xa4\x97\xe0\xa4\xb6\xe0\xa5\x8d\xe0\xa4\xa4'
p2497
sS'chunktype'
p2498
S'child:NP6'
p2499
sS'af'
p2500
S'\xe0\xa4\xaa\xe0\xa4\xb0,psp,,,,,,'
p2501
ssbsg1693
I01
sg1696
I00
sg1707
Nsg1694
Nsg194
I6
sg181
I0
sg2048
I0
sg1705
Nsg2049
S'PSP'
p2502
sg258
(issf_api
FeatureSet
p2503
(dp2504
g261
(dp2505
S'posn'
p2506
S'180'
p2507
sS'name'
p2508
S'\xe0\xa4\xaa\xe0\xa4\xb0'
p2509
sS'af'
p2510
S'\xe0\xa4\xaa\xe0\xa4\xb0,psp,,,,,,'
p2511
ssbsg1715
I00
sba(issf_api
Word
p2512
(dp2513
g2031
I00
sg2032
V\u0930\u093e\u091c\u0940
p2514
sg2034
(issf_api
FeatureSet
p2515
(dp2516
g261
(dp2517
S'posn'
p2518
S'190'
p2519
sS'name'
p2520
S'\xe0\xa4\xb0\xe0\xa4\xbe\xe0\xa4\x9c\xe0\xa5\x80'
p2521
sS'af'
p2522
S'\xe0\xa4\xb0\xe0\xa4\xbe\xe0\xa4\x9c\xe0\xa5\x80,adj,any,any,,,,'
p2523
sS'chunkid'
p2524
S'JJP'
p2525
sS'drel'
p2526
S'pof:\xe0\xa4\xb9\xe0\xa5\x8b'
p2527
sS'chunktype'
p2528
S'head:JJP'
p2529
ssbsg1693
I01
sg1696
I00
sg1707
Nsg1694
Nsg194
I7
sg181
I0
sg2048
I0
sg1705
Nsg2049
S'JJ'
p2530
sg258
(issf_api
FeatureSet
p2531
(dp2532
g261
(dp2533
S'posn'
p2534
S'190'
p2535
sS'name'
p2536
S'\xe0\xa4\xb0\xe0\xa4\xbe\xe0\xa4\x9c\xe0\xa5\x80'
p2537
sS'af'
p2538
S'\xe0\xa4\xb0\xe0\xa4\xbe\xe0\xa4\x9c\xe0\xa5\x80,adj,any,any,,,,'
p2539
ssbsg1715
I00
sba(issf_api
Word
p2540
(dp2541
g2031
I00
sg2032
V\u0939\u094b
p2542
sg2034
(issf_api
FeatureSet
p2543
(dp2544
g261
(dp2545
S'posn'
p2546
S'200'
p2547
sS'name'
p2548
S'\xe0\xa4\xb9\xe0\xa5\x8b'
p2549
sS'af'
p2550
S'\xe0\xa4\xb9\xe0\xa5\x8b,v,m,pl,3,,0_\xe0\xa4\x9c\xe0\xa4\xbe+\xe0\xa4\xaf\xe0\xa4\xbe\xe0\xa5\xa7_\xe0\xa4\xb9\xe0\xa5\x88,0'
p2551
sS'chunkid'
p2552
S'VGF'
p2553
sS'chunktype'
p2554
S'head:VGF'
p2555
sS'voicetype'
p2556
S'active'
p2557
sS'vpos'
p2558
S'tam_2_3'
p2559
sS'stype'
p2560
S'declarative'
p2561
ssbsg1693
I01
sg1696
I00
sg1707
Nsg1694
Nsg194
I8
sg181
I0
sg2048
I0
sg1705
Nsg2049
S'VM'
p2562
sg258
(issf_api
FeatureSet
p2563
(dp2564
g261
(dp2565
S'posn'
p2566
S'200'
p2567
sS'name'
p2568
S'\xe0\xa4\xb9\xe0\xa5\x8b'
p2569
sS'af'
p2570
S'\xe0\xa4\xb9\xe0\xa5\x8b,v,any,any,any,,0,0'
p2571
ssbsg1715
I00
sba(issf_api
Word
p2572
(dp2573
g2031
I00
sg2032
V\u0917\u090f
p2574
sg2034
(issf_api
FeatureSet
p2575
(dp2576
g261
(dp2577
S'posn'
p2578
S'210'
p2579
sS'name'
p2580
S'\xe0\xa4\x97\xe0\xa4\x8f'
p2581
sS'drel'
p2582
S'lwg__vaux:\xe0\xa4\xb9\xe0\xa5\x8b'
p2583
sS'chunktype'
p2584
S'child:VGF'
p2585
sS'af'
p2586
S'\xe0\xa4\x9c\xe0\xa4\xbe,v,m,pl,any,,\xe0\xa4\xaf\xe0\xa4\xbe\xe0\xa5\xa7,yA1'
p2587
ssbsg1693
I01
sg1696
I00
sg1707
Nsg1694
Nsg194
I8
sg181
I0
sg2048
I0
sg1705
Nsg2049
S'VAUX'
p2588
sg258
(issf_api
FeatureSet
p2589
(dp2590
g261
(dp2591
S'posn'
p2592
S'210'
p2593
sS'name'
p2594
S'\xe0\xa4\x97\xe0\xa4\x8f'
p2595
sS'af'
p2596
S'\xe0\xa4\x9c\xe0\xa4\xbe,v,m,pl,any,,\xe0\xa4\xaf\xe0\xa4\xbe\xe0\xa5\xa7,yA1'
p2597
ssbsg1715
I00
sba(issf_api
Word
p2598
(dp2599
g2031
I00
sg2032
V\u0939\u0948\u0902
p2600
sg2034
(issf_api
FeatureSet
p2601
(dp2602
g261
(dp2603
S'posn'
p2604
S'220'
p2605
sS'name'
p2606
S'\xe0\xa4\xb9\xe0\xa5\x88\xe0\xa4\x82'
p2607
sS'drel'
p2608
S'lwg__vaux:\xe0\xa4\xb9\xe0\xa5\x8b'
p2609
sS'chunktype'
p2610
S'child:VGF'
p2611
sS'af'
p2612
S'\xe0\xa4\xb9\xe0\xa5\x88,v,any,pl,3,,\xe0\xa4\xb9\xe0\xa5\x88,hE'
p2613
ssbsg1693
I01
sg1696
I00
sg1707
Nsg1694
Nsg194
I8
sg181
I0
sg2048
I0
sg1705
Nsg2049
S'VAUX'
p2614
sg258
(issf_api
FeatureSet
p2615
(dp2616
g261
(dp2617
S'posn'
p2618
S'220'
p2619
sS'name'
p2620
S'\xe0\xa4\xb9\xe0\xa5\x88\xe0\xa4\x82'
p2621
sS'af'
p2622
S'\xe0\xa4\xb9\xe0\xa5\x88,v,any,pl,3,,\xe0\xa4\xb9\xe0\xa5\x88,hE'
p2623
ssbsg1715
I00
sba(issf_api
Word
p2624
(dp2625
g2031
I00
sg2032
V\u0964
sg2034
(issf_api
FeatureSet
p2626
(dp2627
g261
(dp2628
S'posn'
p2629
S'230'
p2630
sS'name'
p2631
S'\xe0\xa5\xa4'
p2632
sS'af'
p2633
S'\xe0\xa5\xa4,punc,,,,,,'
p2634
sS'chunkid'
p2635
S'BLK'
p2636
sS'drel'
p2637
S'rsym:\xe0\xa4\xb9\xe0\xa5\x8b'
p2638
sS'chunktype'
p2639
S'head:BLK'
p2640
ssbsg1693
I00
sg1696
I00
sg1707
Nsg1694
Nsg194
I9
sg181
I0
sg2048
Nsg1705
Nsg2049
S'SYM'
p2641
sg258
(issf_api
FeatureSet
p2642
(dp2643
g261
(dp2644
S'posn'
p2645
S'230'
p2646
sS'name'
p2647
S'\xe0\xa5\xa4'
p2648
sS'af'
p2649
S'\xe0\xa5\xa4,punc,,,,,,'
p2650
ssbsg1715
I00
sba(issf_api
Word
p2651
(dp2652
g2031
I00
sg2032
V\u0909\u0927\u0930
p2653
sg2034
(issf_api
FeatureSet
p2654
(dp2655
g261
(dp2656
S'posn'
p2657
S'10'
p2658
sS'name'
p2659
S'\xe0\xa4\x89\xe0\xa4\xa7\xe0\xa4\xb0'
p2660
sS'af'
p2661
S'\xe0\xa4\x89\xe0\xa4\xa7\xe0\xa4\xb0,nst,m,sg,3,d,,'
p2662
sS'chunkid'
p2663
S'NP'
p2664
sS'drel'
p2665
S'sent-adv:\xe0\xa4\x95\xe0\xa4\xb9\xe0\xa4\xbe'
p2666
sS'chunktype'
p2667
S'head:NP'
p2668
ssbsg1693
I00
sg1696
I00
sg1707
g1708
sg1694
(lp2669
I0
aI1
aI2
aI3
aI4
aI5
aI6
aI7
aI8
aI9
aI10
aI11
aI12
aI13
aI14
aI15
aI16
aI17
aI18
aI19
aI20
aI21
asg194
I0
sg181
I1
sg2048
I0
sg1705
(lp2670
I25
aI26
aI27
aI28
aI29
aI30
aI31
aI32
aI33
aI34
aI35
aI36
aI37
aI38
aI39
aI40
aI41
aI42
aI43
aI44
aI45
aI46
asg2049
S'NST'
p2671
sg258
(issf_api
FeatureSet
p2672
(dp2673
g261
(dp2674
S'posn'
p2675
S'10'
p2676
sS'name'
p2677
S'\xe0\xa4\x89\xe0\xa4\xa7\xe0\xa4\xb0'
p2678
sS'af'
p2679
S'\xe0\xa4\x89\xe0\xa4\xa7\xe0\xa4\xb0,nst,m,sg,3,d,,'
p2680
ssbsg1715
I01
sba(issf_api
Word
p2681
(dp2682
g2031
I00
sg2032
V,
sg2034
(issf_api
FeatureSet
p2683
(dp2684
g261
(dp2685
S'posn'
p2686
S'20'
p2687
sS'name'
p2688
S','
sS'drel'
p2689
S'rsym:\xe0\xa4\x89\xe0\xa4\xa7\xe0\xa4\xb0'
p2690
sS'chunktype'
p2691
S'child:NP'
p2692
sS'af'
p2693
S'COMMA,punc,,,,,,'
p2694
ssbsg1693
I00
sg1696
I00
sg1707
Nsg1694
Nsg194
I0
sg181
I1
sg2048
Nsg1705
Nsg2049
S'SYM'
p2695
sg258
(issf_api
FeatureSet
p2696
(dp2697
g261
(dp2698
S'posn'
p2699
S'20'
p2700
sS'name'
p2701
S','
sS'af'
p2702
S'COMMA,punc,,,,,,'
p2703
ssbsg1715
I00
sba(issf_api
Word
p2704
(dp2705
g2031
I00
sg2032
V\u092c\u0940\u090f\u0938\u090f\u092b
p2706
sg2034
(issf_api
FeatureSet
p2707
(dp2708
g261
(dp2709
S'posn'
p2710
S'30'
p2711
sS'name'
p2712
S'\xe0\xa4\xac\xe0\xa5\x80\xe0\xa4\x8f\xe0\xa4\xb8\xe0\xa4\x8f\xe0\xa4\xab'
p2713
sS'af'
p2714
S'\xe0\xa4\xac\xe0\xa5\x80\xe0\xa4\x8f\xe0\xa4\xb8\xe0\xa4\x8f\xe0\xa4\xab,n,m,sg,3,o,0_\xe0\xa4\xa8\xe0\xa5\x87,0'
p2715
sS'chunkid'
p2716
S'NP2'
p2717
sS'drel'
p2718
S'k1:\xe0\xa4\x95\xe0\xa4\xb9\xe0\xa4\xbe'
p2719
sS'vpos'
p2720
S'vib_2'
p2721
sS'chunktype'
p2722
S'head:NP2'
p2723
ssbsg1693
I00
sg1696
I01
sg1707
Nsg1694
Nsg194
I1
sg181
I1
sg2048
I0
sg1705
Nsg2049
S'NNP'
p2724
sg258
(issf_api
FeatureSet
p2725
(dp2726
g261
(dp2727
S'posn'
p2728
S'30'
p2729
sS'name'
p2730
S'\xe0\xa4\xac\xe0\xa5\x80\xe0\xa4\x8f\xe0\xa4\xb8\xe0\xa4\x8f\xe0\xa4\xab'
p2731
sS'af'
p2732
S'\xe0\xa4\xac\xe0\xa5\x80\xe0\xa4\x8f\xe0\xa4\xb8\xe0\xa4\x8f\xe0\xa4\xab,n,m,sg,3,o,0,0'
p2733
ssbsg1715
I00
sba(issf_api
Word
p2734
(dp2735
g2031
I00
sg2032
V\u0928\u0947
p2736
sg2034
(issf_api
FeatureSet
p2737
(dp2738
g261
(dp2739
S'posn'
p2740
S'40'
p2741
sS'name'
p2742
S'\xe0\xa4\xa8\xe0\xa5\x87'
p2743
sS'drel'
p2744
S'lwg__psp:\xe0\xa4\xac\xe0\xa5\x80\xe0\xa4\x8f\xe0\xa4\xb8\xe0\xa4\x8f\xe0\xa4\xab'
p2745
sS'chunktype'
p2746
S'child:NP2'
p2747
sS'af'
p2748
S'\xe0\xa4\xa8\xe0\xa5\x87,psp,,,,,,'
p2749
ssbsg1693
I00
sg1696
I01
sg1707
Nsg1694
Nsg194
I1
sg181
I1
sg2048
I0
sg1705
Nsg2049
S'PSP'
p2750
sg258
(issf_api
FeatureSet
p2751
(dp2752
g261
(dp2753
S'posn'
p2754
S'40'
p2755
sS'name'
p2756
S'\xe0\xa4\xa8\xe0\xa5\x87'
p2757
sS'af'
p2758
S'\xe0\xa4\xa8\xe0\xa5\x87,psp,,,,,,'
p2759
ssbsg1715
I00
sba(issf_api
Word
p2760
(dp2761
g2031
I00
sg2032
V\u0936\u0928\u093f\u0935\u093e\u0930
p2762
sg2034
(issf_api
FeatureSet
p2763
(dp2764
g261
(dp2765
S'posn'
p2766
S'50'
p2767
sS'name'
p2768
S'\xe0\xa4\xb6\xe0\xa4\xa8\xe0\xa4\xbf\xe0\xa4\xb5\xe0\xa4\xbe\xe0\xa4\xb0'
p2769
sS'af'
p2770
S'\xe0\xa4\xb6\xe0\xa4\xa8\xe0\xa4\xbf\xe0\xa4\xb5\xe0\xa4\xbe\xe0\xa4\xb0,n,m,sg,3,o,0_\xe0\xa4\x95\xe0\xa5\x8b,0'
p2771
sS'chunkid'
p2772
S'NP3'
p2773
sS'drel'
p2774
S'k7t:\xe0\xa4\x95\xe0\xa4\xb9\xe0\xa4\xbe'
p2775
sS'vpos'
p2776
S'vib_2'
p2777
sS'chunktype'
p2778
S'head:NP3'
p2779
ssbsg1693
I00
sg1696
I01
sg1707
Nsg1694
Nsg194
I2
sg181
I1
sg2048
I0
sg1705
Nsg2049
S'NNP'
p2780
sg258
(issf_api
FeatureSet
p2781
(dp2782
g261
(dp2783
S'posn'
p2784
S'50'
p2785
sS'name'
p2786
S'\xe0\xa4\xb6\xe0\xa4\xa8\xe0\xa4\xbf\xe0\xa4\xb5\xe0\xa4\xbe\xe0\xa4\xb0'
p2787
sS'af'
p2788
S'\xe0\xa4\xb6\xe0\xa4\xa8\xe0\xa4\xbf\xe0\xa4\xb5\xe0\xa4\xbe\xe0\xa4\xb0,n,m,sg,3,o,0,0'
p2789
ssbsg1715
I00
sba(issf_api
Word
p2790
(dp2791
g2031
I00
sg2032
V\u0915\u094b
p2792
sg2034
(issf_api
FeatureSet
p2793
(dp2794
g261
(dp2795
S'posn'
p2796
S'60'
p2797
sS'name'
p2798
S'\xe0\xa4\x95\xe0\xa5\x8b'
p2799
sS'drel'
p2800
S'lwg__psp:\xe0\xa4\xb6\xe0\xa4\xa8\xe0\xa4\xbf\xe0\xa4\xb5\xe0\xa4\xbe\xe0\xa4\xb0'
p2801
sS'chunktype'
p2802
S'child:NP3'
p2803
sS'af'
p2804
S'\xe0\xa4\x95\xe0\xa5\x8b,psp,,,,,,'
p2805
ssbsg1693
I00
sg1696
I01
sg1707
Nsg1694
Nsg194
I2
sg181
I1
sg2048
I0
sg1705
Nsg2049
S'PSP'
p2806
sg258
(issf_api
FeatureSet
p2807
(dp2808
g261
(dp2809
S'posn'
p2810
S'60'
p2811
sS'name'
p2812
S'\xe0\xa4\x95\xe0\xa5\x8b'
p2813
sS'af'
p2814
S'\xe0\xa4\x95\xe0\xa5\x8b,psp,,,,,,'
p2815
ssbsg1715
I00
sba(issf_api
Word
p2816
(dp2817
g2031
I00
sg2032
V\u0915\u0939\u093e
p2818
sg2034
(issf_api
FeatureSet
p2819
(dp2820
g261
(dp2821
S'posn'
p2822
S'70'
p2823
sS'name'
p2824
S'\xe0\xa4\x95\xe0\xa4\xb9\xe0\xa4\xbe'
p2825
sS'af'
p2826
S'\xe0\xa4\x95\xe0\xa4\xb9,v,m,sg,any,,\xe0\xa4\xaf\xe0\xa4\xbe,yA'
p2827
sS'chunkid'
p2828
S'VGF'
p2829
sS'chunktype'
p2830
S'head:VGF'
p2831
sS'voicetype'
p2832
S'active'
p2833
sS'stype'
p2834
S'declarative'
p2835
ssbsg1693
I00
sg1696
I01
sg1707
Nsg1694
Nsg194
I3
sg181
I1
sg2048
I0
sg1705
Nsg2049
S'VM'
p2836
sg258
(issf_api
FeatureSet
p2837
(dp2838
g261
(dp2839
S'posn'
p2840
S'70'
p2841
sS'name'
p2842
S'\xe0\xa4\x95\xe0\xa4\xb9\xe0\xa4\xbe'
p2843
sS'af'
p2844
S'\xe0\xa4\x95\xe0\xa4\xb9,v,m,sg,any,,\xe0\xa4\xaf\xe0\xa4\xbe,yA'
p2845
ssbsg1715
I00
sba(issf_api
Word
p2846
(dp2847
g2031
I00
sg2032
V\u0915\u093f
p2848
sg2034
(issf_api
FeatureSet
p2849
(dp2850
g261
(dp2851
S'posn'
p2852
S'80'
p2853
sS'name'
p2854
S'\xe0\xa4\x95\xe0\xa4\xbf'
p2855
sS'af'
p2856
S'\xe0\xa4\x95\xe0\xa4\xbf,avy,,,,,,'
p2857
sS'chunkid'
p2858
S'CCP'
p2859
sS'drel'
p2860
S'k2:\xe0\xa4\x95\xe0\xa4\xb9\xe0\xa4\xbe'
p2861
sS'chunktype'
p2862
S'head:CCP'
p2863
ssbsg1693
I00
sg1696
I01
sg1707
Nsg1694
Nsg194
I4
sg181
I1
sg2048
I0
sg1705
Nsg2049
S'CC'
p2864
sg258
(issf_api
FeatureSet
p2865
(dp2866
g261
(dp2867
S'posn'
p2868
S'80'
p2869
sS'name'
p2870
S'\xe0\xa4\x95\xe0\xa4\xbf'
p2871
sS'af'
p2872
S'\xe0\xa4\x95\xe0\xa4\xbf,avy,,,,,,'
p2873
ssbsg1715
I00
sba(issf_api
Word
p2874
(dp2875
g2031
I00
sg2032
V\u0905\u0902\u0924\u0930\u094d\u0930\u093e\u0937\u094d\u091f\u094d\u0930\u0940\u092f
p2876
sg2034
(issf_api
FeatureSet
p2877
(dp2878
g261
(dp2879
S'posn'
p2880
S'90'
p2881
sS'name'
p2882
S'\xe0\xa4\x85\xe0\xa4\x82\xe0\xa4\xa4\xe0\xa4\xb0\xe0\xa5\x8d\xe0\xa4\xb0\xe0\xa4\xbe\xe0\xa4\xb7\xe0\xa5\x8d\xe0\xa4\x9f\xe0\xa5\x8d\xe0\xa4\xb0\xe0\xa5\x80\xe0\xa4\xaf'
p2883
sS'drel'
p2884
S'nmod__adj:\xe0\xa4\xb8\xe0\xa5\x80\xe0\xa4\xae\xe0\xa4\xbe'
p2885
sS'chunktype'
p2886
S'child:NP4'
p2887
sS'af'
p2888
S'\xe0\xa4\x85\xe0\xa4\x82\xe0\xa4\xa4\xe0\xa4\xb0\xe0\xa5\x8d\xe0\xa4\xb0\xe0\xa4\xbe\xe0\xa4\xb7\xe0\xa5\x8d\xe0\xa4\x9f\xe0\xa5\x8d\xe0\xa4\xb0\xe0\xa5\x80\xe0\xa4\xaf,adj,any,any,,o,,'
p2889
ssbsg1693
I00
sg1696
I01
sg1707
Nsg1694
Nsg194
I5
sg181
I1
sg2048
I0
sg1705
Nsg2049
S'JJ'
p2890
sg258
(issf_api
FeatureSet
p2891
(dp2892
g261
(dp2893
S'posn'
p2894
S'90'
p2895
sS'name'
p2896
S'\xe0\xa4\x85\xe0\xa4\x82\xe0\xa4\xa4\xe0\xa4\xb0\xe0\xa5\x8d\xe0\xa4\xb0\xe0\xa4\xbe\xe0\xa4\xb7\xe0\xa5\x8d\xe0\xa4\x9f\xe0\xa5\x8d\xe0\xa4\xb0\xe0\xa5\x80\xe0\xa4\xaf'
p2897
sS'af'
p2898
S'\xe0\xa4\x85\xe0\xa4\x82\xe0\xa4\xa4\xe0\xa4\xb0\xe0\xa5\x8d\xe0\xa4\xb0\xe0\xa4\xbe\xe0\xa4\xb7\xe0\xa5\x8d\xe0\xa4\x9f\xe0\xa5\x8d\xe0\xa4\xb0\xe0\xa5\x80\xe0\xa4\xaf,adj,any,any,,o,,'
p2899
ssbsg1715
I00
sba(issf_api
Word
p2900
(dp2901
g2031
I00
sg2032
V\u0938\u0940\u092e\u093e
p2902
sg2034
(issf_api
FeatureSet
p2903
(dp2904
g261
(dp2905
S'posn'
p2906
S'100'
p2907
sS'name'
p2908
S'\xe0\xa4\xb8\xe0\xa5\x80\xe0\xa4\xae\xe0\xa4\xbe'
p2909
sS'af'
p2910
S'\xe0\xa4\xb8\xe0\xa5\x80\xe0\xa4\xae\xe0\xa4\xbe,n,f,sg,3,o,0_\xe0\xa4\xaa\xe0\xa4\xb0,0'
p2911
sS'chunkid'
p2912
S'NP4'
p2913
sS'drel'
p2914
S'k7p:\xe0\xa4\xb9\xe0\xa5\x88'
p2915
sS'vpos'
p2916
S'vib_3'
p2917
sS'chunktype'
p2918
S'head:NP4'
p2919
ssbsg1693
I00
sg1696
I01
sg1707
Nsg1694
Nsg194
I5
sg181
I1
sg2048
I0
sg1705
Nsg2049
S'NN'
p2920
sg258
(issf_api
FeatureSet
p2921
(dp2922
g261
(dp2923
S'posn'
p2924
S'100'
p2925
sS'name'
p2926
S'\xe0\xa4\xb8\xe0\xa5\x80\xe0\xa4\xae\xe0\xa4\xbe'
p2927
sS'af'
p2928
S'\xe0\xa4\xb8\xe0\xa5\x80\xe0\xa4\xae\xe0\xa4\xbe,n,f,sg,3,o,0,0'
p2929
ssbsg1715
I00
sba(issf_api
Word
p2930
(dp2931
g2031
I00
sg2032
V\u092a\u0930
p2932
sg2034
(issf_api
FeatureSet
p2933
(dp2934
g261
(dp2935
S'posn'
p2936
S'110'
p2937
sS'name'
p2938
S'\xe0\xa4\xaa\xe0\xa4\xb0'
p2939
sS'drel'
p2940
S'lwg__psp:\xe0\xa4\xb8\xe0\xa5\x80\xe0\xa4\xae\xe0\xa4\xbe'
p2941
sS'chunktype'
p2942
S'child:NP4'
p2943
sS'af'
p2944
S'\xe0\xa4\xaa\xe0\xa4\xb0,psp,,,,,,'
p2945
ssbsg1693
I00
sg1696
I01
sg1707
Nsg1694
Nsg194
I5
sg181
I1
sg2048
I0
sg1705
Nsg2049
S'PSP'
p2946
sg258
(issf_api
FeatureSet
p2947
(dp2948
g261
(dp2949
S'posn'
p2950
S'110'
p2951
sS'name'
p2952
S'\xe0\xa4\xaa\xe0\xa4\xb0'
p2953
sS'af'
p2954
S'\xe0\xa4\xaa\xe0\xa4\xb0,psp,,,,,,'
p2955
ssbsg1715
I00
sba(issf_api
Word
p2956
(dp2957
g2031
I00
sg2032
V\u0936\u093e\u0902\u0924\u093f
p2958
sg2034
(issf_api
FeatureSet
p2959
(dp2960
g261
(dp2961
S'posn'
p2962
S'120'
p2963
sS'name'
p2964
S'\xe0\xa4\xb6\xe0\xa4\xbe\xe0\xa4\x82\xe0\xa4\xa4\xe0\xa4\xbf'
p2965
sS'af'
p2966
S'\xe0\xa4\xb6\xe0\xa4\xbe\xe0\xa4\xa8\xe0\xa5\x8d\xe0\xa4\xa4\xe0\xa4\xbf,n,f,sg,3,d,0,0'
p2967
sS'chunkid'
p2968
S'NP5'
p2969
sS'drel'
p2970
S'k1:\xe0\xa4\xb9\xe0\xa5\x88'
p2971
sS'chunktype'
p2972
S'head:NP5'
p2973
ssbsg1693
I00
sg1696
I01
sg1707
Nsg1694
Nsg194
I6
sg181
I1
sg2048
I0
sg1705
Nsg2049
S'NN'
p2974
sg258
(issf_api
FeatureSet
p2975
(dp2976
g261
(dp2977
S'posn'
p2978
S'120'
p2979
sS'name'
p2980
S'\xe0\xa4\xb6\xe0\xa4\xbe\xe0\xa4\x82\xe0\xa4\xa4\xe0\xa4\xbf'
p2981
sS'af'
p2982
S'\xe0\xa4\xb6\xe0\xa4\xbe\xe0\xa4\xa8\xe0\xa5\x8d\xe0\xa4\xa4\xe0\xa4\xbf,n,f,sg,3,d,0,0'
p2983
ssbsg1715
I00
sba(issf_api
Word
p2984
(dp2985
g2031
I00
sg2032
V\u0939\u0948
p2986
sg2034
(issf_api
FeatureSet
p2987
(dp2988
g261
(dp2989
S'posn'
p2990
S'130'
p2991
sS'name'
p2992
S'\xe0\xa4\xb9\xe0\xa5\x88'
p2993
sS'af'
p2994
S'\xe0\xa4\xb9\xe0\xa5\x88,v,any,sg,3,,\xe0\xa4\xb9\xe0\xa5\x88,hE'
p2995
sS'chunkid'
p2996
S'VGF2'
p2997
sS'stype'
p2998
S'declarative'
p2999
sS'drel'
p3000
S'ccof:\xe0\xa4\x95\xe0\xa4\xbf'
p3001
sS'voicetype'
p3002
S'active'
p3003
sS'chunktype'
p3004
S'head:VGF2'
p3005
ssbsg1693
I00
sg1696
I01
sg1707
Nsg1694
Nsg194
I7
sg181
I1
sg2048
I0
sg1705
Nsg2049
S'VM'
p3006
sg258
(issf_api
FeatureSet
p3007
(dp3008
g261
(dp3009
S'posn'
p3010
S'130'
p3011
sS'name'
p3012
S'\xe0\xa4\xb9\xe0\xa5\x88'
p3013
sS'af'
p3014
S'\xe0\xa4\xb9\xe0\xa5\x88,v,any,sg,3,,\xe0\xa4\xb9\xe0\xa5\x88,hE'
p3015
ssbsg1715
I00
sba(issf_api
Word
p3016
(dp3017
g2031
I00
sg2032
V,
sg2034
(issf_api
FeatureSet
p3018
(dp3019
g261
(dp3020
S'posn'
p3021
S'140'
p3022
sS'name'
p3023
S',2'
p3024
sS'drel'
p3025
S'rsym:\xe0\xa4\xb9\xe0\xa5\x88'
p3026
sS'chunktype'
p3027
S'child:VGF2'
p3028
sS'af'
p3029
S'COMMA,punc,,,,,,'
p3030
ssbsg1693
I00
sg1696
I01
sg1707
Nsg1694
Nsg194
I7
sg181
I1
sg2048
I0
sg1705
Nsg2049
S'SYM'
p3031
sg258
(issf_api
FeatureSet
p3032
(dp3033
g261
(dp3034
S'posn'
p3035
S'140'
p3036
sS'name'
p3037
S',2'
p3038
sS'af'
p3039
S'COMMA,punc,,,,,,'
p3040
ssbsg1715
I00
sba(issf_api
Word
p3041
(dp3042
g2031
I00
sg2032
V\u0915\u093f\u0938\u0940
p3043
sg2034
(issf_api
FeatureSet
p3044
(dp3045
g261
(dp3046
S'posn'
p3047
S'150'
p3048
sS'name'
p3049
S'\xe0\xa4\x95\xe0\xa4\xbf\xe0\xa4\xb8\xe0\xa5\x80'
p3050
sS'af'
p3051
S'\xe0\xa4\x95\xe0\xa5\x8b\xe0\xa4\x88,pn,any,sg,3,o,0_\xe0\xa4\xa8\xe0\xa5\x87,0'
p3052
sS'chunkid'
p3053
S'NP6'
p3054
sS'drel'
p3055
S'k1:\xe0\xa4\x95\xe0\xa5\x802'
p3056
sS'vpos'
p3057
S'vib_2_RP'
p3058
sS'chunktype'
p3059
S'head:NP6'
p3060
ssbsg1693
I00
sg1696
I01
sg1707
Nsg1694
Nsg194
I8
sg181
I1
sg2048
I0
sg1705
Nsg2049
S'PRP'
p3061
sg258
(issf_api
FeatureSet
p3062
(dp3063
g261
(dp3064
S'posn'
p3065
S'150'
p3066
sS'name'
p3067
S'\xe0\xa4\x95\xe0\xa4\xbf\xe0\xa4\xb8\xe0\xa5\x80'
p3068
sS'af'
p3069
S'\xe0\xa4\x95\xe0\xa5\x8b\xe0\xa4\x88,pn,any,sg,3,o,0,0'
p3070
ssbsg1715
I00
sba(issf_api
Word
p3071
(dp3072
g2031
I00
sg2032
V\u0928\u0947
p3073
sg2034
(issf_api
FeatureSet
p3074
(dp3075
g261
(dp3076
S'posn'
p3077
S'160'
p3078
sS'name'
p3079
S'\xe0\xa4\xa8\xe0\xa5\x872'
p3080
sS'drel'
p3081
S'lwg__psp:\xe0\xa4\x95\xe0\xa4\xbf\xe0\xa4\xb8\xe0\xa5\x80'
p3082
sS'chunktype'
p3083
S'child:NP6'
p3084
sS'af'
p3085
S'\xe0\xa4\xa8\xe0\xa5\x87,psp,,,,,,'
p3086
ssbsg1693
I00
sg1696
I01
sg1707
Nsg1694
Nsg194
I8
sg181
I1
sg2048
I0
sg1705
Nsg2049
S'PSP'
p3087
sg258
(issf_api
FeatureSet
p3088
(dp3089
g261
(dp3090
S'posn'
p3091
S'160'
p3092
sS'name'
p3093
S'\xe0\xa4\xa8\xe0\xa5\x872'
p3094
sS'af'
p3095
S'\xe0\xa4\xa8\xe0\xa5\x87,psp,,,,,,'
p3096
ssbsg1715
I00
sba(issf_api
Word
p3097
(dp3098
g2031
I00
sg2032
V\u092d\u0940
p3099
sg2034
(issf_api
FeatureSet
p3100
(dp3101
g261
(dp3102
S'posn'
p3103
S'170'
p3104
sS'name'
p3105
S'\xe0\xa4\xad\xe0\xa5\x80'
p3106
sS'drel'
p3107
S'lwg__rp:\xe0\xa4\x95\xe0\xa4\xbf\xe0\xa4\xb8\xe0\xa5\x80'
p3108
sS'chunktype'
p3109
S'child:NP6'
p3110
sS'af'
p3111
S'\xe0\xa4\xad\xe0\xa5\x80,avy,,,,,,'
p3112
ssbsg1693
I00
sg1696
I01
sg1707
Nsg1694
Nsg194
I8
sg181
I1
sg2048
I0
sg1705
Nsg2049
S'RP'
p3113
sg258
(issf_api
FeatureSet
p3114
(dp3115
g261
(dp3116
S'posn'
p3117
S'170'
p3118
sS'name'
p3119
S'\xe0\xa4\xad\xe0\xa5\x80'
p3120
sS'af'
p3121
S'\xe0\xa4\xad\xe0\xa5\x80,avy,,,,,,'
p3122
ssbsg1715
I00
sba(issf_api
Word
p3123
(dp3124
g2031
I00
sg2032
V\u0918\u0941\u0938\u092a\u0948\u0920
p3125
sg2034
(issf_api
FeatureSet
p3126
(dp3127
g261
(dp3128
S'posn'
p3129
S'180'
p3130
sS'name'
p3131
S'\xe0\xa4\x98\xe0\xa5\x81\xe0\xa4\xb8\xe0\xa4\xaa\xe0\xa5\x88\xe0\xa4\xa0'
p3132
sS'af'
p3133
S'\xe0\xa4\x98\xe0\xa5\x81\xe0\xa4\xb8\xe0\xa4\xaa\xe0\xa5\x88\xe0\xa4\xa0,n,f,sg,3,o,0_\xe0\xa4\x95\xe0\xa4\xbe,0'
p3134
sS'chunkid'
p3135
S'NP7'
p3136
sS'drel'
p3137
S'r6-k2:\xe0\xa4\x95\xe0\xa5\x8b\xe0\xa4\xb6\xe0\xa4\xbf\xe0\xa4\xb6'
p3138
sS'vpos'
p3139
S'vib_2'
p3140
sS'chunktype'
p3141
S'head:NP7'
p3142
ssbsg1693
I00
sg1696
I01
sg1707
Nsg1694
Nsg194
I9
sg181
I1
sg2048
I0
sg1705
Nsg2049
S'NN'
p3143
sg258
(issf_api
FeatureSet
p3144
(dp3145
g261
(dp3146
S'posn'
p3147
S'180'
p3148
sS'name'
p3149
S'\xe0\xa4\x98\xe0\xa5\x81\xe0\xa4\xb8\xe0\xa4\xaa\xe0\xa5\x88\xe0\xa4\xa0'
p3150
sS'af'
p3151
S'\xe0\xa4\x98\xe0\xa5\x81\xe0\xa4\xb8\xe0\xa4\xaa\xe0\xa5\x88\xe0\xa4\xa0,n,f,sg,3,o,0,0'
p3152
ssbsg1715
I00
sba(issf_api
Word
p3153
(dp3154
g2031
I00
sg2032
V\u0915\u0940
p3155
sg2034
(issf_api
FeatureSet
p3156
(dp3157
g261
(dp3158
S'posn'
p3159
S'190'
p3160
sS'name'
p3161
S'\xe0\xa4\x95\xe0\xa5\x80'
p3162
sS'drel'
p3163
S'lwg__psp:\xe0\xa4\x98\xe0\xa5\x81\xe0\xa4\xb8\xe0\xa4\xaa\xe0\xa5\x88\xe0\xa4\xa0'
p3164
sS'chunktype'
p3165
S'child:NP7'
p3166
sS'af'
p3167
S'\xe0\xa4\x95\xe0\xa4\xbe,psp,f,sg,,d,,'
p3168
ssbsg1693
I00
sg1696
I01
sg1707
Nsg1694
Nsg194
I9
sg181
I1
sg2048
I0
sg1705
Nsg2049
S'PSP'
p3169
sg258
(issf_api
FeatureSet
p3170
(dp3171
g261
(dp3172
S'posn'
p3173
S'190'
p3174
sS'name'
p3175
S'\xe0\xa4\x95\xe0\xa5\x80'
p3176
sS'af'
p3177
S'\xe0\xa4\x95\xe0\xa4\xbe,psp,f,sg,,d,,'
p3178
ssbsg1715
I00
sba(issf_api
Word
p3179
(dp3180
g2031
I00
sg2032
V\u0915\u094b\u0936\u093f\u0936
p3181
sg2034
(issf_api
FeatureSet
p3182
(dp3183
g261
(dp3184
S'posn'
p3185
S'200'
p3186
sS'name'
p3187
S'\xe0\xa4\x95\xe0\xa5\x8b\xe0\xa4\xb6\xe0\xa4\xbf\xe0\xa4\xb6'
p3188
sS'af'
p3189
S'\xe0\xa4\x95\xe0\xa5\x8b\xe0\xa4\xb6\xe0\xa4\xbf\xe0\xa4\xb6,n,f,sg,3,d,0,0'
p3190
sS'chunkid'
p3191
S'NP8'
p3192
sS'drel'
p3193
S'pof:\xe0\xa4\x95\xe0\xa5\x802'
p3194
sS'chunktype'
p3195
S'head:NP8'
p3196
ssbsg1693
I00
sg1696
I01
sg1707
Nsg1694
Nsg194
I10
sg181
I1
sg2048
I0
sg1705
Nsg2049
S'NN'
p3197
sg258
(issf_api
FeatureSet
p3198
(dp3199
g261
(dp3200
S'posn'
p3201
S'200'
p3202
sS'name'
p3203
S'\xe0\xa4\x95\xe0\xa5\x8b\xe0\xa4\xb6\xe0\xa4\xbf\xe0\xa4\xb6'
p3204
sS'af'
p3205
S'\xe0\xa4\x95\xe0\xa5\x8b\xe0\xa4\xb6\xe0\xa4\xbf\xe0\xa4\xb6,n,f,sg,3,d,0,0'
p3206
ssbsg1715
I00
sba(issf_api
Word
p3207
(dp3208
g2031
I00
sg2032
V\u0928\u0939\u0940\u0902
p3209
sg2034
(issf_api
FeatureSet
p3210
(dp3211
g261
(dp3212
S'posn'
p3213
S'210'
p3214
sS'name'
p3215
S'\xe0\xa4\xa8\xe0\xa4\xb9\xe0\xa5\x80\xe0\xa4\x82'
p3216
sS'drel'
p3217
S'lwg__neg:\xe0\xa4\x95\xe0\xa5\x802'
p3218
sS'chunktype'
p3219
S'child:VGF3'
p3220
sS'af'
p3221
S'\xe0\xa4\xa8\xe0\xa4\xb9\xe0\xa5\x80\xe0\xa4\x82,avy,,,,,,'
p3222
ssbsg1693
I00
sg1696
I01
sg1707
Nsg1694
Nsg194
I11
sg181
I1
sg2048
I0
sg1705
Nsg2049
S'NEG'
p3223
sg258
(issf_api
FeatureSet
p3224
(dp3225
g261
(dp3226
S'posn'
p3227
S'210'
p3228
sS'name'
p3229
S'\xe0\xa4\xa8\xe0\xa4\xb9\xe0\xa5\x80\xe0\xa4\x82'
p3230
sS'af'
p3231
S'\xe0\xa4\xa8\xe0\xa4\xb9\xe0\xa5\x80\xe0\xa4\x82,avy,,,,,,'
p3232
ssbsg1715
I00
sba(issf_api
Word
p3233
(dp3234
g2031
I00
sg2032
V\u0915\u0940
p3235
sg2034
(issf_api
FeatureSet
p3236
(dp3237
g261
(dp3238
S'posn'
p3239
S'220'
p3240
sS'name'
p3241
S'\xe0\xa4\x95\xe0\xa5\x802'
p3242
sS'af'
p3243
S'\xe0\xa4\x95\xe0\xa4\xb0,v,f,sg,3,,\xe0\xa4\xaf\xe0\xa4\xbe_\xe0\xa4\xb9\xe0\xa5\x88,yA'
p3244
sS'chunkid'
p3245
S'VGF3'
p3246
sS'stype'
p3247
S'declarative'
p3248
sS'drel'
p3249
S'vmod:\xe0\xa4\xb9\xe0\xa5\x88'
p3250
sS'voicetype'
p3251
S'active'
p3252
sS'vpos'
p3253
S'tam_3'
p3254
sS'chunktype'
p3255
S'head:VGF3'
p3256
ssbsg1693
I00
sg1696
I01
sg1707
Nsg1694
Nsg194
I11
sg181
I1
sg2048
I0
sg1705
Nsg2049
S'VM'
p3257
sg258
(issf_api
FeatureSet
p3258
(dp3259
g261
(dp3260
S'posn'
p3261
S'220'
p3262
sS'name'
p3263
S'\xe0\xa4\x95\xe0\xa5\x802'
p3264
sS'af'
p3265
S'\xe0\xa4\x95\xe0\xa4\xb0,v,f,sg,any,,\xe0\xa4\xaf\xe0\xa4\xbe,yA'
p3266
ssbsg1715
I00
sba(issf_api
Word
p3267
(dp3268
g2031
I00
sg2032
V\u0939\u0948
p3269
sg2034
(issf_api
FeatureSet
p3270
(dp3271
g261
(dp3272
S'posn'
p3273
S'230'
p3274
sS'name'
p3275
S'\xe0\xa4\xb9\xe0\xa5\x882'
p3276
sS'drel'
p3277
S'lwg__vaux:\xe0\xa4\x95\xe0\xa5\x802'
p3278
sS'chunktype'
p3279
S'child:VGF3'
p3280
sS'af'
p3281
S'\xe0\xa4\xb9\xe0\xa5\x88,v,any,sg,3,,\xe0\xa4\xb9\xe0\xa5\x88,hE'
p3282
ssbsg1693
I00
sg1696
I01
sg1707
Nsg1694
Nsg194
I11
sg181
I1
sg2048
I0
sg1705
Nsg2049
S'VAUX'
p3283
sg258
(issf_api
FeatureSet
p3284
(dp3285
g261
(dp3286
S'posn'
p3287
S'230'
p3288
sS'name'
p3289
S'\xe0\xa4\xb9\xe0\xa5\x882'
p3290
sS'af'
p3291
S'\xe0\xa4\xb9\xe0\xa5\x88,v,any,sg,3,,\xe0\xa4\xb9\xe0\xa5\x88,hE'
p3292
ssbsg1715
I00
sba(issf_api
Word
p3293
(dp3294
g2031
I00
sg2032
V\u0964
sg2034
(issf_api
FeatureSet
p3295
(dp3296
g261
(dp3297
S'posn'
p3298
S'240'
p3299
sS'name'
p3300
S'\xe0\xa5\xa4'
p3301
sS'af'
p3302
S'\xe0\xa5\xa4,punc,,,,,,'
p3303
sS'chunkid'
p3304
S'BLK'
p3305
sS'drel'
p3306
S'rsym:\xe0\xa4\x95\xe0\xa4\xb9\xe0\xa4\xbe'
p3307
sS'chunktype'
p3308
S'head:BLK'
p3309
ssbsg1693
I00
sg1696
I01
sg1707
Nsg1694
Nsg194
I12
sg181
I1
sg2048
I0
sg1705
Nsg2049
S'SYM'
p3310
sg258
(issf_api
FeatureSet
p3311
(dp3312
g261
(dp3313
S'posn'
p3314
S'240'
p3315
sS'name'
p3316
S'\xe0\xa5\xa4'
p3317
sS'af'
p3318
S'\xe0\xa5\xa4,punc,,,,,,'
p3319
ssbsg1715
I00
sba(issf_api
Word
p3320
(dp3321
g2031
I00
sg2032
V\u092c\u0940\u090f\u0938\u090f\u092b
p3322
sg2034
(issf_api
FeatureSet
p3323
(dp3324
g261
(dp3325
S'posn'
p3326
S'10'
p3327
sS'name'
p3328
S'\xe0\xa4\xac\xe0\xa5\x80\xe0\xa4\x8f\xe0\xa4\xb8\xe0\xa4\x8f\xe0\xa4\xab'
p3329
sS'af'
p3330
S'\xe0\xa4\xac\xe0\xa5\x80\xe0\xa4\x8f\xe0\xa4\xb8\xe0\xa4\x8f\xe0\xa4\xab,n,m,sg,3,o,0_\xe0\xa4\x95\xe0\xa4\xbe,0'
p3331
sS'chunkid'
p3332
S'NP'
p3333
sS'drel'
p3334
S'r6:\xe0\xa4\x85\xe0\xa4\xa7\xe0\xa4\xbf\xe0\xa4\x95\xe0\xa4\xbe\xe0\xa4\xb0\xe0\xa5\x80'
p3335
sS'vpos'
p3336
S'vib_2'
p3337
sS'chunktype'
p3338
S'head:NP'
p3339
ssbsg1693
I00
sg1696
I00
sg1707
Nsg1694
Nsg194
I0
sg181
I2
sg2048
Nsg1705
Nsg2049
S'NNP'
p3340
sg258
(issf_api
FeatureSet
p3341
(dp3342
g261
(dp3343
S'posn'
p3344
S'10'
p3345
sS'name'
p3346
S'\xe0\xa4\xac\xe0\xa5\x80\xe0\xa4\x8f\xe0\xa4\xb8\xe0\xa4\x8f\xe0\xa4\xab'
p3347
sS'af'
p3348
S'\xe0\xa4\xac\xe0\xa5\x80\xe0\xa4\x8f\xe0\xa4\xb8\xe0\xa4\x8f\xe0\xa4\xab,n,m,sg,3,o,0,0'
p3349
ssbsg1715
I00
sba(issf_api
Word
p3350
(dp3351
g2031
I00
sg2032
V\u0915\u0947
p3352
sg2034
(issf_api
FeatureSet
p3353
(dp3354
g261
(dp3355
S'posn'
p3356
S'20'
p3357
sS'name'
p3358
S'\xe0\xa4\x95\xe0\xa5\x87'
p3359
sS'drel'
p3360
S'lwg__psp:\xe0\xa4\xac\xe0\xa5\x80\xe0\xa4\x8f\xe0\xa4\xb8\xe0\xa4\x8f\xe0\xa4\xab'
p3361
sS'chunktype'
p3362
S'child:NP'
p3363
sS'af'
p3364
S'\xe0\xa4\x95\xe0\xa4\xbe,psp,m,sg,,o,,'
p3365
ssbsg1693
I00
sg1696
I00
sg1707
Nsg1694
Nsg194
I0
sg181
I2
sg2048
Nsg1705
Nsg2049
S'PSP'
p3366
sg258
(issf_api
FeatureSet
p3367
(dp3368
g261
(dp3369
S'posn'
p3370
S'20'
p3371
sS'name'
p3372
S'\xe0\xa4\x95\xe0\xa5\x87'
p3373
sS'af'
p3374
S'\xe0\xa4\x95\xe0\xa4\xbe,psp,m,sg,,o,,'
p3375
ssbsg1715
I00
sba(issf_api
Word
p3376
(dp3377
g2031
I00
sg2032
V\u0935\u0930\u093f\u0937\u094d\u0920
p3378
sg2034
(issf_api
FeatureSet
p3379
(dp3380
g261
(dp3381
S'posn'
p3382
S'30'
p3383
sS'name'
p3384
S'\xe0\xa4\xb5\xe0\xa4\xb0\xe0\xa4\xbf\xe0\xa4\xb7\xe0\xa5\x8d\xe0\xa4\xa0'
p3385
sS'drel'
p3386
S'nmod__adj:\xe0\xa4\x85\xe0\xa4\xa7\xe0\xa4\xbf\xe0\xa4\x95\xe0\xa4\xbe\xe0\xa4\xb0\xe0\xa5\x80'
p3387
sS'chunktype'
p3388
S'child:NP2'
p3389
sS'af'
p3390
S'\xe0\xa4\xb5\xe0\xa4\xb0\xe0\xa4\xbf\xe0\xa4\xb7\xe0\xa5\x8d\xe0\xa4\xa0,adj,any,any,,o,,'
p3391
ssbsg1693
I00
sg1696
I00
sg1707
Nsg1694
Nsg194
I1
sg181
I2
sg2048
Nsg1705
Nsg2049
S'JJ'
p3392
sg258
(issf_api
FeatureSet
p3393
(dp3394
g261
(dp3395
S'posn'
p3396
S'30'
p3397
sS'name'
p3398
S'\xe0\xa4\xb5\xe0\xa4\xb0\xe0\xa4\xbf\xe0\xa4\xb7\xe0\xa5\x8d\xe0\xa4\xa0'
p3399
sS'af'
p3400
S'\xe0\xa4\xb5\xe0\xa4\xb0\xe0\xa4\xbf\xe0\xa4\xb7\xe0\xa5\x8d\xe0\xa4\xa0,adj,any,any,,o,,'
p3401
ssbsg1715
I00
sba(issf_api
Word
p3402
(dp3403
g2031
I00
sg2032
V\u0905\u0927\u093f\u0915\u093e\u0930\u0940
p3404
sg2034
(issf_api
FeatureSet
p3405
(dp3406
g261
(dp3407
S'posn'
p3408
S'40'
p3409
sS'name'
p3410
S'\xe0\xa4\x85\xe0\xa4\xa7\xe0\xa4\xbf\xe0\xa4\x95\xe0\xa4\xbe\xe0\xa4\xb0\xe0\xa5\x80'
p3411
sS'af'
p3412
S'\xe0\xa4\x85\xe0\xa4\xa7\xe0\xa4\xbf\xe0\xa4\x95\xe0\xa4\xbe\xe0\xa4\xb0\xe0\xa5\x80,n,m,sg,3,o,0_\xe0\xa4\xa8\xe0\xa5\x87,0'
p3413
sS'chunkid'
p3414
S'NP2'
p3415
sS'drel'
p3416
S'k1:\xe0\xa4\xac\xe0\xa4\xa4\xe0\xa4\xbe\xe0\xa4\xaf\xe0\xa4\xbe'
p3417
sS'vpos'
p3418
S'vib_3'
p3419
sS'chunktype'
p3420
S'head:NP2'
p3421
ssbsg1693
I00
sg1696
I00
sg1707
Nsg1694
Nsg194
I1
sg181
I2
sg2048
Nsg1705
Nsg2049
S'NN'
p3422
sg258
(issf_api
FeatureSet
p3423
(dp3424
g261
(dp3425
S'posn'
p3426
S'40'
p3427
sS'name'
p3428
S'\xe0\xa4\x85\xe0\xa4\xa7\xe0\xa4\xbf\xe0\xa4\x95\xe0\xa4\xbe\xe0\xa4\xb0\xe0\xa5\x80'
p3429
sS'af'
p3430
S'\xe0\xa4\x85\xe0\xa4\xa7\xe0\xa4\xbf\xe0\xa4\x95\xe0\xa4\xbe\xe0\xa4\xb0\xe0\xa5\x80,n,m,sg,3,o,0,0'
p3431
ssbsg1715
I00
sba(issf_api
Word
p3432
(dp3433
g2031
I00
sg2032
V\u0928\u0947
p3434
sg2034
(issf_api
FeatureSet
p3435
(dp3436
g261
(dp3437
S'posn'
p3438
S'50'
p3439
sS'name'
p3440
S'\xe0\xa4\xa8\xe0\xa5\x87'
p3441
sS'drel'
p3442
S'lwg__psp:\xe0\xa4\x85\xe0\xa4\xa7\xe0\xa4\xbf\xe0\xa4\x95\xe0\xa4\xbe\xe0\xa4\xb0\xe0\xa5\x80'
p3443
sS'chunktype'
p3444
S'child:NP2'
p3445
sS'af'
p3446
S'\xe0\xa4\xa8\xe0\xa5\x87,psp,,,,,,'
p3447
ssbsg1693
I00
sg1696
I00
sg1707
Nsg1694
Nsg194
I1
sg181
I2
sg2048
Nsg1705
Nsg2049
S'PSP'
p3448
sg258
(issf_api
FeatureSet
p3449
(dp3450
g261
(dp3451
S'posn'
p3452
S'50'
p3453
sS'name'
p3454
S'\xe0\xa4\xa8\xe0\xa5\x87'
p3455
sS'af'
p3456
S'\xe0\xa4\xa8\xe0\xa5\x87,psp,,,,,,'
p3457
ssbsg1715
I00
sba(issf_api
Word
p3458
(dp3459
g2031
I00
sg2032
V\u0936\u0928\u093f\u0935\u093e\u0930
p3460
sg2034
(issf_api
FeatureSet
p3461
(dp3462
g261
(dp3463
S'posn'
p3464
S'60'
p3465
sS'name'
p3466
S'\xe0\xa4\xb6\xe0\xa4\xa8\xe0\xa4\xbf\xe0\xa4\xb5\xe0\xa4\xbe\xe0\xa4\xb0'
p3467
sS'af'
p3468
S'\xe0\xa4\xb6\xe0\xa4\xa8\xe0\xa4\xbf\xe0\xa4\xb5\xe0\xa4\xbe\xe0\xa4\xb0,n,m,sg,3,o,0_\xe0\xa4\x95\xe0\xa5\x8b,0'
p3469
sS'chunkid'
p3470
S'NP3'
p3471
sS'drel'
p3472
S'k7t:\xe0\xa4\xac\xe0\xa4\xa4\xe0\xa4\xbe\xe0\xa4\xaf\xe0\xa4\xbe'
p3473
sS'vpos'
p3474
S'vib_2'
p3475
sS'chunktype'
p3476
S'head:NP3'
p3477
ssbsg1693
I00
sg1696
I00
sg1707
Nsg1694
Nsg194
I2
sg181
I2
sg2048
Nsg1705
Nsg2049
S'NNP'
p3478
sg258
(issf_api
FeatureSet
p3479
(dp3480
g261
(dp3481
S'posn'
p3482
S'60'
p3483
sS'name'
p3484
S'\xe0\xa4\xb6\xe0\xa4\xa8\xe0\xa4\xbf\xe0\xa4\xb5\xe0\xa4\xbe\xe0\xa4\xb0'
p3485
sS'af'
p3486
S'\xe0\xa4\xb6\xe0\xa4\xa8\xe0\xa4\xbf\xe0\xa4\xb5\xe0\xa4\xbe\xe0\xa4\xb0,n,m,sg,3,o,0,0'
p3487
ssbsg1715
I00
sba(issf_api
Word
p3488
(dp3489
g2031
I00
sg2032
V\u0915\u094b
p3490
sg2034
(issf_api
FeatureSet
p3491
(dp3492
g261
(dp3493
S'posn'
p3494
S'70'
p3495
sS'name'
p3496
S'\xe0\xa4\x95\xe0\xa5\x8b'
p3497
sS'drel'
p3498
S'lwg__psp:\xe0\xa4\xb6\xe0\xa4\xa8\xe0\xa4\xbf\xe0\xa4\xb5\xe0\xa4\xbe\xe0\xa4\xb0'
p3499
sS'chunktype'
p3500
S'child:NP3'
p3501
sS'af'
p3502
S'\xe0\xa4\x95\xe0\xa5\x8b,psp,,,,,,'
p3503
ssbsg1693
I00
sg1696
I00
sg1707
Nsg1694
Nsg194
I2
sg181
I2
sg2048
Nsg1705
Nsg2049
S'PSP'
p3504
sg258
(issf_api
FeatureSet
p3505
(dp3506
g261
(dp3507
S'posn'
p3508
S'70'
p3509
sS'name'
p3510
S'\xe0\xa4\x95\xe0\xa5\x8b'
p3511
sS'af'
p3512
S'\xe0\xa4\x95\xe0\xa5\x8b,psp,,,,,,'
p3513
ssbsg1715
I00
sba(issf_api
Word
p3514
(dp3515
g2031
I00
sg2032
V\u092c\u0924\u093e\u092f\u093e
p3516
sg2034
(issf_api
FeatureSet
p3517
(dp3518
g261
(dp3519
S'posn'
p3520
S'80'
p3521
sS'name'
p3522
S'\xe0\xa4\xac\xe0\xa4\xa4\xe0\xa4\xbe\xe0\xa4\xaf\xe0\xa4\xbe'
p3523
sS'af'
p3524
S'\xe0\xa4\xac\xe0\xa4\xa4\xe0\xa4\xbe,v,m,sg,any,,\xe0\xa4\xaf\xe0\xa4\xbe,yA'
p3525
sS'chunkid'
p3526
S'VGF'
p3527
sS'chunktype'
p3528
S'head:VGF'
p3529
sS'voicetype'
p3530
S'active'
p3531
sS'stype'
p3532
S'declarative'
p3533
ssbsg1693
I00
sg1696
I00
sg1707
Nsg1694
Nsg194
I3
sg181
I2
sg2048
Nsg1705
Nsg2049
S'VM'
p3534
sg258
(issf_api
FeatureSet
p3535
(dp3536
g261
(dp3537
S'posn'
p3538
S'80'
p3539
sS'name'
p3540
S'\xe0\xa4\xac\xe0\xa4\xa4\xe0\xa4\xbe\xe0\xa4\xaf\xe0\xa4\xbe'
p3541
sS'af'
p3542
S'\xe0\xa4\xac\xe0\xa4\xa4\xe0\xa4\xbe,v,m,sg,any,,\xe0\xa4\xaf\xe0\xa4\xbe,yA'
p3543
ssbsg1715
I00
sba(issf_api
Word
p3544
(dp3545
g2031
I00
sg2032
V\u0915\u093f
p3546
sg2034
(issf_api
FeatureSet
p3547
(dp3548
g261
(dp3549
S'posn'
p3550
S'90'
p3551
sS'name'
p3552
S'\xe0\xa4\x95\xe0\xa4\xbf'
p3553
sS'af'
p3554
S'\xe0\xa4\x95\xe0\xa4\xbf,avy,,,,,,'
p3555
sS'chunkid'
p3556
S'CCP'
p3557
sS'drel'
p3558
S'k2:\xe0\xa4\xac\xe0\xa4\xa4\xe0\xa4\xbe\xe0\xa4\xaf\xe0\xa4\xbe'
p3559
sS'chunktype'
p3560
S'head:CCP'
p3561
ssbsg1693
I00
sg1696
I00
sg1707
Nsg1694
Nsg194
I4
sg181
I2
sg2048
Nsg1705
Nsg2049
S'CC'
p3562
sg258
(issf_api
FeatureSet
p3563
(dp3564
g261
(dp3565
S'posn'
p3566
S'90'
p3567
sS'name'
p3568
S'\xe0\xa4\x95\xe0\xa4\xbf'
p3569
sS'af'
p3570
S'\xe0\xa4\x95\xe0\xa4\xbf,avy,,,,,,'
p3571
ssbsg1715
I00
sba(issf_api
Word
p3572
(dp3573
g2031
I00
sg2032
V\u092a\u094d\u0930\u0938\u094d\u0924\u093e\u0935\u093f\u0924
p3574
sg2034
(issf_api
FeatureSet
p3575
(dp3576
g261
(dp3577
S'posn'
p3578
S'100'
p3579
sS'name'
p3580
S'\xe0\xa4\xaa\xe0\xa5\x8d\xe0\xa4\xb0\xe0\xa4\xb8\xe0\xa5\x8d\xe0\xa4\xa4\xe0\xa4\xbe\xe0\xa4\xb5\xe0\xa4\xbf\xe0\xa4\xa4'
p3581
sS'drel'
p3582
S'nmod__adj:\xe0\xa4\xb8\xe0\xa4\xae\xe0\xa4\x9d\xe0\xa5\x8c\xe0\xa4\xa4\xe0\xa5\x87'
p3583
sS'chunktype'
p3584
S'child:NP4'
p3585
sS'af'
p3586
S'\xe0\xa4\xaa\xe0\xa5\x8d\xe0\xa4\xb0\xe0\xa4\xb8\xe0\xa5\x8d\xe0\xa4\xa4\xe0\xa4\xbe\xe0\xa4\xb5\xe0\xa4\xbf\xe0\xa4\xa4,adj,any,any,,o,,'
p3587
ssbsg1693
I01
sg1696
I00
sg1707
Nsg1694
Nsg194
I5
sg181
I2
sg2048
I1
sg1705
Nsg2049
S'JJ'
p3588
sg258
(issf_api
FeatureSet
p3589
(dp3590
g261
(dp3591
S'posn'
p3592
S'100'
p3593
sS'name'
p3594
S'\xe0\xa4\xaa\xe0\xa5\x8d\xe0\xa4\xb0\xe0\xa4\xb8\xe0\xa5\x8d\xe0\xa4\xa4\xe0\xa4\xbe\xe0\xa4\xb5\xe0\xa4\xbf\xe0\xa4\xa4'
p3595
sS'af'
p3596
S'\xe0\xa4\xaa\xe0\xa5\x8d\xe0\xa4\xb0\xe0\xa4\xb8\xe0\xa5\x8d\xe0\xa4\xa4\xe0\xa4\xbe\xe0\xa4\xb5\xe0\xa4\xbf\xe0\xa4\xa4,adj,any,any,,o,,'
p3597
ssbsg1715
I00
sba(issf_api
Word
p3598
(dp3599
g2031
I00
sg2032
V\u0938\u092e\u091d\u094c\u0924\u0947
p3600
sg2034
(issf_api
FeatureSet
p3601
(dp3602
g261
(dp3603
S'posn'
p3604
S'110'
p3605
sS'name'
p3606
S'\xe0\xa4\xb8\xe0\xa4\xae\xe0\xa4\x9d\xe0\xa5\x8c\xe0\xa4\xa4\xe0\xa5\x87'
p3607
sS'af'
p3608
S'\xe0\xa4\xb8\xe0\xa4\xae\xe0\xa4\x9d\xe0\xa5\x8c\xe0\xa4\xa4\xe0\xa4\xbe,n,m,sg,3,o,0_\xe0\xa4\x95\xe0\xa5\x87_\xe0\xa4\xa4\xe0\xa4\xb9\xe0\xa4\xa4,0'
p3609
sS'chunkid'
p3610
S'NP4'
p3611
sS'drel'
p3612
S'k7a:\xe0\xa4\x95\xe0\xa4\xb0\xe0\xa5\x87\xe0\xa4\x82\xe0\xa4\x97\xe0\xa5\x87'
p3613
sS'vpos'
p3614
S'vib_3_4'
p3615
sS'chunktype'
p3616
S'head:NP4'
p3617
ssbsg1693
I01
sg1696
I00
sg1707
Nsg1694
Nsg194
I5
sg181
I2
sg2048
I1
sg1705
Nsg2049
S'NN'
p3618
sg258
(issf_api
FeatureSet
p3619
(dp3620
g261
(dp3621
S'posn'
p3622
S'110'
p3623
sS'name'
p3624
S'\xe0\xa4\xb8\xe0\xa4\xae\xe0\xa4\x9d\xe0\xa5\x8c\xe0\xa4\xa4\xe0\xa5\x87'
p3625
sS'af'
p3626
S'\xe0\xa4\xb8\xe0\xa4\xae\xe0\xa4\x9d\xe0\xa5\x8c\xe0\xa4\xa4\xe0\xa4\xbe,n,m,sg,3,o,0,0'
p3627
ssbsg1715
I00
sba(issf_api
Word
p3628
(dp3629
g2031
I00
sg2032
V\u0915\u0947
p3630
sg2034
(issf_api
FeatureSet
p3631
(dp3632
g261
(dp3633
S'posn'
p3634
S'120'
p3635
sS'name'
p3636
S'\xe0\xa4\x95\xe0\xa5\x872'
p3637
sS'drel'
p3638
S'lwg__psp:\xe0\xa4\xb8\xe0\xa4\xae\xe0\xa4\x9d\xe0\xa5\x8c\xe0\xa4\xa4\xe0\xa5\x87'
p3639
sS'chunktype'
p3640
S'child:NP4'
p3641
sS'af'
p3642
S'\xe0\xa4\x95\xe0\xa5\x87,psp,,,,,,'
p3643
ssbsg1693
I01
sg1696
I00
sg1707
Nsg1694
Nsg194
I5
sg181
I2
sg2048
I1
sg1705
Nsg2049
S'PSP'
p3644
sg258
(issf_api
FeatureSet
p3645
(dp3646
g261
(dp3647
S'posn'
p3648
S'120'
p3649
sS'name'
p3650
S'\xe0\xa4\x95\xe0\xa5\x872'
p3651
sS'af'
p3652
S'\xe0\xa4\x95\xe0\xa5\x87,psp,,,,,,'
p3653
ssbsg1715
I00
sba(issf_api
Word
p3654
(dp3655
g2031
I00
sg2032
V\u0924\u0939\u0924
p3656
sg2034
(issf_api
FeatureSet
p3657
(dp3658
g261
(dp3659
S'posn'
p3660
S'130'
p3661
sS'name'
p3662
S'\xe0\xa4\xa4\xe0\xa4\xb9\xe0\xa4\xa4'
p3663
sS'drel'
p3664
S'lwg__psp:\xe0\xa4\xb8\xe0\xa4\xae\xe0\xa4\x9d\xe0\xa5\x8c\xe0\xa4\xa4\xe0\xa5\x87'
p3665
sS'chunktype'
p3666
S'child:NP4'
p3667
sS'af'
p3668
S'\xe0\xa4\xa4\xe0\xa4\xb9\xe0\xa4\xa4,psp,,,,,,'
p3669
ssbsg1693
I01
sg1696
I00
sg1707
Nsg1694
Nsg194
I5
sg181
I2
sg2048
I1
sg1705
Nsg2049
S'PSP'
p3670
sg258
(issf_api
FeatureSet
p3671
(dp3672
g261
(dp3673
S'posn'
p3674
S'130'
p3675
sS'name'
p3676
S'\xe0\xa4\xa4\xe0\xa4\xb9\xe0\xa4\xa4'
p3677
sS'af'
p3678
S'\xe0\xa4\xa4\xe0\xa4\xb9\xe0\xa4\xa4,psp,,,,,,'
p3679
ssbsg1715
I00
sba(issf_api
Word
p3680
(dp3681
g2031
I00
sg2032
V\u092c\u0940\u090f\u0938\u090f\u092b
p3682
sg2034
(issf_api
FeatureSet
p3683
(dp3684
g261
(dp3685
S'posn'
p3686
S'140'
p3687
sS'name'
p3688
S'\xe0\xa4\xac\xe0\xa5\x80\xe0\xa4\x8f\xe0\xa4\xb8\xe0\xa4\x8f\xe0\xa4\xab2'
p3689
sS'af'
p3690
S'\xe0\xa4\xac\xe0\xa5\x80\xe0\xa4\x8f\xe0\xa4\xb8\xe0\xa4\x8f\xe0\xa4\xab,n,m,sg,3,o,0_\xe0\xa4\x95\xe0\xa4\xbe,0'
p3691
sS'chunkid'
p3692
S'NP5'
p3693
sS'drel'
p3694
S'r6:\xe0\xa4\x9c\xe0\xa4\xb5\xe0\xa4\xbe\xe0\xa4\xa8'
p3695
sS'vpos'
p3696
S'vib_2'
p3697
sS'chunktype'
p3698
S'head:NP5'
p3699
ssbsg1693
I01
sg1696
I00
sg1707
Nsg1694
Nsg194
I6
sg181
I2
sg2048
I1
sg1705
Nsg2049
S'NNP'
p3700
sg258
(issf_api
FeatureSet
p3701
(dp3702
g261
(dp3703
S'posn'
p3704
S'140'
p3705
sS'name'
p3706
S'\xe0\xa4\xac\xe0\xa5\x80\xe0\xa4\x8f\xe0\xa4\xb8\xe0\xa4\x8f\xe0\xa4\xab2'
p3707
sS'af'
p3708
S'\xe0\xa4\xac\xe0\xa5\x80\xe0\xa4\x8f\xe0\xa4\xb8\xe0\xa4\x8f\xe0\xa4\xab,n,m,sg,3,o,0,0'
p3709
ssbsg1715
I00
sba(issf_api
Word
p3710
(dp3711
g2031
I00
sg2032
V\u0915\u0947
p3712
sg2034
(issf_api
FeatureSet
p3713
(dp3714
g261
(dp3715
S'posn'
p3716
S'150'
p3717
sS'name'
p3718
S'\xe0\xa4\x95\xe0\xa5\x873'
p3719
sS'drel'
p3720
S'lwg__psp:\xe0\xa4\xac\xe0\xa5\x80\xe0\xa4\x8f\xe0\xa4\xb8\xe0\xa4\x8f\xe0\xa4\xab2'
p3721
sS'chunktype'
p3722
S'child:NP5'
p3723
sS'af'
p3724
S'\xe0\xa4\x95\xe0\xa4\xbe,psp,m,pl,,d,,'
p3725
ssbsg1693
I01
sg1696
I00
sg1707
Nsg1694
Nsg194
I6
sg181
I2
sg2048
I1
sg1705
Nsg2049
S'PSP'
p3726
sg258
(issf_api
FeatureSet
p3727
(dp3728
g261
(dp3729
S'posn'
p3730
S'150'
p3731
sS'name'
p3732
S'\xe0\xa4\x95\xe0\xa5\x873'
p3733
sS'af'
p3734
S'\xe0\xa4\x95\xe0\xa4\xbe,psp,m,pl,,d,,'
p3735
ssbsg1715
I00
sba(issf_api
Word
p3736
(dp3737
g2031
I00
sg2032
V\u091c\u0935\u093e\u0928
p3738
sg2034
(issf_api
FeatureSet
p3739
(dp3740
g261
(dp3741
S'posn'
p3742
S'160'
p3743
sS'name'
p3744
S'\xe0\xa4\x9c\xe0\xa4\xb5\xe0\xa4\xbe\xe0\xa4\xa8'
p3745
sS'af'
p3746
S'\xe0\xa4\x9c\xe0\xa4\xb5\xe0\xa4\xbe\xe0\xa4\xa8,n,m,pl,3,d,0,0'
p3747
sS'chunkid'
p3748
S'NP6'
p3749
sS'drel'
p3750
S'k1:\xe0\xa4\x95\xe0\xa4\xb0\xe0\xa5\x87\xe0\xa4\x82\xe0\xa4\x97\xe0\xa5\x87'
p3751
sS'chunktype'
p3752
S'head:NP6'
p3753
ssbsg1693
I01
sg1696
I00
sg1707
Nsg1694
Nsg194
I7
sg181
I2
sg2048
I1
sg1705
Nsg2049
S'NN'
p3754
sg258
(issf_api
FeatureSet
p3755
(dp3756
g261
(dp3757
S'posn'
p3758
S'160'
p3759
sS'name'
p3760
S'\xe0\xa4\x9c\xe0\xa4\xb5\xe0\xa4\xbe\xe0\xa4\xa8'
p3761
sS'af'
p3762
S'\xe0\xa4\x9c\xe0\xa4\xb5\xe0\xa4\xbe\xe0\xa4\xa8,n,m,pl,3,d,0,0'
p3763
ssbsg1715
I00
sba(issf_api
Word
p3764
(dp3765
g2031
I00
sg2032
V\u092d\u093e\u0930\u0924\u0940\u092f
p3766
sg2034
(issf_api
FeatureSet
p3767
(dp3768
g261
(dp3769
S'posn'
p3770
S'170'
p3771
sS'name'
p3772
S'\xe0\xa4\xad\xe0\xa4\xbe\xe0\xa4\xb0\xe0\xa4\xa4\xe0\xa5\x80\xe0\xa4\xaf'
p3773
sS'drel'
p3774
S'nmod__adj:\xe0\xa4\x95\xe0\xa5\x8d\xe0\xa4\xb7\xe0\xa5\x87\xe0\xa4\xa4\xe0\xa5\x8d\xe0\xa4\xb0'
p3775
sS'chunktype'
p3776
S'child:NP7'
p3777
sS'af'
p3778
S'\xe0\xa4\xad\xe0\xa4\xbe\xe0\xa4\xb0\xe0\xa4\xa4\xe0\xa5\x80\xe0\xa4\xaf,adj,any,any,,o,,'
p3779
ssbsg1693
I01
sg1696
I00
sg1707
Nsg1694
Nsg194
I8
sg181
I2
sg2048
I1
sg1705
Nsg2049
S'JJ'
p3780
sg258
(issf_api
FeatureSet
p3781
(dp3782
g261
(dp3783
S'posn'
p3784
S'170'
p3785
sS'name'
p3786
S'\xe0\xa4\xad\xe0\xa4\xbe\xe0\xa4\xb0\xe0\xa4\xa4\xe0\xa5\x80\xe0\xa4\xaf'
p3787
sS'af'
p3788
S'\xe0\xa4\xad\xe0\xa4\xbe\xe0\xa4\xb0\xe0\xa4\xa4\xe0\xa5\x80\xe0\xa4\xaf,adj,any,any,,o,,'
p3789
ssbsg1715
I00
sba(issf_api
Word
p3790
(dp3791
g2031
I00
sg2032
V\u0915\u094d\u0937\u0947\u0924\u094d\u0930
p3792
sg2034
(issf_api
FeatureSet
p3793
(dp3794
g261
(dp3795
S'posn'
p3796
S'180'
p3797
sS'name'
p3798
S'\xe0\xa4\x95\xe0\xa5\x8d\xe0\xa4\xb7\xe0\xa5\x87\xe0\xa4\xa4\xe0\xa5\x8d\xe0\xa4\xb0'
p3799
sS'af'
p3800
S'\xe0\xa4\x95\xe0\xa5\x8d\xe0\xa4\xb7\xe0\xa5\x87\xe0\xa4\xa4\xe0\xa5\x8d\xe0\xa4\xb0,n,m,sg,3,o,0_\xe0\xa4\xae\xe0\xa5\x87\xe0\xa4\x82,0'
p3801
sS'chunkid'
p3802
S'NP7'
p3803
sS'drel'
p3804
S'k7p:\xe0\xa4\x95\xe0\xa4\xb0\xe0\xa5\x87\xe0\xa4\x82\xe0\xa4\x97\xe0\xa5\x87'
p3805
sS'vpos'
p3806
S'vib_3'
p3807
sS'chunktype'
p3808
S'head:NP7'
p3809
ssbsg1693
I01
sg1696
I00
sg1707
Nsg1694
Nsg194
I8
sg181
I2
sg2048
I1
sg1705
Nsg2049
S'NN'
p3810
sg258
(issf_api
FeatureSet
p3811
(dp3812
g261
(dp3813
S'posn'
p3814
S'180'
p3815
sS'name'
p3816
S'\xe0\xa4\x95\xe0\xa5\x8d\xe0\xa4\xb7\xe0\xa5\x87\xe0\xa4\xa4\xe0\xa5\x8d\xe0\xa4\xb0'
p3817
sS'af'
p3818
S'\xe0\xa4\x95\xe0\xa5\x8d\xe0\xa4\xb7\xe0\xa5\x87\xe0\xa4\xa4\xe0\xa5\x8d\xe0\xa4\xb0,n,m,sg,3,o,0,0'
p3819
ssbsg1715
I00
sba(issf_api
Word
p3820
(dp3821
g2031
I00
sg2032
V\u092e\u0947\u0902
p3822
sg2034
(issf_api
FeatureSet
p3823
(dp3824
g261
(dp3825
S'posn'
p3826
S'190'
p3827
sS'name'
p3828
S'\xe0\xa4\xae\xe0\xa5\x87\xe0\xa4\x82'
p3829
sS'drel'
p3830
S'lwg__psp:\xe0\xa4\x95\xe0\xa5\x8d\xe0\xa4\xb7\xe0\xa5\x87\xe0\xa4\xa4\xe0\xa5\x8d\xe0\xa4\xb0'
p3831
sS'chunktype'
p3832
S'child:NP7'
p3833
sS'af'
p3834
S'\xe0\xa4\xae\xe0\xa5\x87\xe0\xa4\x82,psp,,,,,,'
p3835
ssbsg1693
I01
sg1696
I00
sg1707
Nsg1694
Nsg194
I8
sg181
I2
sg2048
I1
sg1705
Nsg2049
S'PSP'
p3836
sg258
(issf_api
FeatureSet
p3837
(dp3838
g261
(dp3839
S'posn'
p3840
S'190'
p3841
sS'name'
p3842
S'\xe0\xa4\xae\xe0\xa5\x87\xe0\xa4\x82'
p3843
sS'af'
p3844
S'\xe0\xa4\xae\xe0\xa5\x87\xe0\xa4\x82,psp,,,,,,'
p3845
ssbsg1715
I00
sba(issf_api
Word
p3846
(dp3847
g2031
I00
sg2032
V\u0928\u093f\u0917\u0930\u093e\u0928\u0940
p3848
sg2034
(issf_api
FeatureSet
p3849
(dp3850
g261
(dp3851
S'posn'
p3852
S'200'
p3853
sS'name'
p3854
S'\xe0\xa4\xa8\xe0\xa4\xbf\xe0\xa4\x97\xe0\xa4\xb0\xe0\xa4\xbe\xe0\xa4\xa8\xe0\xa5\x80'
p3855
sS'af'
p3856
S'\xe0\xa4\xa8\xe0\xa4\xbf\xe0\xa4\x97\xe0\xa4\xb0\xe0\xa4\xbe\xe0\xa4\xa8\xe0\xa5\x80,n,f,sg,3,d,0,0'
p3857
sS'chunkid'
p3858
S'NP8'
p3859
sS'drel'
p3860
S'pof:\xe0\xa4\x95\xe0\xa4\xb0\xe0\xa5\x87\xe0\xa4\x82\xe0\xa4\x97\xe0\xa5\x87'
p3861
sS'chunktype'
p3862
S'head:NP8'
p3863
ssbsg1693
I01
sg1696
I00
sg1707
Nsg1694
Nsg194
I9
sg181
I2
sg2048
I1
sg1705
Nsg2049
S'NN'
p3864
sg258
(issf_api
FeatureSet
p3865
(dp3866
g261
(dp3867
S'posn'
p3868
S'200'
p3869
sS'name'
p3870
S'\xe0\xa4\xa8\xe0\xa4\xbf\xe0\xa4\x97\xe0\xa4\xb0\xe0\xa4\xbe\xe0\xa4\xa8\xe0\xa5\x80'
p3871
sS'af'
p3872
S'\xe0\xa4\xa8\xe0\xa4\xbf\xe0\xa4\x97\xe0\xa4\xb0\xe0\xa4\xbe\xe0\xa4\xa8\xe0\xa5\x80,n,f,sg,3,d,0,0'
p3873
ssbsg1715
I00
sba(issf_api
Word
p3874
(dp3875
g2031
I00
sg2032
V\u0915\u0930\u0947\u0902\u0917\u0947
p3876
sg2034
(issf_api
FeatureSet
p3877
(dp3878
g261
(dp3879
S'posn'
p3880
S'210'
p3881
sS'name'
p3882
S'\xe0\xa4\x95\xe0\xa4\xb0\xe0\xa5\x87\xe0\xa4\x82\xe0\xa4\x97\xe0\xa5\x87'
p3883
sS'af'
p3884
S'\xe0\xa4\x95\xe0\xa4\xb0,v,m,pl,3,,\xe0\xa4\x97\xe0\xa4\xbe,gA'
p3885
sS'chunkid'
p3886
S'VGF2'
p3887
sS'stype'
p3888
S'declarative'
p3889
sS'drel'
p3890
S'ccof:\xe0\xa4\x95\xe0\xa4\xbf'
p3891
sS'voicetype'
p3892
S'active'
p3893
sS'chunktype'
p3894
S'head:VGF2'
p3895
ssbsg1693
I01
sg1696
I00
sg1707
Nsg1694
Nsg194
I10
sg181
I2
sg2048
I1
sg1705
Nsg2049
S'VM'
p3896
sg258
(issf_api
FeatureSet
p3897
(dp3898
g261
(dp3899
S'posn'
p3900
S'210'
p3901
sS'name'
p3902
S'\xe0\xa4\x95\xe0\xa4\xb0\xe0\xa5\x87\xe0\xa4\x82\xe0\xa4\x97\xe0\xa5\x87'
p3903
sS'af'
p3904
S'\xe0\xa4\x95\xe0\xa4\xb0,v,m,pl,3,,\xe0\xa4\x97\xe0\xa4\xbe,gA'
p3905
ssbsg1715
I00
sba(issf_api
Word
p3906
(dp3907
g2031
I00
sg2032
V\u091c\u092c\u0915\u093f
p3908
sg2034
(issf_api
FeatureSet
p3909
(dp3910
g261
(dp3911
S'posn'
p3912
S'220'
p3913
sS'name'
p3914
S'\xe0\xa4\x9c\xe0\xa4\xac\xe0\xa4\x95\xe0\xa4\xbf'
p3915
sS'af'
p3916
S'\xe0\xa4\x9c\xe0\xa4\xac\xe0\xa4\x95\xe0\xa4\xbf,avy,,,,,,'
p3917
sS'chunkid'
p3918
S'CCP2'
p3919
sS'drel'
p3920
S'vmod:\xe0\xa4\x95\xe0\xa4\xb0\xe0\xa5\x87\xe0\xa4\x82\xe0\xa4\x97\xe0\xa5\x87'
p3921
sS'chunktype'
p3922
S'head:CCP2'
p3923
ssbsg1693
I00
sg1696
I00
sg1707
g1758
sg1694
(lp3924
I56
aI57
aI58
aI59
aI60
aI61
aI62
aI63
aI64
aI65
aI66
aI67
asg194
I11
sg181
I2
sg2048
I1
sg1705
(lp3925
I69
aI70
aI71
aI72
aI73
aI74
asg2049
S'CC'
p3926
sg258
(issf_api
FeatureSet
p3927
(dp3928
g261
(dp3929
S'posn'
p3930
S'220'
p3931
sS'name'
p3932
S'\xe0\xa4\x9c\xe0\xa4\xac\xe0\xa4\x95\xe0\xa4\xbf'
p3933
sS'af'
p3934
S'\xe0\xa4\x9c\xe0\xa4\xac\xe0\xa4\x95\xe0\xa4\xbf,avy,,,,,,'
p3935
ssbsg1715
I01
sba(issf_api
Word
p3936
(dp3937
g2031
I00
sg2032
V\u092c\u0940\u0921\u0940\u0906\u0930
p3938
sg2034
(issf_api
FeatureSet
p3939
(dp3940
g261
(dp3941
S'posn'
p3942
S'230'
p3943
sS'name'
p3944
S'\xe0\xa4\xac\xe0\xa5\x80\xe0\xa4\xa1\xe0\xa5\x80\xe0\xa4\x86\xe0\xa4\xb0'
p3945
sS'drel'
p3946
S'nmod__adj:\xe0\xa4\x9c\xe0\xa4\xb5\xe0\xa4\xbe\xe0\xa4\xa82'
p3947
sS'chunktype'
p3948
S'child:NP9'
p3949
sS'af'
p3950
S'\xe0\xa4\xac\xe0\xa5\x80\xe0\xa4\xa1\xe0\xa5\x80\xe0\xa4\x86\xe0\xa4\xb0,n,m,sg,3,d,0,0'
p3951
ssbsg1693
I00
sg1696
I01
sg1707
Nsg1694
Nsg194
I12
sg181
I2
sg2048
I1
sg1705
Nsg2049
S'NNP'
p3952
sg258
(issf_api
FeatureSet
p3953
(dp3954
g261
(dp3955
S'posn'
p3956
S'230'
p3957
sS'name'
p3958
S'\xe0\xa4\xac\xe0\xa5\x80\xe0\xa4\xa1\xe0\xa5\x80\xe0\xa4\x86\xe0\xa4\xb0'
p3959
sS'af'
p3960
S'\xe0\xa4\xac\xe0\xa5\x80\xe0\xa4\xa1\xe0\xa5\x80\xe0\xa4\x86\xe0\xa4\xb0,n,m,sg,3,d,0,0'
p3961
ssbsg1715
I00
sba(issf_api
Word
p3962
(dp3963
g2031
I00
sg2032
V\u091c\u0935\u093e\u0928
p3964
sg2034
(issf_api
FeatureSet
p3965
(dp3966
g261
(dp3967
S'posn'
p3968
S'240'
p3969
sS'name'
p3970
S'\xe0\xa4\x9c\xe0\xa4\xb5\xe0\xa4\xbe\xe0\xa4\xa82'
p3971
sS'af'
p3972
S'\xe0\xa4\x9c\xe0\xa4\xb5\xe0\xa4\xbe\xe0\xa4\xa8,n,m,pl,3,d,0,0'
p3973
sS'chunkid'
p3974
S'NP9'
p3975
sS'drel'
p3976
S'k1:NULL'
p3977
sS'chunktype'
p3978
S'head:NP9'
p3979
ssbsg1693
I00
sg1696
I01
sg1707
Nsg1694
Nsg194
I12
sg181
I2
sg2048
I1
sg1705
Nsg2049
S'NN'
p3980
sg258
(issf_api
FeatureSet
p3981
(dp3982
g261
(dp3983
S'posn'
p3984
S'240'
p3985
sS'name'
p3986
S'\xe0\xa4\x9c\xe0\xa4\xb5\xe0\xa4\xbe\xe0\xa4\xa82'
p3987
sS'af'
p3988
S'\xe0\xa4\x9c\xe0\xa4\xb5\xe0\xa4\xbe\xe0\xa4\xa8,n,m,pl,3,d,0,0'
p3989
ssbsg1715
I00
sba(issf_api
Word
p3990
(dp3991
g2031
I00
sg2032
V\u0905\u092a\u0928\u0947
p3992
sg2034
(issf_api
FeatureSet
p3993
(dp3994
g261
(dp3995
S'posn'
p3996
S'250'
p3997
sS'name'
p3998
S'\xe0\xa4\x85\xe0\xa4\xaa\xe0\xa4\xa8\xe0\xa5\x87'
p3999
sS'af'
p4000
S'\xe0\xa4\x85\xe0\xa4\xaa\xe0\xa4\xa8\xe0\xa4\xbe,pn,m,any,any,o,0,0'
p4001
sS'chunkid'
p4002
S'NP10'
p4003
sS'drel'
p4004
S'r6:\xe0\xa4\x95\xe0\xa5\x8d\xe0\xa4\xb7\xe0\xa5\x87\xe0\xa4\xa4\xe0\xa5\x8d\xe0\xa4\xb02'
p4005
sS'chunktype'
p4006
S'head:NP10'
p4007
ssbsg1693
I00
sg1696
I01
sg1707
Nsg1694
Nsg194
I13
sg181
I2
sg2048
I1
sg1705
Nsg2049
S'PRP'
p4008
sg258
(issf_api
FeatureSet
p4009
(dp4010
g261
(dp4011
S'posn'
p4012
S'250'
p4013
sS'name'
p4014
S'\xe0\xa4\x85\xe0\xa4\xaa\xe0\xa4\xa8\xe0\xa5\x87'
p4015
sS'af'
p4016
S'\xe0\xa4\x85\xe0\xa4\xaa\xe0\xa4\xa8\xe0\xa4\xbe,pn,m,any,any,o,0,0'
p4017
ssbsg1715
I00
sba(issf_api
Word
p4018
(dp4019
g2031
I00
sg2032
V\u0915\u094d\u0937\u0947\u0924\u094d\u0930
p4020
sg2034
(issf_api
FeatureSet
p4021
(dp4022
g261
(dp4023
S'posn'
p4024
S'260'
p4025
sS'name'
p4026
S'\xe0\xa4\x95\xe0\xa5\x8d\xe0\xa4\xb7\xe0\xa5\x87\xe0\xa4\xa4\xe0\xa5\x8d\xe0\xa4\xb02'
p4027
sS'af'
p4028
S'\xe0\xa4\x95\xe0\xa5\x8d\xe0\xa4\xb7\xe0\xa5\x87\xe0\xa4\xa4\xe0\xa5\x8d\xe0\xa4\xb0,n,m,sg,3,o,0_\xe0\xa4\xae\xe0\xa5\x87\xe0\xa4\x82,0'
p4029
sS'chunkid'
p4030
S'NP11'
p4031
sS'drel'
p4032
S'k7p:NULL'
p4033
sS'vpos'
p4034
S'vib_2'
p4035
sS'chunktype'
p4036
S'head:NP11'
p4037
ssbsg1693
I00
sg1696
I01
sg1707
Nsg1694
Nsg194
I14
sg181
I2
sg2048
I1
sg1705
Nsg2049
S'NN'
p4038
sg258
(issf_api
FeatureSet
p4039
(dp4040
g261
(dp4041
S'posn'
p4042
S'260'
p4043
sS'name'
p4044
S'\xe0\xa4\x95\xe0\xa5\x8d\xe0\xa4\xb7\xe0\xa5\x87\xe0\xa4\xa4\xe0\xa5\x8d\xe0\xa4\xb02'
p4045
sS'af'
p4046
S'\xe0\xa4\x95\xe0\xa5\x8d\xe0\xa4\xb7\xe0\xa5\x87\xe0\xa4\xa4\xe0\xa5\x8d\xe0\xa4\xb0,n,m,sg,3,o,0,0'
p4047
ssbsg1715
I00
sba(issf_api
Word
p4048
(dp4049
g2031
I00
sg2032
V\u092e\u0947\u0902
p4050
sg2034
(issf_api
FeatureSet
p4051
(dp4052
g261
(dp4053
S'posn'
p4054
S'270'
p4055
sS'name'
p4056
S'\xe0\xa4\xae\xe0\xa5\x87\xe0\xa4\x822'
p4057
sS'drel'
p4058
S'lwg__psp:\xe0\xa4\x95\xe0\xa5\x8d\xe0\xa4\xb7\xe0\xa5\x87\xe0\xa4\xa4\xe0\xa5\x8d\xe0\xa4\xb02'
p4059
sS'chunktype'
p4060
S'child:NP11'
p4061
sS'af'
p4062
S'\xe0\xa4\xae\xe0\xa5\x87\xe0\xa4\x82,psp,,,,,,'
p4063
ssbsg1693
I00
sg1696
I01
sg1707
Nsg1694
Nsg194
I14
sg181
I2
sg2048
I1
sg1705
Nsg2049
S'PSP'
p4064
sg258
(issf_api
FeatureSet
p4065
(dp4066
g261
(dp4067
S'posn'
p4068
S'270'
p4069
sS'name'
p4070
S'\xe0\xa4\xae\xe0\xa5\x87\xe0\xa4\x822'
p4071
sS'af'
p4072
S'\xe0\xa4\xae\xe0\xa5\x87\xe0\xa4\x82,psp,,,,,,'
p4073
ssbsg1715
I00
sba(issf_api
Word
p4074
(dp4075
g2031
I00
sg2032
V|
sg2034
(issf_api
FeatureSet
p4076
(dp4077
g261
(dp4078
S'name'
p4079
S'NULL'
p4080
sS'dmrel'
p4081
S'ccof:\xe0\xa4\x9c\xe0\xa4\xac\xe0\xa4\x95\xe0\xa4\xbf'
p4082
sS'chunkid'
p4083
S'NULL__VGF'
p4084
sS'mtype'
p4085
S'gap'
p4086
sS'troot'
p4087
S'\xe0\xa4\x95\xe0\xa4\xb0'
p4088
sS'chunktype'
p4089
S'head:NULL__VGF'
p4090
sS'voicetype'
p4091
S'active'
p4092
sS'stype'
p4093
S'declarative'
p4094
ssbsg1693
I00
sg1696
I01
sg1707
Nsg1694
Nsg194
I15
sg181
I2
sg2048
I1
sg1705
Nsg2049
S'SYM'
p4095
sg258
(issf_api
FeatureSet
p4096
(dp4097
g261
(dp4098
S'posn'
p4099
S'280'
p4100
sS'name'
p4101
S'\xe0\xa5\xa4'
p4102
sS'af'
p4103
S'\xe0\xa5\xa4,punc,,,,,,'
p4104
ssbsg1715
I00
sba(issf_api
Word
p4105
(dp4106
g2031
I00
sg2032
V\u0907\u0938
p4107
sg2034
(issf_api
FeatureSet
p4108
(dp4109
g261
(dp4110
S'posn'
p4111
S'10'
p4112
sS'name'
p4113
S'\xe0\xa4\x87\xe0\xa4\xb8'
p4114
sS'af'
p4115
S'\xe0\xa4\xaf\xe0\xa4\xb9,pn,any,sg,3,o,0_\xe0\xa4\xaa\xe0\xa4\xb0,0'
p4116
sS'chunkid'
p4117
S'NP'
p4118
sS'drel'
p4119
S'k7:\xe0\xa4\x95\xe0\xa5\x80'
p4120
sS'vpos'
p4121
S'vib_2'
p4122
sS'chunktype'
p4123
S'head:NP'
p4124
ssbsg1693
I00
sg1696
I00
sg1707
Nsg1694
Nsg194
I0
sg181
I3
sg2048
Nsg1705
Nsg2049
S'PRP'
p4125
sg258
(issf_api
FeatureSet
p4126
(dp4127
g261
(dp4128
S'posn'
p4129
S'10'
p4130
sS'name'
p4131
S'\xe0\xa4\x87\xe0\xa4\xb8'
p4132
sS'af'
p4133
S'\xe0\xa4\xaf\xe0\xa4\xb9,pn,any,sg,3,o,0,0'
p4134
ssbsg1715
I00
sba(issf_api
Word
p4135
(dp4136
g2031
I00
sg2032
V\u092a\u0930
p4137
sg2034
(issf_api
FeatureSet
p4138
(dp4139
g261
(dp4140
S'posn'
p4141
S'20'
p4142
sS'name'
p4143
S'\xe0\xa4\xaa\xe0\xa4\xb0'
p4144
sS'drel'
p4145
S'lwg__psp:\xe0\xa4\x87\xe0\xa4\xb8'
p4146
sS'chunktype'
p4147
S'child:NP'
p4148
sS'af'
p4149
S'\xe0\xa4\xaa\xe0\xa4\xb0,psp,,,,,,'
p4150
ssbsg1693
I00
sg1696
I00
sg1707
Nsg1694
Nsg194
I0
sg181
I3
sg2048
Nsg1705
Nsg2049
S'PSP'
p4151
sg258
(issf_api
FeatureSet
p4152
(dp4153
g261
(dp4154
S'posn'
p4155
S'20'
p4156
sS'name'
p4157
S'\xe0\xa4\xaa\xe0\xa4\xb0'
p4158
sS'af'
p4159
S'\xe0\xa4\xaa\xe0\xa4\xb0,psp,,,,,,'
p4160
ssbsg1715
I00
sba(issf_api
Word
p4161
(dp4162
g2031
I00
sg2032
V\u0935\u093f\u0938\u094d\u0924\u0943\u0924
p4163
sg2034
(issf_api
FeatureSet
p4164
(dp4165
g261
(dp4166
S'posn'
p4167
S'30'
p4168
sS'name'
p4169
S'\xe0\xa4\xb5\xe0\xa4\xbf\xe0\xa4\xb8\xe0\xa5\x8d\xe0\xa4\xa4\xe0\xa5\x83\xe0\xa4\xa4'
p4170
sS'drel'
p4171
S'nmod__adj:\xe0\xa4\xaf\xe0\xa5\x8b\xe0\xa4\x9c\xe0\xa4\xa8\xe0\xa4\xbe'
p4172
sS'chunktype'
p4173
S'child:NP2'
p4174
sS'af'
p4175
S'\xe0\xa4\xb5\xe0\xa4\xbf\xe0\xa4\xb8\xe0\xa5\x8d\xe0\xa4\xa4\xe0\xa5\x83\xe0\xa4\xa4,adj,any,any,,d,,'
p4176
ssbsg1693
I00
sg1696
I00
sg1707
Nsg1694
Nsg194
I1
sg181
I3
sg2048
Nsg1705
Nsg2049
S'JJ'
p4177
sg258
(issf_api
FeatureSet
p4178
(dp4179
g261
(dp4180
S'posn'
p4181
S'30'
p4182
sS'name'
p4183
S'\xe0\xa4\xb5\xe0\xa4\xbf\xe0\xa4\xb8\xe0\xa5\x8d\xe0\xa4\xa4\xe0\xa5\x83\xe0\xa4\xa4'
p4184
sS'af'
p4185
S'\xe0\xa4\xb5\xe0\xa4\xbf\xe0\xa4\xb8\xe0\xa5\x8d\xe0\xa4\xa4\xe0\xa5\x83\xe0\xa4\xa4,adj,any,any,,d,,'
p4186
ssbsg1715
I00
sba(issf_api
Word
p4187
(dp4188
g2031
I00
sg2032
V\u092f\u094b\u091c\u0928\u093e
p4189
sg2034
(issf_api
FeatureSet
p4190
(dp4191
g261
(dp4192
S'posn'
p4193
S'40'
p4194
sS'name'
p4195
S'\xe0\xa4\xaf\xe0\xa5\x8b\xe0\xa4\x9c\xe0\xa4\xa8\xe0\xa4\xbe'
p4196
sS'af'
p4197
S'\xe0\xa4\xaf\xe0\xa5\x8b\xe0\xa4\x9c\xe0\xa4\xa8\xe0\xa4\xbe,n,f,sg,3,d,0,0'
p4198
sS'chunkid'
p4199
S'NP2'
p4200
sS'drel'
p4201
S'k2:\xe0\xa4\x95\xe0\xa5\x80'
p4202
sS'chunktype'
p4203
S'head:NP2'
p4204
ssbsg1693
I00
sg1696
I00
sg1707
Nsg1694
Nsg194
I1
sg181
I3
sg2048
Nsg1705
Nsg2049
S'NN'
p4205
sg258
(issf_api
FeatureSet
p4206
(dp4207
g261
(dp4208
S'posn'
p4209
S'40'
p4210
sS'name'
p4211
S'\xe0\xa4\xaf\xe0\xa5\x8b\xe0\xa4\x9c\xe0\xa4\xa8\xe0\xa4\xbe'
p4212
sS'af'
p4213
S'\xe0\xa4\xaf\xe0\xa5\x8b\xe0\xa4\x9c\xe0\xa4\xa8\xe0\xa4\xbe,n,f,sg,3,d,0,0'
p4214
ssbsg1715
I00
sba(issf_api
Word
p4215
(dp4216
g2031
I00
sg2032
V\u0924\u0948\u092f\u093e\u0930
p4217
sg2034
(issf_api
FeatureSet
p4218
(dp4219
g261
(dp4220
S'posn'
p4221
S'50'
p4222
sS'name'
p4223
S'\xe0\xa4\xa4\xe0\xa5\x88\xe0\xa4\xaf\xe0\xa4\xbe\xe0\xa4\xb0'
p4224
sS'af'
p4225
S'\xe0\xa4\xa4\xe0\xa5\x88\xe0\xa4\xaf\xe0\xa4\xbe\xe0\xa4\xb0,adj,any,any,,,,'
p4226
sS'chunkid'
p4227
S'JJP'
p4228
sS'drel'
p4229
S'pof:\xe0\xa4\x95\xe0\xa5\x80'
p4230
sS'chunktype'
p4231
S'head:JJP'
p4232
ssbsg1693
I00
sg1696
I00
sg1707
Nsg1694
Nsg194
I2
sg181
I3
sg2048
Nsg1705
Nsg2049
S'JJ'
p4233
sg258
(issf_api
FeatureSet
p4234
(dp4235
g261
(dp4236
S'posn'
p4237
S'50'
p4238
sS'name'
p4239
S'\xe0\xa4\xa4\xe0\xa5\x88\xe0\xa4\xaf\xe0\xa4\xbe\xe0\xa4\xb0'
p4240
sS'af'
p4241
S'\xe0\xa4\xa4\xe0\xa5\x88\xe0\xa4\xaf\xe0\xa4\xbe\xe0\xa4\xb0,adj,any,any,,,,'
p4242
ssbsg1715
I00
sba(issf_api
Word
p4243
(dp4244
g2031
I00
sg2032
V\u0915\u0940
p4245
sg2034
(issf_api
FeatureSet
p4246
(dp4247
g261
(dp4248
S'posn'
p4249
S'60'
p4250
sS'name'
p4251
S'\xe0\xa4\x95\xe0\xa5\x80'
p4252
sS'af'
p4253
S'\xe0\xa4\x95\xe0\xa4\xb0,v,f,sg,3,,\xe0\xa4\xaf\xe0\xa4\xbe_\xe0\xa4\x9c\xe0\xa4\xbe_\xe0\xa4\xb0\xe0\xa4\xb9+\xe0\xa4\xaf\xe0\xa4\xbe_\xe0\xa4\xb9\xe0\xa5\x88,yA'
p4254
sS'chunkid'
p4255
S'VGF'
p4256
sS'chunktype'
p4257
S'head:VGF'
p4258
sS'voicetype'
p4259
S'passive'
p4260
sS'vpos'
p4261
S'tam_2_3_4'
p4262
sS'stype'
p4263
S'declarative'
p4264
ssbsg1693
I00
sg1696
I00
sg1707
Nsg1694
Nsg194
I3
sg181
I3
sg2048
Nsg1705
Nsg2049
S'VM'
p4265
sg258
(issf_api
FeatureSet
p4266
(dp4267
g261
(dp4268
S'posn'
p4269
S'60'
p4270
sS'name'
p4271
S'\xe0\xa4\x95\xe0\xa5\x80'
p4272
sS'af'
p4273
S'\xe0\xa4\x95\xe0\xa4\xb0,v,f,sg,any,,\xe0\xa4\xaf\xe0\xa4\xbe,yA'
p4274
ssbsg1715
I00
sba(issf_api
Word
p4275
(dp4276
g2031
I00
sg2032
V\u091c\u093e
p4277
sg2034
(issf_api
FeatureSet
p4278
(dp4279
g261
(dp4280
S'posn'
p4281
S'70'
p4282
sS'name'
p4283
S'\xe0\xa4\x9c\xe0\xa4\xbe'
p4284
sS'drel'
p4285
S'lwg__vaux:\xe0\xa4\x95\xe0\xa5\x80'
p4286
sS'chunktype'
p4287
S'child:VGF'
p4288
sS'af'
p4289
S'\xe0\xa4\x9c\xe0\xa4\xbe,v,any,any,any,,0,0'
p4290
ssbsg1693
I00
sg1696
I00
sg1707
Nsg1694
Nsg194
I3
sg181
I3
sg2048
Nsg1705
Nsg2049
S'VAUX'
p4291
sg258
(issf_api
FeatureSet
p4292
(dp4293
g261
(dp4294
S'posn'
p4295
S'70'
p4296
sS'name'
p4297
S'\xe0\xa4\x9c\xe0\xa4\xbe'
p4298
sS'af'
p4299
S'\xe0\xa4\x9c\xe0\xa4\xbe,v,any,any,any,,0,0'
p4300
ssbsg1715
I00
sba(issf_api
Word
p4301
(dp4302
g2031
I00
sg2032
V\u0930\u0939\u0940
p4303
sg2034
(issf_api
FeatureSet
p4304
(dp4305
g261
(dp4306
S'posn'
p4307
S'80'
p4308
sS'name'
p4309
S'\xe0\xa4\xb0\xe0\xa4\xb9\xe0\xa5\x80'
p4310
sS'drel'
p4311
S'lwg__vaux:\xe0\xa4\x95\xe0\xa5\x80'
p4312
sS'chunktype'
p4313
S'child:VGF'
p4314
sS'af'
p4315
S'\xe0\xa4\xb0\xe0\xa4\xb9,v,f,sg,any,,\xe0\xa4\xaf\xe0\xa4\xbe,yA'
p4316
ssbsg1693
I00
sg1696
I00
sg1707
Nsg1694
Nsg194
I3
sg181
I3
sg2048
Nsg1705
Nsg2049
S'VAUX'
p4317
sg258
(issf_api
FeatureSet
p4318
(dp4319
g261
(dp4320
S'posn'
p4321
S'80'
p4322
sS'name'
p4323
S'\xe0\xa4\xb0\xe0\xa4\xb9\xe0\xa5\x80'
p4324
sS'af'
p4325
S'\xe0\xa4\xb0\xe0\xa4\xb9,v,f,sg,any,,\xe0\xa4\xaf\xe0\xa4\xbe,yA'
p4326
ssbsg1715
I00
sba(issf_api
Word
p4327
(dp4328
g2031
I00
sg2032
V\u0939\u0948
p4329
sg2034
(issf_api
FeatureSet
p4330
(dp4331
g261
(dp4332
S'posn'
p4333
S'90'
p4334
sS'name'
p4335
S'\xe0\xa4\xb9\xe0\xa5\x88'
p4336
sS'drel'
p4337
S'lwg__vaux:\xe0\xa4\x95\xe0\xa5\x80'
p4338
sS'chunktype'
p4339
S'child:VGF'
p4340
sS'af'
p4341
S'\xe0\xa4\xb9\xe0\xa5\x88,v,any,sg,3,,\xe0\xa4\xb9\xe0\xa5\x88,hE'
p4342
ssbsg1693
I00
sg1696
I00
sg1707
Nsg1694
Nsg194
I3
sg181
I3
sg2048
Nsg1705
Nsg2049
S'VAUX'
p4343
sg258
(issf_api
FeatureSet
p4344
(dp4345
g261
(dp4346
S'posn'
p4347
S'90'
p4348
sS'name'
p4349
S'\xe0\xa4\xb9\xe0\xa5\x88'
p4350
sS'af'
p4351
S'\xe0\xa4\xb9\xe0\xa5\x88,v,any,sg,3,,\xe0\xa4\xb9\xe0\xa5\x88,hE'
p4352
ssbsg1715
I00
sba(issf_api
Word
p4353
(dp4354
g2031
I00
sg2032
V\u0964
sg2034
(issf_api
FeatureSet
p4355
(dp4356
g261
(dp4357
S'posn'
p4358
S'100'
p4359
sS'name'
p4360
S'\xe0\xa5\xa4'
p4361
sS'af'
p4362
S'\xe0\xa5\xa4,punc,,,,,,'
p4363
sS'chunkid'
p4364
S'BLK'
p4365
sS'drel'
p4366
S'rsym:\xe0\xa4\x95\xe0\xa5\x80'
p4367
sS'chunktype'
p4368
S'head:BLK'
p4369
ssbsg1693
I00
sg1696
I00
sg1707
Nsg1694
Nsg194
I4
sg181
I3
sg2048
Nsg1705
Nsg2049
S'SYM'
p4370
sg258
(issf_api
FeatureSet
p4371
(dp4372
g261
(dp4373
S'posn'
p4374
S'100'
p4375
sS'name'
p4376
S'\xe0\xa5\xa4'
p4377
sS'af'
p4378
S'\xe0\xa5\xa4,punc,,,,,,'
p4379
ssbsg1715
I00
sba(issf_api
Word
p4380
(dp4381
g2031
I00
sg2032
V\u092f\u0939\u093e\u0901
p4382
sg2034
(issf_api
FeatureSet
p4383
(dp4384
g261
(dp4385
S'posn'
p4386
S'10'
p4387
sS'name'
p4388
S'\xe0\xa4\xaf\xe0\xa4\xb9\xe0\xa4\xbe\xe0\xa4\x81'
p4389
sS'af'
p4390
S'\xe0\xa4\xaf\xe0\xa4\xb9\xe0\xa4\xbe\xe0\xa4\x81,pn,,,,d,,'
p4391
sS'chunkid'
p4392
S'NP'
p4393
sS'drel'
p4394
S'k7p:\xe0\xa4\xac\xe0\xa4\xa4\xe0\xa4\xbe\xe0\xa4\xaf\xe0\xa4\xbe'
p4395
sS'chunktype'
p4396
S'head:NP'
p4397
ssbsg1693
I01
sg1696
I00
sg1707
Nsg1694
Nsg194
I0
sg181
I4
sg2048
I2
sg1705
Nsg2049
S'PRP'
p4398
sg258
(issf_api
FeatureSet
p4399
(dp4400
g261
(dp4401
S'posn'
p4402
S'10'
p4403
sS'name'
p4404
S'\xe0\xa4\xaf\xe0\xa4\xb9\xe0\xa4\xbe\xe0\xa4\x81'
p4405
sS'af'
p4406
S'\xe0\xa4\xaf\xe0\xa4\xb9\xe0\xa4\xbe\xe0\xa4\x81,pn,,,,d,,'
p4407
ssbsg1715
I00
sba(issf_api
Word
p4408
(dp4409
g2031
I00
sg2032
V\u092c\u0940\u090f\u0938\u090f\u092b
p4410
sg2034
(issf_api
FeatureSet
p4411
(dp4412
g261
(dp4413
S'posn'
p4414
S'20'
p4415
sS'name'
p4416
S'\xe0\xa4\xac\xe0\xa5\x80\xe0\xa4\x8f\xe0\xa4\xb8\xe0\xa4\x8f\xe0\xa4\xab'
p4417
sS'af'
p4418
S'\xe0\xa4\xac\xe0\xa5\x80\xe0\xa4\x8f\xe0\xa4\xb8\xe0\xa4\x8f\xe0\xa4\xab,n,m,sg,3,o,0_\xe0\xa4\x95\xe0\xa4\xbe,0'
p4419
sS'chunkid'
p4420
S'NP2'
p4421
sS'drel'
p4422
S'r6:\xe0\xa4\x85\xe0\xa4\xb8\xe0\xa4\xae'
p4423
sS'vpos'
p4424
S'vib_2'
p4425
sS'chunktype'
p4426
S'head:NP2'
p4427
ssbsg1693
I01
sg1696
I00
sg1707
Nsg1694
Nsg194
I1
sg181
I4
sg2048
I2
sg1705
Nsg2049
S'NNP'
p4428
sg258
(issf_api
FeatureSet
p4429
(dp4430
g261
(dp4431
S'posn'
p4432
S'20'
p4433
sS'name'
p4434
S'\xe0\xa4\xac\xe0\xa5\x80\xe0\xa4\x8f\xe0\xa4\xb8\xe0\xa4\x8f\xe0\xa4\xab'
p4435
sS'af'
p4436
S'\xe0\xa4\xac\xe0\xa5\x80\xe0\xa4\x8f\xe0\xa4\xb8\xe0\xa4\x8f\xe0\xa4\xab,n,m,sg,3,o,0,0'
p4437
ssbsg1715
I00
sba(issf_api
Word
p4438
(dp4439
g2031
I00
sg2032
V\u0915\u0947
p4440
sg2034
(issf_api
FeatureSet
p4441
(dp4442
g261
(dp4443
S'posn'
p4444
S'30'
p4445
sS'name'
p4446
S'\xe0\xa4\x95\xe0\xa5\x87'
p4447
sS'drel'
p4448
S'lwg__psp:\xe0\xa4\xac\xe0\xa5\x80\xe0\xa4\x8f\xe0\xa4\xb8\xe0\xa4\x8f\xe0\xa4\xab'
p4449
sS'chunktype'
p4450
S'child:NP2'
p4451
sS'af'
p4452
S'\xe0\xa4\x95\xe0\xa4\xbe,psp,m,sg,,o,,'
p4453
ssbsg1693
I01
sg1696
I00
sg1707
Nsg1694
Nsg194
I1
sg181
I4
sg2048
I2
sg1705
Nsg2049
S'PSP'
p4454
sg258
(issf_api
FeatureSet
p4455
(dp4456
g261
(dp4457
S'posn'
p4458
S'30'
p4459
sS'name'
p4460
S'\xe0\xa4\x95\xe0\xa5\x87'
p4461
sS'af'
p4462
S'\xe0\xa4\x95\xe0\xa4\xbe,psp,m,sg,,o,,'
p4463
ssbsg1715
I00
sba(issf_api
Word
p4464
(dp4465
g2031
I00
sg2032
V\u0905\u0938\u092e
p4466
sg2034
(issf_api
FeatureSet
p4467
(dp4468
g261
(dp4469
S'posn'
p4470
S'40'
p4471
sS'name'
p4472
S'\xe0\xa4\x85\xe0\xa4\xb8\xe0\xa4\xae'
p4473
sS'af'
p4474
S'\xe0\xa4\x85\xe0\xa4\xb8\xe0\xa4\xae,n,m,sg,3,d,0,0'
p4475
sS'chunkid'
p4476
S'NP3'
p4477
sS'drel'
p4478
S'ccof:\xe0\xa4\x94\xe0\xa4\xb0'
p4479
sS'chunktype'
p4480
S'head:NP3'
p4481
ssbsg1693
I01
sg1696
I00
sg1707
Nsg1694
Nsg194
I2
sg181
I4
sg2048
I2
sg1705
Nsg2049
S'NNP'
p4482
sg258
(issf_api
FeatureSet
p4483
(dp4484
g261
(dp4485
S'posn'
p4486
S'40'
p4487
sS'name'
p4488
S'\xe0\xa4\x85\xe0\xa4\xb8\xe0\xa4\xae'
p4489
sS'af'
p4490
S'\xe0\xa4\x85\xe0\xa4\xb8\xe0\xa4\xae,n,m,sg,3,d,0,0'
p4491
ssbsg1715
I00
sba(issf_api
Word
p4492
(dp4493
g2031
I00
sg2032
V,
sg2034
(issf_api
FeatureSet
p4494
(dp4495
g261
(dp4496
S'posn'
p4497
S'50'
p4498
sS'name'
p4499
S','
sS'drel'
p4500
S'rsym:\xe0\xa4\x85\xe0\xa4\xb8\xe0\xa4\xae'
p4501
sS'chunktype'
p4502
S'child:NP3'
p4503
sS'af'
p4504
S'COMMA,punc,,,,,,'
p4505
ssbsg1693
I01
sg1696
I00
sg1707
Nsg1694
Nsg194
I2
sg181
I4
sg2048
I2
sg1705
Nsg2049
S'SYM'
p4506
sg258
(issf_api
FeatureSet
p4507
(dp4508
g261
(dp4509
S'posn'
p4510
S'50'
p4511
sS'name'
p4512
S','
sS'af'
p4513
S'COMMA,punc,,,,,,'
p4514
ssbsg1715
I00
sba(issf_api
Word
p4515
(dp4516
g2031
I00
sg2032
V\u092e\u0947\u0918\u093e\u0932\u092f
p4517
sg2034
(issf_api
FeatureSet
p4518
(dp4519
g261
(dp4520
S'posn'
p4521
S'60'
p4522
sS'name'
p4523
S'\xe0\xa4\xae\xe0\xa5\x87\xe0\xa4\x98\xe0\xa4\xbe\xe0\xa4\xb2\xe0\xa4\xaf'
p4524
sS'af'
p4525
S'\xe0\xa4\xae\xe0\xa5\x87\xe0\xa4\x98\xe0\xa4\xbe\xe0\xa4\xb2\xe0\xa4\xaf,n,m,sg,3,d,0,0'
p4526
sS'chunkid'
p4527
S'NP4'
p4528
sS'drel'
p4529
S'ccof:\xe0\xa4\x94\xe0\xa4\xb0'
p4530
sS'chunktype'
p4531
S'head:NP4'
p4532
ssbsg1693
I01
sg1696
I00
sg1707
Nsg1694
Nsg194
I3
sg181
I4
sg2048
I2
sg1705
Nsg2049
S'NNP'
p4533
sg258
(issf_api
FeatureSet
p4534
(dp4535
g261
(dp4536
S'posn'
p4537
S'60'
p4538
sS'name'
p4539
S'\xe0\xa4\xae\xe0\xa5\x87\xe0\xa4\x98\xe0\xa4\xbe\xe0\xa4\xb2\xe0\xa4\xaf'
p4540
sS'af'
p4541
S'\xe0\xa4\xae\xe0\xa5\x87\xe0\xa4\x98\xe0\xa4\xbe\xe0\xa4\xb2\xe0\xa4\xaf,n,m,sg,3,d,0,0'
p4542
ssbsg1715
I00
sba(issf_api
Word
p4543
(dp4544
g2031
I00
sg2032
V,
sg2034
(issf_api
FeatureSet
p4545
(dp4546
g261
(dp4547
S'posn'
p4548
S'70'
p4549
sS'name'
p4550
S',2'
p4551
sS'drel'
p4552
S'rsym:\xe0\xa4\xae\xe0\xa5\x87\xe0\xa4\x98\xe0\xa4\xbe\xe0\xa4\xb2\xe0\xa4\xaf'
p4553
sS'chunktype'
p4554
S'child:NP4'
p4555
sS'af'
p4556
S'COMMA,punc,,,,,,'
p4557
ssbsg1693
I01
sg1696
I00
sg1707
Nsg1694
Nsg194
I3
sg181
I4
sg2048
I2
sg1705
Nsg2049
S'SYM'
p4558
sg258
(issf_api
FeatureSet
p4559
(dp4560
g261
(dp4561
S'posn'
p4562
S'70'
p4563
sS'name'
p4564
S',2'
p4565
sS'af'
p4566
S'COMMA,punc,,,,,,'
p4567
ssbsg1715
I00
sba(issf_api
Word
p4568
(dp4569
g2031
I00
sg2032
V\u092e\u0923\u093f\u092a\u0941\u0930
p4570
sg2034
(issf_api
FeatureSet
p4571
(dp4572
g261
(dp4573
S'posn'
p4574
S'80'
p4575
sS'name'
p4576
S'\xe0\xa4\xae\xe0\xa4\xa3\xe0\xa4\xbf\xe0\xa4\xaa\xe0\xa5\x81\xe0\xa4\xb0'
p4577
sS'af'
p4578
S'\xe0\xa4\xae\xe0\xa4\xa3\xe0\xa4\xbf\xe0\xa4\xaa\xe0\xa5\x81\xe0\xa4\xb0,n,m,sg,3,d,0,0'
p4579
sS'chunkid'
p4580
S'NP5'
p4581
sS'drel'
p4582
S'ccof:\xe0\xa4\x94\xe0\xa4\xb0'
p4583
sS'chunktype'
p4584
S'head:NP5'
p4585
ssbsg1693
I01
sg1696
I00
sg1707
Nsg1694
Nsg194
I4
sg181
I4
sg2048
I2
sg1705
Nsg2049
S'NNP'
p4586
sg258
(issf_api
FeatureSet
p4587
(dp4588
g261
(dp4589
S'posn'
p4590
S'80'
p4591
sS'name'
p4592
S'\xe0\xa4\xae\xe0\xa4\xa3\xe0\xa4\xbf\xe0\xa4\xaa\xe0\xa5\x81\xe0\xa4\xb0'
p4593
sS'af'
p4594
S'\xe0\xa4\xae\xe0\xa4\xa3\xe0\xa4\xbf\xe0\xa4\xaa\xe0\xa5\x81\xe0\xa4\xb0,n,m,sg,3,d,0,0'
p4595
ssbsg1715
I00
sba(issf_api
Word
p4596
(dp4597
g2031
I00
sg2032
V\u0914\u0930
p4598
sg2034
(issf_api
FeatureSet
p4599
(dp4600
g261
(dp4601
S'posn'
p4602
S'90'
p4603
sS'name'
p4604
S'\xe0\xa4\x94\xe0\xa4\xb0'
p4605
sS'af'
p4606
S'\xe0\xa4\x94\xe0\xa4\xb0,avy,,,,,,'
p4607
sS'chunkid'
p4608
S'CCP'
p4609
sS'drel'
p4610
S'nmod:\xe0\xa4\xae\xe0\xa5\x81\xe0\xa4\x96\xe0\xa5\x8d\xe0\xa4\xaf\xe0\xa4\xbe\xe0\xa4\xb2\xe0\xa4\xaf'
p4611
sS'chunktype'
p4612
S'head:CCP'
p4613
ssbsg1693
I01
sg1696
I00
sg1707
Nsg1694
Nsg194
I5
sg181
I4
sg2048
I2
sg1705
Nsg2049
S'CC'
p4614
sg258
(issf_api
FeatureSet
p4615
(dp4616
g261
(dp4617
S'posn'
p4618
S'90'
p4619
sS'name'
p4620
S'\xe0\xa4\x94\xe0\xa4\xb0'
p4621
sS'af'
p4622
S'\xe0\xa4\x94\xe0\xa4\xb0,avy,,,,,,'
p4623
ssbsg1715
I00
sba(issf_api
Word
p4624
(dp4625
g2031
I00
sg2032
V\u0928\u093e\u0917\u093e\u0932\u0948\u0902\u0921
p4626
sg2034
(issf_api
FeatureSet
p4627
(dp4628
g261
(dp4629
S'posn'
p4630
S'100'
p4631
sS'name'
p4632
S'\xe0\xa4\xa8\xe0\xa4\xbe\xe0\xa4\x97\xe0\xa4\xbe\xe0\xa4\xb2\xe0\xa5\x88\xe0\xa4\x82\xe0\xa4\xa1'
p4633
sS'af'
p4634
S'\xe0\xa4\xa8\xe0\xa4\xbe\xe0\xa4\x97\xe0\xa4\xbe\xe0\xa4\xb2\xe0\xa5\x88\xe0\xa4\x82\xe0\xa4\xa1,n,m,sg,3,d,0,0'
p4635
sS'chunkid'
p4636
S'NP6'
p4637
sS'drel'
p4638
S'ccof:\xe0\xa4\x94\xe0\xa4\xb0'
p4639
sS'chunktype'
p4640
S'head:NP6'
p4641
ssbsg1693
I01
sg1696
I00
sg1707
Nsg1694
Nsg194
I6
sg181
I4
sg2048
I2
sg1705
Nsg2049
S'NNP'
p4642
sg258
(issf_api
FeatureSet
p4643
(dp4644
g261
(dp4645
S'posn'
p4646
S'100'
p4647
sS'name'
p4648
S'\xe0\xa4\xa8\xe0\xa4\xbe\xe0\xa4\x97\xe0\xa4\xbe\xe0\xa4\xb2\xe0\xa5\x88\xe0\xa4\x82\xe0\xa4\xa1'
p4649
sS'af'
p4650
S'\xe0\xa4\xa8\xe0\xa4\xbe\xe0\xa4\x97\xe0\xa4\xbe\xe0\xa4\xb2\xe0\xa5\x88\xe0\xa4\x82\xe0\xa4\xa1,n,m,sg,3,d,0,0'
p4651
ssbsg1715
I00
sba(issf_api
Word
p4652
(dp4653
g2031
I00
sg2032
V\u092e\u0941\u0916\u094d\u092f\u093e\u0932\u092f
p4654
sg2034
(issf_api
FeatureSet
p4655
(dp4656
g261
(dp4657
S'posn'
p4658
S'110'
p4659
sS'name'
p4660
S'\xe0\xa4\xae\xe0\xa5\x81\xe0\xa4\x96\xe0\xa5\x8d\xe0\xa4\xaf\xe0\xa4\xbe\xe0\xa4\xb2\xe0\xa4\xaf'
p4661
sS'af'
p4662
S'\xe0\xa4\xae\xe0\xa5\x81\xe0\xa4\x96\xe0\xa5\x8d\xe0\xa4\xaf\xe0\xa4\xbe\xe0\xa4\xb2\xe0\xa4\xaf,n,m,sg,3,o,0_\xe0\xa4\x95\xe0\xa4\xbe,0'
p4663
sS'chunkid'
p4664
S'NP7'
p4665
sS'drel'
p4666
S'r6:\xe0\xa4\x85\xe0\xa4\xa7\xe0\xa4\xbf\xe0\xa4\x95\xe0\xa4\xbe\xe0\xa4\xb0\xe0\xa4\xbf\xe0\xa4\xaf\xe0\xa5\x8b\xe0\xa4\x82'
p4667
sS'vpos'
p4668
S'vib_2'
p4669
sS'chunktype'
p4670
S'head:NP7'
p4671
ssbsg1693
I01
sg1696
I00
sg1707
Nsg1694
Nsg194
I7
sg181
I4
sg2048
I2
sg1705
Nsg2049
S'NN'
p4672
sg258
(issf_api
FeatureSet
p4673
(dp4674
g261
(dp4675
S'posn'
p4676
S'110'
p4677
sS'name'
p4678
S'\xe0\xa4\xae\xe0\xa5\x81\xe0\xa4\x96\xe0\xa5\x8d\xe0\xa4\xaf\xe0\xa4\xbe\xe0\xa4\xb2\xe0\xa4\xaf'
p4679
sS'af'
p4680
S'\xe0\xa4\xae\xe0\xa5\x81\xe0\xa4\x96\xe0\xa5\x8d\xe0\xa4\xaf\xe0\xa4\xbe\xe0\xa4\xb2\xe0\xa4\xaf,n,m,sg,3,o,0,0'
p4681
ssbsg1715
I00
sba(issf_api
Word
p4682
(dp4683
g2031
I00
sg2032
V\u0915\u0947
p4684
sg2034
(issf_api
FeatureSet
p4685
(dp4686
g261
(dp4687
S'posn'
p4688
S'120'
p4689
sS'name'
p4690
S'\xe0\xa4\x95\xe0\xa5\x872'
p4691
sS'drel'
p4692
S'lwg__psp:\xe0\xa4\xae\xe0\xa5\x81\xe0\xa4\x96\xe0\xa5\x8d\xe0\xa4\xaf\xe0\xa4\xbe\xe0\xa4\xb2\xe0\xa4\xaf'
p4693
sS'chunktype'
p4694
S'child:NP7'
p4695
sS'af'
p4696
S'\xe0\xa4\x95\xe0\xa4\xbe,psp,m,pl,,o,,'
p4697
ssbsg1693
I01
sg1696
I00
sg1707
Nsg1694
Nsg194
I7
sg181
I4
sg2048
I2
sg1705
Nsg2049
S'PSP'
p4698
sg258
(issf_api
FeatureSet
p4699
(dp4700
g261
(dp4701
S'posn'
p4702
S'120'
p4703
sS'name'
p4704
S'\xe0\xa4\x95\xe0\xa5\x872'
p4705
sS'af'
p4706
S'\xe0\xa4\x95\xe0\xa4\xbe,psp,m,pl,,o,,'
p4707
ssbsg1715
I00
sba(issf_api
Word
p4708
(dp4709
g2031
I00
sg2032
V\u0935\u0930\u093f\u0937\u094d\u0920
p4710
sg2034
(issf_api
FeatureSet
p4711
(dp4712
g261
(dp4713
S'posn'
p4714
S'130'
p4715
sS'name'
p4716
S'\xe0\xa4\xb5\xe0\xa4\xb0\xe0\xa4\xbf\xe0\xa4\xb7\xe0\xa5\x8d\xe0\xa4\xa0'
p4717
sS'drel'
p4718
S'nmod__adj:\xe0\xa4\x85\xe0\xa4\xa7\xe0\xa4\xbf\xe0\xa4\x95\xe0\xa4\xbe\xe0\xa4\xb0\xe0\xa4\xbf\xe0\xa4\xaf\xe0\xa5\x8b\xe0\xa4\x82'
p4719
sS'chunktype'
p4720
S'child:NP8'
p4721
sS'af'
p4722
S'\xe0\xa4\xb5\xe0\xa4\xb0\xe0\xa4\xbf\xe0\xa4\xb7\xe0\xa5\x8d\xe0\xa4\xa0,adj,any,any,,o,,'
p4723
ssbsg1693
I01
sg1696
I00
sg1707
Nsg1694
Nsg194
I8
sg181
I4
sg2048
I2
sg1705
Nsg2049
S'JJ'
p4724
sg258
(issf_api
FeatureSet
p4725
(dp4726
g261
(dp4727
S'posn'
p4728
S'130'
p4729
sS'name'
p4730
S'\xe0\xa4\xb5\xe0\xa4\xb0\xe0\xa4\xbf\xe0\xa4\xb7\xe0\xa5\x8d\xe0\xa4\xa0'
p4731
sS'af'
p4732
S'\xe0\xa4\xb5\xe0\xa4\xb0\xe0\xa4\xbf\xe0\xa4\xb7\xe0\xa5\x8d\xe0\xa4\xa0,adj,any,any,,o,,'
p4733
ssbsg1715
I00
sba(issf_api
Word
p4734
(dp4735
g2031
I00
sg2032
V\u0905\u0927\u093f\u0915\u093e\u0930\u093f\u092f\u094b\u0902
p4736
sg2034
(issf_api
FeatureSet
p4737
(dp4738
g261
(dp4739
S'posn'
p4740
S'140'
p4741
sS'name'
p4742
S'\xe0\xa4\x85\xe0\xa4\xa7\xe0\xa4\xbf\xe0\xa4\x95\xe0\xa4\xbe\xe0\xa4\xb0\xe0\xa4\xbf\xe0\xa4\xaf\xe0\xa5\x8b\xe0\xa4\x82'
p4743
sS'af'
p4744
S'\xe0\xa4\x85\xe0\xa4\xa7\xe0\xa4\xbf\xe0\xa4\x95\xe0\xa4\xbe\xe0\xa4\xb0\xe0\xa5\x80,n,m,pl,3,o,0_\xe0\xa4\xa8\xe0\xa5\x87,0'
p4745
sS'chunkid'
p4746
S'NP8'
p4747
sS'drel'
p4748
S'k1:\xe0\xa4\xac\xe0\xa4\xa4\xe0\xa4\xbe\xe0\xa4\xaf\xe0\xa4\xbe'
p4749
sS'vpos'
p4750
S'vib_3'
p4751
sS'chunktype'
p4752
S'head:NP8'
p4753
ssbsg1693
I01
sg1696
I00
sg1707
Nsg1694
Nsg194
I8
sg181
I4
sg2048
I2
sg1705
Nsg2049
S'NN'
p4754
sg258
(issf_api
FeatureSet
p4755
(dp4756
g261
(dp4757
S'posn'
p4758
S'140'
p4759
sS'name'
p4760
S'\xe0\xa4\x85\xe0\xa4\xa7\xe0\xa4\xbf\xe0\xa4\x95\xe0\xa4\xbe\xe0\xa4\xb0\xe0\xa4\xbf\xe0\xa4\xaf\xe0\xa5\x8b\xe0\xa4\x82'
p4761
sS'af'
p4762
S'\xe0\xa4\x85\xe0\xa4\xa7\xe0\xa4\xbf\xe0\xa4\x95\xe0\xa4\xbe\xe0\xa4\xb0\xe0\xa5\x80,n,m,pl,3,o,0,0'
p4763
ssbsg1715
I00
sba(issf_api
Word
p4764
(dp4765
g2031
I00
sg2032
V\u0928\u0947
p4766
sg2034
(issf_api
FeatureSet
p4767
(dp4768
g261
(dp4769
S'posn'
p4770
S'150'
p4771
sS'name'
p4772
S'\xe0\xa4\xa8\xe0\xa5\x87'
p4773
sS'drel'
p4774
S'lwg__psp:\xe0\xa4\x85\xe0\xa4\xa7\xe0\xa4\xbf\xe0\xa4\x95\xe0\xa4\xbe\xe0\xa4\xb0\xe0\xa4\xbf\xe0\xa4\xaf\xe0\xa5\x8b\xe0\xa4\x82'
p4775
sS'chunktype'
p4776
S'child:NP8'
p4777
sS'af'
p4778
S'\xe0\xa4\xa8\xe0\xa5\x87,psp,,,,,,'
p4779
ssbsg1693
I01
sg1696
I00
sg1707
Nsg1694
Nsg194
I8
sg181
I4
sg2048
I2
sg1705
Nsg2049
S'PSP'
p4780
sg258
(issf_api
FeatureSet
p4781
(dp4782
g261
(dp4783
S'posn'
p4784
S'150'
p4785
sS'name'
p4786
S'\xe0\xa4\xa8\xe0\xa5\x87'
p4787
sS'af'
p4788
S'\xe0\xa4\xa8\xe0\xa5\x87,psp,,,,,,'
p4789
ssbsg1715
I00
sba(issf_api
Word
p4790
(dp4791
g2031
I00
sg2032
V\u092c\u0924\u093e\u092f\u093e
p4792
sg2034
(issf_api
FeatureSet
p4793
(dp4794
g261
(dp4795
S'posn'
p4796
S'160'
p4797
sS'name'
p4798
S'\xe0\xa4\xac\xe0\xa4\xa4\xe0\xa4\xbe\xe0\xa4\xaf\xe0\xa4\xbe'
p4799
sS'af'
p4800
S'\xe0\xa4\xac\xe0\xa4\xa4\xe0\xa4\xbe,v,m,sg,any,,\xe0\xa4\xaf\xe0\xa4\xbe,yA'
p4801
sS'chunkid'
p4802
S'VGF'
p4803
sS'chunktype'
p4804
S'head:VGF'
p4805
sS'voicetype'
p4806
S'active'
p4807
sS'stype'
p4808
S'declarative'
p4809
ssbsg1693
I01
sg1696
I00
sg1707
Nsg1694
Nsg194
I9
sg181
I4
sg2048
I2
sg1705
Nsg2049
S'VM'
p4810
sg258
(issf_api
FeatureSet
p4811
(dp4812
g261
(dp4813
S'posn'
p4814
S'160'
p4815
sS'name'
p4816
S'\xe0\xa4\xac\xe0\xa4\xa4\xe0\xa4\xbe\xe0\xa4\xaf\xe0\xa4\xbe'
p4817
sS'af'
p4818
S'\xe0\xa4\xac\xe0\xa4\xa4\xe0\xa4\xbe,v,m,sg,any,,\xe0\xa4\xaf\xe0\xa4\xbe,yA'
p4819
ssbsg1715
I00
sba(issf_api
Word
p4820
(dp4821
g2031
I00
sg2032
V\u0915\u093f
p4822
sg2034
(issf_api
FeatureSet
p4823
(dp4824
g261
(dp4825
S'posn'
p4826
S'170'
p4827
sS'name'
p4828
S'\xe0\xa4\x95\xe0\xa4\xbf'
p4829
sS'af'
p4830
S'\xe0\xa4\x95\xe0\xa4\xbf,avy,,,,,,'
p4831
sS'chunkid'
p4832
S'CCP2'
p4833
sS'drel'
p4834
S'k2:\xe0\xa4\xac\xe0\xa4\xa4\xe0\xa4\xbe\xe0\xa4\xaf\xe0\xa4\xbe'
p4835
sS'chunktype'
p4836
S'head:CCP2'
p4837
ssbsg1693
I01
sg1696
I00
sg1707
Nsg1694
Nsg194
I10
sg181
I4
sg2048
I2
sg1705
Nsg2049
S'CC'
p4838
sg258
(issf_api
FeatureSet
p4839
(dp4840
g261
(dp4841
S'posn'
p4842
S'170'
p4843
sS'name'
p4844
S'\xe0\xa4\x95\xe0\xa4\xbf'
p4845
sS'af'
p4846
S'\xe0\xa4\x95\xe0\xa4\xbf,avy,,,,,,'
p4847
ssbsg1715
I00
sba(issf_api
Word
p4848
(dp4849
g2031
I00
sg2032
V\u0938\u0940\u092e\u093e
p4850
sg2034
(issf_api
FeatureSet
p4851
(dp4852
g261
(dp4853
S'posn'
p4854
S'180'
p4855
sS'name'
p4856
S'\xe0\xa4\xb8\xe0\xa5\x80\xe0\xa4\xae\xe0\xa4\xbe'
p4857
sS'af'
p4858
S'\xe0\xa4\xb8\xe0\xa5\x80\xe0\xa4\xae\xe0\xa4\xbe,n,f,sg,3,o,0_\xe0\xa4\xaa\xe0\xa4\xb0,0'
p4859
sS'chunkid'
p4860
S'NP9'
p4861
sS'drel'
p4862
S'k7p:\xe0\xa4\xb9\xe0\xa5\x8b'
p4863
sS'vpos'
p4864
S'vib_2'
p4865
sS'chunktype'
p4866
S'head:NP9'
p4867
ssbsg1693
I01
sg1696
I00
sg1707
Nsg1694
Nsg194
I11
sg181
I4
sg2048
I2
sg1705
Nsg2049
S'NN'
p4868
sg258
(issf_api
FeatureSet
p4869
(dp4870
g261
(dp4871
S'posn'
p4872
S'180'
p4873
sS'name'
p4874
S'\xe0\xa4\xb8\xe0\xa5\x80\xe0\xa4\xae\xe0\xa4\xbe'
p4875
sS'af'
p4876
S'\xe0\xa4\xb8\xe0\xa5\x80\xe0\xa4\xae\xe0\xa4\xbe,n,f,sg,3,o,0,0'
p4877
ssbsg1715
I00
sba(issf_api
Word
p4878
(dp4879
g2031
I00
sg2032
V\u092a\u0930
p4880
sg2034
(issf_api
FeatureSet
p4881
(dp4882
g261
(dp4883
S'posn'
p4884
S'190'
p4885
sS'name'
p4886
S'\xe0\xa4\xaa\xe0\xa4\xb0'
p4887
sS'drel'
p4888
S'lwg__psp:\xe0\xa4\xb8\xe0\xa5\x80\xe0\xa4\xae\xe0\xa4\xbe'
p4889
sS'chunktype'
p4890
S'child:NP9'
p4891
sS'af'
p4892
S'\xe0\xa4\xaa\xe0\xa4\xb0,psp,,,,,,'
p4893
ssbsg1693
I01
sg1696
I00
sg1707
Nsg1694
Nsg194
I11
sg181
I4
sg2048
I2
sg1705
Nsg2049
S'PSP'
p4894
sg258
(issf_api
FeatureSet
p4895
(dp4896
g261
(dp4897
S'posn'
p4898
S'190'
p4899
sS'name'
p4900
S'\xe0\xa4\xaa\xe0\xa4\xb0'
p4901
sS'af'
p4902
S'\xe0\xa4\xaa\xe0\xa4\xb0,psp,,,,,,'
p4903
ssbsg1715
I00
sba(issf_api
Word
p4904
(dp4905
g2031
I00
sg2032
V\u0938\u0902\u092f\u0941\u0915\u094d\u0924
p4906
sg2034
(issf_api
FeatureSet
p4907
(dp4908
g261
(dp4909
S'posn'
p4910
S'200'
p4911
sS'name'
p4912
S'\xe0\xa4\xb8\xe0\xa4\x82\xe0\xa4\xaf\xe0\xa5\x81\xe0\xa4\x95\xe0\xa5\x8d\xe0\xa4\xa4'
p4913
sS'drel'
p4914
S'nmod__adj:\xe0\xa4\xa8\xe0\xa4\xbf\xe0\xa4\x97\xe0\xa4\xb0\xe0\xa4\xbe\xe0\xa4\xa8\xe0\xa5\x80'
p4915
sS'chunktype'
p4916
S'child:NP10'
p4917
sS'af'
p4918
S'\xe0\xa4\xb8\xe0\xa4\x82\xe0\xa4\xaf\xe0\xa5\x81\xe0\xa4\x95\xe0\xa5\x8d\xe0\xa4\xa4,adj,any,any,,o,,'
p4919
ssbsg1693
I01
sg1696
I00
sg1707
Nsg1694
Nsg194
I12
sg181
I4
sg2048
I2
sg1705
Nsg2049
S'JJ'
p4920
sg258
(issf_api
FeatureSet
p4921
(dp4922
g261
(dp4923
S'posn'
p4924
S'200'
p4925
sS'name'
p4926
S'\xe0\xa4\xb8\xe0\xa4\x82\xe0\xa4\xaf\xe0\xa5\x81\xe0\xa4\x95\xe0\xa5\x8d\xe0\xa4\xa4'
p4927
sS'af'
p4928
S'\xe0\xa4\xb8\xe0\xa4\x82\xe0\xa4\xaf\xe0\xa5\x81\xe0\xa4\x95\xe0\xa5\x8d\xe0\xa4\xa4,adj,any,any,,o,,'
p4929
ssbsg1715
I00
sba(issf_api
Word
p4930
(dp4931
g2031
I00
sg2032
V\u0928\u093f\u0917\u0930\u093e\u0928\u0940
p4932
sg2034
(issf_api
FeatureSet
p4933
(dp4934
g261
(dp4935
S'posn'
p4936
S'210'
p4937
sS'name'
p4938
S'\xe0\xa4\xa8\xe0\xa4\xbf\xe0\xa4\x97\xe0\xa4\xb0\xe0\xa4\xbe\xe0\xa4\xa8\xe0\xa5\x80'
p4939
sS'af'
p4940
S'\xe0\xa4\xa8\xe0\xa4\xbf\xe0\xa4\x97\xe0\xa4\xb0\xe0\xa4\xbe\xe0\xa4\xa8\xe0\xa5\x80,n,f,sg,3,o,0_\xe0\xa4\x95\xe0\xa4\xbe,0'
p4941
sS'chunkid'
p4942
S'NP10'
p4943
sS'drel'
p4944
S'r6:\xe0\xa4\x95\xe0\xa4\xbe\xe0\xa4\xae'
p4945
sS'vpos'
p4946
S'vib_3'
p4947
sS'chunktype'
p4948
S'head:NP10'
p4949
ssbsg1693
I01
sg1696
I00
sg1707
Nsg1694
Nsg194
I12
sg181
I4
sg2048
I2
sg1705
Nsg2049
S'NN'
p4950
sg258
(issf_api
FeatureSet
p4951
(dp4952
g261
(dp4953
S'posn'
p4954
S'210'
p4955
sS'name'
p4956
S'\xe0\xa4\xa8\xe0\xa4\xbf\xe0\xa4\x97\xe0\xa4\xb0\xe0\xa4\xbe\xe0\xa4\xa8\xe0\xa5\x80'
p4957
sS'af'
p4958
S'\xe0\xa4\xa8\xe0\xa4\xbf\xe0\xa4\x97\xe0\xa4\xb0\xe0\xa4\xbe\xe0\xa4\xa8\xe0\xa5\x80,n,f,sg,3,o,0,0'
p4959
ssbsg1715
I00
sba(issf_api
Word
p4960
(dp4961
g2031
I00
sg2032
V\u0915\u093e
p4962
sg2034
(issf_api
FeatureSet
p4963
(dp4964
g261
(dp4965
S'posn'
p4966
S'220'
p4967
sS'name'
p4968
S'\xe0\xa4\x95\xe0\xa4\xbe'
p4969
sS'drel'
p4970
S'lwg__psp:\xe0\xa4\xa8\xe0\xa4\xbf\xe0\xa4\x97\xe0\xa4\xb0\xe0\xa4\xbe\xe0\xa4\xa8\xe0\xa5\x80'
p4971
sS'chunktype'
p4972
S'child:NP10'
p4973
sS'af'
p4974
S'\xe0\xa4\x95\xe0\xa4\xbe,psp,m,sg,,d,,'
p4975
ssbsg1693
I01
sg1696
I00
sg1707
Nsg1694
Nsg194
I12
sg181
I4
sg2048
I2
sg1705
Nsg2049
S'PSP'
p4976
sg258
(issf_api
FeatureSet
p4977
(dp4978
g261
(dp4979
S'posn'
p4980
S'220'
p4981
sS'name'
p4982
S'\xe0\xa4\x95\xe0\xa4\xbe'
p4983
sS'af'
p4984
S'\xe0\xa4\x95\xe0\xa4\xbe,psp,m,sg,,d,,'
p4985
ssbsg1715
I00
sba(issf_api
Word
p4986
(dp4987
g2031
I00
sg2032
V\u0915\u093e\u092e
p4988
sg2034
(issf_api
FeatureSet
p4989
(dp4990
g261
(dp4991
S'posn'
p4992
S'230'
p4993
sS'name'
p4994
S'\xe0\xa4\x95\xe0\xa4\xbe\xe0\xa4\xae'
p4995
sS'af'
p4996
S'\xe0\xa4\x95\xe0\xa4\xbe\xe0\xa4\xae,n,m,sg,3,d,0,0'
p4997
sS'chunkid'
p4998
S'NP11'
p4999
sS'drel'
p5000
S'k1:\xe0\xa4\xb9\xe0\xa5\x8b'
p5001
sS'chunktype'
p5002
S'head:NP11'
p5003
ssbsg1693
I01
sg1696
I00
sg1707
Nsg1694
Nsg194
I13
sg181
I4
sg2048
I2
sg1705
Nsg2049
S'NN'
p5004
sg258
(issf_api
FeatureSet
p5005
(dp5006
g261
(dp5007
S'posn'
p5008
S'230'
p5009
sS'name'
p5010
S'\xe0\xa4\x95\xe0\xa4\xbe\xe0\xa4\xae'
p5011
sS'af'
p5012
S'\xe0\xa4\x95\xe0\xa4\xbe\xe0\xa4\xae,n,m,sg,3,d,0,0'
p5013
ssbsg1715
I00
sba(issf_api
Word
p5014
(dp5015
g2031
I00
sg2032
V\u091c\u0932\u094d\u0926
p5016
sg2034
(issf_api
FeatureSet
p5017
(dp5018
g261
(dp5019
S'posn'
p5020
S'240'
p5021
sS'name'
p5022
S'\xe0\xa4\x9c\xe0\xa4\xb2\xe0\xa5\x8d\xe0\xa4\xa6'
p5023
sS'af'
p5024
S'\xe0\xa4\x9c\xe0\xa4\xb2\xe0\xa5\x8d\xe0\xa4\xa6,adv,,,,,,'
p5025
sS'chunkid'
p5026
S'RBP'
p5027
sS'drel'
p5028
S'adv:\xe0\xa4\xb9\xe0\xa5\x8b'
p5029
sS'chunktype'
p5030
S'head:RBP'
p5031
ssbsg1693
I01
sg1696
I00
sg1707
Nsg1694
Nsg194
I14
sg181
I4
sg2048
I2
sg1705
Nsg2049
S'RB'
p5032
sg258
(issf_api
FeatureSet
p5033
(dp5034
g261
(dp5035
S'posn'
p5036
S'240'
p5037
sS'name'
p5038
S'\xe0\xa4\x9c\xe0\xa4\xb2\xe0\xa5\x8d\xe0\xa4\xa6'
p5039
sS'af'
p5040
S'\xe0\xa4\x9c\xe0\xa4\xb2\xe0\xa5\x8d\xe0\xa4\xa6,adv,,,,,,'
p5041
ssbsg1715
I00
sba(issf_api
Word
p5042
(dp5043
g2031
I00
sg2032
V\u0939\u0940
p5044
sg2034
(issf_api
FeatureSet
p5045
(dp5046
g261
(dp5047
S'posn'
p5048
S'250'
p5049
sS'name'
p5050
S'\xe0\xa4\xb9\xe0\xa5\x80'
p5051
sS'drel'
p5052
S'lwg__rp:\xe0\xa4\x9c\xe0\xa4\xb2\xe0\xa5\x8d\xe0\xa4\xa6'
p5053
sS'chunktype'
p5054
S'child:RBP'
p5055
sS'af'
p5056
S'\xe0\xa4\xb9\xe0\xa5\x80,avy,,,,,,'
p5057
ssbsg1693
I01
sg1696
I00
sg1707
Nsg1694
Nsg194
I14
sg181
I4
sg2048
I2
sg1705
Nsg2049
S'RP'
p5058
sg258
(issf_api
FeatureSet
p5059
(dp5060
g261
(dp5061
S'posn'
p5062
S'250'
p5063
sS'name'
p5064
S'\xe0\xa4\xb9\xe0\xa5\x80'
p5065
sS'af'
p5066
S'\xe0\xa4\xb9\xe0\xa5\x80,avy,,,,,,'
p5067
ssbsg1715
I00
sba(issf_api
Word
p5068
(dp5069
g2031
I00
sg2032
V\u0936\u0941\u0930\u0942
p5070
sg2034
(issf_api
FeatureSet
p5071
(dp5072
g261
(dp5073
S'posn'
p5074
S'260'
p5075
sS'name'
p5076
S'\xe0\xa4\xb6\xe0\xa5\x81\xe0\xa4\xb0\xe0\xa5\x82'
p5077
sS'af'
p5078
S'\xe0\xa4\xb6\xe0\xa5\x81\xe0\xa4\xb0\xe0\xa5\x82,n,m,sg,3,d,0,0'
p5079
sS'chunkid'
p5080
S'NP12'
p5081
sS'drel'
p5082
S'pof:\xe0\xa4\xb9\xe0\xa5\x8b'
p5083
sS'chunktype'
p5084
S'head:NP12'
p5085
ssbsg1693
I01
sg1696
I00
sg1707
Nsg1694
Nsg194
I15
sg181
I4
sg2048
I2
sg1705
Nsg2049
S'NN'
p5086
sg258
(issf_api
FeatureSet
p5087
(dp5088
g261
(dp5089
S'posn'
p5090
S'260'
p5091
sS'name'
p5092
S'\xe0\xa4\xb6\xe0\xa5\x81\xe0\xa4\xb0\xe0\xa5\x82'
p5093
sS'af'
p5094
S'\xe0\xa4\xb6\xe0\xa5\x81\xe0\xa4\xb0\xe0\xa5\x82,n,m,sg,3,d,0,0'
p5095
ssbsg1715
I00
sba(issf_api
Word
p5096
(dp5097
g2031
I00
sg2032
V\u0939\u094b
p5098
sg2034
(issf_api
FeatureSet
p5099
(dp5100
g261
(dp5101
S'posn'
p5102
S'270'
p5103
sS'name'
p5104
S'\xe0\xa4\xb9\xe0\xa5\x8b'
p5105
sS'af'
p5106
S'\xe0\xa4\xb9\xe0\xa5\x8b,v,any,sg,3,,0_\xe0\xa4\x9c\xe0\xa4\xbe+\xe0\xa4\x97\xe0\xa4\xbe,0'
p5107
sS'chunkid'
p5108
S'VGF2'
p5109
sS'stype'
p5110
S'declarative'
p5111
sS'drel'
p5112
S'ccof:\xe0\xa4\x95\xe0\xa4\xbf'
p5113
sS'voicetype'
p5114
S'active'
p5115
sS'vpos'
p5116
S'tam_2'
p5117
sS'chunktype'
p5118
S'head:VGF2'
p5119
ssbsg1693
I01
sg1696
I00
sg1707
Nsg1694
Nsg194
I16
sg181
I4
sg2048
I2
sg1705
Nsg2049
S'VM'
p5120
sg258
(issf_api
FeatureSet
p5121
(dp5122
g261
(dp5123
S'posn'
p5124
S'270'
p5125
sS'name'
p5126
S'\xe0\xa4\xb9\xe0\xa5\x8b'
p5127
sS'af'
p5128
S'\xe0\xa4\xb9\xe0\xa5\x8b,v,any,any,any,,0,0'
p5129
ssbsg1715
I00
sba(issf_api
Word
p5130
(dp5131
g2031
I00
sg2032
V\u091c\u093e\u090f\u0917\u093e
p5132
sg2034
(issf_api
FeatureSet
p5133
(dp5134
g261
(dp5135
S'posn'
p5136
S'280'
p5137
sS'name'
p5138
S'\xe0\xa4\x9c\xe0\xa4\xbe\xe0\xa4\x8f\xe0\xa4\x97\xe0\xa4\xbe'
p5139
sS'drel'
p5140
S'lwg__vaux:\xe0\xa4\xb9\xe0\xa5\x8b'
p5141
sS'chunktype'
p5142
S'child:VGF2'
p5143
sS'af'
p5144
S'\xe0\xa4\x9c\xe0\xa4\xbe,v,m,sg,3,,\xe0\xa4\x97\xe0\xa4\xbe,gA'
p5145
ssbsg1693
I01
sg1696
I00
sg1707
Nsg1694
Nsg194
I16
sg181
I4
sg2048
I2
sg1705
Nsg2049
S'VAUX'
p5146
sg258
(issf_api
FeatureSet
p5147
(dp5148
g261
(dp5149
S'posn'
p5150
S'280'
p5151
sS'name'
p5152
S'\xe0\xa4\x9c\xe0\xa4\xbe\xe0\xa4\x8f\xe0\xa4\x97\xe0\xa4\xbe'
p5153
sS'af'
p5154
S'\xe0\xa4\x9c\xe0\xa4\xbe,v,m,sg,3,,\xe0\xa4\x97\xe0\xa4\xbe,gA'
p5155
ssbsg1715
I00
sba(issf_api
Word
p5156
(dp5157
g2031
I00
sg2032
V\u0964
sg2034
(issf_api
FeatureSet
p5158
(dp5159
g261
(dp5160
S'posn'
p5161
S'290'
p5162
sS'name'
p5163
S'\xe0\xa5\xa4'
p5164
sS'af'
p5165
S'\xe0\xa5\xa4,punc,,,,,,'
p5166
sS'chunkid'
p5167
S'BLK'
p5168
sS'drel'
p5169
S'rsym:\xe0\xa4\xac\xe0\xa4\xa4\xe0\xa4\xbe\xe0\xa4\xaf\xe0\xa4\xbe'
p5170
sS'chunktype'
p5171
S'head:BLK'
p5172
ssbsg1693
I01
sg1696
I00
sg1707
Nsg1694
Nsg194
I17
sg181
I4
sg2048
I2
sg1705
Nsg2049
S'SYM'
p5173
sg258
(issf_api
FeatureSet
p5174
(dp5175
g261
(dp5176
S'posn'
p5177
S'290'
p5178
sS'name'
p5179
S'\xe0\xa5\xa4'
p5180
sS'af'
p5181
S'\xe0\xa5\xa4,punc,,,,,,'
p5182
ssbsg1715
I00
sba(issf_api
Word
p5183
(dp5184
g2031
I00
sg2032
V\u092a\u093f\u091b\u0932\u0940
p5185
sg2034
(issf_api
FeatureSet
p5186
(dp5187
g261
(dp5188
S'posn'
p5189
S'10'
p5190
sS'name'
p5191
S'\xe0\xa4\xaa\xe0\xa4\xbf\xe0\xa4\x9b\xe0\xa4\xb2\xe0\xa5\x80'
p5192
sS'drel'
p5193
S'nmod__adj:\xe0\xa4\xae\xe0\xa4\x88'
p5194
sS'chunktype'
p5195
S'child:NP'
p5196
sS'af'
p5197
S'\xe0\xa4\xaa\xe0\xa4\xbf\xe0\xa4\x9b\xe0\xa4\xb2\xe0\xa4\xbe,adj,f,sg,,o,,'
p5198
ssbsg1693
I01
sg1696
I00
sg1707
Nsg1694
Nsg194
I0
sg181
I5
sg2048
I2
sg1705
Nsg2049
S'JJ'
p5199
sg258
(issf_api
FeatureSet
p5200
(dp5201
g261
(dp5202
S'posn'
p5203
S'10'
p5204
sS'name'
p5205
S'\xe0\xa4\xaa\xe0\xa4\xbf\xe0\xa4\x9b\xe0\xa4\xb2\xe0\xa5\x80'
p5206
sS'af'
p5207
S'\xe0\xa4\xaa\xe0\xa4\xbf\xe0\xa4\x9b\xe0\xa4\xb2\xe0\xa4\xbe,adj,f,sg,,o,,'
p5208
ssbsg1715
I00
sba(issf_api
Word
p5209
(dp5210
g2031
I00
sg2032
V\u0967\u096f
p5211
sg2034
(issf_api
FeatureSet
p5212
(dp5213
g261
(dp5214
S'posn'
p5215
S'20'
p5216
sS'name'
p5217
S'\xe0\xa5\xa7\xe0\xa5\xaf'
p5218
sS'drel'
p5219
S'pof__cn:\xe0\xa4\xae\xe0\xa4\x88'
p5220
sS'chunktype'
p5221
S'child:NP'
p5222
sS'af'
p5223
S'\xe0\xa5\xa7\xe0\xa5\xaf,n,any,sg,3,d,0,0'
p5224
ssbsg1693
I01
sg1696
I00
sg1707
Nsg1694
Nsg194
I0
sg181
I5
sg2048
I2
sg1705
Nsg2049
S'NNPC'
p5225
sg258
(issf_api
FeatureSet
p5226
(dp5227
g261
(dp5228
S'posn'
p5229
S'20'
p5230
sS'name'
p5231
S'\xe0\xa5\xa7\xe0\xa5\xaf'
p5232
sS'af'
p5233
S'\xe0\xa5\xa7\xe0\xa5\xaf,n,any,sg,3,d,0,0'
p5234
ssbsg1715
I00
sba(issf_api
Word
p5235
(dp5236
g2031
I00
sg2032
V\u092e\u0908
p5237
sg2034
(issf_api
FeatureSet
p5238
(dp5239
g261
(dp5240
S'posn'
p5241
S'30'
p5242
sS'name'
p5243
S'\xe0\xa4\xae\xe0\xa4\x88'
p5244
sS'af'
p5245
S'\xe0\xa4\xae\xe0\xa4\x88,n,f,sg,3,o,0_\xe0\xa4\x95\xe0\xa5\x8b,0'
p5246
sS'chunkid'
p5247
S'NP'
p5248
sS'drel'
p5249
S'k7t:\xe0\xa4\x95\xe0\xa4\xbf\xe0\xa4\xaf\xe0\xa4\xbe'
p5250
sS'vpos'
p5251
S'vib_4'
p5252
sS'chunktype'
p5253
S'head:NP'
p5254
ssbsg1693
I01
sg1696
I00
sg1707
Nsg1694
Nsg194
I0
sg181
I5
sg2048
I2
sg1705
Nsg2049
S'NNP'
p5255
sg258
(issf_api
FeatureSet
p5256
(dp5257
g261
(dp5258
S'posn'
p5259
S'30'
p5260
sS'name'
p5261
S'\xe0\xa4\xae\xe0\xa4\x88'
p5262
sS'af'
p5263
S'\xe0\xa4\xae\xe0\xa4\x88,n,f,sg,3,o,0,0'
p5264
ssbsg1715
I00
sba(issf_api
Word
p5265
(dp5266
g2031
I00
sg2032
V\u0915\u094b
p5267
sg2034
(issf_api
FeatureSet
p5268
(dp5269
g261
(dp5270
S'posn'
p5271
S'40'
p5272
sS'name'
p5273
S'\xe0\xa4\x95\xe0\xa5\x8b'
p5274
sS'drel'
p5275
S'lwg__psp:\xe0\xa4\xae\xe0\xa4\x88'
p5276
sS'chunktype'
p5277
S'child:NP'
p5278
sS'af'
p5279
S'\xe0\xa4\x95\xe0\xa5\x8b,psp,,,,,,'
p5280
ssbsg1693
I01
sg1696
I00
sg1707
Nsg1694
Nsg194
I0
sg181
I5
sg2048
I2
sg1705
Nsg2049
S'PSP'
p5281
sg258
(issf_api
FeatureSet
p5282
(dp5283
g261
(dp5284
S'posn'
p5285
S'40'
p5286
sS'name'
p5287
S'\xe0\xa4\x95\xe0\xa5\x8b'
p5288
sS'af'
p5289
S'\xe0\xa4\x95\xe0\xa5\x8b,psp,,,,,,'
p5290
ssbsg1715
I00
sba(issf_api
Word
p5291
(dp5292
g2031
I00
sg2032
V\u092c\u093e\u0902\u0917\u094d\u0932\u093e\u0926\u0947\u0936
p5293
sg2034
(issf_api
FeatureSet
p5294
(dp5295
g261
(dp5296
S'posn'
p5297
S'50'
p5298
sS'name'
p5299
S'\xe0\xa4\xac\xe0\xa4\xbe\xe0\xa4\x82\xe0\xa4\x97\xe0\xa5\x8d\xe0\xa4\xb2\xe0\xa4\xbe\xe0\xa4\xa6\xe0\xa5\x87\xe0\xa4\xb6'
p5300
sS'af'
p5301
S'\xe0\xa4\xac\xe0\xa4\xbe\xe0\xa4\x82\xe0\xa4\x97\xe0\xa5\x8d\xe0\xa4\xb2\xe0\xa4\xbe\xe0\xa4\xa6\xe0\xa5\x87\xe0\xa4\xb6,n,m,sg,3,o,0_\xe0\xa4\x95\xe0\xa4\xbe,0'
p5302
sS'chunkid'
p5303
S'NP2'
p5304
sS'drel'
p5305
S'r6:\xe0\xa4\x95\xe0\xa5\x8d\xe0\xa4\xb7\xe0\xa5\x87\xe0\xa4\xa4\xe0\xa5\x8d\xe0\xa4\xb0'
p5306
sS'vpos'
p5307
S'vib_2'
p5308
sS'chunktype'
p5309
S'head:NP2'
p5310
ssbsg1693
I01
sg1696
I00
sg1707
Nsg1694
Nsg194
I1
sg181
I5
sg2048
I2
sg1705
Nsg2049
S'NNP'
p5311
sg258
(issf_api
FeatureSet
p5312
(dp5313
g261
(dp5314
S'posn'
p5315
S'50'
p5316
sS'name'
p5317
S'\xe0\xa4\xac\xe0\xa4\xbe\xe0\xa4\x82\xe0\xa4\x97\xe0\xa5\x8d\xe0\xa4\xb2\xe0\xa4\xbe\xe0\xa4\xa6\xe0\xa5\x87\xe0\xa4\xb6'
p5318
sS'af'
p5319
S'\xe0\xa4\xac\xe0\xa4\xbe\xe0\xa4\x82\xe0\xa4\x97\xe0\xa5\x8d\xe0\xa4\xb2\xe0\xa4\xbe\xe0\xa4\xa6\xe0\xa5\x87\xe0\xa4\xb6,n,m,sg,3,o,0,0'
p5320
ssbsg1715
I00
sba(issf_api
Word
p5321
(dp5322
g2031
I00
sg2032
V\u0915\u0947
p5323
sg2034
(issf_api
FeatureSet
p5324
(dp5325
g261
(dp5326
S'posn'
p5327
S'60'
p5328
sS'name'
p5329
S'\xe0\xa4\x95\xe0\xa5\x87'
p5330
sS'drel'
p5331
S'lwg__psp:\xe0\xa4\xac\xe0\xa4\xbe\xe0\xa4\x82\xe0\xa4\x97\xe0\xa5\x8d\xe0\xa4\xb2\xe0\xa4\xbe\xe0\xa4\xa6\xe0\xa5\x87\xe0\xa4\xb6'
p5332
sS'chunktype'
p5333
S'child:NP2'
p5334
sS'af'
p5335
S'\xe0\xa4\x95\xe0\xa4\xbe,psp,m,sg,,o,,'
p5336
ssbsg1693
I01
sg1696
I00
sg1707
Nsg1694
Nsg194
I1
sg181
I5
sg2048
I2
sg1705
Nsg2049
S'PSP'
p5337
sg258
(issf_api
FeatureSet
p5338
(dp5339
g261
(dp5340
S'posn'
p5341
S'60'
p5342
sS'name'
p5343
S'\xe0\xa4\x95\xe0\xa5\x87'
p5344
sS'af'
p5345
S'\xe0\xa4\x95\xe0\xa4\xbe,psp,m,sg,,o,,'
p5346
ssbsg1715
I00
sba(issf_api
Word
p5347
(dp5348
g2031
I00
sg2032
V\u0924\u093e\u0902\u092c\u093f\u0932
p5349
sg2034
(issf_api
FeatureSet
p5350
(dp5351
g261
(dp5352
S'posn'
p5353
S'70'
p5354
sS'name'
p5355
S'\xe0\xa4\xa4\xe0\xa4\xbe\xe0\xa4\x82\xe0\xa4\xac\xe0\xa4\xbf\xe0\xa4\xb2'
p5356
sS'drel'
p5357
S'nmod__adj:\xe0\xa4\x95\xe0\xa5\x8d\xe0\xa4\xb7\xe0\xa5\x87\xe0\xa4\xa4\xe0\xa5\x8d\xe0\xa4\xb0'
p5358
sS'chunktype'
p5359
S'child:NP3'
p5360
sS'af'
p5361
S'\xe0\xa4\xa4\xe0\xa4\xbe\xe0\xa4\x82\xe0\xa4\xac\xe0\xa4\xbf\xe0\xa4\xb2,n,m,sg,3,d,0,0'
p5362
ssbsg1693
I01
sg1696
I00
sg1707
Nsg1694
Nsg194
I2
sg181
I5
sg2048
I2
sg1705
Nsg2049
S'NNP'
p5363
sg258
(issf_api
FeatureSet
p5364
(dp5365
g261
(dp5366
S'posn'
p5367
S'70'
p5368
sS'name'
p5369
S'\xe0\xa4\xa4\xe0\xa4\xbe\xe0\xa4\x82\xe0\xa4\xac\xe0\xa4\xbf\xe0\xa4\xb2'
p5370
sS'af'
p5371
S'\xe0\xa4\xa4\xe0\xa4\xbe\xe0\xa4\x82\xe0\xa4\xac\xe0\xa4\xbf\xe0\xa4\xb2,n,m,sg,3,d,0,0'
p5372
ssbsg1715
I00
sba(issf_api
Word
p5373
(dp5374
g2031
I00
sg2032
V\u0915\u094d\u0937\u0947\u0924\u094d\u0930
p5375
sg2034
(issf_api
FeatureSet
p5376
(dp5377
g261
(dp5378
S'posn'
p5379
S'80'
p5380
sS'name'
p5381
S'\xe0\xa4\x95\xe0\xa5\x8d\xe0\xa4\xb7\xe0\xa5\x87\xe0\xa4\xa4\xe0\xa5\x8d\xe0\xa4\xb0'
p5382
sS'af'
p5383
S'\xe0\xa4\x95\xe0\xa5\x8d\xe0\xa4\xb7\xe0\xa5\x87\xe0\xa4\xa4\xe0\xa5\x8d\xe0\xa4\xb0,n,m,sg,3,o,0_\xe0\xa4\xae\xe0\xa5\x87\xe0\xa4\x82,0'
p5384
sS'chunkid'
p5385
S'NP3'
p5386
sS'drel'
p5387
S'k7p:\xe0\xa4\x95\xe0\xa4\xbf\xe0\xa4\xaf\xe0\xa4\xbe'
p5388
sS'vpos'
p5389
S'vib_vib_3'
p5390
sS'chunktype'
p5391
S'head:NP3'
p5392
ssbsg1693
I01
sg1696
I00
sg1707
Nsg1694
Nsg194
I2
sg181
I5
sg2048
I2
sg1705
Nsg2049
S'NN'
p5393
sg258
(issf_api
FeatureSet
p5394
(dp5395
g261
(dp5396
S'posn'
p5397
S'80'
p5398
sS'name'
p5399
S'\xe0\xa4\x95\xe0\xa5\x8d\xe0\xa4\xb7\xe0\xa5\x87\xe0\xa4\xa4\xe0\xa5\x8d\xe0\xa4\xb0'
p5400
sS'af'
p5401
S'\xe0\xa4\x95\xe0\xa5\x8d\xe0\xa4\xb7\xe0\xa5\x87\xe0\xa4\xa4\xe0\xa5\x8d\xe0\xa4\xb0,n,m,sg,3,o,0,0'
p5402
ssbsg1715
I00
sba(issf_api
Word
p5403
(dp5404
g2031
I00
sg2032
V\u092e\u0947\u0902
p5405
sg2034
(issf_api
FeatureSet
p5406
(dp5407
g261
(dp5408
S'posn'
p5409
S'90'
p5410
sS'name'
p5411
S'\xe0\xa4\xae\xe0\xa5\x87\xe0\xa4\x82'
p5412
sS'drel'
p5413
S'lwg__psp:\xe0\xa4\x95\xe0\xa5\x8d\xe0\xa4\xb7\xe0\xa5\x87\xe0\xa4\xa4\xe0\xa5\x8d\xe0\xa4\xb0'
p5414
sS'chunktype'
p5415
S'child:NP3'
p5416
sS'af'
p5417
S'\xe0\xa4\xae\xe0\xa5\x87\xe0\xa4\x82,psp,,,,,,'
p5418
ssbsg1693
I01
sg1696
I00
sg1707
Nsg1694
Nsg194
I2
sg181
I5
sg2048
I2
sg1705
Nsg2049
S'PSP'
p5419
sg258
(issf_api
FeatureSet
p5420
(dp5421
g261
(dp5422
S'posn'
p5423
S'90'
p5424
sS'name'
p5425
S'\xe0\xa4\xae\xe0\xa5\x87\xe0\xa4\x82'
p5426
sS'af'
p5427
S'\xe0\xa4\xae\xe0\xa5\x87\xe0\xa4\x82,psp,,,,,,'
p5428
ssbsg1715
I00
sba(issf_api
Word
p5429
(dp5430
g2031
I00
sg2032
V\u0921\u0940\u0906\u0908\u091c\u0940
p5431
sg2034
(issf_api
FeatureSet
p5432
(dp5433
g261
(dp5434
S'posn'
p5435
S'100'
p5436
sS'name'
p5437
S'\xe0\xa4\xa1\xe0\xa5\x80\xe0\xa4\x86\xe0\xa4\x88\xe0\xa4\x9c\xe0\xa5\x80'
p5438
sS'drel'
p5439
S'nmod__adj:\xe0\xa4\xb8\xe0\xa5\x8d\xe0\xa4\xa4\xe0\xa4\xb0'
p5440
sS'chunktype'
p5441
S'child:NP4'
p5442
sS'af'
p5443
S'\xe0\xa4\xa1\xe0\xa5\x80\xe0\xa4\x86\xe0\xa4\x88\xe0\xa4\x9c\xe0\xa5\x80,n,m,sg,3,d,0,0'
p5444
ssbsg1693
I01
sg1696
I00
sg1707
Nsg1694
Nsg194
I3
sg181
I5
sg2048
I2
sg1705
Nsg2049
S'NNP'
p5445
sg258
(issf_api
FeatureSet
p5446
(dp5447
g261
(dp5448
S'posn'
p5449
S'100'
p5450
sS'name'
p5451
S'\xe0\xa4\xa1\xe0\xa5\x80\xe0\xa4\x86\xe0\xa4\x88\xe0\xa4\x9c\xe0\xa5\x80'
p5452
sS'af'
p5453
S'\xe0\xa4\xa1\xe0\xa5\x80\xe0\xa4\x86\xe0\xa4\x88\xe0\xa4\x9c\xe0\xa5\x80,n,m,sg,3,d,0,0'
p5454
ssbsg1715
I00
sba(issf_api
Word
p5455
(dp5456
g2031
I00
sg2032
V\u0938\u094d\u0924\u0930
p5457
sg2034
(issf_api
FeatureSet
p5458
(dp5459
g261
(dp5460
S'posn'
p5461
S'110'
p5462
sS'name'
p5463
S'\xe0\xa4\xb8\xe0\xa5\x8d\xe0\xa4\xa4\xe0\xa4\xb0'
p5464
sS'af'
p5465
S'\xe0\xa4\xb8\xe0\xa5\x8d\xe0\xa4\xa4\xe0\xa4\xb0,n,m,sg,3,o,0_\xe0\xa4\x95\xe0\xa4\xbe,0'
p5466
sS'chunkid'
p5467
S'NP4'
p5468
sS'drel'
p5469
S'r6:\xe0\xa4\xac\xe0\xa5\x88\xe0\xa4\xa0\xe0\xa4\x95'
p5470
sS'vpos'
p5471
S'vib_vib_3'
p5472
sS'chunktype'
p5473
S'head:NP4'
p5474
ssbsg1693
I01
sg1696
I00
sg1707
Nsg1694
Nsg194
I3
sg181
I5
sg2048
I2
sg1705
Nsg2049
S'NN'
p5475
sg258
(issf_api
FeatureSet
p5476
(dp5477
g261
(dp5478
S'posn'
p5479
S'110'
p5480
sS'name'
p5481
S'\xe0\xa4\xb8\xe0\xa5\x8d\xe0\xa4\xa4\xe0\xa4\xb0'
p5482
sS'af'
p5483
S'\xe0\xa4\xb8\xe0\xa5\x8d\xe0\xa4\xa4\xe0\xa4\xb0,n,m,sg,3,o,0,0'
p5484
ssbsg1715
I00
sba(issf_api
Word
p5485
(dp5486
g2031
I00
sg2032
V\u0915\u0940
p5487
sg2034
(issf_api
FeatureSet
p5488
(dp5489
g261
(dp5490
S'posn'
p5491
S'120'
p5492
sS'name'
p5493
S'\xe0\xa4\x95\xe0\xa5\x80'
p5494
sS'drel'
p5495
S'lwg__psp:\xe0\xa4\xb8\xe0\xa5\x8d\xe0\xa4\xa4\xe0\xa4\xb0'
p5496
sS'chunktype'
p5497
S'child:NP4'
p5498
sS'af'
p5499
S'\xe0\xa4\x95\xe0\xa4\xbe,psp,f,sg,,o,,'
p5500
ssbsg1693
I01
sg1696
I00
sg1707
Nsg1694
Nsg194
I3
sg181
I5
sg2048
I2
sg1705
Nsg2049
S'PSP'
p5501
sg258
(issf_api
FeatureSet
p5502
(dp5503
g261
(dp5504
S'posn'
p5505
S'120'
p5506
sS'name'
p5507
S'\xe0\xa4\x95\xe0\xa5\x80'
p5508
sS'af'
p5509
S'\xe0\xa4\x95\xe0\xa4\xbe,psp,f,sg,,o,,'
p5510
ssbsg1715
I00
sba(issf_api
Word
p5511
(dp5512
g2031
I00
sg2032
V\u092c\u0948\u0920\u0915
p5513
sg2034
(issf_api
FeatureSet
p5514
(dp5515
g261
(dp5516
S'posn'
p5517
S'130'
p5518
sS'name'
p5519
S'\xe0\xa4\xac\xe0\xa5\x88\xe0\xa4\xa0\xe0\xa4\x95'
p5520
sS'af'
p5521
S'\xe0\xa4\xac\xe0\xa5\x88\xe0\xa4\xa0\xe0\xa4\x95,n,f,sg,3,o,0_\xe0\xa4\xae\xe0\xa5\x87\xe0\xa4\x82,0'
p5522
sS'chunkid'
p5523
S'NP5'
p5524
sS'drel'
p5525
S'k7:\xe0\xa4\x95\xe0\xa4\xbf\xe0\xa4\xaf\xe0\xa4\xbe'
p5526
sS'vpos'
p5527
S'vib_2'
p5528
sS'chunktype'
p5529
S'head:NP5'
p5530
ssbsg1693
I01
sg1696
I00
sg1707
Nsg1694
Nsg194
I4
sg181
I5
sg2048
I2
sg1705
Nsg2049
S'NN'
p5531
sg258
(issf_api
FeatureSet
p5532
(dp5533
g261
(dp5534
S'posn'
p5535
S'130'
p5536
sS'name'
p5537
S'\xe0\xa4\xac\xe0\xa5\x88\xe0\xa4\xa0\xe0\xa4\x95'
p5538
sS'af'
p5539
S'\xe0\xa4\xac\xe0\xa5\x88\xe0\xa4\xa0\xe0\xa4\x95,n,f,sg,3,o,0,0'
p5540
ssbsg1715
I00
sba(issf_api
Word
p5541
(dp5542
g2031
I00
sg2032
V\u092e\u0947\u0902
p5543
sg2034
(issf_api
FeatureSet
p5544
(dp5545
g261
(dp5546
S'posn'
p5547
S'140'
p5548
sS'name'
p5549
S'\xe0\xa4\xae\xe0\xa5\x87\xe0\xa4\x822'
p5550
sS'drel'
p5551
S'lwg__psp:\xe0\xa4\xac\xe0\xa5\x88\xe0\xa4\xa0\xe0\xa4\x95'
p5552
sS'chunktype'
p5553
S'child:NP5'
p5554
sS'af'
p5555
S'\xe0\xa4\xae\xe0\xa5\x87\xe0\xa4\x82,psp,,,,,,'
p5556
ssbsg1693
I01
sg1696
I00
sg1707
Nsg1694
Nsg194
I4
sg181
I5
sg2048
I2
sg1705
Nsg2049
S'PSP'
p5557
sg258
(issf_api
FeatureSet
p5558
(dp5559
g261
(dp5560
S'posn'
p5561
S'140'
p5562
sS'name'
p5563
S'\xe0\xa4\xae\xe0\xa5\x87\xe0\xa4\x822'
p5564
sS'af'
p5565
S'\xe0\xa4\xae\xe0\xa5\x87\xe0\xa4\x82,psp,,,,,,'
p5566
ssbsg1715
I00
sba(issf_api
Word
p5567
(dp5568
g2031
I00
sg2032
V\u0907\u0938\u0915\u093e
p5569
sg2034
(issf_api
FeatureSet
p5570
(dp5571
g261
(dp5572
S'posn'
p5573
S'150'
p5574
sS'name'
p5575
S'\xe0\xa4\x87\xe0\xa4\xb8\xe0\xa4\x95\xe0\xa4\xbe'
p5576
sS'af'
p5577
S'\xe0\xa4\xaf\xe0\xa4\xb9,pn,m,sg,3,o,\xe0\xa4\x95\xe0\xa4\xbe,kA'
p5578
sS'chunkid'
p5579
S'NP6'
p5580
sS'drel'
p5581
S'r6-k2:\xe0\xa4\xab\xe0\xa5\x88\xe0\xa4\xb8\xe0\xa4\xb2\xe0\xa4\xbe'
p5582
sS'chunktype'
p5583
S'head:NP6'
p5584
ssbsg1693
I01
sg1696
I00
sg1707
Nsg1694
Nsg194
I5
sg181
I5
sg2048
I2
sg1705
Nsg2049
S'PRP'
p5585
sg258
(issf_api
FeatureSet
p5586
(dp5587
g261
(dp5588
S'posn'
p5589
S'150'
p5590
sS'name'
p5591
S'\xe0\xa4\x87\xe0\xa4\xb8\xe0\xa4\x95\xe0\xa4\xbe'
p5592
sS'af'
p5593
S'\xe0\xa4\xaf\xe0\xa4\xb9,pn,m,sg,3,o,\xe0\xa4\x95\xe0\xa4\xbe,kA'
p5594
ssbsg1715
I00
sba(issf_api
Word
p5595
(dp5596
g2031
I00
sg2032
V\u092b\u0948\u0938\u0932\u093e
p5597
sg2034
(issf_api
FeatureSet
p5598
(dp5599
g261
(dp5600
S'posn'
p5601
S'160'
p5602
sS'name'
p5603
S'\xe0\xa4\xab\xe0\xa5\x88\xe0\xa4\xb8\xe0\xa4\xb2\xe0\xa4\xbe'
p5604
sS'af'
p5605
S'\xe0\xa4\xab\xe0\xa5\x88\xe0\xa4\xb8\xe0\xa4\xb2\xe0\xa4\xbe,n,m,sg,3,d,0,0'
p5606
sS'chunkid'
p5607
S'NP7'
p5608
sS'drel'
p5609
S'pof:\xe0\xa4\x95\xe0\xa4\xbf\xe0\xa4\xaf\xe0\xa4\xbe'
p5610
sS'chunktype'
p5611
S'head:NP7'
p5612
ssbsg1693
I01
sg1696
I00
sg1707
Nsg1694
Nsg194
I6
sg181
I5
sg2048
I2
sg1705
Nsg2049
S'NN'
p5613
sg258
(issf_api
FeatureSet
p5614
(dp5615
g261
(dp5616
S'posn'
p5617
S'160'
p5618
sS'name'
p5619
S'\xe0\xa4\xab\xe0\xa5\x88\xe0\xa4\xb8\xe0\xa4\xb2\xe0\xa4\xbe'
p5620
sS'af'
p5621
S'\xe0\xa4\xab\xe0\xa5\x88\xe0\xa4\xb8\xe0\xa4\xb2\xe0\xa4\xbe,n,m,sg,3,d,0,0'
p5622
ssbsg1715
I00
sba(issf_api
Word
p5623
(dp5624
g2031
I00
sg2032
V\u0915\u093f\u092f\u093e
p5625
sg2034
(issf_api
FeatureSet
p5626
(dp5627
g261
(dp5628
S'posn'
p5629
S'170'
p5630
sS'name'
p5631
S'\xe0\xa4\x95\xe0\xa4\xbf\xe0\xa4\xaf\xe0\xa4\xbe'
p5632
sS'af'
p5633
S'\xe0\xa4\x95\xe0\xa4\xb0,v,m,sg,any,,\xe0\xa4\xaf\xe0\xa4\xbe_\xe0\xa4\x9c\xe0\xa4\xbe+\xe0\xa4\xaf\xe0\xa4\xbe\xe0\xa5\xa7,yA'
p5634
sS'chunkid'
p5635
S'VGF'
p5636
sS'chunktype'
p5637
S'head:VGF'
p5638
sS'voicetype'
p5639
S'active'
p5640
sS'vpos'
p5641
S'tam_2'
p5642
sS'stype'
p5643
S'declarative'
p5644
ssbsg1693
I01
sg1696
I00
sg1707
Nsg1694
Nsg194
I7
sg181
I5
sg2048
I2
sg1705
Nsg2049
S'VM'
p5645
sg258
(issf_api
FeatureSet
p5646
(dp5647
g261
(dp5648
S'posn'
p5649
S'170'
p5650
sS'name'
p5651
S'\xe0\xa4\x95\xe0\xa4\xbf\xe0\xa4\xaf\xe0\xa4\xbe'
p5652
sS'af'
p5653
S'\xe0\xa4\x95\xe0\xa4\xb0,v,m,sg,any,,\xe0\xa4\xaf\xe0\xa4\xbe,yA'
p5654
ssbsg1715
I00
sba(issf_api
Word
p5655
(dp5656
g2031
I00
sg2032
V\u0917\u092f\u093e
p5657
sg2034
(issf_api
FeatureSet
p5658
(dp5659
g261
(dp5660
S'posn'
p5661
S'180'
p5662
sS'name'
p5663
S'\xe0\xa4\x97\xe0\xa4\xaf\xe0\xa4\xbe'
p5664
sS'drel'
p5665
S'lwg__vaux:\xe0\xa4\x95\xe0\xa4\xbf\xe0\xa4\xaf\xe0\xa4\xbe'
p5666
sS'chunktype'
p5667
S'child:VGF'
p5668
sS'af'
p5669
S'\xe0\xa4\x9c\xe0\xa4\xbe,v,m,sg,any,,\xe0\xa4\xaf\xe0\xa4\xbe\xe0\xa5\xa7,yA1'
p5670
ssbsg1693
I01
sg1696
I00
sg1707
Nsg1694
Nsg194
I7
sg181
I5
sg2048
I2
sg1705
Nsg2049
S'VAUX'
p5671
sg258
(issf_api
FeatureSet
p5672
(dp5673
g261
(dp5674
S'posn'
p5675
S'180'
p5676
sS'name'
p5677
S'\xe0\xa4\x97\xe0\xa4\xaf\xe0\xa4\xbe'
p5678
sS'af'
p5679
S'\xe0\xa4\x9c\xe0\xa4\xbe,v,m,sg,any,,\xe0\xa4\xaf\xe0\xa4\xbe\xe0\xa5\xa7,yA1'
p5680
ssbsg1715
I00
sba(issf_api
Word
p5681
(dp5682
g2031
I00
sg2032
V\u0964
sg2034
(issf_api
FeatureSet
p5683
(dp5684
g261
(dp5685
S'posn'
p5686
S'190'
p5687
sS'name'
p5688
S'\xe0\xa5\xa4'
p5689
sS'af'
p5690
S'\xe0\xa5\xa4,punc,,,,,,'
p5691
sS'chunkid'
p5692
S'BLK'
p5693
sS'drel'
p5694
S'rsym:\xe0\xa4\x95\xe0\xa4\xbf\xe0\xa4\xaf\xe0\xa4\xbe'
p5695
sS'chunktype'
p5696
S'head:BLK'
p5697
ssbsg1693
I00
sg1696
I00
sg1707
Nsg1694
Nsg194
I8
sg181
I5
sg2048
Nsg1705
Nsg2049
S'SYM'
p5698
sg258
(issf_api
FeatureSet
p5699
(dp5700
g261
(dp5701
S'posn'
p5702
S'190'
p5703
sS'name'
p5704
S'\xe0\xa5\xa4'
p5705
sS'af'
p5706
S'\xe0\xa5\xa4,punc,,,,,,'
p5707
ssbsg1715
I00
sba(issf_api
Word
p5708
(dp5709
g2031
I00
sg2032
V\u0909\u0927\u0930
p5710
sg2034
(issf_api
FeatureSet
p5711
(dp5712
g261
(dp5713
S'posn'
p5714
S'10'
p5715
sS'name'
p5716
S'\xe0\xa4\x89\xe0\xa4\xa7\xe0\xa4\xb0'
p5717
sS'af'
p5718
S'\xe0\xa4\x89\xe0\xa4\xa7\xe0\xa4\xb0,nst,m,sg,3,d,,'
p5719
sS'chunkid'
p5720
S'NP'
p5721
sS'drel'
p5722
S'sent-adv:\xe0\xa4\xac\xe0\xa4\xa4\xe0\xa4\xbe\xe0\xa4\xaf\xe0\xa4\xbe'
p5723
sS'chunktype'
p5724
S'head:NP'
p5725
ssbsg1693
I00
sg1696
I00
sg1707
g1818
sg1694
(lp5726
I85
aI86
aI87
aI88
aI89
aI90
aI91
aI92
aI93
aI94
aI95
aI96
aI97
aI98
aI99
aI100
aI101
aI102
aI103
aI104
aI105
aI106
aI107
aI108
aI109
aI110
aI111
aI112
aI113
aI114
aI115
aI116
aI117
aI118
aI119
aI120
aI121
aI122
aI123
aI124
aI125
aI126
aI127
aI128
aI129
aI130
aI131
asg194
I0
sg181
I6
sg2048
I2
sg1705
(lp5727
I135
aI136
aI137
aI138
aI139
aI140
aI141
aI142
aI143
aI144
aI145
aI146
aI147
aI148
aI149
aI150
asg2049
S'NST'
p5728
sg258
(issf_api
FeatureSet
p5729
(dp5730
g261
(dp5731
S'posn'
p5732
S'10'
p5733
sS'name'
p5734
S'\xe0\xa4\x89\xe0\xa4\xa7\xe0\xa4\xb0'
p5735
sS'af'
p5736
S'\xe0\xa4\x89\xe0\xa4\xa7\xe0\xa4\xb0,nst,m,sg,3,d,,'
p5737
ssbsg1715
I01
sba(issf_api
Word
p5738
(dp5739
g2031
I00
sg2032
V\u090f\u0915
p5740
sg2034
(issf_api
FeatureSet
p5741
(dp5742
g261
(dp5743
S'posn'
p5744
S'20'
p5745
sS'name'
p5746
S'\xe0\xa4\x8f\xe0\xa4\x95'
p5747
sS'drel'
p5748
S'nmod__adj:\xe0\xa4\x85\xe0\xa4\xa7\xe0\xa4\xbf\xe0\xa4\x95\xe0\xa4\xbe\xe0\xa4\xb0\xe0\xa5\x80'
p5749
sS'chunktype'
p5750
S'child:NP2'
p5751
sS'af'
p5752
S'\xe0\xa4\x8f\xe0\xa4\x95,num,any,any,,any,,'
p5753
ssbsg1693
I00
sg1696
I00
sg1707
g1818
sg1694
g5726
sg194
I1
sg181
I6
sg2048
I2
sg1705
g5727
sg2049
S'QC'
p5754
sg258
(issf_api
FeatureSet
p5755
(dp5756
g261
(dp5757
S'posn'
p5758
S'20'
p5759
sS'name'
p5760
S'\xe0\xa4\x8f\xe0\xa4\x95'
p5761
sS'af'
p5762
S'\xe0\xa4\x8f\xe0\xa4\x95,num,any,any,,any,,'
p5763
ssbsg1715
I01
sba(issf_api
Word
p5764
(dp5765
g2031
I00
sg2032
V\u0935\u0930\u093f\u0937\u094d\u0920
p5766
sg2034
(issf_api
FeatureSet
p5767
(dp5768
g261
(dp5769
S'posn'
p5770
S'30'
p5771
sS'name'
p5772
S'\xe0\xa4\xb5\xe0\xa4\xb0\xe0\xa4\xbf\xe0\xa4\xb7\xe0\xa5\x8d\xe0\xa4\xa0'
p5773
sS'drel'
p5774
S'nmod__adj:\xe0\xa4\x85\xe0\xa4\xa7\xe0\xa4\xbf\xe0\xa4\x95\xe0\xa4\xbe\xe0\xa4\xb0\xe0\xa5\x80'
p5775
sS'chunktype'
p5776
S'child:NP2'
p5777
sS'af'
p5778
S'\xe0\xa4\xb5\xe0\xa4\xb0\xe0\xa4\xbf\xe0\xa4\xb7\xe0\xa5\x8d\xe0\xa4\xa0,adj,any,any,,o,,'
p5779
ssbsg1693
I00
sg1696
I01
sg1707
Nsg1694
Nsg194
I1
sg181
I6
sg2048
I2
sg1705
Nsg2049
S'JJ'
p5780
sg258
(issf_api
FeatureSet
p5781
(dp5782
g261
(dp5783
S'posn'
p5784
S'30'
p5785
sS'name'
p5786
S'\xe0\xa4\xb5\xe0\xa4\xb0\xe0\xa4\xbf\xe0\xa4\xb7\xe0\xa5\x8d\xe0\xa4\xa0'
p5787
sS'af'
p5788
S'\xe0\xa4\xb5\xe0\xa4\xb0\xe0\xa4\xbf\xe0\xa4\xb7\xe0\xa5\x8d\xe0\xa4\xa0,adj,any,any,,o,,'
p5789
ssbsg1715
I00
sba(issf_api
Word
p5790
(dp5791
g2031
I00
sg2032
V\u0905\u0927\u093f\u0915\u093e\u0930\u0940
p5792
sg2034
(issf_api
FeatureSet
p5793
(dp5794
g261
(dp5795
S'posn'
p5796
S'40'
p5797
sS'name'
p5798
S'\xe0\xa4\x85\xe0\xa4\xa7\xe0\xa4\xbf\xe0\xa4\x95\xe0\xa4\xbe\xe0\xa4\xb0\xe0\xa5\x80'
p5799
sS'af'
p5800
S'\xe0\xa4\x85\xe0\xa4\xa7\xe0\xa4\xbf\xe0\xa4\x95\xe0\xa4\xbe\xe0\xa4\xb0\xe0\xa5\x80,n,m,sg,3,o,0_\xe0\xa4\xa8\xe0\xa5\x87,0'
p5801
sS'chunkid'
p5802
S'NP2'
p5803
sS'drel'
p5804
S'k1:\xe0\xa4\xac\xe0\xa4\xa4\xe0\xa4\xbe\xe0\xa4\xaf\xe0\xa4\xbe'
p5805
sS'vpos'
p5806
S'vib_4'
p5807
sS'chunktype'
p5808
S'head:NP2'
p5809
ssbsg1693
I00
sg1696
I01
sg1707
Nsg1694
Nsg194
I1
sg181
I6
sg2048
I2
sg1705
Nsg2049
S'NN'
p5810
sg258
(issf_api
FeatureSet
p5811
(dp5812
g261
(dp5813
S'posn'
p5814
S'40'
p5815
sS'name'
p5816
S'\xe0\xa4\x85\xe0\xa4\xa7\xe0\xa4\xbf\xe0\xa4\x95\xe0\xa4\xbe\xe0\xa4\xb0\xe0\xa5\x80'
p5817
sS'af'
p5818
S'\xe0\xa4\x85\xe0\xa4\xa7\xe0\xa4\xbf\xe0\xa4\x95\xe0\xa4\xbe\xe0\xa4\xb0\xe0\xa5\x80,n,m,sg,3,o,0,0'
p5819
ssbsg1715
I00
sba(issf_api
Word
p5820
(dp5821
g2031
I00
sg2032
V\u0928\u0947
p5822
sg2034
(issf_api
FeatureSet
p5823
(dp5824
g261
(dp5825
S'posn'
p5826
S'50'
p5827
sS'name'
p5828
S'\xe0\xa4\xa8\xe0\xa5\x87'
p5829
sS'drel'
p5830
S'lwg__psp:\xe0\xa4\x85\xe0\xa4\xa7\xe0\xa4\xbf\xe0\xa4\x95\xe0\xa4\xbe\xe0\xa4\xb0\xe0\xa5\x80'
p5831
sS'chunktype'
p5832
S'child:NP2'
p5833
sS'af'
p5834
S'\xe0\xa4\xa8\xe0\xa5\x87,psp,,,,,,'
p5835
ssbsg1693
I00
sg1696
I01
sg1707
Nsg1694
Nsg194
I1
sg181
I6
sg2048
I2
sg1705
Nsg2049
S'PSP'
p5836
sg258
(issf_api
FeatureSet
p5837
(dp5838
g261
(dp5839
S'posn'
p5840
S'50'
p5841
sS'name'
p5842
S'\xe0\xa4\xa8\xe0\xa5\x87'
p5843
sS'af'
p5844
S'\xe0\xa4\xa8\xe0\xa5\x87,psp,,,,,,'
p5845
ssbsg1715
I00
sba(issf_api
Word
p5846
(dp5847
g2031
I00
sg2032
V\u092c\u0924\u093e\u092f\u093e
p5848
sg2034
(issf_api
FeatureSet
p5849
(dp5850
g261
(dp5851
S'posn'
p5852
S'60'
p5853
sS'name'
p5854
S'\xe0\xa4\xac\xe0\xa4\xa4\xe0\xa4\xbe\xe0\xa4\xaf\xe0\xa4\xbe'
p5855
sS'af'
p5856
S'\xe0\xa4\xac\xe0\xa4\xa4\xe0\xa4\xbe,v,m,sg,any,,\xe0\xa4\xaf\xe0\xa4\xbe,yA'
p5857
sS'chunkid'
p5858
S'VGF'
p5859
sS'chunktype'
p5860
S'head:VGF'
p5861
sS'voicetype'
p5862
S'active'
p5863
sS'stype'
p5864
S'declarative'
p5865
ssbsg1693
I00
sg1696
I01
sg1707
Nsg1694
Nsg194
I2
sg181
I6
sg2048
I2
sg1705
Nsg2049
S'VM'
p5866
sg258
(issf_api
FeatureSet
p5867
(dp5868
g261
(dp5869
S'posn'
p5870
S'60'
p5871
sS'name'
p5872
S'\xe0\xa4\xac\xe0\xa4\xa4\xe0\xa4\xbe\xe0\xa4\xaf\xe0\xa4\xbe'
p5873
sS'af'
p5874
S'\xe0\xa4\xac\xe0\xa4\xa4\xe0\xa4\xbe,v,m,sg,any,,\xe0\xa4\xaf\xe0\xa4\xbe,yA'
p5875
ssbsg1715
I00
sba(issf_api
Word
p5876
(dp5877
g2031
I00
sg2032
V\u0915\u093f
p5878
sg2034
(issf_api
FeatureSet
p5879
(dp5880
g261
(dp5881
S'posn'
p5882
S'70'
p5883
sS'name'
p5884
S'\xe0\xa4\x95\xe0\xa4\xbf'
p5885
sS'af'
p5886
S'\xe0\xa4\x95\xe0\xa4\xbf,avy,,,,,,'
p5887
sS'chunkid'
p5888
S'CCP'
p5889
sS'drel'
p5890
S'k2:\xe0\xa4\xac\xe0\xa4\xa4\xe0\xa4\xbe\xe0\xa4\xaf\xe0\xa4\xbe'
p5891
sS'chunktype'
p5892
S'head:CCP'
p5893
ssbsg1693
I00
sg1696
I01
sg1707
Nsg1694
Nsg194
I3
sg181
I6
sg2048
I2
sg1705
Nsg2049
S'CC'
p5894
sg258
(issf_api
FeatureSet
p5895
(dp5896
g261
(dp5897
S'posn'
p5898
S'70'
p5899
sS'name'
p5900
S'\xe0\xa4\x95\xe0\xa4\xbf'
p5901
sS'af'
p5902
S'\xe0\xa4\x95\xe0\xa4\xbf,avy,,,,,,'
p5903
ssbsg1715
I00
sba(issf_api
Word
p5904
(dp5905
g2031
I00
sg2032
V\u0915\u094b\u0908
p5906
sg2034
(issf_api
FeatureSet
p5907
(dp5908
g261
(dp5909
S'posn'
p5910
S'80'
p5911
sS'name'
p5912
S'\xe0\xa4\x95\xe0\xa5\x8b\xe0\xa4\x88'
p5913
sS'drel'
p5914
S'nmod__adj:\xe0\xa4\xac\xe0\xa4\xbe\xe0\xa4\x82\xe0\xa4\x97\xe0\xa5\x8d\xe0\xa4\xb2\xe0\xa4\xbe\xe0\xa4\xa6\xe0\xa5\x87\xe0\xa4\xb6\xe0\xa5\x80'
p5915
sS'chunktype'
p5916
S'child:NP3'
p5917
sS'af'
p5918
S'\xe0\xa4\x95\xe0\xa5\x8b\xe0\xa4\x88,pn,any,sg,3,d,0,0'
p5919
ssbsg1693
I00
sg1696
I01
sg1707
Nsg1694
Nsg194
I4
sg181
I6
sg2048
I2
sg1705
Nsg2049
S'PRP'
p5920
sg258
(issf_api
FeatureSet
p5921
(dp5922
g261
(dp5923
S'posn'
p5924
S'80'
p5925
sS'name'
p5926
S'\xe0\xa4\x95\xe0\xa5\x8b\xe0\xa4\x88'
p5927
sS'af'
p5928
S'\xe0\xa4\x95\xe0\xa5\x8b\xe0\xa4\x88,pn,any,sg,3,d,0,0'
p5929
ssbsg1715
I00
sba(issf_api
Word
p5930
(dp5931
g2031
I00
sg2032
V\u092d\u0940
p5932
sg2034
(issf_api
FeatureSet
p5933
(dp5934
g261
(dp5935
S'posn'
p5936
S'90'
p5937
sS'name'
p5938
S'\xe0\xa4\xad\xe0\xa5\x80'
p5939
sS'drel'
p5940
S'lwg__rp:\xe0\xa4\xac\xe0\xa4\xbe\xe0\xa4\x82\xe0\xa4\x97\xe0\xa5\x8d\xe0\xa4\xb2\xe0\xa4\xbe\xe0\xa4\xa6\xe0\xa5\x87\xe0\xa4\xb6\xe0\xa5\x80'
p5941
sS'chunktype'
p5942
S'child:NP3'
p5943
sS'af'
p5944
S'\xe0\xa4\xad\xe0\xa5\x80,avy,,,,,,'
p5945
ssbsg1693
I00
sg1696
I01
sg1707
Nsg1694
Nsg194
I4
sg181
I6
sg2048
I2
sg1705
Nsg2049
S'RP'
p5946
sg258
(issf_api
FeatureSet
p5947
(dp5948
g261
(dp5949
S'posn'
p5950
S'90'
p5951
sS'name'
p5952
S'\xe0\xa4\xad\xe0\xa5\x80'
p5953
sS'af'
p5954
S'\xe0\xa4\xad\xe0\xa5\x80,avy,,,,,,'
p5955
ssbsg1715
I00
sba(issf_api
Word
p5956
(dp5957
g2031
I00
sg2032
V\u092c\u093e\u0902\u0917\u094d\u0932\u093e\u0926\u0947\u0936\u0940
p5958
sg2034
(issf_api
FeatureSet
p5959
(dp5960
g261
(dp5961
S'posn'
p5962
S'100'
p5963
sS'name'
p5964
S'\xe0\xa4\xac\xe0\xa4\xbe\xe0\xa4\x82\xe0\xa4\x97\xe0\xa5\x8d\xe0\xa4\xb2\xe0\xa4\xbe\xe0\xa4\xa6\xe0\xa5\x87\xe0\xa4\xb6\xe0\xa5\x80'
p5965
sS'af'
p5966
S'\xe0\xa4\xac\xe0\xa4\xbe\xe0\xa4\x82\xe0\xa4\x97\xe0\xa5\x8d\xe0\xa4\xb2\xe0\xa4\xbe\xe0\xa4\xa6\xe0\xa5\x87\xe0\xa4\xb6\xe0\xa5\x80,n,m,sg,3,d,0,0'
p5967
sS'chunkid'
p5968
S'NP3'
p5969
sS'drel'
p5970
S'k1:\xe0\xa4\x86'
p5971
sS'chunktype'
p5972
S'head:NP3'
p5973
ssbsg1693
I00
sg1696
I01
sg1707
Nsg1694
Nsg194
I4
sg181
I6
sg2048
I2
sg1705
Nsg2049
S'NN'
p5974
sg258
(issf_api
FeatureSet
p5975
(dp5976
g261
(dp5977
S'posn'
p5978
S'100'
p5979
sS'name'
p5980
S'\xe0\xa4\xac\xe0\xa4\xbe\xe0\xa4\x82\xe0\xa4\x97\xe0\xa5\x8d\xe0\xa4\xb2\xe0\xa4\xbe\xe0\xa4\xa6\xe0\xa5\x87\xe0\xa4\xb6\xe0\xa5\x80'
p5981
sS'af'
p5982
S'\xe0\xa4\xac\xe0\xa4\xbe\xe0\xa4\x82\xe0\xa4\x97\xe0\xa5\x8d\xe0\xa4\xb2\xe0\xa4\xbe\xe0\xa4\xa6\xe0\xa5\x87\xe0\xa4\xb6\xe0\xa5\x80,n,m,sg,3,d,0,0'
p5983
ssbsg1715
I00
sba(issf_api
Word
p5984
(dp5985
g2031
I00
sg2032
V\u0938\u0940\u092e\u093e
p5986
sg2034
(issf_api
FeatureSet
p5987
(dp5988
g261
(dp5989
S'posn'
p5990
S'110'
p5991
sS'name'
p5992
S'\xe0\xa4\xb8\xe0\xa5\x80\xe0\xa4\xae\xe0\xa4\xbe'
p5993
sS'drel'
p5994
S'pof__cn:\xe0\xa4\xaa\xe0\xa4\xbe\xe0\xa4\xb0'
p5995
sS'chunktype'
p5996
S'child:NP4'
p5997
sS'af'
p5998
S'\xe0\xa4\xb8\xe0\xa5\x80\xe0\xa4\xae\xe0\xa4\xbe,n,f,sg,3,d,0,0'
p5999
ssbsg1693
I00
sg1696
I01
sg1707
Nsg1694
Nsg194
I5
sg181
I6
sg2048
I2
sg1705
Nsg2049
S'NNC'
p6000
sg258
(issf_api
FeatureSet
p6001
(dp6002
g261
(dp6003
S'posn'
p6004
S'110'
p6005
sS'name'
p6006
S'\xe0\xa4\xb8\xe0\xa5\x80\xe0\xa4\xae\xe0\xa4\xbe'
p6007
sS'af'
p6008
S'\xe0\xa4\xb8\xe0\xa5\x80\xe0\xa4\xae\xe0\xa4\xbe,n,f,sg,3,d,0,0'
p6009
ssbsg1715
I00
sba(issf_api
Word
p6010
(dp6011
g2031
I00
sg2032
V\u092a\u093e\u0930
p6012
sg2034
(issf_api
FeatureSet
p6013
(dp6014
g261
(dp6015
S'posn'
p6016
S'120'
p6017
sS'name'
p6018
S'\xe0\xa4\xaa\xe0\xa4\xbe\xe0\xa4\xb0'
p6019
sS'af'
p6020
S'\xe0\xa4\xaa\xe0\xa4\xbe\xe0\xa4\xb0,n,m,sg,3,o,0_\xe0\xa4\xb8\xe0\xa5\x87,0'
p6021
sS'chunkid'
p6022
S'NP4'
p6023
sS'drel'
p6024
S'k5:\xe0\xa4\x86'
p6025
sS'vpos'
p6026
S'vib_3'
p6027
sS'chunktype'
p6028
S'head:NP4'
p6029
ssbsg1693
I00
sg1696
I01
sg1707
Nsg1694
Nsg194
I5
sg181
I6
sg2048
I2
sg1705
Nsg2049
S'NN'
p6030
sg258
(issf_api
FeatureSet
p6031
(dp6032
g261
(dp6033
S'posn'
p6034
S'120'
p6035
sS'name'
p6036
S'\xe0\xa4\xaa\xe0\xa4\xbe\xe0\xa4\xb0'
p6037
sS'af'
p6038
S'\xe0\xa4\xaa\xe0\xa4\xbe\xe0\xa4\xb0,n,m,sg,3,o,0,0'
p6039
ssbsg1715
I00
sba(issf_api
Word
p6040
(dp6041
g2031
I00
sg2032
V\u0938\u0947
p6042
sg2034
(issf_api
FeatureSet
p6043
(dp6044
g261
(dp6045
S'posn'
p6046
S'130'
p6047
sS'name'
p6048
S'\xe0\xa4\xb8\xe0\xa5\x87'
p6049
sS'drel'
p6050
S'lwg__psp:\xe0\xa4\xaa\xe0\xa4\xbe\xe0\xa4\xb0'
p6051
sS'chunktype'
p6052
S'child:NP4'
p6053
sS'af'
p6054
S'\xe0\xa4\xb8\xe0\xa5\x87,psp,,,,,,'
p6055
ssbsg1693
I00
sg1696
I01
sg1707
Nsg1694
Nsg194
I5
sg181
I6
sg2048
I2
sg1705
Nsg2049
S'PSP'
p6056
sg258
(issf_api
FeatureSet
p6057
(dp6058
g261
(dp6059
S'posn'
p6060
S'130'
p6061
sS'name'
p6062
S'\xe0\xa4\xb8\xe0\xa5\x87'
p6063
sS'af'
p6064
S'\xe0\xa4\xb8\xe0\xa5\x87,psp,,,,,,'
p6065
ssbsg1715
I00
sba(issf_api
Word
p6066
(dp6067
g2031
I00
sg2032
V\u0928\u0939\u0940\u0902
p6068
sg2034
(issf_api
FeatureSet
p6069
(dp6070
g261
(dp6071
S'posn'
p6072
S'140'
p6073
sS'name'
p6074
S'\xe0\xa4\xa8\xe0\xa4\xb9\xe0\xa5\x80\xe0\xa4\x82'
p6075
sS'drel'
p6076
S'lwg__neg:\xe0\xa4\x86'
p6077
sS'chunktype'
p6078
S'child:VGF2'
p6079
sS'af'
p6080
S'\xe0\xa4\xa8\xe0\xa4\xb9\xe0\xa5\x80\xe0\xa4\x82,avy,,,,,,'
p6081
ssbsg1693
I00
sg1696
I01
sg1707
Nsg1694
Nsg194
I6
sg181
I6
sg2048
I2
sg1705
Nsg2049
S'NEG'
p6082
sg258
(issf_api
FeatureSet
p6083
(dp6084
g261
(dp6085
S'posn'
p6086
S'140'
p6087
sS'name'
p6088
S'\xe0\xa4\xa8\xe0\xa4\xb9\xe0\xa5\x80\xe0\xa4\x82'
p6089
sS'af'
p6090
S'\xe0\xa4\xa8\xe0\xa4\xb9\xe0\xa5\x80\xe0\xa4\x82,avy,,,,,,'
p6091
ssbsg1715
I00
sba(issf_api
Word
p6092
(dp6093
g2031
I00
sg2032
V\u0906
sg2034
(issf_api
FeatureSet
p6094
(dp6095
g261
(dp6096
S'posn'
p6097
S'150'
p6098
sS'name'
p6099
S'\xe0\xa4\x86'
p6100
sS'af'
p6101
S'\xe0\xa4\x86,v,m,sg,3,,0_\xe0\xa4\xb0\xe0\xa4\xb9+\xe0\xa4\xaf\xe0\xa4\xbe_\xe0\xa4\xb9\xe0\xa5\x88,0'
p6102
sS'chunkid'
p6103
S'VGF2'
p6104
sS'stype'
p6105
S'declarative'
p6106
sS'drel'
p6107
S'ccof:\xe0\xa4\x95\xe0\xa4\xbf'
p6108
sS'voicetype'
p6109
S'active'
p6110
sS'vpos'
p6111
S'tam_3_4'
p6112
sS'chunktype'
p6113
S'head:VGF2'
p6114
ssbsg1693
I00
sg1696
I01
sg1707
Nsg1694
Nsg194
I6
sg181
I6
sg2048
I2
sg1705
Nsg2049
S'VM'
p6115
sg258
(issf_api
FeatureSet
p6116
(dp6117
g261
(dp6118
S'posn'
p6119
S'150'
p6120
sS'name'
p6121
S'\xe0\xa4\x86'
p6122
sS'af'
p6123
S'\xe0\xa4\x86,v,any,any,any,,0,0'
p6124
ssbsg1715
I00
sba(issf_api
Word
p6125
(dp6126
g2031
I00
sg2032
V\u0930\u0939\u093e
p6127
sg2034
(issf_api
FeatureSet
p6128
(dp6129
g261
(dp6130
S'posn'
p6131
S'160'
p6132
sS'name'
p6133
S'\xe0\xa4\xb0\xe0\xa4\xb9\xe0\xa4\xbe'
p6134
sS'drel'
p6135
S'lwg__vaux:\xe0\xa4\x86'
p6136
sS'chunktype'
p6137
S'child:VGF2'
p6138
sS'af'
p6139
S'\xe0\xa4\xb0\xe0\xa4\xb9,v,m,sg,any,,\xe0\xa4\xaf\xe0\xa4\xbe,yA'
p6140
ssbsg1693
I00
sg1696
I01
sg1707
Nsg1694
Nsg194
I6
sg181
I6
sg2048
I2
sg1705
Nsg2049
S'VAUX'
p6141
sg258
(issf_api
FeatureSet
p6142
(dp6143
g261
(dp6144
S'posn'
p6145
S'160'
p6146
sS'name'
p6147
S'\xe0\xa4\xb0\xe0\xa4\xb9\xe0\xa4\xbe'
p6148
sS'af'
p6149
S'\xe0\xa4\xb0\xe0\xa4\xb9,v,m,sg,any,,\xe0\xa4\xaf\xe0\xa4\xbe,yA'
p6150
ssbsg1715
I00
sba(issf_api
Word
p6151
(dp6152
g2031
I00
sg2032
V\u0939\u0948
p6153
sg2034
(issf_api
FeatureSet
p6154
(dp6155
g261
(dp6156
S'posn'
p6157
S'170'
p6158
sS'name'
p6159
S'\xe0\xa4\xb9\xe0\xa5\x88'
p6160
sS'drel'
p6161
S'lwg__vaux:\xe0\xa4\x86'
p6162
sS'chunktype'
p6163
S'child:VGF2'
p6164
sS'af'
p6165
S'\xe0\xa4\xb9\xe0\xa5\x88,v,any,sg,3,,\xe0\xa4\xb9\xe0\xa5\x88,hE'
p6166
ssbsg1693
I00
sg1696
I01
sg1707
Nsg1694
Nsg194
I6
sg181
I6
sg2048
I2
sg1705
Nsg2049
S'VAUX'
p6167
sg258
(issf_api
FeatureSet
p6168
(dp6169
g261
(dp6170
S'posn'
p6171
S'170'
p6172
sS'name'
p6173
S'\xe0\xa4\xb9\xe0\xa5\x88'
p6174
sS'af'
p6175
S'\xe0\xa4\xb9\xe0\xa5\x88,v,any,sg,3,,\xe0\xa4\xb9\xe0\xa5\x88,hE'
p6176
ssbsg1715
I00
sba(issf_api
Word
p6177
(dp6178
g2031
I00
sg2032
V\u0964
sg2034
(issf_api
FeatureSet
p6179
(dp6180
g261
(dp6181
S'posn'
p6182
S'180'
p6183
sS'name'
p6184
S'\xe0\xa5\xa4'
p6185
sS'af'
p6186
S'\xe0\xa5\xa4,punc,,,,,,'
p6187
sS'chunkid'
p6188
S'BLK'
p6189
sS'drel'
p6190
S'rsym:\xe0\xa4\xac\xe0\xa4\xa4\xe0\xa4\xbe\xe0\xa4\xaf\xe0\xa4\xbe'
p6191
sS'chunktype'
p6192
S'head:BLK'
p6193
ssbsg1693
I00
sg1696
I01
sg1707
Nsg1694
Nsg194
I7
sg181
I6
sg2048
I2
sg1705
Nsg2049
S'SYM'
p6194
sg258
(issf_api
FeatureSet
p6195
(dp6196
g261
(dp6197
S'posn'
p6198
S'180'
p6199
sS'name'
p6200
S'\xe0\xa5\xa4'
p6201
sS'af'
p6202
S'\xe0\xa5\xa4,punc,,,,,,'
p6203
ssbsg1715
I00
sba(issf_api
Word
p6204
(dp6205
g2031
I00
sg2032
V\u092c\u093e\u0902\u0917\u094d\u0932\u093e\u0926\u0947\u0936\u0940
p6206
sg2034
(issf_api
FeatureSet
p6207
(dp6208
g261
(dp6209
S'posn'
p6210
S'10'
p6211
sS'name'
p6212
S'\xe0\xa4\xac\xe0\xa4\xbe\xe0\xa4\x82\xe0\xa4\x97\xe0\xa5\x8d\xe0\xa4\xb2\xe0\xa4\xbe\xe0\xa4\xa6\xe0\xa5\x87\xe0\xa4\xb6\xe0\xa5\x80'
p6213
sS'drel'
p6214
S'nmod__adj:\xe0\xa4\xac\xe0\xa4\xb2\xe0\xa5\x8b\xe0\xa4\x82'
p6215
sS'chunktype'
p6216
S'child:NP'
p6217
sS'af'
p6218
S'\xe0\xa4\xac\xe0\xa4\xbe\xe0\xa4\x82\xe0\xa4\x97\xe0\xa5\x8d\xe0\xa4\xb2\xe0\xa4\xbe\xe0\xa4\xa6\xe0\xa5\x87\xe0\xa4\xb6\xe0\xa5\x80,adj,any,any,,o,,'
p6219
ssbsg1693
I00
sg1696
I00
sg1707
Nsg1694
Nsg194
I0
sg181
I7
sg2048
Nsg1705
Nsg2049
S'JJ'
p6220
sg258
(issf_api
FeatureSet
p6221
(dp6222
g261
(dp6223
S'posn'
p6224
S'10'
p6225
sS'name'
p6226
S'\xe0\xa4\xac\xe0\xa4\xbe\xe0\xa4\x82\xe0\xa4\x97\xe0\xa5\x8d\xe0\xa4\xb2\xe0\xa4\xbe\xe0\xa4\xa6\xe0\xa5\x87\xe0\xa4\xb6\xe0\xa5\x80'
p6227
sS'af'
p6228
S'\xe0\xa4\xac\xe0\xa4\xbe\xe0\xa4\x82\xe0\xa4\x97\xe0\xa5\x8d\xe0\xa4\xb2\xe0\xa4\xbe\xe0\xa4\xa6\xe0\xa5\x87\xe0\xa4\xb6\xe0\xa5\x80,adj,any,any,,o,,'
p6229
ssbsg1715
I00
sba(issf_api
Word
p6230
(dp6231
g2031
I00
sg2032
V\u0938\u0941\u0930\u0915\u094d\u0937\u093e
p6232
sg2034
(issf_api
FeatureSet
p6233
(dp6234
g261
(dp6235
S'posn'
p6236
S'20'
p6237
sS'name'
p6238
S'\xe0\xa4\xb8\xe0\xa5\x81\xe0\xa4\xb0\xe0\xa4\x95\xe0\xa5\x8d\xe0\xa4\xb7\xe0\xa4\xbe'
p6239
sS'drel'
p6240
S'pof__cn:\xe0\xa4\xac\xe0\xa4\xb2\xe0\xa5\x8b\xe0\xa4\x82'
p6241
sS'chunktype'
p6242
S'child:NP'
p6243
sS'af'
p6244
S'\xe0\xa4\xb8\xe0\xa5\x81\xe0\xa4\xb0\xe0\xa4\x95\xe0\xa5\x8d\xe0\xa4\xb7\xe0\xa4\xbe,n,f,sg,3,d,0,0'
p6245
ssbsg1693
I00
sg1696
I00
sg1707
Nsg1694
Nsg194
I0
sg181
I7
sg2048
Nsg1705
Nsg2049
S'NNC'
p6246
sg258
(issf_api
FeatureSet
p6247
(dp6248
g261
(dp6249
S'posn'
p6250
S'20'
p6251
sS'name'
p6252
S'\xe0\xa4\xb8\xe0\xa5\x81\xe0\xa4\xb0\xe0\xa4\x95\xe0\xa5\x8d\xe0\xa4\xb7\xe0\xa4\xbe'
p6253
sS'af'
p6254
S'\xe0\xa4\xb8\xe0\xa5\x81\xe0\xa4\xb0\xe0\xa4\x95\xe0\xa5\x8d\xe0\xa4\xb7\xe0\xa4\xbe,n,f,sg,3,d,0,0'
p6255
ssbsg1715
I00
sba(issf_api
Word
p6256
(dp6257
g2031
I00
sg2032
V\u092c\u0932\u094b\u0902
p6258
sg2034
(issf_api
FeatureSet
p6259
(dp6260
g261
(dp6261
S'posn'
p6262
S'30'
p6263
sS'name'
p6264
S'\xe0\xa4\xac\xe0\xa4\xb2\xe0\xa5\x8b\xe0\xa4\x82'
p6265
sS'af'
p6266
S'\xe0\xa4\xac\xe0\xa4\xb2,n,m,pl,3,o,0_\xe0\xa4\xb8\xe0\xa5\x87,0'
p6267
sS'chunkid'
p6268
S'NP'
p6269
sS'drel'
p6270
S'k2:\xe0\xa4\xb9\xe0\xa5\x81\xe0\xa4\x88'
p6271
sS'vpos'
p6272
S'vib_4_RP'
p6273
sS'chunktype'
p6274
S'head:NP'
p6275
ssbsg1693
I00
sg1696
I00
sg1707
Nsg1694
Nsg194
I0
sg181
I7
sg2048
Nsg1705
Nsg2049
S'NN'
p6276
sg258
(issf_api
FeatureSet
p6277
(dp6278
g261
(dp6279
S'posn'
p6280
S'30'
p6281
sS'name'
p6282
S'\xe0\xa4\xac\xe0\xa4\xb2\xe0\xa5\x8b\xe0\xa4\x82'
p6283
sS'af'
p6284
S'\xe0\xa4\xac\xe0\xa4\xb2,n,m,pl,3,o,0,0'
p6285
ssbsg1715
I00
sba(issf_api
Word
p6286
(dp6287
g2031
I00
sg2032
V\u0938\u0947
p6288
sg2034
(issf_api
FeatureSet
p6289
(dp6290
g261
(dp6291
S'posn'
p6292
S'40'
p6293
sS'name'
p6294
S'\xe0\xa4\xb8\xe0\xa5\x87'
p6295
sS'drel'
p6296
S'lwg__psp:\xe0\xa4\xac\xe0\xa4\xb2\xe0\xa5\x8b\xe0\xa4\x82'
p6297
sS'chunktype'
p6298
S'child:NP'
p6299
sS'af'
p6300
S'\xe0\xa4\xb8\xe0\xa5\x87,psp,,,,,,'
p6301
ssbsg1693
I00
sg1696
I00
sg1707
Nsg1694
Nsg194
I0
sg181
I7
sg2048
Nsg1705
Nsg2049
S'PSP'
p6302
sg258
(issf_api
FeatureSet
p6303
(dp6304
g261
(dp6305
S'posn'
p6306
S'40'
p6307
sS'name'
p6308
S'\xe0\xa4\xb8\xe0\xa5\x87'
p6309
sS'af'
p6310
S'\xe0\xa4\xb8\xe0\xa5\x87,psp,,,,,,'
p6311
ssbsg1715
I00
sba(issf_api
Word
p6312
(dp6313
g2031
I00
sg2032
V\u092d\u0940
p6314
sg2034
(issf_api
FeatureSet
p6315
(dp6316
g261
(dp6317
S'posn'
p6318
S'50'
p6319
sS'name'
p6320
S'\xe0\xa4\xad\xe0\xa5\x80'
p6321
sS'drel'
p6322
S'lwg__rp:\xe0\xa4\xac\xe0\xa4\xb2\xe0\xa5\x8b\xe0\xa4\x82'
p6323
sS'chunktype'
p6324
S'child:NP'
p6325
sS'af'
p6326
S'\xe0\xa4\xad\xe0\xa5\x80,avy,,,,,,'
p6327
ssbsg1693
I00
sg1696
I00
sg1707
Nsg1694
Nsg194
I0
sg181
I7
sg2048
Nsg1705
Nsg2049
S'RP'
p6328
sg258
(issf_api
FeatureSet
p6329
(dp6330
g261
(dp6331
S'posn'
p6332
S'50'
p6333
sS'name'
p6334
S'\xe0\xa4\xad\xe0\xa5\x80'
p6335
sS'af'
p6336
S'\xe0\xa4\xad\xe0\xa5\x80,avy,,,,,,'
p6337
ssbsg1715
I00
sba(issf_api
Word
p6338
(dp6339
g2031
I00
sg2032
V\u0915\u093f\u0938\u0940
p6340
sg2034
(issf_api
FeatureSet
p6341
(dp6342
g261
(dp6343
S'posn'
p6344
S'60'
p6345
sS'name'
p6346
S'\xe0\xa4\x95\xe0\xa4\xbf\xe0\xa4\xb8\xe0\xa5\x80'
p6347
sS'drel'
p6348
S'nmod__adj:\xe0\xa4\xa4\xe0\xa4\xb0\xe0\xa4\xb9'
p6349
sS'chunktype'
p6350
S'child:NP2'
p6351
sS'af'
p6352
S'\xe0\xa4\x95\xe0\xa5\x8b\xe0\xa4\x88,pn,any,sg,3,o,0,0'
p6353
ssbsg1693
I00
sg1696
I00
sg1707
Nsg1694
Nsg194
I1
sg181
I7
sg2048
Nsg1705
Nsg2049
S'PRP'
p6354
sg258
(issf_api
FeatureSet
p6355
(dp6356
g261
(dp6357
S'posn'
p6358
S'60'
p6359
sS'name'
p6360
S'\xe0\xa4\x95\xe0\xa4\xbf\xe0\xa4\xb8\xe0\xa5\x80'
p6361
sS'af'
p6362
S'\xe0\xa4\x95\xe0\xa5\x8b\xe0\xa4\x88,pn,any,sg,3,o,0,0'
p6363
ssbsg1715
I00
sba(issf_api
Word
p6364
(dp6365
g2031
I00
sg2032
V\u0924\u0930\u0939
p6366
sg2034
(issf_api
FeatureSet
p6367
(dp6368
g261
(dp6369
S'posn'
p6370
S'70'
p6371
sS'name'
p6372
S'\xe0\xa4\xa4\xe0\xa4\xb0\xe0\xa4\xb9'
p6373
sS'af'
p6374
S'\xe0\xa4\xa4\xe0\xa4\xb0\xe0\xa4\xb9,n,f,sg,3,o,0_\xe0\xa4\x95\xe0\xa4\xbe,0'
p6375
sS'chunkid'
p6376
S'NP2'
p6377
sS'drel'
p6378
S'r6-k2:\xe0\xa4\xa6\xe0\xa4\x96\xe0\xa4\xb2\xe0\xa4\x82\xe0\xa4\xa6\xe0\xa4\xbe\xe0\xa4\x9c\xe0\xa5\x80'
p6379
sS'vpos'
p6380
S'vib_vib_3'
p6381
sS'chunktype'
p6382
S'head:NP2'
p6383
ssbsg1693
I00
sg1696
I00
sg1707
Nsg1694
Nsg194
I1
sg181
I7
sg2048
Nsg1705
Nsg2049
S'NN'
p6384
sg258
(issf_api
FeatureSet
p6385
(dp6386
g261
(dp6387
S'posn'
p6388
S'70'
p6389
sS'name'
p6390
S'\xe0\xa4\xa4\xe0\xa4\xb0\xe0\xa4\xb9'
p6391
sS'af'
p6392
S'\xe0\xa4\xa4\xe0\xa4\xb0\xe0\xa4\xb9,n,f,sg,3,o,0,0'
p6393
ssbsg1715
I00
sba(issf_api
Word
p6394
(dp6395
g2031
I00
sg2032
V\u0915\u0940
p6396
sg2034
(issf_api
FeatureSet
p6397
(dp6398
g261
(dp6399
S'posn'
p6400
S'80'
p6401
sS'name'
p6402
S'\xe0\xa4\x95\xe0\xa5\x80'
p6403
sS'drel'
p6404
S'lwg__psp:\xe0\xa4\xa4\xe0\xa4\xb0\xe0\xa4\xb9'
p6405
sS'chunktype'
p6406
S'child:NP2'
p6407
sS'af'
p6408
S'\xe0\xa4\x95\xe0\xa4\xbe,psp,f,sg,,d,,'
p6409
ssbsg1693
I00
sg1696
I00
sg1707
Nsg1694
Nsg194
I1
sg181
I7
sg2048
Nsg1705
Nsg2049
S'PSP'
p6410
sg258
(issf_api
FeatureSet
p6411
(dp6412
g261
(dp6413
S'posn'
p6414
S'80'
p6415
sS'name'
p6416
S'\xe0\xa4\x95\xe0\xa5\x80'
p6417
sS'af'
p6418
S'\xe0\xa4\x95\xe0\xa4\xbe,psp,f,sg,,d,,'
p6419
ssbsg1715
I00
sba(issf_api
Word
p6420
(dp6421
g2031
I00
sg2032
V\u0926\u0916\u0932\u0902\u0926\u093e\u091c\u0940
p6422
sg2034
(issf_api
FeatureSet
p6423
(dp6424
g261
(dp6425
S'posn'
p6426
S'90'
p6427
sS'name'
p6428
S'\xe0\xa4\xa6\xe0\xa4\x96\xe0\xa4\xb2\xe0\xa4\x82\xe0\xa4\xa6\xe0\xa4\xbe\xe0\xa4\x9c\xe0\xa5\x80'
p6429
sS'af'
p6430
S'\xe0\xa4\xa6\xe0\xa4\x96\xe0\xa4\xb2\xe0\xa4\x82\xe0\xa4\xa6\xe0\xa4\xbe\xe0\xa4\x9c\xe0\xa5\x80,n,f,sg,3,d,0,0'
p6431
sS'chunkid'
p6432
S'NP3'
p6433
sS'drel'
p6434
S'pof:\xe0\xa4\xb9\xe0\xa5\x81\xe0\xa4\x88'
p6435
sS'chunktype'
p6436
S'head:NP3'
p6437
ssbsg1693
I00
sg1696
I00
sg1707
Nsg1694
Nsg194
I2
sg181
I7
sg2048
Nsg1705
Nsg2049
S'NN'
p6438
sg258
(issf_api
FeatureSet
p6439
(dp6440
g261
(dp6441
S'posn'
p6442
S'90'
p6443
sS'name'
p6444
S'\xe0\xa4\xa6\xe0\xa4\x96\xe0\xa4\xb2\xe0\xa4\x82\xe0\xa4\xa6\xe0\xa4\xbe\xe0\xa4\x9c\xe0\xa5\x80'
p6445
sS'af'
p6446
S'\xe0\xa4\xa6\xe0\xa4\x96\xe0\xa4\xb2\xe0\xa4\x82\xe0\xa4\xa6\xe0\xa4\xbe\xe0\xa4\x9c\xe0\xa5\x80,n,f,sg,3,d,0,0'
p6447
ssbsg1715
I00
sba(issf_api
Word
p6448
(dp6449
g2031
I00
sg2032
V\u0928\u0939\u0940\u0902
p6450
sg2034
(issf_api
FeatureSet
p6451
(dp6452
g261
(dp6453
S'posn'
p6454
S'100'
p6455
sS'name'
p6456
S'\xe0\xa4\xa8\xe0\xa4\xb9\xe0\xa5\x80\xe0\xa4\x82'
p6457
sS'drel'
p6458
S'lwg__neg:\xe0\xa4\xb9\xe0\xa5\x81\xe0\xa4\x88'
p6459
sS'chunktype'
p6460
S'child:VGF'
p6461
sS'af'
p6462
S'\xe0\xa4\xa8\xe0\xa4\xb9\xe0\xa5\x80\xe0\xa4\x82,avy,,,,,,'
p6463
ssbsg1693
I00
sg1696
I00
sg1707
Nsg1694
Nsg194
I3
sg181
I7
sg2048
Nsg1705
Nsg2049
S'NEG'
p6464
sg258
(issf_api
FeatureSet
p6465
(dp6466
g261
(dp6467
S'posn'
p6468
S'100'
p6469
sS'name'
p6470
S'\xe0\xa4\xa8\xe0\xa4\xb9\xe0\xa5\x80\xe0\xa4\x82'
p6471
sS'af'
p6472
S'\xe0\xa4\xa8\xe0\xa4\xb9\xe0\xa5\x80\xe0\xa4\x82,avy,,,,,,'
p6473
ssbsg1715
I00
sba(issf_api
Word
p6474
(dp6475
g2031
I00
sg2032
V\u0939\u0941\u0908
p6476
sg2034
(issf_api
FeatureSet
p6477
(dp6478
g261
(dp6479
S'posn'
p6480
S'110'
p6481
sS'name'
p6482
S'\xe0\xa4\xb9\xe0\xa5\x81\xe0\xa4\x88'
p6483
sS'af'
p6484
S'\xe0\xa4\xb9\xe0\xa5\x8b,v,f,sg,3,,\xe0\xa4\xaf\xe0\xa4\xbe_\xe0\xa4\xb9\xe0\xa5\x88,yA'
p6485
sS'chunkid'
p6486
S'VGF'
p6487
sS'chunktype'
p6488
S'head:VGF'
p6489
sS'voicetype'
p6490
S'active'
p6491
sS'vpos'
p6492
S'tam_3'
p6493
sS'stype'
p6494
S'declarative'
p6495
ssbsg1693
I00
sg1696
I00
sg1707
Nsg1694
Nsg194
I3
sg181
I7
sg2048
Nsg1705
Nsg2049
S'VM'
p6496
sg258
(issf_api
FeatureSet
p6497
(dp6498
g261
(dp6499
S'posn'
p6500
S'110'
p6501
sS'name'
p6502
S'\xe0\xa4\xb9\xe0\xa5\x81\xe0\xa4\x88'
p6503
sS'af'
p6504
S'\xe0\xa4\xb9\xe0\xa5\x8b,v,f,sg,any,,\xe0\xa4\xaf\xe0\xa4\xbe,yA'
p6505
ssbsg1715
I00
sba(issf_api
Word
p6506
(dp6507
g2031
I00
sg2032
V\u0939\u0948
p6508
sg2034
(issf_api
FeatureSet
p6509
(dp6510
g261
(dp6511
S'posn'
p6512
S'120'
p6513
sS'name'
p6514
S'\xe0\xa4\xb9\xe0\xa5\x88'
p6515
sS'drel'
p6516
S'lwg__vaux:\xe0\xa4\xb9\xe0\xa5\x81\xe0\xa4\x88'
p6517
sS'chunktype'
p6518
S'child:VGF'
p6519
sS'af'
p6520
S'\xe0\xa4\xb9\xe0\xa5\x88,v,any,sg,3,,\xe0\xa4\xb9\xe0\xa5\x88,hE'
p6521
ssbsg1693
I00
sg1696
I00
sg1707
Nsg1694
Nsg194
I3
sg181
I7
sg2048
Nsg1705
Nsg2049
S'VAUX'
p6522
sg258
(issf_api
FeatureSet
p6523
(dp6524
g261
(dp6525
S'posn'
p6526
S'120'
p6527
sS'name'
p6528
S'\xe0\xa4\xb9\xe0\xa5\x88'
p6529
sS'af'
p6530
S'\xe0\xa4\xb9\xe0\xa5\x88,v,any,sg,3,,\xe0\xa4\xb9\xe0\xa5\x88,hE'
p6531
ssbsg1715
I00
sba(issf_api
Word
p6532
(dp6533
g2031
I00
sg2032
V\u0964
sg2034
(issf_api
FeatureSet
p6534
(dp6535
g261
(dp6536
S'posn'
p6537
S'130'
p6538
sS'name'
p6539
S'\xe0\xa5\xa4'
p6540
sS'af'
p6541
S'\xe0\xa5\xa4,punc,,,,,,'
p6542
sS'chunkid'
p6543
S'BLK'
p6544
sS'drel'
p6545
S'rsym:\xe0\xa4\xb9\xe0\xa5\x81\xe0\xa4\x88'
p6546
sS'chunktype'
p6547
S'head:BLK'
p6548
ssbsg1693
I00
sg1696
I00
sg1707
Nsg1694
Nsg194
I4
sg181
I7
sg2048
Nsg1705
Nsg2049
S'SYM'
p6549
sg258
(issf_api
FeatureSet
p6550
(dp6551
g261
(dp6552
S'posn'
p6553
S'130'
p6554
sS'name'
p6555
S'\xe0\xa5\xa4'
p6556
sS'af'
p6557
S'\xe0\xa5\xa4,punc,,,,,,'
p6558
ssbsg1715
I00
sba(issf_api
Word
p6559
(dp6560
g2031
I00
sg2032
V\u092c\u093e\u0902\u0917\u094d\u0932\u093e\u0926\u0947\u0936
p6561
sg2034
(issf_api
FeatureSet
p6562
(dp6563
g261
(dp6564
S'posn'
p6565
S'10'
p6566
sS'name'
p6567
S'\xe0\xa4\xac\xe0\xa4\xbe\xe0\xa4\x82\xe0\xa4\x97\xe0\xa5\x8d\xe0\xa4\xb2\xe0\xa4\xbe\xe0\xa4\xa6\xe0\xa5\x87\xe0\xa4\xb6'
p6568
sS'drel'
p6569
S'nmod__adj:\xe0\xa4\xb8\xe0\xa5\x80\xe0\xa4\xae\xe0\xa4\xbe'
p6570
sS'chunktype'
p6571
S'child:NP'
p6572
sS'af'
p6573
S'\xe0\xa4\xac\xe0\xa4\xbe\xe0\xa4\x82\xe0\xa4\x97\xe0\xa5\x8d\xe0\xa4\xb2\xe0\xa4\xbe\xe0\xa4\xa6\xe0\xa5\x87\xe0\xa4\xb6,n,m,sg,3,d,0,0'
p6574
ssbsg1693
I00
sg1696
I00
sg1707
Nsg1694
Nsg194
I0
sg181
I8
sg2048
Nsg1705
Nsg2049
S'NNP'
p6575
sg258
(issf_api
FeatureSet
p6576
(dp6577
g261
(dp6578
S'posn'
p6579
S'10'
p6580
sS'name'
p6581
S'\xe0\xa4\xac\xe0\xa4\xbe\xe0\xa4\x82\xe0\xa4\x97\xe0\xa5\x8d\xe0\xa4\xb2\xe0\xa4\xbe\xe0\xa4\xa6\xe0\xa5\x87\xe0\xa4\xb6'
p6582
sS'af'
p6583
S'\xe0\xa4\xac\xe0\xa4\xbe\xe0\xa4\x82\xe0\xa4\x97\xe0\xa5\x8d\xe0\xa4\xb2\xe0\xa4\xbe\xe0\xa4\xa6\xe0\xa5\x87\xe0\xa4\xb6,n,m,sg,3,d,0,0'
p6584
ssbsg1715
I00
sba(issf_api
Word
p6585
(dp6586
g2031
I00
sg2032
V\u0938\u0940\u092e\u093e
p6587
sg2034
(issf_api
FeatureSet
p6588
(dp6589
g261
(dp6590
S'posn'
p6591
S'20'
p6592
sS'name'
p6593
S'\xe0\xa4\xb8\xe0\xa5\x80\xe0\xa4\xae\xe0\xa4\xbe'
p6594
sS'af'
p6595
S'\xe0\xa4\xb8\xe0\xa5\x80\xe0\xa4\xae\xe0\xa4\xbe,n,f,sg,3,o,0_\xe0\xa4\xaa\xe0\xa4\xb0,0'
p6596
sS'chunkid'
p6597
S'NP'
p6598
sS'drel'
p6599
S'k7p:\xe0\xa4\xb9\xe0\xa5\x88'
p6600
sS'vpos'
p6601
S'vib_vib_3'
p6602
sS'chunktype'
p6603
S'head:NP'
p6604
ssbsg1693
I00
sg1696
I00
sg1707
Nsg1694
Nsg194
I0
sg181
I8
sg2048
Nsg1705
Nsg2049
S'NN'
p6605
sg258
(issf_api
FeatureSet
p6606
(dp6607
g261
(dp6608
S'posn'
p6609
S'20'
p6610
sS'name'
p6611
S'\xe0\xa4\xb8\xe0\xa5\x80\xe0\xa4\xae\xe0\xa4\xbe'
p6612
sS'af'
p6613
S'\xe0\xa4\xb8\xe0\xa5\x80\xe0\xa4\xae\xe0\xa4\xbe,n,f,sg,3,o,0,0'
p6614
ssbsg1715
I00
sba(issf_api
Word
p6615
(dp6616
g2031
I00
sg2032
V\u092a\u0930
p6617
sg2034
(issf_api
FeatureSet
p6618
(dp6619
g261
(dp6620
S'posn'
p6621
S'30'
p6622
sS'name'
p6623
S'\xe0\xa4\xaa\xe0\xa4\xb0'
p6624
sS'drel'
p6625
S'lwg__psp:\xe0\xa4\xb8\xe0\xa5\x80\xe0\xa4\xae\xe0\xa4\xbe'
p6626
sS'chunktype'
p6627
S'child:NP'
p6628
sS'af'
p6629
S'\xe0\xa4\xaa\xe0\xa4\xb0,psp,,,,,,'
p6630
ssbsg1693
I00
sg1696
I00
sg1707
Nsg1694
Nsg194
I0
sg181
I8
sg2048
Nsg1705
Nsg2049
S'PSP'
p6631
sg258
(issf_api
FeatureSet
p6632
(dp6633
g261
(dp6634
S'posn'
p6635
S'30'
p6636
sS'name'
p6637
S'\xe0\xa4\xaa\xe0\xa4\xb0'
p6638
sS'af'
p6639
S'\xe0\xa4\xaa\xe0\xa4\xb0,psp,,,,,,'
p6640
ssbsg1715
I00
sba(issf_api
Word
p6641
(dp6642
g2031
I00
sg2032
V\u0936\u093e\u0902\u0924\u093f
p6643
sg2034
(issf_api
FeatureSet
p6644
(dp6645
g261
(dp6646
S'posn'
p6647
S'40'
p6648
sS'name'
p6649
S'\xe0\xa4\xb6\xe0\xa4\xbe\xe0\xa4\x82\xe0\xa4\xa4\xe0\xa4\xbf'
p6650
sS'af'
p6651
S'\xe0\xa4\xb6\xe0\xa4\xbe\xe0\xa4\xa8\xe0\xa5\x8d\xe0\xa4\xa4\xe0\xa4\xbf,n,f,sg,3,d,0,0'
p6652
sS'chunkid'
p6653
S'NP2'
p6654
sS'drel'
p6655
S'k1:\xe0\xa4\xb9\xe0\xa5\x88'
p6656
sS'chunktype'
p6657
S'head:NP2'
p6658
ssbsg1693
I00
sg1696
I00
sg1707
Nsg1694
Nsg194
I1
sg181
I8
sg2048
Nsg1705
Nsg2049
S'NN'
p6659
sg258
(issf_api
FeatureSet
p6660
(dp6661
g261
(dp6662
S'posn'
p6663
S'40'
p6664
sS'name'
p6665
S'\xe0\xa4\xb6\xe0\xa4\xbe\xe0\xa4\x82\xe0\xa4\xa4\xe0\xa4\xbf'
p6666
sS'af'
p6667
S'\xe0\xa4\xb6\xe0\xa4\xbe\xe0\xa4\xa8\xe0\xa5\x8d\xe0\xa4\xa4\xe0\xa4\xbf,n,f,sg,3,d,0,0'
p6668
ssbsg1715
I00
sba(issf_api
Word
p6669
(dp6670
g2031
I00
sg2032
V\u0939\u0948
p6671
sg2034
(issf_api
FeatureSet
p6672
(dp6673
g261
(dp6674
S'posn'
p6675
S'50'
p6676
sS'name'
p6677
S'\xe0\xa4\xb9\xe0\xa5\x88'
p6678
sS'af'
p6679
S'\xe0\xa4\xb9\xe0\xa5\x88,v,any,sg,3,,\xe0\xa4\xb9\xe0\xa5\x88,hE'
p6680
sS'chunkid'
p6681
S'VGF'
p6682
sS'chunktype'
p6683
S'head:VGF'
p6684
sS'voicetype'
p6685
S'active'
p6686
sS'stype'
p6687
S'declarative'
p6688
ssbsg1693
I00
sg1696
I00
sg1707
Nsg1694
Nsg194
I2
sg181
I8
sg2048
Nsg1705
Nsg2049
S'VM'
p6689
sg258
(issf_api
FeatureSet
p6690
(dp6691
g261
(dp6692
S'posn'
p6693
S'50'
p6694
sS'name'
p6695
S'\xe0\xa4\xb9\xe0\xa5\x88'
p6696
sS'af'
p6697
S'\xe0\xa4\xb9\xe0\xa5\x88,v,any,sg,3,,\xe0\xa4\xb9\xe0\xa5\x88,hE'
p6698
ssbsg1715
I00
sba(issf_api
Word
p6699
(dp6700
g2031
I00
sg2032
V\u0964
sg2034
(issf_api
FeatureSet
p6701
(dp6702
g261
(dp6703
S'posn'
p6704
S'60'
p6705
sS'name'
p6706
S'\xe0\xa5\xa4'
p6707
sS'af'
p6708
S'\xe0\xa5\xa4,punc,,,,,,'
p6709
sS'chunkid'
p6710
S'BLK'
p6711
sS'drel'
p6712
S'rsym:\xe0\xa4\xb9\xe0\xa5\x88'
p6713
sS'chunktype'
p6714
S'head:BLK'
p6715
ssbsg1693
I00
sg1696
I00
sg1707
Nsg1694
Nsg194
I3
sg181
I8
sg2048
Nsg1705
Nsg2049
S'SYM'
p6716
sg258
(issf_api
FeatureSet
p6717
(dp6718
g261
(dp6719
S'posn'
p6720
S'60'
p6721
sS'name'
p6722
S'\xe0\xa5\xa4'
p6723
sS'af'
p6724
S'\xe0\xa5\xa4,punc,,,,,,'
p6725
ssbsg1715
I00
sbasb.