(iannotated_data
discourseFile
p1
(dp2
S'annToRawMapping'
p3
(dp4
I0
(I0
tp5
sI1
(I1
tp6
sI2
(I2
tp7
sI3
(I3
tp8
sI4
(I4
tp9
sI5
(I5
tp10
sI6
(I6
tp11
sI7
(I7
tp12
sI8
(I8
tp13
sI9
(I9
tp14
sI10
(I10
tp15
sI11
(I11
tp16
sI12
(I12
tp17
sI13
(I13
tp18
sI14
(I14
tp19
sI15
(I15
I16
tp20
sI16
(I17
tp21
sI17
(I18
tp22
sI18
(I19
tp23
sI19
(I20
tp24
sI20
(I21
tp25
sI21
(I22
tp26
sI22
(I23
tp27
sI23
(I23
tp28
sI24
(I24
tp29
sI25
(I25
tp30
sI26
(I26
tp31
sI27
(I27
I28
tp32
sI28
(I29
tp33
sI29
(I30
tp34
sI30
(I31
tp35
sI31
(I32
tp36
sI32
(I33
tp37
sI33
(I34
tp38
sI34
(I35
tp39
sI35
(I36
tp40
sI36
(I37
tp41
sI37
(I38
tp42
sI38
(I39
tp43
sI39
(I40
tp44
sI40
(I41
tp45
sI41
(I42
tp46
sI42
(I43
tp47
sI43
(I44
tp48
sI44
(I45
tp49
sI45
(I46
tp50
sI46
(I47
tp51
sI47
(I48
tp52
sI48
(I49
tp53
sI49
(I50
tp54
sI50
(I51
tp55
sI51
(I52
tp56
sI52
(I53
tp57
sI53
(I54
tp58
sI54
(I55
tp59
sI55
(I56
tp60
sI56
(I57
tp61
sI57
(I58
tp62
sI58
(I59
tp63
sI59
(I60
tp64
sI60
(I61
tp65
sI61
(I62
tp66
sI62
(I63
tp67
sI63
(I64
tp68
sI64
(I65
tp69
sI65
(I66
tp70
sI66
(I67
tp71
sI67
(I68
tp72
sI68
(I69
tp73
sI69
(I70
tp74
sI70
(I71
tp75
sI71
(I72
tp76
sI72
(I73
tp77
sI73
(I74
tp78
sI74
(I75
tp79
sI75
(I76
tp80
sI76
(I77
tp81
sI77
(I78
tp82
sI78
(I79
tp83
sI79
(I80
tp84
sI80
(I81
tp85
sI81
(I82
tp86
sI82
(I83
tp87
sI83
(I84
tp88
sI84
(I85
tp89
sI85
(I86
tp90
sI86
(I87
tp91
sI87
(I88
tp92
sI88
(I89
tp93
sI89
(I90
tp94
sI90
(I91
tp95
sI91
(I92
tp96
sI92
(I93
tp97
sI93
(I94
tp98
sI94
(I95
tp99
sI95
(I96
tp100
sI96
(I97
tp101
sI97
(I98
tp102
sI98
(I99
tp103
sI99
(I100
tp104
sI100
(I101
tp105
sI101
(I102
tp106
sI102
(I103
tp107
sI103
(I104
tp108
sI104
(I105
tp109
sI105
(I106
tp110
sI106
(I107
tp111
sI107
(I108
tp112
sI108
(I109
tp113
sI109
(I110
tp114
sI110
(I111
tp115
sI111
(I112
tp116
sI112
(I113
tp117
sI113
(I114
tp118
sI114
(I115
tp119
sI115
(I116
tp120
sI116
(I117
tp121
sI117
(I118
tp122
sI118
(I119
tp123
sI119
(I120
tp124
sI120
(I121
tp125
sI121
(I122
tp126
sI122
(I123
tp127
sI123
(I124
tp128
sI124
(I125
tp129
sI125
(I126
tp130
sI126
(I127
tp131
sI127
(I128
tp132
sI128
(I129
tp133
sI129
(I130
tp134
sI130
(I131
tp135
sI131
(I132
tp136
sI132
(I133
tp137
sI133
(I134
tp138
sI134
(I135
tp139
sI135
(I136
tp140
sI136
(I137
tp141
sI137
(I138
tp142
sI138
(I139
tp143
sI139
(I140
tp144
sI140
(I141
tp145
sI141
(I142
tp146
sI142
(I143
tp147
sI143
(I144
tp148
sI144
(I145
tp149
sI145
(I146
tp150
sI146
(I147
tp151
ssS'sentenceList'
p152
(lp153
(issf_api
Sentence
p154
(dp155
S'rootNode'
p156
(lp157
sS'sentenceNum'
p158
I0
sS'wordNumList'
p159
(lp160
I0
aI1
aI2
aI3
aI4
aI5
aI6
aI7
aI8
aI9
aI10
aI11
aI12
aI13
aI14
aI15
aI16
aI17
aI18
aI19
aI20
aI21
asS'nodeDict'
p161
(dp162
S'VGF'
p163
(issf_api
Node
p164
(dp165
S'nodeRelation'
p166
S'None'
p167
sS'nodeName'
p168
g163
sS'nodeParent'
p169
g167
sS'nodeLevel'
p170
I-1
sS'chunkNum'
p171
I7
sS'childList'
p172
(lp173
sbsS'JJP'
p174
(issf_api
Node
p175
(dp176
g166
S'pof'
p177
sg168
g174
sg169
S'VGF'
p178
sg170
I-1
sg171
I6
sg172
(lp179
sbsS'NP5'
p180
(issf_api
Node
p181
(dp182
g166
S'k7'
p183
sg168
g180
sg169
S'VGF'
p184
sg170
I-1
sg171
I4
sg172
(lp185
sbsS'BLK'
p186
(issf_api
Node
p187
(dp188
g166
S'rsym'
p189
sg168
g186
sg169
S'VGF'
p190
sg170
I-1
sg171
I8
sg172
(lp191
sbsS'NP'
p192
(issf_api
Node
p193
(dp194
g166
S'nmod'
p195
sg168
g192
sg169
S'NP2'
p196
sg170
I-1
sg171
I0
sg172
(lp197
sbsS'NP4'
p198
(issf_api
Node
p199
(dp200
g166
S'nmod'
p201
sg168
g198
sg169
S'NP5'
p202
sg170
I-1
sg171
I3
sg172
(lp203
sbsS'NP6'
p204
(issf_api
Node
p205
(dp206
g166
S'k2'
p207
sg168
g204
sg169
S'VGF'
p208
sg170
I-1
sg171
I5
sg172
(lp209
sbsS'NP3'
p210
(issf_api
Node
p211
(dp212
g166
S'r6'
p213
sg168
g210
sg169
S'NP4'
p214
sg170
I-1
sg171
I2
sg172
(lp215
sbsS'NP2'
p216
(issf_api
Node
p217
(dp218
g166
S'k1'
p219
sg168
g216
sg169
S'VGF'
p220
sg170
I-1
sg171
I1
sg172
(lp221
sbssS'chunkList'
p222
(lp223
(issf_api
Chunk
p224
(dp225
g168
g192
sg171
I0
sS'chunkTag'
p226
S'NP'
p227
sg158
I0
sg159
(lp228
I0
aI1
asS'featureSet'
p229
(issf_api
FeatureSet
p230
(dp231
S'featureDict'
p232
(dp233
S'drel'
p234
S'nmod:NP2'
p235
sS'name'
p236
g192
ssbsba(issf_api
Chunk
p237
(dp238
g168
g216
sg171
I1
sg226
S'NP'
p239
sg158
I0
sg159
(lp240
I2
aI3
aI4
aI5
aI6
asg229
(issf_api
FeatureSet
p241
(dp242
g232
(dp243
S'drel'
p244
S'k1:VGF'
p245
sS'name'
p246
g216
ssbsba(issf_api
Chunk
p247
(dp248
g168
g210
sg171
I2
sg226
S'NP'
p249
sg158
I0
sg159
(lp250
I7
aI8
asg229
(issf_api
FeatureSet
p251
(dp252
g232
(dp253
S'drel'
p254
S'r6:NP4'
p255
sS'name'
p256
g210
ssbsba(issf_api
Chunk
p257
(dp258
g168
g198
sg171
I3
sg226
S'NP'
p259
sg158
I0
sg159
(lp260
I9
aI10
aI11
asg229
(issf_api
FeatureSet
p261
(dp262
g232
(dp263
S'drel'
p264
S'nmod:NP5'
p265
sS'name'
p266
g198
ssbsba(issf_api
Chunk
p267
(dp268
g168
g180
sg171
I4
sg226
S'NP'
p269
sg158
I0
sg159
(lp270
I12
aI13
aI14
asg229
(issf_api
FeatureSet
p271
(dp272
g232
(dp273
S'drel'
p274
S'k7:VGF'
p275
sS'name'
p276
g180
ssbsba(issf_api
Chunk
p277
(dp278
g168
g204
sg171
I5
sg226
S'NP'
p279
sg158
I0
sg159
(lp280
I15
aI16
aI17
asg229
(issf_api
FeatureSet
p281
(dp282
g232
(dp283
S'drel'
p284
S'k2:VGF'
p285
sS'name'
p286
g204
ssbsba(issf_api
Chunk
p287
(dp288
g168
g174
sg171
I6
sg226
S'JJP'
p289
sg158
I0
sg159
(lp290
I18
asg229
(issf_api
FeatureSet
p291
(dp292
g232
(dp293
S'drel'
p294
S'pof:VGF'
p295
sS'name'
p296
g174
ssbsba(issf_api
Chunk
p297
(dp298
g168
g163
sg171
I7
sg226
S'VGF'
p299
sg158
I0
sg159
(lp300
I19
aI20
asg229
(issf_api
FeatureSet
p301
(dp302
g232
(dp303
S'name'
p304
g163
sS'stype'
p305
S'declarative'
p306
sS'voicetype'
p307
S'active'
p308
ssbsba(issf_api
Chunk
p309
(dp310
g168
g186
sg171
I8
sg226
S'BLK'
p311
sg158
I0
sg159
(lp312
I21
asg229
(issf_api
FeatureSet
p313
(dp314
g232
(dp315
S'drel'
p316
S'rsym:VGF'
p317
sS'name'
p318
g186
ssbsbasba(issf_api
Sentence
p319
(dp320
g156
(lp321
sg158
I1
sg159
(lp322
I22
aI23
aI24
aI25
aI26
aI27
aI28
aI29
aI30
aI31
aI32
aI33
aI34
asg161
(dp323
S'VGF'
p324
(issf_api
Node
p325
(dp326
g166
g167
sg168
g324
sg169
g167
sg170
I-1
sg171
I4
sg172
(lp327
sbsS'BLK'
p328
(issf_api
Node
p329
(dp330
g166
S'rsym'
p331
sg168
g328
sg169
S'VGF'
p332
sg170
I-1
sg171
I5
sg172
(lp333
sbsS'NP'
p334
(issf_api
Node
p335
(dp336
g166
S'rt'
p337
sg168
g334
sg169
S'VGF'
p338
sg170
I-1
sg171
I0
sg172
(lp339
sbsS'NP4'
p340
(issf_api
Node
p341
(dp342
g166
S'pof'
p343
sg168
g340
sg169
S'VGF'
p344
sg170
I-1
sg171
I3
sg172
(lp345
sbsS'NP3'
p346
(issf_api
Node
p347
(dp348
g166
S'r6-k2'
p349
sg168
g346
sg169
S'NP4'
p350
sg170
I-1
sg171
I2
sg172
(lp351
sbsS'NP2'
p352
(issf_api
Node
p353
(dp354
g166
S'k1'
p355
sg168
g352
sg169
S'VGF'
p356
sg170
I-1
sg171
I1
sg172
(lp357
sbssg222
(lp358
(issf_api
Chunk
p359
(dp360
g168
g334
sg171
I0
sg226
S'NP'
p361
sg158
I1
sg159
(lp362
I22
aI23
asg229
(issf_api
FeatureSet
p363
(dp364
g232
(dp365
S'drel'
p366
S'rt:VGF'
p367
sS'name'
p368
g334
ssbsba(issf_api
Chunk
p369
(dp370
g168
g352
sg171
I1
sg226
S'NP'
p371
sg158
I1
sg159
(lp372
I24
aI25
aI26
asg229
(issf_api
FeatureSet
p373
(dp374
g232
(dp375
S'drel'
p376
S'k1:VGF'
p377
sS'name'
p378
g352
ssbsba(issf_api
Chunk
p379
(dp380
g168
g346
sg171
I2
sg226
S'NP'
p381
sg158
I1
sg159
(lp382
I27
aI28
aI29
aI30
asg229
(issf_api
FeatureSet
p383
(dp384
g232
(dp385
S'drel'
p386
S'r6-k2:NP4'
p387
sS'name'
p388
g346
ssbsba(issf_api
Chunk
p389
(dp390
g168
g340
sg171
I3
sg226
S'NP'
p391
sg158
I1
sg159
(lp392
I31
asg229
(issf_api
FeatureSet
p393
(dp394
g232
(dp395
S'drel'
p396
S'pof:VGF'
p397
sS'name'
p398
g340
ssbsba(issf_api
Chunk
p399
(dp400
g168
g324
sg171
I4
sg226
S'VGF'
p401
sg158
I1
sg159
(lp402
I32
aI33
asg229
(issf_api
FeatureSet
p403
(dp404
g232
(dp405
S'name'
p406
g324
sS'stype'
p407
S'declarative'
p408
sS'voicetype'
p409
S'active'
p410
ssbsba(issf_api
Chunk
p411
(dp412
g168
g328
sg171
I5
sg226
S'BLK'
p413
sg158
I1
sg159
(lp414
I34
asg229
(issf_api
FeatureSet
p415
(dp416
g232
(dp417
S'drel'
p418
S'rsym:VGF'
p419
sS'name'
p420
g328
ssbsbasba(issf_api
Sentence
p421
(dp422
g156
(lp423
sg158
I2
sg159
(lp424
I35
aI36
aI37
aI38
aI39
aI40
aI41
aI42
aI43
aI44
aI45
aI46
aI47
aI48
aI49
aI50
aI51
aI52
aI53
asg161
(dp425
S'VGNF'
p426
(issf_api
Node
p427
(dp428
g166
S'nmod__pofinv'
p429
sg168
g426
sg169
S'NP5'
p430
sg170
I-1
sg171
I3
sg172
(lp431
sbsS'VGF'
p432
(issf_api
Node
p433
(dp434
g166
g167
sg168
g432
sg169
g167
sg170
I-1
sg171
I7
sg172
(lp435
sbsS'NP5'
p436
(issf_api
Node
p437
(dp438
g166
S'r6'
p439
sg168
g436
sg169
S'NP6'
p440
sg170
I-1
sg171
I5
sg172
(lp441
sbsS'BLK'
p442
(issf_api
Node
p443
(dp444
g166
S'rsym'
p445
sg168
g442
sg169
S'VGF'
p446
sg170
I-1
sg171
I8
sg172
(lp447
sbsS'NP'
p448
(issf_api
Node
p449
(dp450
g166
S'r6'
p451
sg168
g448
sg169
S'NP2'
p452
sg170
I-1
sg171
I0
sg172
(lp453
sbsS'NP4'
p454
(issf_api
Node
p455
(dp456
g166
S'r6'
p457
sg168
g454
sg169
S'NP5'
p458
sg170
I-1
sg171
I4
sg172
(lp459
sbsS'NP6'
p460
(issf_api
Node
p461
(dp462
g166
S'k1'
p463
sg168
g460
sg169
S'VGF'
p464
sg170
I-1
sg171
I6
sg172
(lp465
sbsS'NP3'
p466
(issf_api
Node
p467
(dp468
g166
S'k1'
p469
sg168
g466
sg169
S'VGNF'
p470
sg170
I-1
sg171
I2
sg172
(lp471
sbsS'NP2'
p472
(issf_api
Node
p473
(dp474
g166
S'k7'
p475
sg168
g472
sg169
S'VGNF'
p476
sg170
I-1
sg171
I1
sg172
(lp477
sbssg222
(lp478
(issf_api
Chunk
p479
(dp480
g168
g448
sg171
I0
sg226
S'NP'
p481
sg158
I2
sg159
(lp482
I35
aI36
asg229
(issf_api
FeatureSet
p483
(dp484
g232
(dp485
S'drel'
p486
S'r6:NP2'
p487
sS'name'
p488
g448
ssbsba(issf_api
Chunk
p489
(dp490
g168
g472
sg171
I1
sg226
S'NP'
p491
sg158
I2
sg159
(lp492
I37
aI38
aI39
asg229
(issf_api
FeatureSet
p493
(dp494
g232
(dp495
S'drel'
p496
S'k7:VGNF'
p497
sS'name'
p498
g472
ssbsba(issf_api
Chunk
p499
(dp500
g168
g466
sg171
I2
sg226
S'NP'
p501
sg158
I2
sg159
(lp502
I40
aI41
aI42
aI43
asg229
(issf_api
FeatureSet
p503
(dp504
g232
(dp505
S'drel'
p506
S'k1:VGNF'
p507
sS'name'
p508
g466
ssbsba(issf_api
Chunk
p509
(dp510
g168
g426
sg171
I3
sg226
S'VGNF'
p511
sg158
I2
sg159
(lp512
I44
aI45
asg229
(issf_api
FeatureSet
p513
(dp514
g232
(dp515
S'drel'
p516
S'nmod__pofinv:NP5'
p517
sS'name'
p518
g426
ssbsba(issf_api
Chunk
p519
(dp520
g168
g454
sg171
I4
sg226
S'NP'
p521
sg158
I2
sg159
(lp522
I46
asg229
(issf_api
FeatureSet
p523
(dp524
g232
(dp525
S'drel'
p526
S'r6:NP5'
p527
sS'name'
p528
g454
ssbsba(issf_api
Chunk
p529
(dp530
g168
g436
sg171
I5
sg226
S'NP'
p531
sg158
I2
sg159
(lp532
I47
aI48
asg229
(issf_api
FeatureSet
p533
(dp534
g232
(dp535
S'drel'
p536
S'r6:NP6'
p537
sS'name'
p538
g436
ssbsba(issf_api
Chunk
p539
(dp540
g168
g460
sg171
I6
sg226
S'NP'
p541
sg158
I2
sg159
(lp542
I49
aI50
aI51
asg229
(issf_api
FeatureSet
p543
(dp544
g232
(dp545
S'drel'
p546
S'k1:VGF'
p547
sS'name'
p548
g460
ssbsba(issf_api
Chunk
p549
(dp550
g168
g432
sg171
I7
sg226
S'VGF'
p551
sg158
I2
sg159
(lp552
I52
asg229
(issf_api
FeatureSet
p553
(dp554
g232
(dp555
S'name'
p556
g432
sS'stype'
p557
S'declarative'
p558
sS'voicetype'
p559
S'active'
p560
ssbsba(issf_api
Chunk
p561
(dp562
g168
g442
sg171
I8
sg226
S'BLK'
p563
sg158
I2
sg159
(lp564
I53
asg229
(issf_api
FeatureSet
p565
(dp566
g232
(dp567
S'drel'
p568
S'rsym:VGF'
p569
sS'name'
p570
g442
ssbsbasba(issf_api
Sentence
p571
(dp572
g156
(lp573
sg158
I3
sg159
(lp574
I54
aI55
aI56
aI57
aI58
aI59
aI60
aI61
aI62
aI63
aI64
aI65
aI66
aI67
aI68
aI69
aI70
aI71
aI72
aI73
aI74
aI75
aI76
aI77
aI78
aI79
aI80
aI81
aI82
aI83
aI84
aI85
aI86
asg161
(dp575
S'NP11'
p576
(issf_api
Node
p577
(dp578
g166
S'k2'
p579
sg168
g576
sg169
S'VGF2'
p580
sg170
I-1
sg171
I14
sg172
(lp581
sbsS'VGNN'
p582
(issf_api
Node
p583
(dp584
g166
S'rt'
p585
sg168
g582
sg169
S'VGF2'
p586
sg170
I-1
sg171
I11
sg172
(lp587
sbsS'VGF'
p588
(issf_api
Node
p589
(dp590
g166
g167
sg168
g588
sg169
g167
sg170
I-1
sg171
I6
sg172
(lp591
sbsS'CCP'
p592
(issf_api
Node
p593
(dp594
g166
S'nmod'
p595
sg168
g592
sg169
S'NP4'
p596
sg170
I-1
sg171
I2
sg172
(lp597
sbsS'VGF2'
p598
(issf_api
Node
p599
(dp600
g166
S'ccof'
p601
sg168
g598
sg169
S'CCP2'
p602
sg170
I-1
sg171
I15
sg172
(lp603
sbsS'NP5'
p604
(issf_api
Node
p605
(dp606
g166
S'k7t'
p607
sg168
g604
sg169
S'VGF'
p608
sg170
I-1
sg171
I5
sg172
(lp609
sbsS'NP9'
p610
(issf_api
Node
p611
(dp612
g166
S'k7t'
p613
sg168
g610
sg169
S'VGF2'
p614
sg170
I-1
sg171
I12
sg172
(lp615
sbsS'NP8'
p616
(issf_api
Node
p617
(dp618
g166
S'k2'
p619
sg168
g616
sg169
S'VGNN'
p620
sg170
I-1
sg171
I10
sg172
(lp621
sbsS'BLK'
p622
(issf_api
Node
p623
(dp624
g166
S'rsym'
p625
sg168
g622
sg169
S'VGF'
p626
sg170
I-1
sg171
I16
sg172
(lp627
sbsS'NP10'
p628
(issf_api
Node
p629
(dp630
g166
S'r6'
p631
sg168
g628
sg169
S'NP11'
p632
sg170
I-1
sg171
I13
sg172
(lp633
sbsS'NP'
p634
(issf_api
Node
p635
(dp636
g166
S'r6'
p637
sg168
g634
sg169
S'NP2'
p638
sg170
I-1
sg171
I0
sg172
(lp639
sbsS'NP4'
p640
(issf_api
Node
p641
(dp642
g166
S'k1'
p643
sg168
g640
sg169
S'VGF'
p644
sg170
I-1
sg171
I4
sg172
(lp645
sbsS'NP7'
p646
(issf_api
Node
p647
(dp648
g166
S'k7'
p649
sg168
g646
sg169
S'VGNN'
p650
sg170
I-1
sg171
I9
sg172
(lp651
sbsS'NP6'
p652
(issf_api
Node
p653
(dp654
g166
S'k1'
p655
sg168
g652
sg169
S'VGF2'
p656
sg170
I-1
sg171
I8
sg172
(lp657
sbsS'CCP2'
p658
(issf_api
Node
p659
(dp660
g166
S'k2'
p661
sg168
g658
sg169
S'VGF'
p662
sg170
I-1
sg171
I7
sg172
(lp663
sbsS'NP3'
p664
(issf_api
Node
p665
(dp666
g166
S'ccof'
p667
sg168
g664
sg169
S'CCP'
p668
sg170
I-1
sg171
I3
sg172
(lp669
sbsS'NP2'
p670
(issf_api
Node
p671
(dp672
g166
S'ccof'
p673
sg168
g670
sg169
S'CCP'
p674
sg170
I-1
sg171
I1
sg172
(lp675
sbssg222
(lp676
(issf_api
Chunk
p677
(dp678
g168
g634
sg171
I0
sg226
S'NP'
p679
sg158
I3
sg159
(lp680
I54
aI55
aI56
asg229
(issf_api
FeatureSet
p681
(dp682
g232
(dp683
S'drel'
p684
S'r6:NP2'
p685
sS'name'
p686
g634
ssbsba(issf_api
Chunk
p687
(dp688
g168
g670
sg171
I1
sg226
S'NP'
p689
sg158
I3
sg159
(lp690
I57
asg229
(issf_api
FeatureSet
p691
(dp692
g232
(dp693
S'drel'
p694
S'ccof:CCP'
p695
sS'name'
p696
g670
ssbsba(issf_api
Chunk
p697
(dp698
g168
g592
sg171
I2
sg226
S'CCP'
p699
sg158
I3
sg159
(lp700
I58
asg229
(issf_api
FeatureSet
p701
(dp702
g232
(dp703
S'drel'
p704
S'nmod:NP4'
p705
sS'name'
p706
g592
ssbsba(issf_api
Chunk
p707
(dp708
g168
g664
sg171
I3
sg226
S'NP'
p709
sg158
I3
sg159
(lp710
I59
asg229
(issf_api
FeatureSet
p711
(dp712
g232
(dp713
S'drel'
p714
S'ccof:CCP'
p715
sS'name'
p716
g664
ssbsba(issf_api
Chunk
p717
(dp718
g168
g640
sg171
I4
sg226
S'NP'
p719
sg158
I3
sg159
(lp720
I60
aI61
aI62
aI63
asg229
(issf_api
FeatureSet
p721
(dp722
g232
(dp723
S'drel'
p724
S'k1:VGF'
p725
sS'name'
p726
g640
ssbsba(issf_api
Chunk
p727
(dp728
g168
g604
sg171
I5
sg226
S'NP'
p729
sg158
I3
sg159
(lp730
I64
aI65
asg229
(issf_api
FeatureSet
p731
(dp732
g232
(dp733
S'drel'
p734
S'k7t:VGF'
p735
sS'name'
p736
g604
ssbsba(issf_api
Chunk
p737
(dp738
g168
g588
sg171
I6
sg226
S'VGF'
p739
sg158
I3
sg159
(lp740
I66
asg229
(issf_api
FeatureSet
p741
(dp742
g232
(dp743
S'name'
p744
g588
sS'stype'
p745
S'declarative'
p746
sS'voicetype'
p747
S'active'
p748
ssbsba(issf_api
Chunk
p749
(dp750
g168
g658
sg171
I7
sg226
S'CCP'
p751
sg158
I3
sg159
(lp752
I67
asg229
(issf_api
FeatureSet
p753
(dp754
g232
(dp755
S'drel'
p756
S'k2:VGF'
p757
sS'name'
p758
g658
ssbsba(issf_api
Chunk
p759
(dp760
g168
g652
sg171
I8
sg226
S'NP'
p761
sg158
I3
sg159
(lp762
I68
aI69
aI70
asg229
(issf_api
FeatureSet
p763
(dp764
g232
(dp765
S'drel'
p766
S'k1:VGF2'
p767
sS'name'
p768
g652
ssbsba(issf_api
Chunk
p769
(dp770
g168
g646
sg171
I9
sg226
S'NP'
p771
sg158
I3
sg159
(lp772
I71
aI72
aI73
asg229
(issf_api
FeatureSet
p773
(dp774
g232
(dp775
S'drel'
p776
S'k7:VGNN'
p777
sS'name'
p778
g646
ssbsba(issf_api
Chunk
p779
(dp780
g168
g616
sg171
I10
sg226
S'NP'
p781
sg158
I3
sg159
(lp782
I74
asg229
(issf_api
FeatureSet
p783
(dp784
g232
(dp785
S'drel'
p786
S'k2:VGNN'
p787
sS'name'
p788
g616
ssbsba(issf_api
Chunk
p789
(dp790
g168
g582
sg171
I11
sg226
S'VGNN'
p791
sg158
I3
sg159
(lp792
I75
aI76
aI77
asg229
(issf_api
FeatureSet
p793
(dp794
g232
(dp795
S'drel'
p796
S'rt:VGF2'
p797
sS'name'
p798
g582
ssbsba(issf_api
Chunk
p799
(dp800
g168
g610
sg171
I12
sg226
S'NP'
p801
sg158
I3
sg159
(lp802
I78
aI79
aI80
aI81
asg229
(issf_api
FeatureSet
p803
(dp804
g232
(dp805
S'drel'
p806
S'k7t:VGF2'
p807
sS'name'
p808
g610
ssbsba(issf_api
Chunk
p809
(dp810
g168
g628
sg171
I13
sg226
S'NP'
p811
sg158
I3
sg159
(lp812
I82
asg229
(issf_api
FeatureSet
p813
(dp814
g232
(dp815
S'drel'
p816
S'r6:NP11'
p817
sS'name'
p818
g628
ssbsba(issf_api
Chunk
p819
(dp820
g168
g576
sg171
I14
sg226
S'NP'
p821
sg158
I3
sg159
(lp822
I83
asg229
(issf_api
FeatureSet
p823
(dp824
g232
(dp825
S'drel'
p826
S'k2:VGF2'
p827
sS'name'
p828
g576
ssbsba(issf_api
Chunk
p829
(dp830
g168
g598
sg171
I15
sg226
S'VGF'
p831
sg158
I3
sg159
(lp832
I84
aI85
asg229
(issf_api
FeatureSet
p833
(dp834
g232
(dp835
S'voicetype'
p836
S"active'"
p837
sS'drel'
p838
S'ccof:CCP2'
p839
sS'stype'
p840
S'declarative'
p841
sS'name'
p842
g598
ssbsba(issf_api
Chunk
p843
(dp844
g168
g622
sg171
I16
sg226
S'BLK'
p845
sg158
I3
sg159
(lp846
I86
asg229
(issf_api
FeatureSet
p847
(dp848
g232
(dp849
S'drel'
p850
S'rsym:VGF'
p851
sS'name'
p852
g622
ssbsbasba(issf_api
Sentence
p853
(dp854
g156
(lp855
sg158
I4
sg159
(lp856
I87
aI88
aI89
aI90
aI91
aI92
aI93
aI94
aI95
aI96
aI97
aI98
aI99
aI100
aI101
aI102
aI103
asg161
(dp857
S'VGF'
p858
(issf_api
Node
p859
(dp860
g166
g167
sg168
g858
sg169
g167
sg170
I-1
sg171
I6
sg172
(lp861
sbsS'CCP'
p862
(issf_api
Node
p863
(dp864
g166
S'vmod'
p865
sg168
g862
sg169
S'VGF'
p866
sg170
I-1
sg171
I1
sg172
(lp867
sbsS'NP5'
p868
(issf_api
Node
p869
(dp870
g166
S'pof'
p871
sg168
g868
sg169
S'VGF'
p872
sg170
I-1
sg171
I5
sg172
(lp873
sbsS'BLK'
p874
(issf_api
Node
p875
(dp876
g166
S'rsym'
p877
sg168
g874
sg169
S'VGF'
p878
sg170
I-1
sg171
I7
sg172
(lp879
sbsS'NP'
p880
(issf_api
Node
p881
(dp882
g166
S'ccof'
p883
sg168
g880
sg169
S'CCP'
p884
sg170
I-1
sg171
I0
sg172
(lp885
sbsS'NP4'
p886
(issf_api
Node
p887
(dp888
g166
S'k7'
p889
sg168
g886
sg169
S'VGF'
p890
sg170
I-1
sg171
I4
sg172
(lp891
sbsS'NP3'
p892
(issf_api
Node
p893
(dp894
g166
S'k7t'
p895
sg168
g892
sg169
S'VGF'
p896
sg170
I-1
sg171
I3
sg172
(lp897
sbsS'NP2'
p898
(issf_api
Node
p899
(dp900
g166
S'ccof'
p901
sg168
g898
sg169
S'CCP'
p902
sg170
I-1
sg171
I2
sg172
(lp903
sbssg222
(lp904
(issf_api
Chunk
p905
(dp906
g168
g880
sg171
I0
sg226
S'NP'
p907
sg158
I4
sg159
(lp908
I87
asg229
(issf_api
FeatureSet
p909
(dp910
g232
(dp911
S'drel'
p912
S'ccof:CCP'
p913
sS'name'
p914
g880
ssbsba(issf_api
Chunk
p915
(dp916
g168
g862
sg171
I1
sg226
S'CCP'
p917
sg158
I4
sg159
(lp918
I88
asg229
(issf_api
FeatureSet
p919
(dp920
g232
(dp921
S'drel'
p922
S'vmod:VGF'
p923
sS'name'
p924
g862
ssbsba(issf_api
Chunk
p925
(dp926
g168
g898
sg171
I2
sg226
S'NP'
p927
sg158
I4
sg159
(lp928
I89
aI90
aI91
asg229
(issf_api
FeatureSet
p929
(dp930
g232
(dp931
S'drel'
p932
S'ccof:CCP'
p933
sS'name'
p934
g898
ssbsba(issf_api
Chunk
p935
(dp936
g168
g892
sg171
I3
sg226
S'NP'
p937
sg158
I4
sg159
(lp938
I92
aI93
aI94
aI95
aI96
aI97
asg229
(issf_api
FeatureSet
p939
(dp940
g232
(dp941
S'drel'
p942
S'k7t:VGF'
p943
sS'name'
p944
g892
ssbsba(issf_api
Chunk
p945
(dp946
g168
g886
sg171
I4
sg226
S'NP'
p947
sg158
I4
sg159
(lp948
I98
aI99
asg229
(issf_api
FeatureSet
p949
(dp950
g232
(dp951
S'drel'
p952
S'k7:VGF'
p953
sS'name'
p954
g886
ssbsba(issf_api
Chunk
p955
(dp956
g168
g868
sg171
I5
sg226
S'NP'
p957
sg158
I4
sg159
(lp958
I100
asg229
(issf_api
FeatureSet
p959
(dp960
g232
(dp961
S'drel'
p962
S'pof:VGF'
p963
sS'name'
p964
g868
ssbsba(issf_api
Chunk
p965
(dp966
g168
g858
sg171
I6
sg226
S'VGF'
p967
sg158
I4
sg159
(lp968
I101
aI102
asg229
(issf_api
FeatureSet
p969
(dp970
g232
(dp971
S'name'
p972
g858
sS'stype'
p973
S'declarative'
p974
sS'voicetype'
p975
S'passive'
p976
ssbsba(issf_api
Chunk
p977
(dp978
g168
g874
sg171
I7
sg226
S'BLK'
p979
sg158
I4
sg159
(lp980
I103
asg229
(issf_api
FeatureSet
p981
(dp982
g232
(dp983
S'drel'
p984
S'rsym:VGF'
p985
sS'name'
p986
g874
ssbsbasba(issf_api
Sentence
p987
(dp988
g156
(lp989
sg158
I5
sg159
(lp990
I104
aI105
aI106
aI107
aI108
aI109
aI110
aI111
aI112
aI113
aI114
aI115
aI116
aI117
aI118
aI119
aI120
aI121
aI122
asg161
(dp991
S'VGF'
p992
(issf_api
Node
p993
(dp994
g166
g167
sg168
g992
sg169
g167
sg170
I-1
sg171
I1
sg172
(lp995
sbsS'CCP'
p996
(issf_api
Node
p997
(dp998
g166
S'k2'
p999
sg168
g996
sg169
S'VGF'
p1000
sg170
I-1
sg171
I2
sg172
(lp1001
sbsS'VGF2'
p1002
(issf_api
Node
p1003
(dp1004
g166
S'ccof'
p1005
sg168
g1002
sg169
S'CCP'
p1006
sg170
I-1
sg171
I8
sg172
(lp1007
sbsS'NP5'
p1008
(issf_api
Node
p1009
(dp1010
g166
S'r6-k1'
p1011
sg168
g1008
sg169
S'NP6'
p1012
sg170
I-1
sg171
I6
sg172
(lp1013
sbsS'BLK'
p1014
(issf_api
Node
p1015
(dp1016
g166
S'rsym'
p1017
sg168
g1014
sg169
S'VGF'
p1018
sg170
I-1
sg171
I9
sg172
(lp1019
sbsS'NP'
p1020
(issf_api
Node
p1021
(dp1022
g166
S'k1'
p1023
sg168
g1020
sg169
S'VGF'
p1024
sg170
I-1
sg171
I0
sg172
(lp1025
sbsS'NP4'
p1026
(issf_api
Node
p1027
(dp1028
g166
S'k7t'
p1029
sg168
g1026
sg169
S'VGF2'
p1030
sg170
I-1
sg171
I5
sg172
(lp1031
sbsS'NP6'
p1032
(issf_api
Node
p1033
(dp1034
g166
S'pof'
p1035
sg168
g1032
sg169
S'VGF2'
p1036
sg170
I-1
sg171
I7
sg172
(lp1037
sbsS'NP3'
p1038
(issf_api
Node
p1039
(dp1040
g166
S'k7'
p1041
sg168
g1038
sg169
S'VGF2'
p1042
sg170
I-1
sg171
I4
sg172
(lp1043
sbsS'NP2'
p1044
(issf_api
Node
p1045
(dp1046
g166
S'r6'
p1047
sg168
g1044
sg169
S'NP3'
p1048
sg170
I-1
sg171
I3
sg172
(lp1049
sbssg222
(lp1050
(issf_api
Chunk
p1051
(dp1052
g168
g1020
sg171
I0
sg226
S'NP'
p1053
sg158
I5
sg159
(lp1054
I104
asg229
(issf_api
FeatureSet
p1055
(dp1056
g232
(dp1057
S'drel'
p1058
S'k1:VGF'
p1059
sS'name'
p1060
g1020
ssbsba(issf_api
Chunk
p1061
(dp1062
g168
g992
sg171
I1
sg226
S'VGF'
p1063
sg158
I5
sg159
(lp1064
I105
asg229
(issf_api
FeatureSet
p1065
(dp1066
g232
(dp1067
S'name'
p1068
g992
sS'stype'
p1069
S'declarative'
p1070
sS'voicetype'
p1071
S'active'
p1072
ssbsba(issf_api
Chunk
p1073
(dp1074
g168
g996
sg171
I2
sg226
S'CCP'
p1075
sg158
I5
sg159
(lp1076
I106
asg229
(issf_api
FeatureSet
p1077
(dp1078
g232
(dp1079
S'drel'
p1080
S'k2:VGF'
p1081
sS'name'
p1082
g996
ssbsba(issf_api
Chunk
p1083
(dp1084
g168
g1044
sg171
I3
sg226
S'NP'
p1085
sg158
I5
sg159
(lp1086
I107
aI108
aI109
asg229
(issf_api
FeatureSet
p1087
(dp1088
g232
(dp1089
S'drel'
p1090
S'r6:NP3'
p1091
sS'name'
p1092
g1044
ssbsba(issf_api
Chunk
p1093
(dp1094
g168
g1038
sg171
I4
sg226
S'NP'
p1095
sg158
I5
sg159
(lp1096
I110
aI111
aI112
aI113
asg229
(issf_api
FeatureSet
p1097
(dp1098
g232
(dp1099
S'drel'
p1100
S'k7:VGF2'
p1101
sS'name'
p1102
g1038
ssbsba(issf_api
Chunk
p1103
(dp1104
g168
g1026
sg171
I5
sg226
S'NP'
p1105
sg158
I5
sg159
(lp1106
I114
asg229
(issf_api
FeatureSet
p1107
(dp1108
g232
(dp1109
S'drel'
p1110
S'k7t:VGF2'
p1111
sS'name'
p1112
g1026
ssbsba(issf_api
Chunk
p1113
(dp1114
g168
g1008
sg171
I6
sg226
S'NP'
p1115
sg158
I5
sg159
(lp1116
I115
aI116
aI117
aI118
asg229
(issf_api
FeatureSet
p1117
(dp1118
g232
(dp1119
S'drel'
p1120
S'r6-k1:NP6'
p1121
sS'name'
p1122
g1008
ssbsba(issf_api
Chunk
p1123
(dp1124
g168
g1032
sg171
I7
sg226
S'NP'
p1125
sg158
I5
sg159
(lp1126
I119
aI120
asg229
(issf_api
FeatureSet
p1127
(dp1128
g232
(dp1129
S'drel'
p1130
S'pof:VGF2'
p1131
sS'name'
p1132
g1032
ssbsba(issf_api
Chunk
p1133
(dp1134
g168
g1002
sg171
I8
sg226
S'VGF'
p1135
sg158
I5
sg159
(lp1136
I121
asg229
(issf_api
FeatureSet
p1137
(dp1138
g232
(dp1139
S'voicetype'
p1140
S"active'"
p1141
sS'drel'
p1142
S'ccof:CCP'
p1143
sS'stype'
p1144
S'declarative'
p1145
sS'name'
p1146
g1002
ssbsba(issf_api
Chunk
p1147
(dp1148
g168
g1014
sg171
I9
sg226
S'BLK'
p1149
sg158
I5
sg159
(lp1150
I122
asg229
(issf_api
FeatureSet
p1151
(dp1152
g232
(dp1153
S'drel'
p1154
S'rsym:VGF'
p1155
sS'name'
p1156
g1014
ssbsbasba(issf_api
Sentence
p1157
(dp1158
g156
(lp1159
sg158
I6
sg159
(lp1160
I123
aI124
aI125
aI126
aI127
aI128
aI129
aI130
aI131
aI132
aI133
aI134
aI135
aI136
aI137
aI138
aI139
aI140
aI141
aI142
aI143
aI144
aI145
aI146
asg161
(dp1161
S'VGF'
p1162
(issf_api
Node
p1163
(dp1164
g166
S'ccof'
p1165
sg168
g1162
sg169
S'CCP'
p1166
sg170
I-1
sg171
I6
sg172
(lp1167
sbsS'CCP'
p1168
(issf_api
Node
p1169
(dp1170
g166
g167
sg168
g1168
sg169
g167
sg170
I-1
sg171
I0
sg172
(lp1171
sbsS'NP5'
p1172
(issf_api
Node
p1173
(dp1174
g166
S'pof'
p1175
sg168
g1172
sg169
S'VGF'
p1176
sg170
I-1
sg171
I5
sg172
(lp1177
sbsS'BLK'
p1178
(issf_api
Node
p1179
(dp1180
g166
S'rsym'
p1181
sg168
g1178
sg169
S'CCP'
p1182
sg170
I-1
sg171
I7
sg172
(lp1183
sbsS'NP'
p1184
(issf_api
Node
p1185
(dp1186
g166
S'k7a'
p1187
sg168
g1184
sg169
S'VGF'
p1188
sg170
I-1
sg171
I1
sg172
(lp1189
sbsS'NP4'
p1190
(issf_api
Node
p1191
(dp1192
g166
S'r6-k2'
p1193
sg168
g1190
sg169
S'NP5'
p1194
sg170
I-1
sg171
I4
sg172
(lp1195
sbsS'NP3'
p1196
(issf_api
Node
p1197
(dp1198
g166
S'k7'
p1199
sg168
g1196
sg169
S'VGF'
p1200
sg170
I-1
sg171
I3
sg172
(lp1201
sbsS'NP2'
p1202
(issf_api
Node
p1203
(dp1204
g166
S'k1'
p1205
sg168
g1202
sg169
S'VGF'
p1206
sg170
I-1
sg171
I2
sg172
(lp1207
sbssg222
(lp1208
(issf_api
Chunk
p1209
(dp1210
g168
g1168
sg171
I0
sg226
S'CCP'
p1211
sg158
I6
sg159
(lp1212
I123
aI124
asg229
(issf_api
FeatureSet
p1213
(dp1214
g232
(dp1215
S'name'
p1216
g1168
ssbsba(issf_api
Chunk
p1217
(dp1218
g168
g1184
sg171
I1
sg226
S'NP'
p1219
sg158
I6
sg159
(lp1220
I125
aI126
aI127
aI128
aI129
asg229
(issf_api
FeatureSet
p1221
(dp1222
g232
(dp1223
S'drel'
p1224
S'k7a:VGF'
p1225
sS'name'
p1226
g1184
ssbsba(issf_api
Chunk
p1227
(dp1228
g168
g1202
sg171
I2
sg226
S'NP'
p1229
sg158
I6
sg159
(lp1230
I130
aI131
aI132
asg229
(issf_api
FeatureSet
p1231
(dp1232
g232
(dp1233
S'drel'
p1234
S'k1:VGF'
p1235
sS'name'
p1236
g1202
ssbsba(issf_api
Chunk
p1237
(dp1238
g168
g1196
sg171
I3
sg226
S'NP'
p1239
sg158
I6
sg159
(lp1240
I133
aI134
aI135
aI136
aI137
asg229
(issf_api
FeatureSet
p1241
(dp1242
g232
(dp1243
S'drel'
p1244
S'k7:VGF'
p1245
sS'name'
p1246
g1196
ssbsba(issf_api
Chunk
p1247
(dp1248
g168
g1190
sg171
I4
sg226
S'NP'
p1249
sg158
I6
sg159
(lp1250
I138
aI139
aI140
aI141
asg229
(issf_api
FeatureSet
p1251
(dp1252
g232
(dp1253
S'drel'
p1254
S'r6-k2:NP5'
p1255
sS'name'
p1256
g1190
ssbsba(issf_api
Chunk
p1257
(dp1258
g168
g1172
sg171
I5
sg226
S'NP'
p1259
sg158
I6
sg159
(lp1260
I142
asg229
(issf_api
FeatureSet
p1261
(dp1262
g232
(dp1263
S'drel'
p1264
S'pof:VGF'
p1265
sS'name'
p1266
g1172
ssbsba(issf_api
Chunk
p1267
(dp1268
g168
g1162
sg171
I6
sg226
S'VGF'
p1269
sg158
I6
sg159
(lp1270
I143
aI144
aI145
asg229
(issf_api
FeatureSet
p1271
(dp1272
g232
(dp1273
S'voicetype'
p1274
S"active'"
p1275
sS'drel'
p1276
S'ccof:CCP'
p1277
sS'stype'
p1278
S'declarative'
p1279
sS'name'
p1280
g1162
ssbsba(issf_api
Chunk
p1281
(dp1282
g168
g1178
sg171
I7
sg226
S'BLK'
p1283
sg158
I6
sg159
(lp1284
I146
asg229
(issf_api
FeatureSet
p1285
(dp1286
g232
(dp1287
S'drel'
p1288
S'rsym:CCP'
p1289
sS'name'
p1290
g1178
ssbsbasbasS'relationList'
p1291
(lp1292
(iextract_relations
discourseRelation
p1293
(dp1294
S'arg1Trees'
p1295
(lp1296
sS'arg2Sentence'
p1297
(lp1298
sS'arg1Sentence'
p1299
(lp1300
sS'connList'
p1301
(lp1302
I22
aI23
asS'isPaired'
p1303
I00
sS'arg1'
p1304
NsS'arg1Span'
p1305
V138..261
p1306
sS'arg2'
p1307
NsS'arg2Trees'
p1308
(lp1309
sS'fileName'
p1310
S'../data/raw/Section_17/fullnews_id_2615522_date_23_7_2004.utf8'
p1311
sS'connTrees'
p1312
(lp1313
sS'arg2List'
p1314
(lp1315
I24
aI25
aI26
aI27
aI27
aI28
aI29
aI30
aI31
aI32
aI33
aI34
asS'arg2Span'
p1316
V270..324
p1317
sS'sense'
p1318
VContingency.Cause.Result
p1319
sS'relationType'
p1320
VExplicit
p1321
sS'connSpan'
p1322
V262..269
p1323
sS'arg1List'
p1324
(lp1325
I0
aI1
aI2
aI3
aI4
aI5
aI6
aI7
aI8
aI9
aI10
aI11
aI12
aI13
aI14
aI15
aI15
aI16
aI17
aI18
aI19
aI20
aI21
asS'conn'
p1326
V\u0907\u0938\u0915\u0947\u0932\u093f\u090f
p1327
sba(iextract_relations
discourseRelation
p1328
(dp1329
g1295
(lp1330
sg1297
(lp1331
sg1299
(lp1332
sg1301
(lp1333
sg1303
I00
sg1304
Nsg1305
V138..324
p1334
sg1307
Nsg1308
(lp1335
sg1310
g1311
sg1312
(lp1336
sg1314
(lp1337
sg1316
V325..413
p1338
sg1318
S'_Without_sense'
p1339
sg1320
VEntRel
p1340
sg1322
V
sg1324
(lp1341
sg1326
Nsba(iextract_relations
discourseRelation
p1342
(dp1343
g1295
(lp1344
sg1297
(lp1345
sg1299
(lp1346
sg1301
(lp1347
sg1303
I00
sg1304
Nsg1305
V325..414
p1348
sg1307
Nsg1308
(lp1349
sg1310
g1311
sg1312
(lp1350
sg1314
(lp1351
sg1316
V414..588
p1352
sg1318
VExpansion.Restatement.Specification
p1353
sg1320
VImplicit
p1354
sg1322
V
sg1324
(lp1355
sg1326
Vxarasal
p1356
sba(iextract_relations
discourseRelation
p1357
(dp1358
g1295
(lp1359
sg1297
(lp1360
sg1299
(lp1361
sg1301
(lp1362
sg1303
I00
sg1304
Nsg1305
V414..588
p1363
sg1307
Nsg1308
(lp1364
sg1310
g1311
sg1312
(lp1365
sg1314
(lp1366
sg1316
V590..677
p1367
sg1318
VTemporal.Asynchronous.Succession
p1368
sg1320
VImplicit
p1369
sg1322
V
sg1324
(lp1370
sg1326
Vjisake bAxa
p1371
sba(iextract_relations
discourseRelation
p1372
(dp1373
g1295
(lp1374
sg1297
(lp1375
sg1299
(lp1376
sg1301
(lp1377
sg1303
I00
sg1304
Nsg1305
V590..676
p1378
sg1307
Nsg1308
(lp1379
sg1310
g1311
sg1312
(lp1380
sg1314
(lp1381
sg1316
V678..781
p1382
sg1318
VContingency.Cause.Result
p1383
sg1320
VImplicit
p1384
sg1322
V
sg1324
(lp1385
sg1326
Visa liye
p1386
sba(iextract_relations
discourseRelation
p1387
(dp1388
g1295
(lp1389
sg1297
(lp1390
sg1299
(lp1391
sg1301
(lp1392
I123
asg1303
I00
sg1304
Nsg1305
V678..782
p1393
sg1307
Nsg1308
(lp1394
sg1310
g1311
sg1312
(lp1395
sg1314
(lp1396
I125
aI126
aI127
aI128
aI129
aI130
aI131
aI132
aI133
aI134
aI135
aI136
aI137
aI138
aI139
aI140
aI141
aI142
aI143
aI144
aI145
aI146
asg1316
V791..914
p1397
sg1318
VComparison.Pragmatic contrast
p1398
sg1320
VExplicit
p1399
sg1322
V783..790
p1400
sg1324
(lp1401
I104
aI105
aI106
aI107
aI108
aI109
aI110
aI111
aI112
aI113
aI114
aI115
aI116
aI117
aI118
aI119
aI120
aI121
aI122
asg1326
V\u092c\u0939\u0930\u0939\u093e\u0932,
p1402
sbasS'rawData'
p1403
V<DOC>\u000a<DOCNO>fullnews_id_2615522_date_23_7_2004.utf8</DOCNO>\u000a<TEXT>\u000a\u000a\u000a'\u092c\u093f\u091c\u0928\u0947\u0938 \u0938\u094d\u091f\u0948\u0902\u0921\u0930\u094d\u0921' \u092e\u0947\u0902 \u0967\u0969 \u092b\u0940\u0938\u0926\u0940 \u0935\u093f\u0926\u0947\u0936\u0940 \u0928\u093f\u0935\u0947\u0936\u000a\u000a\u000a\u000a\u092a\u094d\u0930\u0947\u000a\u000a\u092e\u0941\u0902\u092c\u0908\u0964  \u000a\u000a\u000a\u000a\u000a\u000a\u092c\u094d\u0930\u093f\u091f\u093f\u0936 \u0905\u0916\u092c\u093e\u0930 '\u092b\u093e\u0907\u0928\u0947\u0902\u0936\u093f\u092f\u0932 \u091f\u093e\u0907\u092e\u094d\u0938' \u0928\u0947 \u0926\u0947\u0936 \u0915\u0947  \u0905\u0917\u094d\u0930\u0923\u0940 \u092c\u093f\u091c\u0928\u0947\u0938 \u0938\u092e\u093e\u091a\u093e\u0930  \u092c\u093f\u091c\u0928\u0947\u0938 \u0938\u094d\u091f\u0948\u0902\u0921\u0930\u094d\u0921 \u092e\u0947\u0902 \u0967\u0969.\u096e\u096b \u092b\u0940\u0938\u0926\u0940 \u0939\u093f\u0938\u094d\u0938\u0947\u0926\u093e\u0930\u0940 \u0939\u093e\u0938\u093f\u0932 \u0915\u0940 \u0939\u0948\u0964 \u0907\u0938\u0915\u0947\u0932\u093f\u090f \u092b\u093e\u0907\u0928\u0947\u0902\u0936\u093f\u092f\u0932 \u091f\u093e\u0907\u092e\u094d\u0938 \u0928\u0947 \u0967\u096a.\u0967 \u0915\u0930\u094b\u095c \u0930\u0941\u092a\u092f\u0947 \u0915\u093e \u0928\u093f\u0935\u0947\u0936 \u0915\u093f\u092f\u093e \u0939\u0948\u0964 \u0926\u0947\u0936 \u0915\u0947 \u0915\u093f\u0938\u0940 \u0938\u092e\u093e\u091a\u093e\u0930  \u092e\u0947\u0902 \u0935\u093f\u0926\u0947\u0936\u0940 \u092e\u0940\u0921\u093f\u092f\u093e \u0915\u0902\u092a\u0928\u0940 \u0926\u094d\u0935\u093e\u0930\u093e \u0915\u093f\u092f\u093e \u0917\u092f\u093e \u0905\u092a\u0928\u0940 \u0924\u0930\u0939 \u0915\u093e \u092f\u0939 \u092a\u0939\u0932\u093e \u0928\u093f\u0935\u0947\u0936 \u0939\u0948\u0964\u092c\u093f\u091c\u0928\u0947\u0938 \u0938\u094d\u091f\u0948\u0902\u0921\u0930\u094d\u0921 \u0915\u0947 \u0938\u0902\u092a\u093e\u0926\u0915 \u090f\u0935\u0902 \u092a\u094d\u0930\u0915\u093e\u0936\u0915 \u091f\u0940.\u090f\u0928. \u0928\u0948\u0928\u0928 \u0928\u0947 \u092e\u0902\u0917\u0932\u0935\u093e\u0930 \u0915\u094b \u0915\u0939\u093e \u0915\u093f \u092b\u093e\u0907\u0928\u0947\u0902\u0936\u093f\u092f\u0932 \u091f\u093e\u0907\u092e\u094d\u0938 \u0928\u0947 \u092c\u093f\u091c\u0928\u0947\u0938 \u0938\u094d\u091f\u0948\u0902\u0921\u0930\u094d\u0921 \u092e\u0947\u0902 \u0939\u093f\u0938\u094d\u0938\u0947\u0926\u093e\u0930\u0940 \u0916\u0930\u0940\u0926\u0928\u0947 \u0915\u0947 \u0932\u093f\u090f \u0938\u093f\u0924\u0902\u092c\u0930, \u0968\u0966\u0966\u0969 \u092e\u0947\u0902 \u0905\u092a\u0928\u0940 \u0907\u091a\u094d\u091b\u093e \u091c\u0924\u093e\u0908 \u0925\u0940\u0964 \u090f\u092b\u0906\u0908\u092a\u0940\u092c\u0940 \u0935 \u0930\u093f\u091c\u0930\u094d\u0935 \u092c\u0948\u0902\u0915 \u0938\u092e\u0947\u0924 \u0938\u092d\u0940 \u0906\u0935\u0936\u092f\u0915 \u0914\u092a\u091a\u093e\u0930\u093f\u0915 \u092e\u0902\u091c\u0942\u0930\u0940 \u0915\u0947 \u092c\u093e\u0926 \u0938\u092e\u091d\u094c\u0924\u0947 \u092a\u0930 \u0939\u0938\u094d\u0924\u093e\u0915\u094d\u0937\u0930 \u0915\u093f\u090f \u0917\u090f\u0964 \u0909\u0928\u094d\u0939\u094b\u0902\u0928\u0947 \u092c\u0924\u093e\u092f\u093e \u0915\u093f \u092c\u093f\u091c\u0928\u0947\u0938 \u0938\u094d\u091f\u0948\u0902\u0921\u0930\u094d\u0921 \u0915\u0947 \u0906\u0920 \u0938\u0926\u0938\u094d\u092f\u0940\u092f \u092c\u094b\u0930\u094d\u0921 \u092e\u0947\u0902 \u0905\u092c \u092b\u093e\u0907\u0928\u0947\u0902\u0936\u093f\u092f\u0932 \u091f\u093e\u0907\u092e\u094d\u0938 \u0915\u093e \u092d\u0940 \u090f\u0915 \u092a\u094d\u0930\u0924\u093f\u0928\u093f\u0927\u093f \u0939\u094b\u0917\u093e\u0964 \u092c\u0939\u0930\u0939\u093e\u0932, \u0935\u0930\u094d\u0924\u092e\u093e\u0928 \u0926\u093f\u0936\u093e \u0928\u093f\u0930\u094d\u0926\u0947\u0936\u094b\u0902 \u0915\u0947 \u092e\u0941\u0924\u093e\u092c\u093f\u0915 \u0935\u093f\u0926\u0947\u0936\u0940 \u092e\u0940\u0921\u093f\u092f\u093e \u0928\u093f\u0935\u0947\u0936\u0915 \u0915\u093f\u0938\u0940 \u092d\u093e\u0930\u0924\u0940\u092f \u092e\u0940\u0921\u093f\u092f\u093e \u0915\u0902\u092a\u0928\u0940 \u092e\u0947\u0902 \u0905\u0927\u093f\u0915\u0924\u092e \u0968\u096c \u092a\u094d\u0930\u0924\u093f\u0936\u0924 \u0915\u093e \u0928\u093f\u0935\u0947\u0936 \u0915\u0930 \u0938\u0915\u0924\u0947 \u0939\u0948\u0902\u0964\u000a\u000a\u000a\u000a\u000a</TEXT>\u000a</DOC>
p1404
sS'rawFileName'
p1405
g1311
sS'rawToAnnMapping'
p1406
(dp1407
I0
(I0
tp1408
sI1
(I1
tp1409
sI2
(I2
tp1410
sI3
(I3
tp1411
sI4
(I4
tp1412
sI5
(I5
tp1413
sI6
(I6
tp1414
sI7
(I7
tp1415
sI8
(I8
tp1416
sI9
(I9
tp1417
sI10
(I10
tp1418
sI11
(I11
tp1419
sI12
(I12
tp1420
sI13
(I13
tp1421
sI14
(I14
tp1422
sI15
(I15
tp1423
sI16
(I15
tp1424
sI17
(I16
tp1425
sI18
(I17
tp1426
sI19
(I18
tp1427
sI20
(I19
tp1428
sI21
(I20
tp1429
sI22
(I21
tp1430
sI23
(I22
I23
tp1431
sI24
(I24
tp1432
sI25
(I25
tp1433
sI26
(I26
tp1434
sI27
(I27
tp1435
sI28
(I27
tp1436
sI29
(I28
tp1437
sI30
(I29
tp1438
sI31
(I30
tp1439
sI32
(I31
tp1440
sI33
(I32
tp1441
sI34
(I33
tp1442
sI35
(I34
tp1443
sI36
(I35
tp1444
sI37
(I36
tp1445
sI38
(I37
tp1446
sI39
(I38
tp1447
sI40
(I39
tp1448
sI41
(I40
tp1449
sI42
(I41
tp1450
sI43
(I42
tp1451
sI44
(I43
tp1452
sI45
(I44
tp1453
sI46
(I45
tp1454
sI47
(I46
tp1455
sI48
(I47
tp1456
sI49
(I48
tp1457
sI50
(I49
tp1458
sI51
(I50
tp1459
sI52
(I51
tp1460
sI53
(I52
tp1461
sI54
(I53
tp1462
sI55
(I54
tp1463
sI56
(I55
tp1464
sI57
(I56
tp1465
sI58
(I57
tp1466
sI59
(I58
tp1467
sI60
(I59
tp1468
sI61
(I60
tp1469
sI62
(I61
tp1470
sI63
(I62
tp1471
sI64
(I63
tp1472
sI65
(I64
tp1473
sI66
(I65
tp1474
sI67
(I66
tp1475
sI68
(I67
tp1476
sI69
(I68
tp1477
sI70
(I69
tp1478
sI71
(I70
tp1479
sI72
(I71
tp1480
sI73
(I72
tp1481
sI74
(I73
tp1482
sI75
(I74
tp1483
sI76
(I75
tp1484
sI77
(I76
tp1485
sI78
(I77
tp1486
sI79
(I78
tp1487
sI80
(I79
tp1488
sI81
(I80
tp1489
sI82
(I81
tp1490
sI83
(I82
tp1491
sI84
(I83
tp1492
sI85
(I84
tp1493
sI86
(I85
tp1494
sI87
(I86
tp1495
sI88
(I87
tp1496
sI89
(I88
tp1497
sI90
(I89
tp1498
sI91
(I90
tp1499
sI92
(I91
tp1500
sI93
(I92
tp1501
sI94
(I93
tp1502
sI95
(I94
tp1503
sI96
(I95
tp1504
sI97
(I96
tp1505
sI98
(I97
tp1506
sI99
(I98
tp1507
sI100
(I99
tp1508
sI101
(I100
tp1509
sI102
(I101
tp1510
sI103
(I102
tp1511
sI104
(I103
tp1512
sI105
(I104
tp1513
sI106
(I105
tp1514
sI107
(I106
tp1515
sI108
(I107
tp1516
sI109
(I108
tp1517
sI110
(I109
tp1518
sI111
(I110
tp1519
sI112
(I111
tp1520
sI113
(I112
tp1521
sI114
(I113
tp1522
sI115
(I114
tp1523
sI116
(I115
tp1524
sI117
(I116
tp1525
sI118
(I117
tp1526
sI119
(I118
tp1527
sI120
(I119
tp1528
sI121
(I120
tp1529
sI122
(I121
tp1530
sI123
(I122
tp1531
sI124
(I123
tp1532
sI125
(I124
tp1533
sI126
(I125
tp1534
sI127
(I126
tp1535
sI128
(I127
tp1536
sI129
(I128
tp1537
sI130
(I129
tp1538
sI131
(I130
tp1539
sI132
(I131
tp1540
sI133
(I132
tp1541
sI134
(I133
tp1542
sI135
(I134
tp1543
sI136
(I135
tp1544
sI137
(I136
tp1545
sI138
(I137
tp1546
sI139
(I138
tp1547
sI140
(I139
tp1548
sI141
(I140
tp1549
sI142
(I141
tp1550
sI143
(I142
tp1551
sI144
(I143
tp1552
sI145
(I144
tp1553
sI146
(I145
tp1554
sI147
(I146
tp1555
ssS'globalWordList'
p1556
(lp1557
(issf_api
Word
p1558
(dp1559
S'splitConn'
p1560
I00
sS'word'
p1561
V\u092c\u094d\u0930\u093f\u091f\u093f\u0936
p1562
sS'extraFeatureSet'
p1563
(issf_api
FeatureSet
p1564
(dp1565
g232
(dp1566
S'posn'
p1567
S'10'
p1568
sS'name'
p1569
S'\xe0\xa4\xac\xe0\xa5\x8d\xe0\xa4\xb0\xe0\xa4\xbf\xe0\xa4\x9f\xe0\xa4\xbf\xe0\xa4\xb6'
p1570
sS'af'
p1571
S'\xe0\xa4\xac\xe0\xa5\x8d\xe0\xa4\xb0\xe0\xa4\xbf\xe0\xa4\x9f\xe0\xa4\xbf\xe0\xa4\xb6,adj,any,any,,o,,'
p1572
sS'drel'
p1573
S'pof__cn:\xe0\xa4\x85\xe0\xa4\x96\xe0\xa4\xac\xe0\xa4\xbe\xe0\xa4\xb0'
p1574
sS'chunktype'
p1575
S'child:NP'
p1576
sS'poslcat'
p1577
S'NM'
p1578
ssbsg1304
I01
sg1307
I00
sg1318
Nsg1305
Nsg171
I0
sg158
I0
sS'relationNum'
p1579
I0
sg1316
NsS'wordTag'
p1580
S'NNC'
p1581
sg229
(issf_api
FeatureSet
p1582
(dp1583
g232
(dp1584
S'posn'
p1585
S'10'
p1586
sS'poslcat'
p1587
S'NM'
p1588
sS'name'
p1589
S'\xe0\xa4\xac\xe0\xa5\x8d\xe0\xa4\xb0\xe0\xa4\xbf\xe0\xa4\x9f\xe0\xa4\xbf\xe0\xa4\xb6'
p1590
sS'af'
p1591
S'\xe0\xa4\xac\xe0\xa5\x8d\xe0\xa4\xb0\xe0\xa4\xbf\xe0\xa4\x9f\xe0\xa4\xbf\xe0\xa4\xb6,adj,any,any,,o,,'
p1592
ssbsg1326
I00
sba(issf_api
Word
p1593
(dp1594
g1560
I00
sg1561
V\u0905\u0916\u092c\u093e\u0930
p1595
sg1563
(issf_api
FeatureSet
p1596
(dp1597
g232
(dp1598
S'posn'
p1599
S'20'
p1600
sS'name'
p1601
S'\xe0\xa4\x85\xe0\xa4\x96\xe0\xa4\xac\xe0\xa4\xbe\xe0\xa4\xb0'
p1602
sS'af'
p1603
S'\xe0\xa4\x85\xe0\xa4\x96\xe0\xa4\xac\xe0\xa4\xbe\xe0\xa4\xb0,n,m,sg,3,o,0,0'
p1604
sS'chunkid'
p1605
S'NP'
p1606
sS'drel'
p1607
S'nmod:\xe0\xa4\x9f\xe0\xa4\xbe\xe0\xa4\x87\xe0\xa4\xae\xe0\xa5\x8d\xe0\xa4\xb8'
p1608
sS'chunktype'
p1609
S'head:NP'
p1610
ssbsg1304
I01
sg1307
I00
sg1318
Nsg1305
Nsg171
I0
sg158
I0
sg1579
I0
sg1316
Nsg1580
S'NN'
p1611
sg229
(issf_api
FeatureSet
p1612
(dp1613
g232
(dp1614
S'posn'
p1615
S'20'
p1616
sS'name'
p1617
S'\xe0\xa4\x85\xe0\xa4\x96\xe0\xa4\xac\xe0\xa4\xbe\xe0\xa4\xb0'
p1618
sS'af'
p1619
S'\xe0\xa4\x85\xe0\xa4\x96\xe0\xa4\xac\xe0\xa4\xbe\xe0\xa4\xb0,n,m,sg,3,o,0,0'
p1620
ssbsg1326
I00
sba(issf_api
Word
p1621
(dp1622
g1560
I00
sg1561
V'
sg1563
(issf_api
FeatureSet
p1623
(dp1624
g232
(dp1625
S'posn'
p1626
S'30'
p1627
sS'name'
p1628
S''
sS"'"
S''
sS'af'
p1629
S'SINGLE_QUOTE,punc,,,,,,'
p1630
sS'drel'
p1631
S'rsym:\xe0\xa4\x9f\xe0\xa4\xbe\xe0\xa4\x87\xe0\xa4\xae\xe0\xa5\x8d\xe0\xa4\xb8'
p1632
sS'chunktype'
p1633
S'child:NP2'
p1634
ssbsg1304
I01
sg1307
I00
sg1318
Nsg1305
Nsg171
I1
sg158
I0
sg1579
I0
sg1316
Nsg1580
S'SYM'
p1635
sg229
(issf_api
FeatureSet
p1636
(dp1637
g232
(dp1638
S'posn'
p1639
S'30'
p1640
sS'name'
p1641
S''
sS"'"
S''
sS'af'
p1642
S'SINGLE_QUOTE,punc,,,,,,'
p1643
ssbsg1326
I00
sba(issf_api
Word
p1644
(dp1645
g1560
I00
sg1561
V\u092b\u093e\u0907\u0928\u0947\u0902\u0936\u093f\u092f\u0932
p1646
sg1563
(issf_api
FeatureSet
p1647
(dp1648
g232
(dp1649
S'posn'
p1650
S'10'
p1651
sS'name'
p1652
S'\xe0\xa4\xab\xe0\xa4\xbe\xe0\xa4\x87\xe0\xa4\xa8\xe0\xa5\x87\xe0\xa4\x82\xe0\xa4\xb6\xe0\xa4\xbf\xe0\xa4\xaf\xe0\xa4\xb2'
p1653
sS'af'
p1654
S'\xe0\xa4\xab\xe0\xa4\xbe\xe0\xa4\x87\xe0\xa4\xa8\xe0\xa5\x87\xe0\xa4\x82\xe0\xa4\xb6\xe0\xa4\xbf\xe0\xa4\xaf\xe0\xa4\xb2,adj,any,any,,o,,'
p1655
sS'drel'
p1656
S'pof__cn:\xe0\xa4\x9f\xe0\xa4\xbe\xe0\xa4\x87\xe0\xa4\xae\xe0\xa5\x8d\xe0\xa4\xb8'
p1657
sS'chunktype'
p1658
S'child:NP2'
p1659
sS'poslcat'
p1660
S'NM'
p1661
ssbsg1304
I01
sg1307
I00
sg1318
Nsg1305
Nsg171
I1
sg158
I0
sg1579
I0
sg1316
Nsg1580
S'NNPC'
p1662
sg229
(issf_api
FeatureSet
p1663
(dp1664
g232
(dp1665
S'posn'
p1666
S'10'
p1667
sS'poslcat'
p1668
S'NM'
p1669
sS'name'
p1670
S'\xe0\xa4\xab\xe0\xa4\xbe\xe0\xa4\x87\xe0\xa4\xa8\xe0\xa5\x87\xe0\xa4\x82\xe0\xa4\xb6\xe0\xa4\xbf\xe0\xa4\xaf\xe0\xa4\xb2'
p1671
sS'af'
p1672
S'\xe0\xa4\xab\xe0\xa4\xbe\xe0\xa4\x87\xe0\xa4\xa8\xe0\xa5\x87\xe0\xa4\x82\xe0\xa4\xb6\xe0\xa4\xbf\xe0\xa4\xaf\xe0\xa4\xb2,adj,any,any,,o,,'
p1673
ssbsg1326
I00
sba(issf_api
Word
p1674
(dp1675
g1560
I00
sg1561
V\u091f\u093e\u0907\u092e\u094d\u0938
p1676
sg1563
(issf_api
FeatureSet
p1677
(dp1678
g232
(dp1679
S'posn'
p1680
S'50'
p1681
sS'name'
p1682
S'\xe0\xa4\x9f\xe0\xa4\xbe\xe0\xa4\x87\xe0\xa4\xae\xe0\xa5\x8d\xe0\xa4\xb8'
p1683
sS'af'
p1684
S'\xe0\xa4\x9f\xe0\xa4\xbe\xe0\xa4\x87\xe0\xa4\xae,n,m,pl,3,o,0_\xe0\xa4\xa8\xe0\xa5\x87,0'
p1685
sS'chunkid'
p1686
S'NP2'
p1687
sS'drel'
p1688
S'k1:\xe0\xa4\x95\xe0\xa5\x80'
p1689
sS'vpos'
p1690
S'vib_5'
p1691
sS'chunktype'
p1692
S'head:NP2'
p1693
ssbsg1304
I01
sg1307
I00
sg1318
Nsg1305
Nsg171
I1
sg158
I0
sg1579
I0
sg1316
Nsg1580
S'NNP'
p1694
sg229
(issf_api
FeatureSet
p1695
(dp1696
g232
(dp1697
S'posn'
p1698
S'50'
p1699
sS'name'
p1700
S'\xe0\xa4\x9f\xe0\xa4\xbe\xe0\xa4\x87\xe0\xa4\xae\xe0\xa5\x8d\xe0\xa4\xb8'
p1701
sS'af'
p1702
S'\xe0\xa4\x9f\xe0\xa4\xbe\xe0\xa4\x87\xe0\xa4\xae,n,m,pl,3,o,0,0'
p1703
ssbsg1326
I00
sba(issf_api
Word
p1704
(dp1705
g1560
I00
sg1561
V'
sg1563
(issf_api
FeatureSet
p1706
(dp1707
g232
(dp1708
S'posn'
p1709
S'60'
p1710
sS'name'
p1711
S''
sS'af'
p1712
S'SINGLE_QUOTE,punc,,,,,,'
p1713
sS"2'"
p1714
S''
sS'drel'
p1715
S'rsym:\xe0\xa4\x9f\xe0\xa4\xbe\xe0\xa4\x87\xe0\xa4\xae\xe0\xa5\x8d\xe0\xa4\xb8'
p1716
sS'chunktype'
p1717
S'child:NP2'
p1718
ssbsg1304
I01
sg1307
I00
sg1318
Nsg1305
Nsg171
I1
sg158
I0
sg1579
I0
sg1316
Nsg1580
S'SYM'
p1719
sg229
(issf_api
FeatureSet
p1720
(dp1721
g232
(dp1722
S'posn'
p1723
S'60'
p1724
sS"2'"
p1725
S''
sS'name'
p1726
S''
sS'af'
p1727
S'SINGLE_QUOTE,punc,,,,,,'
p1728
ssbsg1326
I00
sba(issf_api
Word
p1729
(dp1730
g1560
I00
sg1561
V\u0928\u0947
p1731
sg1563
(issf_api
FeatureSet
p1732
(dp1733
g232
(dp1734
S'posn'
p1735
S'70'
p1736
sS'name'
p1737
S'\xe0\xa4\xa8\xe0\xa5\x87'
p1738
sS'drel'
p1739
S'lwg__psp:\xe0\xa4\x9f\xe0\xa4\xbe\xe0\xa4\x87\xe0\xa4\xae\xe0\xa5\x8d\xe0\xa4\xb8'
p1740
sS'chunktype'
p1741
S'child:NP2'
p1742
sS'af'
p1743
S'\xe0\xa4\xa8\xe0\xa5\x87,psp,,,,,,'
p1744
ssbsg1304
I01
sg1307
I00
sg1318
Nsg1305
Nsg171
I1
sg158
I0
sg1579
I0
sg1316
Nsg1580
S'PSP'
p1745
sg229
(issf_api
FeatureSet
p1746
(dp1747
g232
(dp1748
S'posn'
p1749
S'70'
p1750
sS'name'
p1751
S'\xe0\xa4\xa8\xe0\xa5\x87'
p1752
sS'af'
p1753
S'\xe0\xa4\xa8\xe0\xa5\x87,psp,,,,,,'
p1754
ssbsg1326
I00
sba(issf_api
Word
p1755
(dp1756
g1560
I00
sg1561
V\u0926\u0947\u0936
p1757
sg1563
(issf_api
FeatureSet
p1758
(dp1759
g232
(dp1760
S'posn'
p1761
S'80'
p1762
sS'name'
p1763
S'\xe0\xa4\xa6\xe0\xa5\x87\xe0\xa4\xb6'
p1764
sS'af'
p1765
S'\xe0\xa4\xa6\xe0\xa5\x87\xe0\xa4\xb6,n,m,sg,3,o,0_\xe0\xa4\x95\xe0\xa4\xbe,0'
p1766
sS'chunkid'
p1767
S'NP3'
p1768
sS'drel'
p1769
S'r6:\xe0\xa4\xb8\xe0\xa4\xae\xe0\xa4\xbe\xe0\xa4\x9a\xe0\xa4\xbe\xe0\xa4\xb0'
p1770
sS'vpos'
p1771
S'vib_2'
p1772
sS'chunktype'
p1773
S'head:NP3'
p1774
ssbsg1304
I01
sg1307
I00
sg1318
Nsg1305
Nsg171
I2
sg158
I0
sg1579
I0
sg1316
Nsg1580
S'NN'
p1775
sg229
(issf_api
FeatureSet
p1776
(dp1777
g232
(dp1778
S'posn'
p1779
S'80'
p1780
sS'name'
p1781
S'\xe0\xa4\xa6\xe0\xa5\x87\xe0\xa4\xb6'
p1782
sS'af'
p1783
S'\xe0\xa4\xa6\xe0\xa5\x87\xe0\xa4\xb6,n,m,sg,3,o,0,0'
p1784
ssbsg1326
I00
sba(issf_api
Word
p1785
(dp1786
g1560
I00
sg1561
V\u0915\u0947
p1787
sg1563
(issf_api
FeatureSet
p1788
(dp1789
g232
(dp1790
S'posn'
p1791
S'90'
p1792
sS'name'
p1793
S'\xe0\xa4\x95\xe0\xa5\x87'
p1794
sS'drel'
p1795
S'lwg__psp:\xe0\xa4\xa6\xe0\xa5\x87\xe0\xa4\xb6'
p1796
sS'chunktype'
p1797
S'child:NP3'
p1798
sS'af'
p1799
S'\xe0\xa4\x95\xe0\xa4\xbe,psp,m,sg,,o,,'
p1800
ssbsg1304
I01
sg1307
I00
sg1318
Nsg1305
Nsg171
I2
sg158
I0
sg1579
I0
sg1316
Nsg1580
S'PSP'
p1801
sg229
(issf_api
FeatureSet
p1802
(dp1803
g232
(dp1804
S'posn'
p1805
S'90'
p1806
sS'name'
p1807
S'\xe0\xa4\x95\xe0\xa5\x87'
p1808
sS'af'
p1809
S'\xe0\xa4\x95\xe0\xa4\xbe,psp,m,sg,,o,,'
p1810
ssbsg1326
I00
sba(issf_api
Word
p1811
(dp1812
g1560
I00
sg1561
V\u0905\u0917\u094d\u0930\u0923\u0940
p1813
sg1563
(issf_api
FeatureSet
p1814
(dp1815
g232
(dp1816
S'posn'
p1817
S'100'
p1818
sS'name'
p1819
S'\xe0\xa4\x85\xe0\xa4\x97\xe0\xa5\x8d\xe0\xa4\xb0\xe0\xa4\xa3\xe0\xa5\x80'
p1820
sS'drel'
p1821
S'nmod__adj:\xe0\xa4\xb8\xe0\xa4\xae\xe0\xa4\xbe\xe0\xa4\x9a\xe0\xa4\xbe\xe0\xa4\xb0'
p1822
sS'chunktype'
p1823
S'child:NP4'
p1824
sS'af'
p1825
S'\xe0\xa4\x85\xe0\xa4\x97\xe0\xa5\x8d\xe0\xa4\xb0\xe0\xa4\xa3\xe0\xa5\x80,adj,any,any,,o,,'
p1826
ssbsg1304
I01
sg1307
I00
sg1318
Nsg1305
Nsg171
I3
sg158
I0
sg1579
I0
sg1316
Nsg1580
S'JJ'
p1827
sg229
(issf_api
FeatureSet
p1828
(dp1829
g232
(dp1830
S'posn'
p1831
S'100'
p1832
sS'name'
p1833
S'\xe0\xa4\x85\xe0\xa4\x97\xe0\xa5\x8d\xe0\xa4\xb0\xe0\xa4\xa3\xe0\xa5\x80'
p1834
sS'af'
p1835
S'\xe0\xa4\x85\xe0\xa4\x97\xe0\xa5\x8d\xe0\xa4\xb0\xe0\xa4\xa3\xe0\xa5\x80,adj,any,any,,o,,'
p1836
ssbsg1326
I00
sba(issf_api
Word
p1837
(dp1838
g1560
I00
sg1561
V\u092c\u093f\u091c\u0928\u0947\u0938
p1839
sg1563
(issf_api
FeatureSet
p1840
(dp1841
g232
(dp1842
S'posn'
p1843
S'110'
p1844
sS'name'
p1845
S'\xe0\xa4\xac\xe0\xa4\xbf\xe0\xa4\x9c\xe0\xa4\xa8\xe0\xa5\x87\xe0\xa4\xb8'
p1846
sS'drel'
p1847
S'pof__cn:\xe0\xa4\xb8\xe0\xa4\xae\xe0\xa4\xbe\xe0\xa4\x9a\xe0\xa4\xbe\xe0\xa4\xb0'
p1848
sS'chunktype'
p1849
S'child:NP4'
p1850
sS'af'
p1851
S'\xe0\xa4\xac\xe0\xa4\xbf\xe0\xa4\x9c\xe0\xa4\xa8\xe0\xa5\x87\xe0\xa4\xb8,n,m,sg,3,d,0,0'
p1852
ssbsg1304
I01
sg1307
I00
sg1318
Nsg1305
Nsg171
I3
sg158
I0
sg1579
I0
sg1316
Nsg1580
S'NNC'
p1853
sg229
(issf_api
FeatureSet
p1854
(dp1855
g232
(dp1856
S'posn'
p1857
S'110'
p1858
sS'name'
p1859
S'\xe0\xa4\xac\xe0\xa4\xbf\xe0\xa4\x9c\xe0\xa4\xa8\xe0\xa5\x87\xe0\xa4\xb8'
p1860
sS'af'
p1861
S'\xe0\xa4\xac\xe0\xa4\xbf\xe0\xa4\x9c\xe0\xa4\xa8\xe0\xa5\x87\xe0\xa4\xb8,n,m,sg,3,d,0,0'
p1862
ssbsg1326
I00
sba(issf_api
Word
p1863
(dp1864
g1560
I00
sg1561
V\u0938\u092e\u093e\u091a\u093e\u0930
p1865
sg1563
(issf_api
FeatureSet
p1866
(dp1867
g232
(dp1868
S'posn'
p1869
S'120'
p1870
sS'name'
p1871
S'\xe0\xa4\xb8\xe0\xa4\xae\xe0\xa4\xbe\xe0\xa4\x9a\xe0\xa4\xbe\xe0\xa4\xb0'
p1872
sS'af'
p1873
S'\xe0\xa4\xb8\xe0\xa4\xae\xe0\xa4\xbe\xe0\xa4\x9a\xe0\xa4\xbe\xe0\xa4\xb0,n,m,sg,3,o,0,0'
p1874
sS'chunkid'
p1875
S'NP4'
p1876
sS'drel'
p1877
S'nmod:\xe0\xa4\xb8\xe0\xa5\x8d\xe0\xa4\x9f\xe0\xa5\x88\xe0\xa4\x82\xe0\xa4\xa1\xe0\xa4\xb0\xe0\xa5\x8d\xe0\xa4\xa1'
p1878
sS'chunktype'
p1879
S'head:NP4'
p1880
ssbsg1304
I01
sg1307
I00
sg1318
Nsg1305
Nsg171
I3
sg158
I0
sg1579
I0
sg1316
Nsg1580
S'NN'
p1881
sg229
(issf_api
FeatureSet
p1882
(dp1883
g232
(dp1884
S'posn'
p1885
S'120'
p1886
sS'name'
p1887
S'\xe0\xa4\xb8\xe0\xa4\xae\xe0\xa4\xbe\xe0\xa4\x9a\xe0\xa4\xbe\xe0\xa4\xb0'
p1888
sS'af'
p1889
S'\xe0\xa4\xb8\xe0\xa4\xae\xe0\xa4\xbe\xe0\xa4\x9a\xe0\xa4\xbe\xe0\xa4\xb0,n,m,sg,3,o,0,0'
p1890
ssbsg1326
I00
sba(issf_api
Word
p1891
(dp1892
g1560
I00
sg1561
V\u092c\u093f\u091c\u0928\u0947\u0938
p1893
sg1563
(issf_api
FeatureSet
p1894
(dp1895
g232
(dp1896
S'posn'
p1897
S'130'
p1898
sS'name'
p1899
S'\xe0\xa4\xac\xe0\xa4\xbf\xe0\xa4\x9c\xe0\xa4\xa8\xe0\xa5\x87\xe0\xa4\xb82'
p1900
sS'drel'
p1901
S'pof__cn:\xe0\xa4\xb8\xe0\xa5\x8d\xe0\xa4\x9f\xe0\xa5\x88\xe0\xa4\x82\xe0\xa4\xa1\xe0\xa4\xb0\xe0\xa5\x8d\xe0\xa4\xa1'
p1902
sS'chunktype'
p1903
S'child:NP5'
p1904
sS'af'
p1905
S'\xe0\xa4\xac\xe0\xa4\xbf\xe0\xa4\x9c\xe0\xa4\xa8\xe0\xa5\x87\xe0\xa4\xb8,n,m,sg,3,d,0,0'
p1906
ssbsg1304
I01
sg1307
I00
sg1318
Nsg1305
Nsg171
I4
sg158
I0
sg1579
I0
sg1316
Nsg1580
S'NNPC'
p1907
sg229
(issf_api
FeatureSet
p1908
(dp1909
g232
(dp1910
S'posn'
p1911
S'130'
p1912
sS'name'
p1913
S'\xe0\xa4\xac\xe0\xa4\xbf\xe0\xa4\x9c\xe0\xa4\xa8\xe0\xa5\x87\xe0\xa4\xb82'
p1914
sS'af'
p1915
S'\xe0\xa4\xac\xe0\xa4\xbf\xe0\xa4\x9c\xe0\xa4\xa8\xe0\xa5\x87\xe0\xa4\xb8,n,m,sg,3,d,0,0'
p1916
ssbsg1326
I00
sba(issf_api
Word
p1917
(dp1918
g1560
I00
sg1561
V\u0938\u094d\u091f\u0948\u0902\u0921\u0930\u094d\u0921
p1919
sg1563
(issf_api
FeatureSet
p1920
(dp1921
g232
(dp1922
S'posn'
p1923
S'140'
p1924
sS'name'
p1925
S'\xe0\xa4\xb8\xe0\xa5\x8d\xe0\xa4\x9f\xe0\xa5\x88\xe0\xa4\x82\xe0\xa4\xa1\xe0\xa4\xb0\xe0\xa5\x8d\xe0\xa4\xa1'
p1926
sS'af'
p1927
S'\xe0\xa4\xb8\xe0\xa5\x8d\xe0\xa4\x9f\xe0\xa5\x88\xe0\xa4\x82\xe0\xa4\xa1\xe0\xa4\xb0\xe0\xa5\x8d\xe0\xa4\xa1,n,m,sg,3,o,0_\xe0\xa4\xae\xe0\xa5\x87\xe0\xa4\x82,0'
p1928
sS'chunkid'
p1929
S'NP5'
p1930
sS'drel'
p1931
S'k7:\xe0\xa4\x95\xe0\xa5\x80'
p1932
sS'vpos'
p1933
S'vib_3'
p1934
sS'chunktype'
p1935
S'head:NP5'
p1936
ssbsg1304
I01
sg1307
I00
sg1318
Nsg1305
Nsg171
I4
sg158
I0
sg1579
I0
sg1316
Nsg1580
S'NNP'
p1937
sg229
(issf_api
FeatureSet
p1938
(dp1939
g232
(dp1940
S'posn'
p1941
S'140'
p1942
sS'name'
p1943
S'\xe0\xa4\xb8\xe0\xa5\x8d\xe0\xa4\x9f\xe0\xa5\x88\xe0\xa4\x82\xe0\xa4\xa1\xe0\xa4\xb0\xe0\xa5\x8d\xe0\xa4\xa1'
p1944
sS'af'
p1945
S'\xe0\xa4\xb8\xe0\xa5\x8d\xe0\xa4\x9f\xe0\xa5\x88\xe0\xa4\x82\xe0\xa4\xa1\xe0\xa4\xb0\xe0\xa5\x8d\xe0\xa4\xa1,n,m,sg,3,o,0,0'
p1946
ssbsg1326
I00
sba(issf_api
Word
p1947
(dp1948
g1560
I00
sg1561
V\u092e\u0947\u0902
p1949
sg1563
(issf_api
FeatureSet
p1950
(dp1951
g232
(dp1952
S'posn'
p1953
S'150'
p1954
sS'name'
p1955
S'\xe0\xa4\xae\xe0\xa5\x87\xe0\xa4\x82'
p1956
sS'drel'
p1957
S'lwg__psp:\xe0\xa4\xb8\xe0\xa5\x8d\xe0\xa4\x9f\xe0\xa5\x88\xe0\xa4\x82\xe0\xa4\xa1\xe0\xa4\xb0\xe0\xa5\x8d\xe0\xa4\xa1'
p1958
sS'chunktype'
p1959
S'child:NP5'
p1960
sS'af'
p1961
S'\xe0\xa4\xae\xe0\xa5\x87\xe0\xa4\x82,psp,,,,,,'
p1962
ssbsg1304
I01
sg1307
I00
sg1318
Nsg1305
Nsg171
I4
sg158
I0
sg1579
I0
sg1316
Nsg1580
S'PSP'
p1963
sg229
(issf_api
FeatureSet
p1964
(dp1965
g232
(dp1966
S'posn'
p1967
S'150'
p1968
sS'name'
p1969
S'\xe0\xa4\xae\xe0\xa5\x87\xe0\xa4\x82'
p1970
sS'af'
p1971
S'\xe0\xa4\xae\xe0\xa5\x87\xe0\xa4\x82,psp,,,,,,'
p1972
ssbsg1326
I00
sba(issf_api
Word
p1973
(dp1974
g1560
I00
sg1561
V\u0967\u0969.\u096e\u096b
p1975
sg1563
(issf_api
FeatureSet
p1976
(dp1977
g232
(dp1978
S'posn'
p1979
S'160'
p1980
sS'name'
p1981
S'\xe0\xa5\xa7\xe0\xa5\xa9.\xe0\xa5\xae\xe0\xa5\xab'
p1982
sS'drel'
p1983
S'nmod__adj:\xe0\xa4\xb9\xe0\xa4\xbf\xe0\xa4\xb8\xe0\xa5\x8d\xe0\xa4\xb8\xe0\xa5\x87\xe0\xa4\xa6\xe0\xa4\xbe\xe0\xa4\xb0\xe0\xa5\x80'
p1984
sS'chunktype'
p1985
S'child:NP6'
p1986
sS'af'
p1987
S'\xe0\xa5\xa7\xe0\xa5\xa9.\xe0\xa5\xae\xe0\xa5\xab,num,any,any,,any,,'
p1988
ssbsg1304
I01
sg1307
I00
sg1318
Nsg1305
Nsg171
I5
sg158
I0
sg1579
I0
sg1316
Nsg1580
S'QC'
p1989
sg229
(issf_api
FeatureSet
p1990
(dp1991
g232
(dp1992
S'posn'
p1993
S'160'
p1994
sS'name'
p1995
S'\xe0\xa5\xa7\xe0\xa5\xa9.\xe0\xa5\xae\xe0\xa5\xab'
p1996
sS'af'
p1997
S'\xe0\xa5\xa7\xe0\xa5\xa9.\xe0\xa5\xae\xe0\xa5\xab,num,any,any,,any,,'
p1998
ssbsg1326
I00
sba(issf_api
Word
p1999
(dp2000
g1560
I00
sg1561
V\u092b\u0940\u0938\u0926\u0940
p2001
sg1563
(issf_api
FeatureSet
p2002
(dp2003
g232
(dp2004
S'posn'
p2005
S'170'
p2006
sS'name'
p2007
S'\xe0\xa4\xab\xe0\xa5\x80\xe0\xa4\xb8\xe0\xa4\xa6\xe0\xa5\x80'
p2008
sS'drel'
p2009
S'nmod:\xe0\xa4\xb9\xe0\xa4\xbf\xe0\xa4\xb8\xe0\xa5\x8d\xe0\xa4\xb8\xe0\xa5\x87\xe0\xa4\xa6\xe0\xa4\xbe\xe0\xa4\xb0\xe0\xa5\x80'
p2010
sS'chunktype'
p2011
S'child:NP6'
p2012
sS'af'
p2013
S'\xe0\xa4\xab\xe0\xa5\x80\xe0\xa4\xb8\xe0\xa4\xa6\xe0\xa5\x80,n,f,sg,3,d,0,0'
p2014
ssbsg1304
I01
sg1307
I00
sg1318
Nsg1305
Nsg171
I5
sg158
I0
sg1579
I0
sg1316
Nsg1580
S'NN'
p2015
sg229
(issf_api
FeatureSet
p2016
(dp2017
g232
(dp2018
S'posn'
p2019
S'170'
p2020
sS'name'
p2021
S'\xe0\xa4\xab\xe0\xa5\x80\xe0\xa4\xb8\xe0\xa4\xa6\xe0\xa5\x80'
p2022
sS'af'
p2023
S'\xe0\xa4\xab\xe0\xa5\x80\xe0\xa4\xb8\xe0\xa4\xa6\xe0\xa5\x80,n,f,sg,3,d,0,0'
p2024
ssbsg1326
I00
sba(issf_api
Word
p2025
(dp2026
g1560
I00
sg1561
V\u0939\u093f\u0938\u094d\u0938\u0947\u0926\u093e\u0930\u0940
p2027
sg1563
(issf_api
FeatureSet
p2028
(dp2029
g232
(dp2030
S'posn'
p2031
S'180'
p2032
sS'name'
p2033
S'\xe0\xa4\xb9\xe0\xa4\xbf\xe0\xa4\xb8\xe0\xa5\x8d\xe0\xa4\xb8\xe0\xa5\x87\xe0\xa4\xa6\xe0\xa4\xbe\xe0\xa4\xb0\xe0\xa5\x80'
p2034
sS'af'
p2035
S'\xe0\xa4\xb9\xe0\xa4\xbf\xe0\xa4\xb8\xe0\xa5\x8d\xe0\xa4\xb8\xe0\xa5\x87\xe0\xa4\xa6\xe0\xa4\xbe\xe0\xa4\xb0\xe0\xa5\x80,n,f,sg,3,d,0,0'
p2036
sS'chunkid'
p2037
S'NP6'
p2038
sS'drel'
p2039
S'k2:\xe0\xa4\x95\xe0\xa5\x80'
p2040
sS'chunktype'
p2041
S'head:NP6'
p2042
ssbsg1304
I01
sg1307
I00
sg1318
Nsg1305
Nsg171
I5
sg158
I0
sg1579
I0
sg1316
Nsg1580
S'NN'
p2043
sg229
(issf_api
FeatureSet
p2044
(dp2045
g232
(dp2046
S'posn'
p2047
S'180'
p2048
sS'name'
p2049
S'\xe0\xa4\xb9\xe0\xa4\xbf\xe0\xa4\xb8\xe0\xa5\x8d\xe0\xa4\xb8\xe0\xa5\x87\xe0\xa4\xa6\xe0\xa4\xbe\xe0\xa4\xb0\xe0\xa5\x80'
p2050
sS'af'
p2051
S'\xe0\xa4\xb9\xe0\xa4\xbf\xe0\xa4\xb8\xe0\xa5\x8d\xe0\xa4\xb8\xe0\xa5\x87\xe0\xa4\xa6\xe0\xa4\xbe\xe0\xa4\xb0\xe0\xa5\x80,n,f,sg,3,d,0,0'
p2052
ssbsg1326
I00
sba(issf_api
Word
p2053
(dp2054
g1560
I00
sg1561
V\u0939\u093e\u0938\u093f\u0932
p2055
sg1563
(issf_api
FeatureSet
p2056
(dp2057
g232
(dp2058
S'posn'
p2059
S'190'
p2060
sS'name'
p2061
S'\xe0\xa4\xb9\xe0\xa4\xbe\xe0\xa4\xb8\xe0\xa4\xbf\xe0\xa4\xb2'
p2062
sS'af'
p2063
S'\xe0\xa4\xb9\xe0\xa4\xbe\xe0\xa4\xb8\xe0\xa4\xbf\xe0\xa4\xb2,adj,any,any,,,,'
p2064
sS'chunkid'
p2065
S'JJP'
p2066
sS'drel'
p2067
S'pof:\xe0\xa4\x95\xe0\xa5\x80'
p2068
sS'chunktype'
p2069
S'head:JJP'
p2070
ssbsg1304
I01
sg1307
I00
sg1318
Nsg1305
Nsg171
I6
sg158
I0
sg1579
I0
sg1316
Nsg1580
S'JJ'
p2071
sg229
(issf_api
FeatureSet
p2072
(dp2073
g232
(dp2074
S'posn'
p2075
S'190'
p2076
sS'name'
p2077
S'\xe0\xa4\xb9\xe0\xa4\xbe\xe0\xa4\xb8\xe0\xa4\xbf\xe0\xa4\xb2'
p2078
sS'af'
p2079
S'\xe0\xa4\xb9\xe0\xa4\xbe\xe0\xa4\xb8\xe0\xa4\xbf\xe0\xa4\xb2,adj,any,any,,,,'
p2080
ssbsg1326
I00
sba(issf_api
Word
p2081
(dp2082
g1560
I00
sg1561
V\u0915\u0940
p2083
sg1563
(issf_api
FeatureSet
p2084
(dp2085
g232
(dp2086
S'posn'
p2087
S'200'
p2088
sS'name'
p2089
S'\xe0\xa4\x95\xe0\xa5\x80'
p2090
sS'af'
p2091
S'\xe0\xa4\x95\xe0\xa4\xb0,v,f,sg,3,,\xe0\xa4\xaf\xe0\xa4\xbe_\xe0\xa4\xb9\xe0\xa5\x88,yA'
p2092
sS'chunkid'
p2093
S'VGF'
p2094
sS'chunktype'
p2095
S'head:VGF'
p2096
sS'voicetype'
p2097
S'active'
p2098
sS'vpos'
p2099
S'tam_2'
p2100
sS'stype'
p2101
S'declarative'
p2102
ssbsg1304
I01
sg1307
I00
sg1318
Nsg1305
Nsg171
I7
sg158
I0
sg1579
I0
sg1316
Nsg1580
S'VM'
p2103
sg229
(issf_api
FeatureSet
p2104
(dp2105
g232
(dp2106
S'posn'
p2107
S'200'
p2108
sS'name'
p2109
S'\xe0\xa4\x95\xe0\xa5\x80'
p2110
sS'af'
p2111
S'\xe0\xa4\x95\xe0\xa4\xb0,v,f,sg,any,,\xe0\xa4\xaf\xe0\xa4\xbe,yA'
p2112
ssbsg1326
I00
sba(issf_api
Word
p2113
(dp2114
g1560
I00
sg1561
V\u0939\u0948
p2115
sg1563
(issf_api
FeatureSet
p2116
(dp2117
g232
(dp2118
S'posn'
p2119
S'210'
p2120
sS'name'
p2121
S'\xe0\xa4\xb9\xe0\xa5\x88'
p2122
sS'drel'
p2123
S'lwg__vaux:\xe0\xa4\x95\xe0\xa5\x80'
p2124
sS'chunktype'
p2125
S'child:VGF'
p2126
sS'af'
p2127
S'\xe0\xa4\xb9\xe0\xa5\x88,v,any,sg,3,,\xe0\xa4\xb9\xe0\xa5\x88,hE'
p2128
ssbsg1304
I01
sg1307
I00
sg1318
Nsg1305
Nsg171
I7
sg158
I0
sg1579
I0
sg1316
Nsg1580
S'VAUX'
p2129
sg229
(issf_api
FeatureSet
p2130
(dp2131
g232
(dp2132
S'posn'
p2133
S'210'
p2134
sS'name'
p2135
S'\xe0\xa4\xb9\xe0\xa5\x88'
p2136
sS'af'
p2137
S'\xe0\xa4\xb9\xe0\xa5\x88,v,any,sg,3,,\xe0\xa4\xb9\xe0\xa5\x88,hE'
p2138
ssbsg1326
I00
sba(issf_api
Word
p2139
(dp2140
g1560
I00
sg1561
V\u0964
sg1563
(issf_api
FeatureSet
p2141
(dp2142
g232
(dp2143
S'posn'
p2144
S'220'
p2145
sS'name'
p2146
S'\xe0\xa5\xa4'
p2147
sS'af'
p2148
S'\xe0\xa5\xa4,punc,,,,,,'
p2149
sS'chunkid'
p2150
S'BLK'
p2151
sS'drel'
p2152
S'rsym:\xe0\xa4\x95\xe0\xa5\x80'
p2153
sS'chunktype'
p2154
S'head:BLK'
p2155
ssbsg1304
I01
sg1307
I00
sg1318
Nsg1305
Nsg171
I8
sg158
I0
sg1579
I0
sg1316
Nsg1580
S'SYM'
p2156
sg229
(issf_api
FeatureSet
p2157
(dp2158
g232
(dp2159
S'posn'
p2160
S'220'
p2161
sS'name'
p2162
S'\xe0\xa5\xa4'
p2163
sS'af'
p2164
S'\xe0\xa5\xa4,punc,,,,,,'
p2165
ssbsg1326
I00
sba(issf_api
Word
p2166
(dp2167
g1560
I00
sg1561
V\u0907\u0938\u0915\u0947
p2168
sg1563
(issf_api
FeatureSet
p2169
(dp2170
g232
(dp2171
S'posn'
p2172
S'10'
p2173
sS'name'
p2174
S'\xe0\xa4\x87\xe0\xa4\xb8\xe0\xa4\x95\xe0\xa5\x87'
p2175
sS'af'
p2176
S'\xe0\xa4\xaf\xe0\xa4\xb9,pn,any,sg,3,o,0_\xe0\xa4\xb2\xe0\xa4\xbf\xe0\xa4\x8f,ke'
p2177
sS'chunkid'
p2178
S'NP'
p2179
sS'drel'
p2180
S'rt:\xe0\xa4\x95\xe0\xa4\xbf\xe0\xa4\xaf\xe0\xa4\xbe'
p2181
sS'vpos'
p2182
S'vib_2'
p2183
sS'chunktype'
p2184
S'head:NP'
p2185
ssbsg1304
I00
sg1307
I00
sg1318
g1319
sg1305
(lp2186
I0
aI1
aI2
aI3
aI4
aI5
aI6
aI7
aI8
aI9
aI10
aI11
aI12
aI13
aI14
aI15
aI15
aI16
aI17
aI18
aI19
aI20
aI21
asg171
I0
sg158
I1
sg1579
I0
sg1316
(lp2187
I24
aI25
aI26
aI27
aI27
aI28
aI29
aI30
aI31
aI32
aI33
aI34
asg1580
S'PRP'
p2188
sg229
(issf_api
FeatureSet
p2189
(dp2190
g232
(dp2191
S'posn'
p2192
S'10'
p2193
sS'name'
p2194
S'\xe0\xa4\x87\xe0\xa4\xb8\xe0\xa4\x95\xe0\xa5\x87'
p2195
sS'af'
p2196
S'\xe0\xa4\xaf\xe0\xa4\xb9,pn,any,sg,3,o,\xe0\xa4\x95\xe0\xa5\x87,ke'
p2197
ssbsg1326
I01
sba(issf_api
Word
p2198
(dp2199
g1560
I00
sg1561
V\u0932\u093f\u090f
p2200
sg1563
(issf_api
FeatureSet
p2201
(dp2202
g232
(dp2203
S'posn'
p2204
S'20'
p2205
sS'name'
p2206
S'\xe0\xa4\xb2\xe0\xa4\xbf\xe0\xa4\x8f'
p2207
sS'drel'
p2208
S'lwg__psp:\xe0\xa4\x87\xe0\xa4\xb8\xe0\xa4\x95\xe0\xa5\x87'
p2209
sS'chunktype'
p2210
S'child:NP'
p2211
sS'af'
p2212
S'\xe0\xa4\xb2\xe0\xa4\xbf\xe0\xa4\x8f,psp,,,,,,'
p2213
ssbsg1304
I00
sg1307
I00
sg1318
g1319
sg1305
g2186
sg171
I0
sg158
I1
sg1579
I0
sg1316
g2187
sg1580
S'PSP'
p2214
sg229
(issf_api
FeatureSet
p2215
(dp2216
g232
(dp2217
S'posn'
p2218
S'20'
p2219
sS'name'
p2220
S'\xe0\xa4\xb2\xe0\xa4\xbf\xe0\xa4\x8f'
p2221
sS'af'
p2222
S'\xe0\xa4\xb2\xe0\xa4\xbf\xe0\xa4\x8f,psp,,,,,,'
p2223
ssbsg1326
I01
sba(issf_api
Word
p2224
(dp2225
g1560
I00
sg1561
V\u092b\u093e\u0907\u0928\u0947\u0902\u0936\u093f\u092f\u0932
p2226
sg1563
(issf_api
FeatureSet
p2227
(dp2228
g232
(dp2229
S'posn'
p2230
S'10'
p2231
sS'name'
p2232
S'\xe0\xa4\xab\xe0\xa4\xbe\xe0\xa4\x87\xe0\xa4\xa8\xe0\xa5\x87\xe0\xa4\x82\xe0\xa4\xb6\xe0\xa4\xbf\xe0\xa4\xaf\xe0\xa4\xb2'
p2233
sS'af'
p2234
S'\xe0\xa4\xab\xe0\xa4\xbe\xe0\xa4\x87\xe0\xa4\xa8\xe0\xa5\x87\xe0\xa4\x82\xe0\xa4\xb6\xe0\xa4\xbf\xe0\xa4\xaf\xe0\xa4\xb2,adj,any,any,,o,,'
p2235
sS'drel'
p2236
S'pof__cn:\xe0\xa4\x9f\xe0\xa4\xbe\xe0\xa4\x87\xe0\xa4\xae\xe0\xa5\x8d\xe0\xa4\xb8'
p2237
sS'chunktype'
p2238
S'child:NP2'
p2239
sS'poslcat'
p2240
S'NM'
p2241
ssbsg1304
I00
sg1307
I01
sg1318
Nsg1305
Nsg171
I1
sg158
I1
sg1579
I0
sg1316
Nsg1580
S'NNPC'
p2242
sg229
(issf_api
FeatureSet
p2243
(dp2244
g232
(dp2245
S'posn'
p2246
S'10'
p2247
sS'poslcat'
p2248
S'NM'
p2249
sS'name'
p2250
S'\xe0\xa4\xab\xe0\xa4\xbe\xe0\xa4\x87\xe0\xa4\xa8\xe0\xa5\x87\xe0\xa4\x82\xe0\xa4\xb6\xe0\xa4\xbf\xe0\xa4\xaf\xe0\xa4\xb2'
p2251
sS'af'
p2252
S'\xe0\xa4\xab\xe0\xa4\xbe\xe0\xa4\x87\xe0\xa4\xa8\xe0\xa5\x87\xe0\xa4\x82\xe0\xa4\xb6\xe0\xa4\xbf\xe0\xa4\xaf\xe0\xa4\xb2,adj,any,any,,o,,'
p2253
ssbsg1326
I00
sba(issf_api
Word
p2254
(dp2255
g1560
I00
sg1561
V\u091f\u093e\u0907\u092e\u094d\u0938
p2256
sg1563
(issf_api
FeatureSet
p2257
(dp2258
g232
(dp2259
S'posn'
p2260
S'40'
p2261
sS'name'
p2262
S'\xe0\xa4\x9f\xe0\xa4\xbe\xe0\xa4\x87\xe0\xa4\xae\xe0\xa5\x8d\xe0\xa4\xb8'
p2263
sS'af'
p2264
S'\xe0\xa4\x9f\xe0\xa4\xbe\xe0\xa4\x87\xe0\xa4\xae\xe0\xa5\x8d\xe0\xa4\xb8,n,m,sg,3,o,0_\xe0\xa4\xa8\xe0\xa5\x87,0'
p2265
sS'chunkid'
p2266
S'NP2'
p2267
sS'drel'
p2268
S'k1:\xe0\xa4\x95\xe0\xa4\xbf\xe0\xa4\xaf\xe0\xa4\xbe'
p2269
sS'vpos'
p2270
S'vib_3'
p2271
sS'chunktype'
p2272
S'head:NP2'
p2273
ssbsg1304
I00
sg1307
I01
sg1318
Nsg1305
Nsg171
I1
sg158
I1
sg1579
I0
sg1316
Nsg1580
S'NNP'
p2274
sg229
(issf_api
FeatureSet
p2275
(dp2276
g232
(dp2277
S'posn'
p2278
S'40'
p2279
sS'name'
p2280
S'\xe0\xa4\x9f\xe0\xa4\xbe\xe0\xa4\x87\xe0\xa4\xae\xe0\xa5\x8d\xe0\xa4\xb8'
p2281
sS'af'
p2282
S'\xe0\xa4\x9f\xe0\xa4\xbe\xe0\xa4\x87\xe0\xa4\xae\xe0\xa5\x8d\xe0\xa4\xb8,n,m,sg,3,o,0,0'
p2283
ssbsg1326
I00
sba(issf_api
Word
p2284
(dp2285
g1560
I00
sg1561
V\u0928\u0947
p2286
sg1563
(issf_api
FeatureSet
p2287
(dp2288
g232
(dp2289
S'posn'
p2290
S'50'
p2291
sS'name'
p2292
S'\xe0\xa4\xa8\xe0\xa5\x87'
p2293
sS'drel'
p2294
S'lwg__psp:\xe0\xa4\x9f\xe0\xa4\xbe\xe0\xa4\x87\xe0\xa4\xae\xe0\xa5\x8d\xe0\xa4\xb8'
p2295
sS'chunktype'
p2296
S'child:NP2'
p2297
sS'af'
p2298
S'\xe0\xa4\xa8\xe0\xa5\x87,psp,,,,,,'
p2299
ssbsg1304
I00
sg1307
I01
sg1318
Nsg1305
Nsg171
I1
sg158
I1
sg1579
I0
sg1316
Nsg1580
S'PSP'
p2300
sg229
(issf_api
FeatureSet
p2301
(dp2302
g232
(dp2303
S'posn'
p2304
S'50'
p2305
sS'name'
p2306
S'\xe0\xa4\xa8\xe0\xa5\x87'
p2307
sS'af'
p2308
S'\xe0\xa4\xa8\xe0\xa5\x87,psp,,,,,,'
p2309
ssbsg1326
I00
sba(issf_api
Word
p2310
(dp2311
g1560
I00
sg1561
V\u0967\u096a.\u0967
p2312
sg1563
(issf_api
FeatureSet
p2313
(dp2314
g232
(dp2315
S'posn'
p2316
S'60'
p2317
sS'name'
p2318
S'\xe0\xa5\xa7\xe0\xa5\xaa.\xe0\xa5\xa7'
p2319
sS'drel'
p2320
S'mod:\xe0\xa4\xb0\xe0\xa5\x81\xe0\xa4\xaa\xe0\xa4\xaf\xe0\xa5\x87'
p2321
sS'chunktype'
p2322
S'child:NP3'
p2323
sS'af'
p2324
S'\xe0\xa5\xa7\xe0\xa5\xaa.\xe0\xa5\xa7,num,any,any,,any,,'
p2325
ssbsg1304
I00
sg1307
I01
sg1318
Nsg1305
Nsg171
I2
sg158
I1
sg1579
I0
sg1316
Nsg1580
S'QCC'
p2326
sg229
(issf_api
FeatureSet
p2327
(dp2328
g232
(dp2329
S'posn'
p2330
S'60'
p2331
sS'name'
p2332
S'\xe0\xa5\xa7\xe0\xa5\xaa.\xe0\xa5\xa7'
p2333
sS'af'
p2334
S'\xe0\xa5\xa7\xe0\xa5\xaa.\xe0\xa5\xa7,num,any,any,,any,,'
p2335
ssbsg1326
I00
sba(issf_api
Word
p2336
(dp2337
g1560
I00
sg1561
V\u0915\u0930\u094b\u095c
p2338
sg1563
(issf_api
FeatureSet
p2339
(dp2340
g232
(dp2341
S'posn'
p2342
S'70'
p2343
sS'name'
p2344
S'\xe0\xa4\x95\xe0\xa4\xb0\xe0\xa5\x8b\xe0\xa5\x9c'
p2345
sS'drel'
p2346
S'nmod__adj:\xe0\xa4\xb0\xe0\xa5\x81\xe0\xa4\xaa\xe0\xa4\xaf\xe0\xa5\x87'
p2347
sS'chunktype'
p2348
S'child:NP3'
p2349
sS'af'
p2350
S'\xe0\xa4\x95\xe0\xa4\xb0\xe0\xa5\x8b\xe0\xa4\xa1,num,any,any,,any,,'
p2351
ssbsg1304
I00
sg1307
I01
sg1318
Nsg1305
Nsg171
I2
sg158
I1
sg1579
I0
sg1316
Nsg1580
S'QC'
p2352
sg229
(issf_api
FeatureSet
p2353
(dp2354
g232
(dp2355
S'posn'
p2356
S'70'
p2357
sS'name'
p2358
S'\xe0\xa4\x95\xe0\xa4\xb0\xe0\xa5\x8b\xe0\xa5\x9c'
p2359
sS'af'
p2360
S'\xe0\xa4\x95\xe0\xa4\xb0\xe0\xa5\x8b\xe0\xa4\xa1,num,any,any,,any,,'
p2361
ssbsg1326
I00
sba(issf_api
Word
p2362
(dp2363
g1560
I00
sg1561
V\u0930\u0941\u092a\u092f\u0947
p2364
sg1563
(issf_api
FeatureSet
p2365
(dp2366
g232
(dp2367
S'posn'
p2368
S'80'
p2369
sS'name'
p2370
S'\xe0\xa4\xb0\xe0\xa5\x81\xe0\xa4\xaa\xe0\xa4\xaf\xe0\xa5\x87'
p2371
sS'af'
p2372
S'\xe0\xa4\xb0\xe0\xa5\x81\xe0\xa4\xaa\xe0\xa4\xaf\xe0\xa4\xbe,n,m,sg,3,o,0_\xe0\xa4\x95\xe0\xa4\xbe,0'
p2373
sS'chunkid'
p2374
S'NP3'
p2375
sS'drel'
p2376
S'r6-k2:\xe0\xa4\xa8\xe0\xa4\xbf\xe0\xa4\xb5\xe0\xa5\x87\xe0\xa4\xb6'
p2377
sS'vpos'
p2378
S'vib_4'
p2379
sS'chunktype'
p2380
S'head:NP3'
p2381
ssbsg1304
I00
sg1307
I01
sg1318
Nsg1305
Nsg171
I2
sg158
I1
sg1579
I0
sg1316
Nsg1580
S'NN'
p2382
sg229
(issf_api
FeatureSet
p2383
(dp2384
g232
(dp2385
S'posn'
p2386
S'80'
p2387
sS'name'
p2388
S'\xe0\xa4\xb0\xe0\xa5\x81\xe0\xa4\xaa\xe0\xa4\xaf\xe0\xa5\x87'
p2389
sS'af'
p2390
S'\xe0\xa4\xb0\xe0\xa5\x81\xe0\xa4\xaa\xe0\xa4\xaf\xe0\xa4\xbe,n,m,sg,3,o,0,0'
p2391
ssbsg1326
I00
sba(issf_api
Word
p2392
(dp2393
g1560
I00
sg1561
V\u0915\u093e
p2394
sg1563
(issf_api
FeatureSet
p2395
(dp2396
g232
(dp2397
S'posn'
p2398
S'90'
p2399
sS'name'
p2400
S'\xe0\xa4\x95\xe0\xa4\xbe'
p2401
sS'drel'
p2402
S'lwg__psp:\xe0\xa4\xb0\xe0\xa5\x81\xe0\xa4\xaa\xe0\xa4\xaf\xe0\xa5\x87'
p2403
sS'chunktype'
p2404
S'child:NP3'
p2405
sS'af'
p2406
S'\xe0\xa4\x95\xe0\xa4\xbe,psp,m,sg,,d,,'
p2407
ssbsg1304
I00
sg1307
I01
sg1318
Nsg1305
Nsg171
I2
sg158
I1
sg1579
I0
sg1316
Nsg1580
S'PSP'
p2408
sg229
(issf_api
FeatureSet
p2409
(dp2410
g232
(dp2411
S'posn'
p2412
S'90'
p2413
sS'name'
p2414
S'\xe0\xa4\x95\xe0\xa4\xbe'
p2415
sS'af'
p2416
S'\xe0\xa4\x95\xe0\xa4\xbe,psp,m,sg,,d,,'
p2417
ssbsg1326
I00
sba(issf_api
Word
p2418
(dp2419
g1560
I00
sg1561
V\u0928\u093f\u0935\u0947\u0936
p2420
sg1563
(issf_api
FeatureSet
p2421
(dp2422
g232
(dp2423
S'posn'
p2424
S'100'
p2425
sS'name'
p2426
S'\xe0\xa4\xa8\xe0\xa4\xbf\xe0\xa4\xb5\xe0\xa5\x87\xe0\xa4\xb6'
p2427
sS'af'
p2428
S'\xe0\xa4\xa8\xe0\xa4\xbf\xe0\xa4\xb5\xe0\xa5\x87\xe0\xa4\xb6,n,m,sg,3,d,0,0'
p2429
sS'chunkid'
p2430
S'NP4'
p2431
sS'drel'
p2432
S'pof:\xe0\xa4\x95\xe0\xa4\xbf\xe0\xa4\xaf\xe0\xa4\xbe'
p2433
sS'chunktype'
p2434
S'head:NP4'
p2435
ssbsg1304
I00
sg1307
I01
sg1318
Nsg1305
Nsg171
I3
sg158
I1
sg1579
I0
sg1316
Nsg1580
S'NN'
p2436
sg229
(issf_api
FeatureSet
p2437
(dp2438
g232
(dp2439
S'posn'
p2440
S'100'
p2441
sS'name'
p2442
S'\xe0\xa4\xa8\xe0\xa4\xbf\xe0\xa4\xb5\xe0\xa5\x87\xe0\xa4\xb6'
p2443
sS'af'
p2444
S'\xe0\xa4\xa8\xe0\xa4\xbf\xe0\xa4\xb5\xe0\xa5\x87\xe0\xa4\xb6,n,m,sg,3,d,0,0'
p2445
ssbsg1326
I00
sba(issf_api
Word
p2446
(dp2447
g1560
I00
sg1561
V\u0915\u093f\u092f\u093e
p2448
sg1563
(issf_api
FeatureSet
p2449
(dp2450
g232
(dp2451
S'posn'
p2452
S'110'
p2453
sS'name'
p2454
S'\xe0\xa4\x95\xe0\xa4\xbf\xe0\xa4\xaf\xe0\xa4\xbe'
p2455
sS'af'
p2456
S'\xe0\xa4\x95\xe0\xa4\xb0,v,m,sg,3,,\xe0\xa4\xaf\xe0\xa4\xbe_\xe0\xa4\xb9\xe0\xa5\x88,yA'
p2457
sS'chunkid'
p2458
S'VGF'
p2459
sS'chunktype'
p2460
S'head:VGF'
p2461
sS'voicetype'
p2462
S'active'
p2463
sS'vpos'
p2464
S'tam_2'
p2465
sS'stype'
p2466
S'declarative'
p2467
ssbsg1304
I00
sg1307
I01
sg1318
Nsg1305
Nsg171
I4
sg158
I1
sg1579
I0
sg1316
Nsg1580
S'VM'
p2468
sg229
(issf_api
FeatureSet
p2469
(dp2470
g232
(dp2471
S'posn'
p2472
S'110'
p2473
sS'name'
p2474
S'\xe0\xa4\x95\xe0\xa4\xbf\xe0\xa4\xaf\xe0\xa4\xbe'
p2475
sS'af'
p2476
S'\xe0\xa4\x95\xe0\xa4\xb0,v,m,sg,any,,\xe0\xa4\xaf\xe0\xa4\xbe,yA'
p2477
ssbsg1326
I00
sba(issf_api
Word
p2478
(dp2479
g1560
I00
sg1561
V\u0939\u0948
p2480
sg1563
(issf_api
FeatureSet
p2481
(dp2482
g232
(dp2483
S'posn'
p2484
S'120'
p2485
sS'name'
p2486
S'\xe0\xa4\xb9\xe0\xa5\x88'
p2487
sS'drel'
p2488
S'lwg__vaux:\xe0\xa4\x95\xe0\xa4\xbf\xe0\xa4\xaf\xe0\xa4\xbe'
p2489
sS'chunktype'
p2490
S'child:VGF'
p2491
sS'af'
p2492
S'\xe0\xa4\xb9\xe0\xa5\x88,v,any,sg,3,,\xe0\xa4\xb9\xe0\xa5\x88,hE'
p2493
ssbsg1304
I00
sg1307
I01
sg1318
Nsg1305
Nsg171
I4
sg158
I1
sg1579
I0
sg1316
Nsg1580
S'VAUX'
p2494
sg229
(issf_api
FeatureSet
p2495
(dp2496
g232
(dp2497
S'posn'
p2498
S'120'
p2499
sS'name'
p2500
S'\xe0\xa4\xb9\xe0\xa5\x88'
p2501
sS'af'
p2502
S'\xe0\xa4\xb9\xe0\xa5\x88,v,any,sg,3,,\xe0\xa4\xb9\xe0\xa5\x88,hE'
p2503
ssbsg1326
I00
sba(issf_api
Word
p2504
(dp2505
g1560
I00
sg1561
V\u0964
sg1563
(issf_api
FeatureSet
p2506
(dp2507
g232
(dp2508
S'posn'
p2509
S'130'
p2510
sS'name'
p2511
S'\xe0\xa5\xa4'
p2512
sS'af'
p2513
S'\xe0\xa5\xa4,punc,,,,,,'
p2514
sS'chunkid'
p2515
S'BLK'
p2516
sS'drel'
p2517
S'rsym:\xe0\xa4\x95\xe0\xa4\xbf\xe0\xa4\xaf\xe0\xa4\xbe'
p2518
sS'chunktype'
p2519
S'head:BLK'
p2520
ssbsg1304
I00
sg1307
I01
sg1318
Nsg1305
Nsg171
I5
sg158
I1
sg1579
I0
sg1316
Nsg1580
S'SYM'
p2521
sg229
(issf_api
FeatureSet
p2522
(dp2523
g232
(dp2524
S'posn'
p2525
S'130'
p2526
sS'name'
p2527
S'\xe0\xa5\xa4'
p2528
sS'af'
p2529
S'\xe0\xa5\xa4,punc,,,,,,'
p2530
ssbsg1326
I00
sba(issf_api
Word
p2531
(dp2532
g1560
I00
sg1561
V\u0926\u0947\u0936
p2533
sg1563
(issf_api
FeatureSet
p2534
(dp2535
g232
(dp2536
S'posn'
p2537
S'10'
p2538
sS'name'
p2539
S'\xe0\xa4\xa6\xe0\xa5\x87\xe0\xa4\xb6'
p2540
sS'af'
p2541
S'\xe0\xa4\xa6\xe0\xa5\x87\xe0\xa4\xb6,n,m,sg,3,o,0_\xe0\xa4\x95\xe0\xa4\xbe,0'
p2542
sS'chunkid'
p2543
S'NP'
p2544
sS'drel'
p2545
S'r6:\xe0\xa4\xb8\xe0\xa4\xae\xe0\xa4\xbe\xe0\xa4\x9a\xe0\xa4\xbe\xe0\xa4\xb0'
p2546
sS'vpos'
p2547
S'vib_2'
p2548
sS'chunktype'
p2549
S'head:NP'
p2550
ssbsg1304
I00
sg1307
I00
sg1318
Nsg1305
Nsg171
I0
sg158
I2
sg1579
Nsg1316
Nsg1580
S'NN'
p2551
sg229
(issf_api
FeatureSet
p2552
(dp2553
g232
(dp2554
S'posn'
p2555
S'10'
p2556
sS'name'
p2557
S'\xe0\xa4\xa6\xe0\xa5\x87\xe0\xa4\xb6'
p2558
sS'af'
p2559
S'\xe0\xa4\xa6\xe0\xa5\x87\xe0\xa4\xb6,n,m,sg,3,o,0,0'
p2560
ssbsg1326
I00
sba(issf_api
Word
p2561
(dp2562
g1560
I00
sg1561
V\u0915\u0947
p2563
sg1563
(issf_api
FeatureSet
p2564
(dp2565
g232
(dp2566
S'posn'
p2567
S'20'
p2568
sS'name'
p2569
S'\xe0\xa4\x95\xe0\xa5\x87'
p2570
sS'drel'
p2571
S'lwg__psp:\xe0\xa4\xa6\xe0\xa5\x87\xe0\xa4\xb6'
p2572
sS'chunktype'
p2573
S'child:NP'
p2574
sS'af'
p2575
S'\xe0\xa4\x95\xe0\xa4\xbe,psp,m,sg,,o,,'
p2576
ssbsg1304
I00
sg1307
I00
sg1318
Nsg1305
Nsg171
I0
sg158
I2
sg1579
Nsg1316
Nsg1580
S'PSP'
p2577
sg229
(issf_api
FeatureSet
p2578
(dp2579
g232
(dp2580
S'posn'
p2581
S'20'
p2582
sS'name'
p2583
S'\xe0\xa4\x95\xe0\xa5\x87'
p2584
sS'af'
p2585
S'\xe0\xa4\x95\xe0\xa4\xbe,psp,m,sg,,o,,'
p2586
ssbsg1326
I00
sba(issf_api
Word
p2587
(dp2588
g1560
I00
sg1561
V\u0915\u093f\u0938\u0940
p2589
sg1563
(issf_api
FeatureSet
p2590
(dp2591
g232
(dp2592
S'posn'
p2593
S'30'
p2594
sS'name'
p2595
S'\xe0\xa4\x95\xe0\xa4\xbf\xe0\xa4\xb8\xe0\xa5\x80'
p2596
sS'drel'
p2597
S'nmod__adj:\xe0\xa4\xb8\xe0\xa4\xae\xe0\xa4\xbe\xe0\xa4\x9a\xe0\xa4\xbe\xe0\xa4\xb0'
p2598
sS'chunktype'
p2599
S'child:NP2'
p2600
sS'af'
p2601
S'\xe0\xa4\x95\xe0\xa5\x8b\xe0\xa4\x88,pn,any,sg,3,d,0,0'
p2602
ssbsg1304
I00
sg1307
I00
sg1318
Nsg1305
Nsg171
I1
sg158
I2
sg1579
Nsg1316
Nsg1580
S'PRP'
p2603
sg229
(issf_api
FeatureSet
p2604
(dp2605
g232
(dp2606
S'posn'
p2607
S'30'
p2608
sS'name'
p2609
S'\xe0\xa4\x95\xe0\xa4\xbf\xe0\xa4\xb8\xe0\xa5\x80'
p2610
sS'af'
p2611
S'\xe0\xa4\x95\xe0\xa5\x8b\xe0\xa4\x88,pn,any,sg,3,d,0,0'
p2612
ssbsg1326
I00
sba(issf_api
Word
p2613
(dp2614
g1560
I00
sg1561
V\u0938\u092e\u093e\u091a\u093e\u0930
p2615
sg1563
(issf_api
FeatureSet
p2616
(dp2617
g232
(dp2618
S'posn'
p2619
S'40'
p2620
sS'name'
p2621
S'\xe0\xa4\xb8\xe0\xa4\xae\xe0\xa4\xbe\xe0\xa4\x9a\xe0\xa4\xbe\xe0\xa4\xb0'
p2622
sS'af'
p2623
S'\xe0\xa4\xb8\xe0\xa4\xae\xe0\xa4\xbe\xe0\xa4\x9a\xe0\xa4\xbe\xe0\xa4\xb0,n,m,sg,3,o,0_\xe0\xa4\xae\xe0\xa5\x87\xe0\xa4\x82,0'
p2624
sS'chunkid'
p2625
S'NP2'
p2626
sS'drel'
p2627
S'k7:\xe0\xa4\x95\xe0\xa4\xbf\xe0\xa4\xaf\xe0\xa4\xbe'
p2628
sS'vpos'
p2629
S'vib_vib_3'
p2630
sS'chunktype'
p2631
S'head:NP2'
p2632
ssbsg1304
I00
sg1307
I00
sg1318
Nsg1305
Nsg171
I1
sg158
I2
sg1579
Nsg1316
Nsg1580
S'NN'
p2633
sg229
(issf_api
FeatureSet
p2634
(dp2635
g232
(dp2636
S'posn'
p2637
S'40'
p2638
sS'name'
p2639
S'\xe0\xa4\xb8\xe0\xa4\xae\xe0\xa4\xbe\xe0\xa4\x9a\xe0\xa4\xbe\xe0\xa4\xb0'
p2640
sS'af'
p2641
S'\xe0\xa4\xb8\xe0\xa4\xae\xe0\xa4\xbe\xe0\xa4\x9a\xe0\xa4\xbe\xe0\xa4\xb0,n,m,sg,3,o,0,0'
p2642
ssbsg1326
I00
sba(issf_api
Word
p2643
(dp2644
g1560
I00
sg1561
V\u092e\u0947\u0902
p2645
sg1563
(issf_api
FeatureSet
p2646
(dp2647
g232
(dp2648
S'posn'
p2649
S'50'
p2650
sS'name'
p2651
S'\xe0\xa4\xae\xe0\xa5\x87\xe0\xa4\x82'
p2652
sS'drel'
p2653
S'lwg__psp:\xe0\xa4\xb8\xe0\xa4\xae\xe0\xa4\xbe\xe0\xa4\x9a\xe0\xa4\xbe\xe0\xa4\xb0'
p2654
sS'chunktype'
p2655
S'child:NP2'
p2656
sS'af'
p2657
S'\xe0\xa4\xae\xe0\xa5\x87\xe0\xa4\x82,psp,,,,,,'
p2658
ssbsg1304
I00
sg1307
I00
sg1318
Nsg1305
Nsg171
I1
sg158
I2
sg1579
Nsg1316
Nsg1580
S'PSP'
p2659
sg229
(issf_api
FeatureSet
p2660
(dp2661
g232
(dp2662
S'posn'
p2663
S'50'
p2664
sS'name'
p2665
S'\xe0\xa4\xae\xe0\xa5\x87\xe0\xa4\x82'
p2666
sS'af'
p2667
S'\xe0\xa4\xae\xe0\xa5\x87\xe0\xa4\x82,psp,,,,,,'
p2668
ssbsg1326
I00
sba(issf_api
Word
p2669
(dp2670
g1560
I00
sg1561
V\u0935\u093f\u0926\u0947\u0936\u0940
p2671
sg1563
(issf_api
FeatureSet
p2672
(dp2673
g232
(dp2674
S'posn'
p2675
S'60'
p2676
sS'name'
p2677
S'\xe0\xa4\xb5\xe0\xa4\xbf\xe0\xa4\xa6\xe0\xa5\x87\xe0\xa4\xb6\xe0\xa5\x80'
p2678
sS'drel'
p2679
S'nmod__adj:\xe0\xa4\x95\xe0\xa4\x82\xe0\xa4\xaa\xe0\xa4\xa8\xe0\xa5\x80'
p2680
sS'chunktype'
p2681
S'child:NP3'
p2682
sS'af'
p2683
S'\xe0\xa4\xb5\xe0\xa4\xbf\xe0\xa4\xa6\xe0\xa5\x87\xe0\xa4\xb6\xe0\xa5\x80,adj,any,any,,o,,'
p2684
ssbsg1304
I00
sg1307
I00
sg1318
Nsg1305
Nsg171
I2
sg158
I2
sg1579
Nsg1316
Nsg1580
S'JJ'
p2685
sg229
(issf_api
FeatureSet
p2686
(dp2687
g232
(dp2688
S'posn'
p2689
S'60'
p2690
sS'name'
p2691
S'\xe0\xa4\xb5\xe0\xa4\xbf\xe0\xa4\xa6\xe0\xa5\x87\xe0\xa4\xb6\xe0\xa5\x80'
p2692
sS'af'
p2693
S'\xe0\xa4\xb5\xe0\xa4\xbf\xe0\xa4\xa6\xe0\xa5\x87\xe0\xa4\xb6\xe0\xa5\x80,adj,any,any,,o,,'
p2694
ssbsg1326
I00
sba(issf_api
Word
p2695
(dp2696
g1560
I00
sg1561
V\u092e\u0940\u0921\u093f\u092f\u093e
p2697
sg1563
(issf_api
FeatureSet
p2698
(dp2699
g232
(dp2700
S'posn'
p2701
S'70'
p2702
sS'name'
p2703
S'\xe0\xa4\xae\xe0\xa5\x80\xe0\xa4\xa1\xe0\xa4\xbf\xe0\xa4\xaf\xe0\xa4\xbe'
p2704
sS'drel'
p2705
S'pof__cn:\xe0\xa4\x95\xe0\xa4\x82\xe0\xa4\xaa\xe0\xa4\xa8\xe0\xa5\x80'
p2706
sS'chunktype'
p2707
S'child:NP3'
p2708
sS'af'
p2709
S'\xe0\xa4\xae\xe0\xa5\x80\xe0\xa4\xa1\xe0\xa4\xbf\xe0\xa4\xaf\xe0\xa4\xbe,n,m,sg,3,d,0,0'
p2710
ssbsg1304
I00
sg1307
I00
sg1318
Nsg1305
Nsg171
I2
sg158
I2
sg1579
Nsg1316
Nsg1580
S'NNC'
p2711
sg229
(issf_api
FeatureSet
p2712
(dp2713
g232
(dp2714
S'posn'
p2715
S'70'
p2716
sS'name'
p2717
S'\xe0\xa4\xae\xe0\xa5\x80\xe0\xa4\xa1\xe0\xa4\xbf\xe0\xa4\xaf\xe0\xa4\xbe'
p2718
sS'af'
p2719
S'\xe0\xa4\xae\xe0\xa5\x80\xe0\xa4\xa1\xe0\xa4\xbf\xe0\xa4\xaf\xe0\xa4\xbe,n,m,sg,3,d,0,0'
p2720
ssbsg1326
I00
sba(issf_api
Word
p2721
(dp2722
g1560
I00
sg1561
V\u0915\u0902\u092a\u0928\u0940
p2723
sg1563
(issf_api
FeatureSet
p2724
(dp2725
g232
(dp2726
S'posn'
p2727
S'80'
p2728
sS'name'
p2729
S'\xe0\xa4\x95\xe0\xa4\x82\xe0\xa4\xaa\xe0\xa4\xa8\xe0\xa5\x80'
p2730
sS'af'
p2731
S'\xe0\xa4\x95\xe0\xa4\x82\xe0\xa4\xaa\xe0\xa4\xa8\xe0\xa5\x80,n,f,sg,3,o,0_\xe0\xa4\xa6\xe0\xa5\x8d\xe0\xa4\xb5\xe0\xa4\xbe\xe0\xa4\xb0\xe0\xa4\xbe,0'
p2732
sS'chunkid'
p2733
S'NP3'
p2734
sS'drel'
p2735
S'k1:\xe0\xa4\x95\xe0\xa4\xbf\xe0\xa4\xaf\xe0\xa4\xbe'
p2736
sS'vpos'
p2737
S'vib_4'
p2738
sS'chunktype'
p2739
S'head:NP3'
p2740
ssbsg1304
I00
sg1307
I00
sg1318
Nsg1305
Nsg171
I2
sg158
I2
sg1579
Nsg1316
Nsg1580
S'NN'
p2741
sg229
(issf_api
FeatureSet
p2742
(dp2743
g232
(dp2744
S'posn'
p2745
S'80'
p2746
sS'name'
p2747
S'\xe0\xa4\x95\xe0\xa4\x82\xe0\xa4\xaa\xe0\xa4\xa8\xe0\xa5\x80'
p2748
sS'af'
p2749
S'\xe0\xa4\x95\xe0\xa4\x82\xe0\xa4\xaa\xe0\xa4\xa8\xe0\xa5\x80,n,f,sg,3,o,0,0'
p2750
ssbsg1326
I00
sba(issf_api
Word
p2751
(dp2752
g1560
I00
sg1561
V\u0926\u094d\u0935\u093e\u0930\u093e
p2753
sg1563
(issf_api
FeatureSet
p2754
(dp2755
g232
(dp2756
S'posn'
p2757
S'90'
p2758
sS'name'
p2759
S'\xe0\xa4\xa6\xe0\xa5\x8d\xe0\xa4\xb5\xe0\xa4\xbe\xe0\xa4\xb0\xe0\xa4\xbe'
p2760
sS'drel'
p2761
S'lwg__psp:\xe0\xa4\x95\xe0\xa4\x82\xe0\xa4\xaa\xe0\xa4\xa8\xe0\xa5\x80'
p2762
sS'chunktype'
p2763
S'child:NP3'
p2764
sS'af'
p2765
S'\xe0\xa4\xa6\xe0\xa5\x8d\xe0\xa4\xb5\xe0\xa4\xbe\xe0\xa4\xb0\xe0\xa4\xbe,psp,,,,,,'
p2766
ssbsg1304
I00
sg1307
I00
sg1318
Nsg1305
Nsg171
I2
sg158
I2
sg1579
Nsg1316
Nsg1580
S'PSP'
p2767
sg229
(issf_api
FeatureSet
p2768
(dp2769
g232
(dp2770
S'posn'
p2771
S'90'
p2772
sS'name'
p2773
S'\xe0\xa4\xa6\xe0\xa5\x8d\xe0\xa4\xb5\xe0\xa4\xbe\xe0\xa4\xb0\xe0\xa4\xbe'
p2774
sS'af'
p2775
S'\xe0\xa4\xa6\xe0\xa5\x8d\xe0\xa4\xb5\xe0\xa4\xbe\xe0\xa4\xb0\xe0\xa4\xbe,psp,,,,,,'
p2776
ssbsg1326
I00
sba(issf_api
Word
p2777
(dp2778
g1560
I00
sg1561
V\u0915\u093f\u092f\u093e
p2779
sg1563
(issf_api
FeatureSet
p2780
(dp2781
g232
(dp2782
S'posn'
p2783
S'100'
p2784
sS'name'
p2785
S'\xe0\xa4\x95\xe0\xa4\xbf\xe0\xa4\xaf\xe0\xa4\xbe'
p2786
sS'af'
p2787
S'\xe0\xa4\x95\xe0\xa4\xb0,v,m,sg,any,,\xe0\xa4\xaf\xe0\xa4\xbe_\xe0\xa4\x9c\xe0\xa4\xbe+\xe0\xa4\xaf\xe0\xa4\xbe\xe0\xa5\xa7,yA'
p2788
sS'chunkid'
p2789
S'VGNF'
p2790
sS'drel'
p2791
S'nmod__pofinv:\xe0\xa4\xa4\xe0\xa4\xb0\xe0\xa4\xb9'
p2792
sS'vpos'
p2793
S'tam_2'
p2794
sS'chunktype'
p2795
S'head:VGNF'
p2796
ssbsg1304
I00
sg1307
I00
sg1318
Nsg1305
Nsg171
I3
sg158
I2
sg1579
Nsg1316
Nsg1580
S'VM'
p2797
sg229
(issf_api
FeatureSet
p2798
(dp2799
g232
(dp2800
S'posn'
p2801
S'100'
p2802
sS'name'
p2803
S'\xe0\xa4\x95\xe0\xa4\xbf\xe0\xa4\xaf\xe0\xa4\xbe'
p2804
sS'af'
p2805
S'\xe0\xa4\x95\xe0\xa4\xb0,v,m,sg,any,,\xe0\xa4\xaf\xe0\xa4\xbe,yA'
p2806
ssbsg1326
I00
sba(issf_api
Word
p2807
(dp2808
g1560
I00
sg1561
V\u0917\u092f\u093e
p2809
sg1563
(issf_api
FeatureSet
p2810
(dp2811
g232
(dp2812
S'posn'
p2813
S'110'
p2814
sS'name'
p2815
S'\xe0\xa4\x97\xe0\xa4\xaf\xe0\xa4\xbe'
p2816
sS'drel'
p2817
S'lwg__vaux:\xe0\xa4\x95\xe0\xa4\xbf\xe0\xa4\xaf\xe0\xa4\xbe'
p2818
sS'chunktype'
p2819
S'child:VGNF'
p2820
sS'af'
p2821
S'\xe0\xa4\x9c\xe0\xa4\xbe,v,m,sg,any,,\xe0\xa4\xaf\xe0\xa4\xbe\xe0\xa5\xa7,yA1'
p2822
ssbsg1304
I00
sg1307
I00
sg1318
Nsg1305
Nsg171
I3
sg158
I2
sg1579
Nsg1316
Nsg1580
S'VAUX'
p2823
sg229
(issf_api
FeatureSet
p2824
(dp2825
g232
(dp2826
S'posn'
p2827
S'110'
p2828
sS'name'
p2829
S'\xe0\xa4\x97\xe0\xa4\xaf\xe0\xa4\xbe'
p2830
sS'af'
p2831
S'\xe0\xa4\x9c\xe0\xa4\xbe,v,m,sg,any,,\xe0\xa4\xaf\xe0\xa4\xbe\xe0\xa5\xa7,yA1'
p2832
ssbsg1326
I00
sba(issf_api
Word
p2833
(dp2834
g1560
I00
sg1561
V\u0905\u092a\u0928\u0940
p2835
sg1563
(issf_api
FeatureSet
p2836
(dp2837
g232
(dp2838
S'posn'
p2839
S'120'
p2840
sS'name'
p2841
S'\xe0\xa4\x85\xe0\xa4\xaa\xe0\xa4\xa8\xe0\xa5\x80'
p2842
sS'af'
p2843
S'\xe0\xa4\x85\xe0\xa4\xaa\xe0\xa4\xa8\xe0\xa4\xbe,pn,f,any,any,o,0,0'
p2844
sS'chunkid'
p2845
S'NP4'
p2846
sS'drel'
p2847
S'r6:\xe0\xa4\xa4\xe0\xa4\xb0\xe0\xa4\xb9'
p2848
sS'chunktype'
p2849
S'head:NP4'
p2850
ssbsg1304
I00
sg1307
I00
sg1318
Nsg1305
Nsg171
I4
sg158
I2
sg1579
Nsg1316
Nsg1580
S'PRP'
p2851
sg229
(issf_api
FeatureSet
p2852
(dp2853
g232
(dp2854
S'posn'
p2855
S'120'
p2856
sS'name'
p2857
S'\xe0\xa4\x85\xe0\xa4\xaa\xe0\xa4\xa8\xe0\xa5\x80'
p2858
sS'af'
p2859
S'\xe0\xa4\x85\xe0\xa4\xaa\xe0\xa4\xa8\xe0\xa4\xbe,pn,f,any,any,o,0,0'
p2860
ssbsg1326
I00
sba(issf_api
Word
p2861
(dp2862
g1560
I00
sg1561
V\u0924\u0930\u0939
p2863
sg1563
(issf_api
FeatureSet
p2864
(dp2865
g232
(dp2866
S'posn'
p2867
S'130'
p2868
sS'name'
p2869
S'\xe0\xa4\xa4\xe0\xa4\xb0\xe0\xa4\xb9'
p2870
sS'af'
p2871
S'\xe0\xa4\xa4\xe0\xa4\xb0\xe0\xa4\xb9,n,f,sg,3,o,0_\xe0\xa4\x95\xe0\xa4\xbe,0'
p2872
sS'chunkid'
p2873
S'NP5'
p2874
sS'drel'
p2875
S'r6:\xe0\xa4\xa8\xe0\xa4\xbf\xe0\xa4\xb5\xe0\xa5\x87\xe0\xa4\xb6'
p2876
sS'vpos'
p2877
S'vib_2'
p2878
sS'chunktype'
p2879
S'head:NP5'
p2880
ssbsg1304
I00
sg1307
I00
sg1318
Nsg1305
Nsg171
I5
sg158
I2
sg1579
Nsg1316
Nsg1580
S'NN'
p2881
sg229
(issf_api
FeatureSet
p2882
(dp2883
g232
(dp2884
S'posn'
p2885
S'130'
p2886
sS'name'
p2887
S'\xe0\xa4\xa4\xe0\xa4\xb0\xe0\xa4\xb9'
p2888
sS'af'
p2889
S'\xe0\xa4\xa4\xe0\xa4\xb0\xe0\xa4\xb9,n,f,sg,3,o,0,0'
p2890
ssbsg1326
I00
sba(issf_api
Word
p2891
(dp2892
g1560
I00
sg1561
V\u0915\u093e
p2893
sg1563
(issf_api
FeatureSet
p2894
(dp2895
g232
(dp2896
S'posn'
p2897
S'140'
p2898
sS'name'
p2899
S'\xe0\xa4\x95\xe0\xa4\xbe'
p2900
sS'drel'
p2901
S'lwg__psp:\xe0\xa4\xa4\xe0\xa4\xb0\xe0\xa4\xb9'
p2902
sS'chunktype'
p2903
S'child:NP5'
p2904
sS'af'
p2905
S'\xe0\xa4\x95\xe0\xa4\xbe,psp,m,sg,,d,,'
p2906
ssbsg1304
I00
sg1307
I00
sg1318
Nsg1305
Nsg171
I5
sg158
I2
sg1579
Nsg1316
Nsg1580
S'PSP'
p2907
sg229
(issf_api
FeatureSet
p2908
(dp2909
g232
(dp2910
S'posn'
p2911
S'140'
p2912
sS'name'
p2913
S'\xe0\xa4\x95\xe0\xa4\xbe'
p2914
sS'af'
p2915
S'\xe0\xa4\x95\xe0\xa4\xbe,psp,m,sg,,d,,'
p2916
ssbsg1326
I00
sba(issf_api
Word
p2917
(dp2918
g1560
I00
sg1561
V\u092f\u0939
p2919
sg1563
(issf_api
FeatureSet
p2920
(dp2921
g232
(dp2922
S'posn'
p2923
S'150'
p2924
sS'name'
p2925
S'\xe0\xa4\xaf\xe0\xa4\xb9'
p2926
sS'drel'
p2927
S'nmod__adj:\xe0\xa4\xa8\xe0\xa4\xbf\xe0\xa4\xb5\xe0\xa5\x87\xe0\xa4\xb6'
p2928
sS'chunktype'
p2929
S'child:NP6'
p2930
sS'af'
p2931
S'\xe0\xa4\xaf\xe0\xa4\xb9,pn,any,sg,3,d,,'
p2932
ssbsg1304
I00
sg1307
I00
sg1318
Nsg1305
Nsg171
I6
sg158
I2
sg1579
Nsg1316
Nsg1580
S'DEM'
p2933
sg229
(issf_api
FeatureSet
p2934
(dp2935
g232
(dp2936
S'posn'
p2937
S'150'
p2938
sS'name'
p2939
S'\xe0\xa4\xaf\xe0\xa4\xb9'
p2940
sS'af'
p2941
S'\xe0\xa4\xaf\xe0\xa4\xb9,pn,any,sg,3,d,,'
p2942
ssbsg1326
I00
sba(issf_api
Word
p2943
(dp2944
g1560
I00
sg1561
V\u092a\u0939\u0932\u093e
p2945
sg1563
(issf_api
FeatureSet
p2946
(dp2947
g232
(dp2948
S'posn'
p2949
S'160'
p2950
sS'name'
p2951
S'\xe0\xa4\xaa\xe0\xa4\xb9\xe0\xa4\xb2\xe0\xa4\xbe'
p2952
sS'drel'
p2953
S'nmod__adj:\xe0\xa4\xa8\xe0\xa4\xbf\xe0\xa4\xb5\xe0\xa5\x87\xe0\xa4\xb6'
p2954
sS'chunktype'
p2955
S'child:NP6'
p2956
sS'af'
p2957
S'\xe0\xa4\xaa\xe0\xa4\xb9\xe0\xa4\xb2\xe0\xa4\xbe,num,m,sg,,d,,'
p2958
ssbsg1304
I00
sg1307
I00
sg1318
Nsg1305
Nsg171
I6
sg158
I2
sg1579
Nsg1316
Nsg1580
S'QO'
p2959
sg229
(issf_api
FeatureSet
p2960
(dp2961
g232
(dp2962
S'posn'
p2963
S'160'
p2964
sS'name'
p2965
S'\xe0\xa4\xaa\xe0\xa4\xb9\xe0\xa4\xb2\xe0\xa4\xbe'
p2966
sS'af'
p2967
S'\xe0\xa4\xaa\xe0\xa4\xb9\xe0\xa4\xb2\xe0\xa4\xbe,num,m,sg,,d,,'
p2968
ssbsg1326
I00
sba(issf_api
Word
p2969
(dp2970
g1560
I00
sg1561
V\u0928\u093f\u0935\u0947\u0936
p2971
sg1563
(issf_api
FeatureSet
p2972
(dp2973
g232
(dp2974
S'posn'
p2975
S'170'
p2976
sS'name'
p2977
S'\xe0\xa4\xa8\xe0\xa4\xbf\xe0\xa4\xb5\xe0\xa5\x87\xe0\xa4\xb6'
p2978
sS'af'
p2979
S'\xe0\xa4\xa8\xe0\xa4\xbf\xe0\xa4\xb5\xe0\xa5\x87\xe0\xa4\xb6,n,m,sg,3,d,0,0'
p2980
sS'chunkid'
p2981
S'NP6'
p2982
sS'drel'
p2983
S'k1:\xe0\xa4\xb9\xe0\xa5\x88'
p2984
sS'chunktype'
p2985
S'head:NP6'
p2986
ssbsg1304
I00
sg1307
I00
sg1318
Nsg1305
Nsg171
I6
sg158
I2
sg1579
Nsg1316
Nsg1580
S'NN'
p2987
sg229
(issf_api
FeatureSet
p2988
(dp2989
g232
(dp2990
S'posn'
p2991
S'170'
p2992
sS'name'
p2993
S'\xe0\xa4\xa8\xe0\xa4\xbf\xe0\xa4\xb5\xe0\xa5\x87\xe0\xa4\xb6'
p2994
sS'af'
p2995
S'\xe0\xa4\xa8\xe0\xa4\xbf\xe0\xa4\xb5\xe0\xa5\x87\xe0\xa4\xb6,n,m,sg,3,d,0,0'
p2996
ssbsg1326
I00
sba(issf_api
Word
p2997
(dp2998
g1560
I00
sg1561
V\u0939\u0948
p2999
sg1563
(issf_api
FeatureSet
p3000
(dp3001
g232
(dp3002
S'posn'
p3003
S'180'
p3004
sS'name'
p3005
S'\xe0\xa4\xb9\xe0\xa5\x88'
p3006
sS'af'
p3007
S'\xe0\xa4\xb9\xe0\xa5\x88,v,any,sg,3,,\xe0\xa4\xb9\xe0\xa5\x88,hE'
p3008
sS'chunkid'
p3009
S'VGF'
p3010
sS'chunktype'
p3011
S'head:VGF'
p3012
sS'voicetype'
p3013
S'active'
p3014
sS'stype'
p3015
S'declarative'
p3016
ssbsg1304
I00
sg1307
I00
sg1318
Nsg1305
Nsg171
I7
sg158
I2
sg1579
Nsg1316
Nsg1580
S'VM'
p3017
sg229
(issf_api
FeatureSet
p3018
(dp3019
g232
(dp3020
S'posn'
p3021
S'180'
p3022
sS'name'
p3023
S'\xe0\xa4\xb9\xe0\xa5\x88'
p3024
sS'af'
p3025
S'\xe0\xa4\xb9\xe0\xa5\x88,v,any,sg,3,,\xe0\xa4\xb9\xe0\xa5\x88,hE'
p3026
ssbsg1326
I00
sba(issf_api
Word
p3027
(dp3028
g1560
I00
sg1561
V\u0964
sg1563
(issf_api
FeatureSet
p3029
(dp3030
g232
(dp3031
S'posn'
p3032
S'190'
p3033
sS'name'
p3034
S'\xe0\xa5\xa4'
p3035
sS'af'
p3036
S'\xe0\xa5\xa4,punc,,,,,,'
p3037
sS'chunkid'
p3038
S'BLK'
p3039
sS'drel'
p3040
S'rsym:\xe0\xa4\xb9\xe0\xa5\x88'
p3041
sS'chunktype'
p3042
S'head:BLK'
p3043
ssbsg1304
I00
sg1307
I00
sg1318
Nsg1305
Nsg171
I8
sg158
I2
sg1579
Nsg1316
Nsg1580
S'SYM'
p3044
sg229
(issf_api
FeatureSet
p3045
(dp3046
g232
(dp3047
S'posn'
p3048
S'190'
p3049
sS'name'
p3050
S'\xe0\xa5\xa4'
p3051
sS'af'
p3052
S'\xe0\xa5\xa4,punc,,,,,,'
p3053
ssbsg1326
I00
sba(issf_api
Word
p3054
(dp3055
g1560
I00
sg1561
V\u092c\u093f\u091c\u0928\u0947\u0938
p3056
sg1563
(issf_api
FeatureSet
p3057
(dp3058
g232
(dp3059
S'posn'
p3060
S'10'
p3061
sS'name'
p3062
S'\xe0\xa4\xac\xe0\xa4\xbf\xe0\xa4\x9c\xe0\xa4\xa8\xe0\xa5\x87\xe0\xa4\xb8'
p3063
sS'drel'
p3064
S'pof__cn:\xe0\xa4\xb8\xe0\xa5\x8d\xe0\xa4\x9f\xe0\xa5\x88\xe0\xa4\x82\xe0\xa4\xa1\xe0\xa4\xb0\xe0\xa5\x8d\xe0\xa4\xa1'
p3065
sS'chunktype'
p3066
S'child:NP'
p3067
sS'af'
p3068
S'\xe0\xa4\xac\xe0\xa4\xbf\xe0\xa4\x9c\xe0\xa4\xa8\xe0\xa5\x87\xe0\xa4\xb8,n,m,sg,3,d,0,0'
p3069
ssbsg1304
I00
sg1307
I00
sg1318
Nsg1305
Nsg171
I0
sg158
I3
sg1579
Nsg1316
Nsg1580
S'NNPC'
p3070
sg229
(issf_api
FeatureSet
p3071
(dp3072
g232
(dp3073
S'posn'
p3074
S'10'
p3075
sS'name'
p3076
S'\xe0\xa4\xac\xe0\xa4\xbf\xe0\xa4\x9c\xe0\xa4\xa8\xe0\xa5\x87\xe0\xa4\xb8'
p3077
sS'af'
p3078
S'\xe0\xa4\xac\xe0\xa4\xbf\xe0\xa4\x9c\xe0\xa4\xa8\xe0\xa5\x87\xe0\xa4\xb8,n,m,sg,3,d,0,0'
p3079
ssbsg1326
I00
sba(issf_api
Word
p3080
(dp3081
g1560
I00
sg1561
V\u0938\u094d\u091f\u0948\u0902\u0921\u0930\u094d\u0921
p3082
sg1563
(issf_api
FeatureSet
p3083
(dp3084
g232
(dp3085
S'posn'
p3086
S'20'
p3087
sS'name'
p3088
S'\xe0\xa4\xb8\xe0\xa5\x8d\xe0\xa4\x9f\xe0\xa5\x88\xe0\xa4\x82\xe0\xa4\xa1\xe0\xa4\xb0\xe0\xa5\x8d\xe0\xa4\xa1'
p3089
sS'af'
p3090
S'\xe0\xa4\xb8\xe0\xa5\x8d\xe0\xa4\x9f\xe0\xa5\x88\xe0\xa4\x82\xe0\xa4\xa1\xe0\xa4\xb0\xe0\xa5\x8d\xe0\xa4\xa1,n,m,sg,3,o,0_\xe0\xa4\x95\xe0\xa4\xbe,0'
p3091
sS'chunkid'
p3092
S'NP'
p3093
sS'drel'
p3094
S'r6:\xe0\xa4\xb8\xe0\xa4\x82\xe0\xa4\xaa\xe0\xa4\xbe\xe0\xa4\xa6\xe0\xa4\x95'
p3095
sS'vpos'
p3096
S'vib_3'
p3097
sS'chunktype'
p3098
S'head:NP'
p3099
ssbsg1304
I00
sg1307
I00
sg1318
Nsg1305
Nsg171
I0
sg158
I3
sg1579
Nsg1316
Nsg1580
S'NNP'
p3100
sg229
(issf_api
FeatureSet
p3101
(dp3102
g232
(dp3103
S'posn'
p3104
S'20'
p3105
sS'name'
p3106
S'\xe0\xa4\xb8\xe0\xa5\x8d\xe0\xa4\x9f\xe0\xa5\x88\xe0\xa4\x82\xe0\xa4\xa1\xe0\xa4\xb0\xe0\xa5\x8d\xe0\xa4\xa1'
p3107
sS'af'
p3108
S'\xe0\xa4\xb8\xe0\xa5\x8d\xe0\xa4\x9f\xe0\xa5\x88\xe0\xa4\x82\xe0\xa4\xa1\xe0\xa4\xb0\xe0\xa5\x8d\xe0\xa4\xa1,n,m,sg,3,o,0,0'
p3109
ssbsg1326
I00
sba(issf_api
Word
p3110
(dp3111
g1560
I00
sg1561
V\u0915\u0947
p3112
sg1563
(issf_api
FeatureSet
p3113
(dp3114
g232
(dp3115
S'posn'
p3116
S'30'
p3117
sS'name'
p3118
S'\xe0\xa4\x95\xe0\xa5\x87'
p3119
sS'drel'
p3120
S'lwg__psp:\xe0\xa4\xb8\xe0\xa5\x8d\xe0\xa4\x9f\xe0\xa5\x88\xe0\xa4\x82\xe0\xa4\xa1\xe0\xa4\xb0\xe0\xa5\x8d\xe0\xa4\xa1'
p3121
sS'chunktype'
p3122
S'child:NP'
p3123
sS'af'
p3124
S'\xe0\xa4\x95\xe0\xa4\xbe,psp,m,sg,,o,,'
p3125
ssbsg1304
I00
sg1307
I00
sg1318
Nsg1305
Nsg171
I0
sg158
I3
sg1579
Nsg1316
Nsg1580
S'PSP'
p3126
sg229
(issf_api
FeatureSet
p3127
(dp3128
g232
(dp3129
S'posn'
p3130
S'30'
p3131
sS'name'
p3132
S'\xe0\xa4\x95\xe0\xa5\x87'
p3133
sS'af'
p3134
S'\xe0\xa4\x95\xe0\xa4\xbe,psp,m,sg,,o,,'
p3135
ssbsg1326
I00
sba(issf_api
Word
p3136
(dp3137
g1560
I00
sg1561
V\u0938\u0902\u092a\u093e\u0926\u0915
p3138
sg1563
(issf_api
FeatureSet
p3139
(dp3140
g232
(dp3141
S'posn'
p3142
S'40'
p3143
sS'name'
p3144
S'\xe0\xa4\xb8\xe0\xa4\x82\xe0\xa4\xaa\xe0\xa4\xbe\xe0\xa4\xa6\xe0\xa4\x95'
p3145
sS'af'
p3146
S'\xe0\xa4\xb8\xe0\xa4\x82\xe0\xa4\xaa\xe0\xa4\xbe\xe0\xa4\xa6\xe0\xa4\x95,n,m,sg,3,o,0,0'
p3147
sS'chunkid'
p3148
S'NP2'
p3149
sS'drel'
p3150
S'ccof:\xe0\xa4\x8f\xe0\xa4\xb5\xe0\xa4\x82'
p3151
sS'chunktype'
p3152
S'head:NP2'
p3153
ssbsg1304
I00
sg1307
I00
sg1318
Nsg1305
Nsg171
I1
sg158
I3
sg1579
Nsg1316
Nsg1580
S'NN'
p3154
sg229
(issf_api
FeatureSet
p3155
(dp3156
g232
(dp3157
S'posn'
p3158
S'40'
p3159
sS'name'
p3160
S'\xe0\xa4\xb8\xe0\xa4\x82\xe0\xa4\xaa\xe0\xa4\xbe\xe0\xa4\xa6\xe0\xa4\x95'
p3161
sS'af'
p3162
S'\xe0\xa4\xb8\xe0\xa4\x82\xe0\xa4\xaa\xe0\xa4\xbe\xe0\xa4\xa6\xe0\xa4\x95,n,m,sg,3,o,0,0'
p3163
ssbsg1326
I00
sba(issf_api
Word
p3164
(dp3165
g1560
I00
sg1561
V\u090f\u0935\u0902
p3166
sg1563
(issf_api
FeatureSet
p3167
(dp3168
g232
(dp3169
S'posn'
p3170
S'50'
p3171
sS'name'
p3172
S'\xe0\xa4\x8f\xe0\xa4\xb5\xe0\xa4\x82'
p3173
sS'af'
p3174
S'\xe0\xa4\x8f\xe0\xa4\xb5\xe0\xa4\x82,avy,,,,,,'
p3175
sS'chunkid'
p3176
S'CCP'
p3177
sS'drel'
p3178
S'nmod:\xe0\xa4\xae\xe0\xa5\x88\xe0\xa4\xa8\xe0\xa4\xa8'
p3179
sS'chunktype'
p3180
S'head:CCP'
p3181
ssbsg1304
I00
sg1307
I00
sg1318
Nsg1305
Nsg171
I2
sg158
I3
sg1579
Nsg1316
Nsg1580
S'CC'
p3182
sg229
(issf_api
FeatureSet
p3183
(dp3184
g232
(dp3185
S'posn'
p3186
S'50'
p3187
sS'name'
p3188
S'\xe0\xa4\x8f\xe0\xa4\xb5\xe0\xa4\x82'
p3189
sS'af'
p3190
S'\xe0\xa4\x8f\xe0\xa4\xb5\xe0\xa4\x82,avy,,,,,,'
p3191
ssbsg1326
I00
sba(issf_api
Word
p3192
(dp3193
g1560
I00
sg1561
V\u092a\u094d\u0930\u0915\u093e\u0936\u0915
p3194
sg1563
(issf_api
FeatureSet
p3195
(dp3196
g232
(dp3197
S'posn'
p3198
S'60'
p3199
sS'name'
p3200
S'\xe0\xa4\xaa\xe0\xa5\x8d\xe0\xa4\xb0\xe0\xa4\x95\xe0\xa4\xbe\xe0\xa4\xb6\xe0\xa4\x95'
p3201
sS'af'
p3202
S'\xe0\xa4\xaa\xe0\xa5\x8d\xe0\xa4\xb0\xe0\xa4\x95\xe0\xa4\xbe\xe0\xa4\xb6\xe0\xa4\x95,n,m,sg,3,o,0,0'
p3203
sS'chunkid'
p3204
S'NP3'
p3205
sS'drel'
p3206
S'ccof:\xe0\xa4\x8f\xe0\xa4\xb5\xe0\xa4\x82'
p3207
sS'chunktype'
p3208
S'head:NP3'
p3209
ssbsg1304
I00
sg1307
I00
sg1318
Nsg1305
Nsg171
I3
sg158
I3
sg1579
Nsg1316
Nsg1580
S'NN'
p3210
sg229
(issf_api
FeatureSet
p3211
(dp3212
g232
(dp3213
S'posn'
p3214
S'60'
p3215
sS'name'
p3216
S'\xe0\xa4\xaa\xe0\xa5\x8d\xe0\xa4\xb0\xe0\xa4\x95\xe0\xa4\xbe\xe0\xa4\xb6\xe0\xa4\x95'
p3217
sS'af'
p3218
S'\xe0\xa4\xaa\xe0\xa5\x8d\xe0\xa4\xb0\xe0\xa4\x95\xe0\xa4\xbe\xe0\xa4\xb6\xe0\xa4\x95,n,m,sg,3,o,0,0'
p3219
ssbsg1326
I00
sba(issf_api
Word
p3220
(dp3221
g1560
I00
sg1561
V\u091f\u0940.
p3222
sg1563
(issf_api
FeatureSet
p3223
(dp3224
g232
(dp3225
S'posn'
p3226
S'70'
p3227
sS'name'
p3228
S'\xe0\xa4\x9f\xe0\xa5\x80.'
p3229
sS'drel'
p3230
S'pof__cn:\xe0\xa4\xae\xe0\xa5\x88\xe0\xa4\xa8\xe0\xa4\xa8'
p3231
sS'chunktype'
p3232
S'child:NP4'
p3233
sS'af'
p3234
S'\xe0\xa4\x9f\xe0\xa5\x80.,n,m,sg,3,d,0,0'
p3235
ssbsg1304
I00
sg1307
I00
sg1318
Nsg1305
Nsg171
I4
sg158
I3
sg1579
Nsg1316
Nsg1580
S'NNPC'
p3236
sg229
(issf_api
FeatureSet
p3237
(dp3238
g232
(dp3239
S'posn'
p3240
S'70'
p3241
sS'name'
p3242
S'\xe0\xa4\x9f\xe0\xa5\x80.'
p3243
sS'af'
p3244
S'\xe0\xa4\x9f\xe0\xa5\x80.,n,m,sg,3,d,0,0'
p3245
ssbsg1326
I00
sba(issf_api
Word
p3246
(dp3247
g1560
I00
sg1561
V\u090f\u0928.
p3248
sg1563
(issf_api
FeatureSet
p3249
(dp3250
g232
(dp3251
S'posn'
p3252
S'80'
p3253
sS'name'
p3254
S'\xe0\xa4\x8f\xe0\xa4\xa8.'
p3255
sS'drel'
p3256
S'pof__cn:\xe0\xa4\xae\xe0\xa5\x88\xe0\xa4\xa8\xe0\xa4\xa8'
p3257
sS'chunktype'
p3258
S'child:NP4'
p3259
sS'af'
p3260
S'\xe0\xa4\x8f\xe0\xa4\xa8.,n,m,sg,3,d,0,0'
p3261
ssbsg1304
I00
sg1307
I00
sg1318
Nsg1305
Nsg171
I4
sg158
I3
sg1579
Nsg1316
Nsg1580
S'NNPC'
p3262
sg229
(issf_api
FeatureSet
p3263
(dp3264
g232
(dp3265
S'posn'
p3266
S'80'
p3267
sS'name'
p3268
S'\xe0\xa4\x8f\xe0\xa4\xa8.'
p3269
sS'af'
p3270
S'\xe0\xa4\x8f\xe0\xa4\xa8.,n,m,sg,3,d,0,0'
p3271
ssbsg1326
I00
sba(issf_api
Word
p3272
(dp3273
g1560
I00
sg1561
V\u092e\u0948\u0928\u0928
p3274
sg1563
(issf_api
FeatureSet
p3275
(dp3276
g232
(dp3277
S'posn'
p3278
S'90'
p3279
sS'name'
p3280
S'\xe0\xa4\xae\xe0\xa5\x88\xe0\xa4\xa8\xe0\xa4\xa8'
p3281
sS'af'
p3282
S'\xe0\xa4\xae\xe0\xa5\x88\xe0\xa4\xa8\xe0\xa4\xa8,n,any,sg,3,o,0_\xe0\xa4\xa8\xe0\xa5\x87,0'
p3283
sS'chunkid'
p3284
S'NP4'
p3285
sS'drel'
p3286
S'k1:\xe0\xa4\x95\xe0\xa4\xb9\xe0\xa4\xbe'
p3287
sS'vpos'
p3288
S'vib_4'
p3289
sS'chunktype'
p3290
S'head:NP4'
p3291
ssbsg1304
I00
sg1307
I00
sg1318
Nsg1305
Nsg171
I4
sg158
I3
sg1579
Nsg1316
Nsg1580
S'NNP'
p3292
sg229
(issf_api
FeatureSet
p3293
(dp3294
g232
(dp3295
S'posn'
p3296
S'90'
p3297
sS'name'
p3298
S'\xe0\xa4\xae\xe0\xa5\x88\xe0\xa4\xa8\xe0\xa4\xa8'
p3299
sS'af'
p3300
S'\xe0\xa4\xae\xe0\xa5\x88\xe0\xa4\xa8\xe0\xa4\xa8,n,any,sg,3,o,0,0'
p3301
ssbsg1326
I00
sba(issf_api
Word
p3302
(dp3303
g1560
I00
sg1561
V\u0928\u0947
p3304
sg1563
(issf_api
FeatureSet
p3305
(dp3306
g232
(dp3307
S'posn'
p3308
S'100'
p3309
sS'name'
p3310
S'\xe0\xa4\xa8\xe0\xa5\x87'
p3311
sS'drel'
p3312
S'lwg__psp:\xe0\xa4\xae\xe0\xa5\x88\xe0\xa4\xa8\xe0\xa4\xa8'
p3313
sS'chunktype'
p3314
S'child:NP4'
p3315
sS'af'
p3316
S'\xe0\xa4\xa8\xe0\xa5\x87,psp,,,,,,'
p3317
ssbsg1304
I00
sg1307
I00
sg1318
Nsg1305
Nsg171
I4
sg158
I3
sg1579
Nsg1316
Nsg1580
S'PSP'
p3318
sg229
(issf_api
FeatureSet
p3319
(dp3320
g232
(dp3321
S'posn'
p3322
S'100'
p3323
sS'name'
p3324
S'\xe0\xa4\xa8\xe0\xa5\x87'
p3325
sS'af'
p3326
S'\xe0\xa4\xa8\xe0\xa5\x87,psp,,,,,,'
p3327
ssbsg1326
I00
sba(issf_api
Word
p3328
(dp3329
g1560
I00
sg1561
V\u092e\u0902\u0917\u0932\u0935\u093e\u0930
p3330
sg1563
(issf_api
FeatureSet
p3331
(dp3332
g232
(dp3333
S'posn'
p3334
S'110'
p3335
sS'name'
p3336
S'\xe0\xa4\xae\xe0\xa4\x82\xe0\xa4\x97\xe0\xa4\xb2\xe0\xa4\xb5\xe0\xa4\xbe\xe0\xa4\xb0'
p3337
sS'af'
p3338
S'\xe0\xa4\xae\xe0\xa4\x82\xe0\xa4\x97\xe0\xa4\xb2\xe0\xa4\xb5\xe0\xa4\xbe\xe0\xa4\xb0,n,m,sg,3,o,0_\xe0\xa4\x95\xe0\xa5\x8b,0'
p3339
sS'chunkid'
p3340
S'NP5'
p3341
sS'drel'
p3342
S'k7t:\xe0\xa4\x95\xe0\xa4\xb9\xe0\xa4\xbe'
p3343
sS'vpos'
p3344
S'vib_2'
p3345
sS'chunktype'
p3346
S'head:NP5'
p3347
ssbsg1304
I00
sg1307
I00
sg1318
Nsg1305
Nsg171
I5
sg158
I3
sg1579
Nsg1316
Nsg1580
S'NNP'
p3348
sg229
(issf_api
FeatureSet
p3349
(dp3350
g232
(dp3351
S'posn'
p3352
S'110'
p3353
sS'name'
p3354
S'\xe0\xa4\xae\xe0\xa4\x82\xe0\xa4\x97\xe0\xa4\xb2\xe0\xa4\xb5\xe0\xa4\xbe\xe0\xa4\xb0'
p3355
sS'af'
p3356
S'\xe0\xa4\xae\xe0\xa4\x82\xe0\xa4\x97\xe0\xa4\xb2\xe0\xa4\xb5\xe0\xa4\xbe\xe0\xa4\xb0,n,m,sg,3,o,0,0'
p3357
ssbsg1326
I00
sba(issf_api
Word
p3358
(dp3359
g1560
I00
sg1561
V\u0915\u094b
p3360
sg1563
(issf_api
FeatureSet
p3361
(dp3362
g232
(dp3363
S'posn'
p3364
S'120'
p3365
sS'name'
p3366
S'\xe0\xa4\x95\xe0\xa5\x8b'
p3367
sS'drel'
p3368
S'lwg__psp:\xe0\xa4\xae\xe0\xa4\x82\xe0\xa4\x97\xe0\xa4\xb2\xe0\xa4\xb5\xe0\xa4\xbe\xe0\xa4\xb0'
p3369
sS'chunktype'
p3370
S'child:NP5'
p3371
sS'af'
p3372
S'\xe0\xa4\x95\xe0\xa5\x8b,psp,,,,,,'
p3373
ssbsg1304
I00
sg1307
I00
sg1318
Nsg1305
Nsg171
I5
sg158
I3
sg1579
Nsg1316
Nsg1580
S'PSP'
p3374
sg229
(issf_api
FeatureSet
p3375
(dp3376
g232
(dp3377
S'posn'
p3378
S'120'
p3379
sS'name'
p3380
S'\xe0\xa4\x95\xe0\xa5\x8b'
p3381
sS'af'
p3382
S'\xe0\xa4\x95\xe0\xa5\x8b,psp,,,,,,'
p3383
ssbsg1326
I00
sba(issf_api
Word
p3384
(dp3385
g1560
I00
sg1561
V\u0915\u0939\u093e
p3386
sg1563
(issf_api
FeatureSet
p3387
(dp3388
g232
(dp3389
S'posn'
p3390
S'130'
p3391
sS'name'
p3392
S'\xe0\xa4\x95\xe0\xa4\xb9\xe0\xa4\xbe'
p3393
sS'af'
p3394
S'\xe0\xa4\x95\xe0\xa4\xb9,v,m,sg,any,,\xe0\xa4\xaf\xe0\xa4\xbe,yA'
p3395
sS'chunkid'
p3396
S'VGF'
p3397
sS'chunktype'
p3398
S'head:VGF'
p3399
sS'voicetype'
p3400
S'active'
p3401
sS'stype'
p3402
S'declarative'
p3403
ssbsg1304
I00
sg1307
I00
sg1318
Nsg1305
Nsg171
I6
sg158
I3
sg1579
Nsg1316
Nsg1580
S'VM'
p3404
sg229
(issf_api
FeatureSet
p3405
(dp3406
g232
(dp3407
S'posn'
p3408
S'130'
p3409
sS'name'
p3410
S'\xe0\xa4\x95\xe0\xa4\xb9\xe0\xa4\xbe'
p3411
sS'af'
p3412
S'\xe0\xa4\x95\xe0\xa4\xb9,v,m,sg,any,,\xe0\xa4\xaf\xe0\xa4\xbe,yA'
p3413
ssbsg1326
I00
sba(issf_api
Word
p3414
(dp3415
g1560
I00
sg1561
V\u0915\u093f
p3416
sg1563
(issf_api
FeatureSet
p3417
(dp3418
g232
(dp3419
S'posn'
p3420
S'140'
p3421
sS'name'
p3422
S'\xe0\xa4\x95\xe0\xa4\xbf'
p3423
sS'af'
p3424
S'\xe0\xa4\x95\xe0\xa4\xbf,avy,,,,,,'
p3425
sS'chunkid'
p3426
S'CCP2'
p3427
sS'drel'
p3428
S'k2:\xe0\xa4\x95\xe0\xa4\xb9\xe0\xa4\xbe'
p3429
sS'chunktype'
p3430
S'head:CCP2'
p3431
ssbsg1304
I00
sg1307
I00
sg1318
Nsg1305
Nsg171
I7
sg158
I3
sg1579
Nsg1316
Nsg1580
S'CC'
p3432
sg229
(issf_api
FeatureSet
p3433
(dp3434
g232
(dp3435
S'posn'
p3436
S'140'
p3437
sS'name'
p3438
S'\xe0\xa4\x95\xe0\xa4\xbf'
p3439
sS'af'
p3440
S'\xe0\xa4\x95\xe0\xa4\xbf,avy,,,,,,'
p3441
ssbsg1326
I00
sba(issf_api
Word
p3442
(dp3443
g1560
I00
sg1561
V\u092b\u093e\u0907\u0928\u0947\u0902\u0936\u093f\u092f\u0932
p3444
sg1563
(issf_api
FeatureSet
p3445
(dp3446
g232
(dp3447
S'posn'
p3448
S'10'
p3449
sS'name'
p3450
S'\xe0\xa4\xab\xe0\xa4\xbe\xe0\xa4\x87\xe0\xa4\xa8\xe0\xa5\x87\xe0\xa4\x82\xe0\xa4\xb6\xe0\xa4\xbf\xe0\xa4\xaf\xe0\xa4\xb2'
p3451
sS'drel'
p3452
S'pof__cn:\xe0\xa4\x9f\xe0\xa4\xbe\xe0\xa4\x87\xe0\xa4\xae\xe0\xa5\x8d\xe0\xa4\xb8'
p3453
sS'chunktype'
p3454
S'child:NP6'
p3455
sS'af'
p3456
S'\xe0\xa4\xab\xe0\xa4\xbe\xe0\xa4\x87\xe0\xa4\xa8\xe0\xa5\x87\xe0\xa4\x82\xe0\xa4\xb6\xe0\xa4\xbf\xe0\xa4\xaf\xe0\xa4\xb2,adj,any,any,,o,,'
p3457
ssbsg1304
I00
sg1307
I00
sg1318
Nsg1305
Nsg171
I8
sg158
I3
sg1579
Nsg1316
Nsg1580
S'NNPC'
p3458
sg229
(issf_api
FeatureSet
p3459
(dp3460
g232
(dp3461
S'posn'
p3462
S'10'
p3463
sS'name'
p3464
S'\xe0\xa4\xab\xe0\xa4\xbe\xe0\xa4\x87\xe0\xa4\xa8\xe0\xa5\x87\xe0\xa4\x82\xe0\xa4\xb6\xe0\xa4\xbf\xe0\xa4\xaf\xe0\xa4\xb2'
p3465
sS'af'
p3466
S'\xe0\xa4\xab\xe0\xa4\xbe\xe0\xa4\x87\xe0\xa4\xa8\xe0\xa5\x87\xe0\xa4\x82\xe0\xa4\xb6\xe0\xa4\xbf\xe0\xa4\xaf\xe0\xa4\xb2,adj,any,any,,o,,'
p3467
ssbsg1326
I00
sba(issf_api
Word
p3468
(dp3469
g1560
I00
sg1561
V\u091f\u093e\u0907\u092e\u094d\u0938
p3470
sg1563
(issf_api
FeatureSet
p3471
(dp3472
g232
(dp3473
S'posn'
p3474
S'160'
p3475
sS'name'
p3476
S'\xe0\xa4\x9f\xe0\xa4\xbe\xe0\xa4\x87\xe0\xa4\xae\xe0\xa5\x8d\xe0\xa4\xb8'
p3477
sS'af'
p3478
S'\xe0\xa4\x9f\xe0\xa4\xbe\xe0\xa4\x87\xe0\xa4\xae\xe0\xa5\x8d\xe0\xa4\xb8,n,m,sg,3,o,0_\xe0\xa4\xa8\xe0\xa5\x87,0'
p3479
sS'chunkid'
p3480
S'NP6'
p3481
sS'drel'
p3482
S'k1:\xe0\xa4\x9c\xe0\xa4\xa4\xe0\xa4\xbe\xe0\xa4\x88'
p3483
sS'vpos'
p3484
S'vib_3'
p3485
sS'chunktype'
p3486
S'head:NP6'
p3487
ssbsg1304
I00
sg1307
I00
sg1318
Nsg1305
Nsg171
I8
sg158
I3
sg1579
Nsg1316
Nsg1580
S'NNP'
p3488
sg229
(issf_api
FeatureSet
p3489
(dp3490
g232
(dp3491
S'posn'
p3492
S'160'
p3493
sS'name'
p3494
S'\xe0\xa4\x9f\xe0\xa4\xbe\xe0\xa4\x87\xe0\xa4\xae\xe0\xa5\x8d\xe0\xa4\xb8'
p3495
sS'af'
p3496
S'\xe0\xa4\x9f\xe0\xa4\xbe\xe0\xa4\x87\xe0\xa4\xae\xe0\xa5\x8d\xe0\xa4\xb8,n,m,sg,3,o,0,0'
p3497
ssbsg1326
I00
sba(issf_api
Word
p3498
(dp3499
g1560
I00
sg1561
V\u0928\u0947
p3500
sg1563
(issf_api
FeatureSet
p3501
(dp3502
g232
(dp3503
S'posn'
p3504
S'170'
p3505
sS'name'
p3506
S'\xe0\xa4\xa8\xe0\xa5\x872'
p3507
sS'drel'
p3508
S'lwg__psp:\xe0\xa4\x9f\xe0\xa4\xbe\xe0\xa4\x87\xe0\xa4\xae\xe0\xa5\x8d\xe0\xa4\xb8'
p3509
sS'chunktype'
p3510
S'child:NP6'
p3511
sS'af'
p3512
S'\xe0\xa4\xa8\xe0\xa5\x87,psp,,,,,,'
p3513
ssbsg1304
I00
sg1307
I00
sg1318
Nsg1305
Nsg171
I8
sg158
I3
sg1579
Nsg1316
Nsg1580
S'PSP'
p3514
sg229
(issf_api
FeatureSet
p3515
(dp3516
g232
(dp3517
S'posn'
p3518
S'170'
p3519
sS'name'
p3520
S'\xe0\xa4\xa8\xe0\xa5\x872'
p3521
sS'af'
p3522
S'\xe0\xa4\xa8\xe0\xa5\x87,psp,,,,,,'
p3523
ssbsg1326
I00
sba(issf_api
Word
p3524
(dp3525
g1560
I00
sg1561
V\u092c\u093f\u091c\u0928\u0947\u0938
p3526
sg1563
(issf_api
FeatureSet
p3527
(dp3528
g232
(dp3529
S'posn'
p3530
S'180'
p3531
sS'name'
p3532
S'\xe0\xa4\xac\xe0\xa4\xbf\xe0\xa4\x9c\xe0\xa4\xa8\xe0\xa5\x87\xe0\xa4\xb82'
p3533
sS'drel'
p3534
S'pof__cn:\xe0\xa4\xb8\xe0\xa5\x8d\xe0\xa4\x9f\xe0\xa5\x88\xe0\xa4\x82\xe0\xa4\xa1\xe0\xa4\xb0\xe0\xa5\x8d\xe0\xa4\xa12'
p3535
sS'chunktype'
p3536
S'child:NP7'
p3537
sS'af'
p3538
S'\xe0\xa4\xac\xe0\xa4\xbf\xe0\xa4\x9c\xe0\xa4\xa8\xe0\xa5\x87\xe0\xa4\xb8,n,m,sg,3,d,0,0'
p3539
ssbsg1304
I00
sg1307
I00
sg1318
Nsg1305
Nsg171
I9
sg158
I3
sg1579
Nsg1316
Nsg1580
S'NNPC'
p3540
sg229
(issf_api
FeatureSet
p3541
(dp3542
g232
(dp3543
S'posn'
p3544
S'180'
p3545
sS'name'
p3546
S'\xe0\xa4\xac\xe0\xa4\xbf\xe0\xa4\x9c\xe0\xa4\xa8\xe0\xa5\x87\xe0\xa4\xb82'
p3547
sS'af'
p3548
S'\xe0\xa4\xac\xe0\xa4\xbf\xe0\xa4\x9c\xe0\xa4\xa8\xe0\xa5\x87\xe0\xa4\xb8,n,m,sg,3,d,0,0'
p3549
ssbsg1326
I00
sba(issf_api
Word
p3550
(dp3551
g1560
I00
sg1561
V\u0938\u094d\u091f\u0948\u0902\u0921\u0930\u094d\u0921
p3552
sg1563
(issf_api
FeatureSet
p3553
(dp3554
g232
(dp3555
S'posn'
p3556
S'190'
p3557
sS'name'
p3558
S'\xe0\xa4\xb8\xe0\xa5\x8d\xe0\xa4\x9f\xe0\xa5\x88\xe0\xa4\x82\xe0\xa4\xa1\xe0\xa4\xb0\xe0\xa5\x8d\xe0\xa4\xa12'
p3559
sS'af'
p3560
S'\xe0\xa4\xb8\xe0\xa5\x8d\xe0\xa4\x9f\xe0\xa5\x88\xe0\xa4\x82\xe0\xa4\xa1\xe0\xa4\xb0\xe0\xa5\x8d\xe0\xa4\xa1,n,m,sg,3,o,0_\xe0\xa4\xae\xe0\xa5\x87\xe0\xa4\x82,0'
p3561
sS'chunkid'
p3562
S'NP7'
p3563
sS'drel'
p3564
S'k7:\xe0\xa4\x96\xe0\xa4\xb0\xe0\xa5\x80\xe0\xa4\xa6\xe0\xa4\xa8\xe0\xa5\x87'
p3565
sS'vpos'
p3566
S'vib_3'
p3567
sS'chunktype'
p3568
S'head:NP7'
p3569
ssbsg1304
I00
sg1307
I00
sg1318
Nsg1305
Nsg171
I9
sg158
I3
sg1579
Nsg1316
Nsg1580
S'NNP'
p3570
sg229
(issf_api
FeatureSet
p3571
(dp3572
g232
(dp3573
S'posn'
p3574
S'190'
p3575
sS'name'
p3576
S'\xe0\xa4\xb8\xe0\xa5\x8d\xe0\xa4\x9f\xe0\xa5\x88\xe0\xa4\x82\xe0\xa4\xa1\xe0\xa4\xb0\xe0\xa5\x8d\xe0\xa4\xa12'
p3577
sS'af'
p3578
S'\xe0\xa4\xb8\xe0\xa5\x8d\xe0\xa4\x9f\xe0\xa5\x88\xe0\xa4\x82\xe0\xa4\xa1\xe0\xa4\xb0\xe0\xa5\x8d\xe0\xa4\xa1,n,m,sg,3,o,0,0'
p3579
ssbsg1326
I00
sba(issf_api
Word
p3580
(dp3581
g1560
I00
sg1561
V\u092e\u0947\u0902
p3582
sg1563
(issf_api
FeatureSet
p3583
(dp3584
g232
(dp3585
S'posn'
p3586
S'200'
p3587
sS'name'
p3588
S'\xe0\xa4\xae\xe0\xa5\x87\xe0\xa4\x82'
p3589
sS'drel'
p3590
S'lwg__psp:\xe0\xa4\xb8\xe0\xa5\x8d\xe0\xa4\x9f\xe0\xa5\x88\xe0\xa4\x82\xe0\xa4\xa1\xe0\xa4\xb0\xe0\xa5\x8d\xe0\xa4\xa12'
p3591
sS'chunktype'
p3592
S'child:NP7'
p3593
sS'af'
p3594
S'\xe0\xa4\xae\xe0\xa5\x87\xe0\xa4\x82,psp,,,,,,'
p3595
ssbsg1304
I00
sg1307
I00
sg1318
Nsg1305
Nsg171
I9
sg158
I3
sg1579
Nsg1316
Nsg1580
S'PSP'
p3596
sg229
(issf_api
FeatureSet
p3597
(dp3598
g232
(dp3599
S'posn'
p3600
S'200'
p3601
sS'name'
p3602
S'\xe0\xa4\xae\xe0\xa5\x87\xe0\xa4\x82'
p3603
sS'af'
p3604
S'\xe0\xa4\xae\xe0\xa5\x87\xe0\xa4\x82,psp,,,,,,'
p3605
ssbsg1326
I00
sba(issf_api
Word
p3606
(dp3607
g1560
I00
sg1561
V\u0939\u093f\u0938\u094d\u0938\u0947\u0926\u093e\u0930\u0940
p3608
sg1563
(issf_api
FeatureSet
p3609
(dp3610
g232
(dp3611
S'posn'
p3612
S'210'
p3613
sS'name'
p3614
S'\xe0\xa4\xb9\xe0\xa4\xbf\xe0\xa4\xb8\xe0\xa5\x8d\xe0\xa4\xb8\xe0\xa5\x87\xe0\xa4\xa6\xe0\xa4\xbe\xe0\xa4\xb0\xe0\xa5\x80'
p3615
sS'af'
p3616
S'\xe0\xa4\xb9\xe0\xa4\xbf\xe0\xa4\xb8\xe0\xa5\x8d\xe0\xa4\xb8\xe0\xa5\x87\xe0\xa4\xa6\xe0\xa4\xbe\xe0\xa4\xb0\xe0\xa5\x80,n,f,sg,3,d,0,0'
p3617
sS'chunkid'
p3618
S'NP8'
p3619
sS'drel'
p3620
S'k2:\xe0\xa4\x96\xe0\xa4\xb0\xe0\xa5\x80\xe0\xa4\xa6\xe0\xa4\xa8\xe0\xa5\x87'
p3621
sS'chunktype'
p3622
S'head:NP8'
p3623
ssbsg1304
I00
sg1307
I00
sg1318
Nsg1305
Nsg171
I10
sg158
I3
sg1579
Nsg1316
Nsg1580
S'NN'
p3624
sg229
(issf_api
FeatureSet
p3625
(dp3626
g232
(dp3627
S'posn'
p3628
S'210'
p3629
sS'name'
p3630
S'\xe0\xa4\xb9\xe0\xa4\xbf\xe0\xa4\xb8\xe0\xa5\x8d\xe0\xa4\xb8\xe0\xa5\x87\xe0\xa4\xa6\xe0\xa4\xbe\xe0\xa4\xb0\xe0\xa5\x80'
p3631
sS'af'
p3632
S'\xe0\xa4\xb9\xe0\xa4\xbf\xe0\xa4\xb8\xe0\xa5\x8d\xe0\xa4\xb8\xe0\xa5\x87\xe0\xa4\xa6\xe0\xa4\xbe\xe0\xa4\xb0\xe0\xa5\x80,n,f,sg,3,d,0,0'
p3633
ssbsg1326
I00
sba(issf_api
Word
p3634
(dp3635
g1560
I00
sg1561
V\u0916\u0930\u0940\u0926\u0928\u0947
p3636
sg1563
(issf_api
FeatureSet
p3637
(dp3638
g232
(dp3639
S'posn'
p3640
S'220'
p3641
sS'name'
p3642
S'\xe0\xa4\x96\xe0\xa4\xb0\xe0\xa5\x80\xe0\xa4\xa6\xe0\xa4\xa8\xe0\xa5\x87'
p3643
sS'af'
p3644
S'\xe0\xa4\x96\xe0\xa4\xb0\xe0\xa5\x80\xe0\xa4\xa6,v,any,any,any,o,\xe0\xa4\xa8\xe0\xa4\xbe_\xe0\xa4\x95\xe0\xa5\x87_\xe0\xa4\xb2\xe0\xa4\xbf\xe0\xa4\x8f,nA'
p3645
sS'chunkid'
p3646
S'VGNN'
p3647
sS'drel'
p3648
S'rt:\xe0\xa4\x9c\xe0\xa4\xa4\xe0\xa4\xbe\xe0\xa4\x88'
p3649
sS'vpos'
p3650
S'tam_2_3'
p3651
sS'chunktype'
p3652
S'head:VGNN'
p3653
ssbsg1304
I00
sg1307
I00
sg1318
Nsg1305
Nsg171
I11
sg158
I3
sg1579
Nsg1316
Nsg1580
S'VM'
p3654
sg229
(issf_api
FeatureSet
p3655
(dp3656
g232
(dp3657
S'posn'
p3658
S'220'
p3659
sS'name'
p3660
S'\xe0\xa4\x96\xe0\xa4\xb0\xe0\xa5\x80\xe0\xa4\xa6\xe0\xa4\xa8\xe0\xa5\x87'
p3661
sS'af'
p3662
S'\xe0\xa4\x96\xe0\xa4\xb0\xe0\xa5\x80\xe0\xa4\xa6,v,any,any,any,o,\xe0\xa4\xa8\xe0\xa4\xbe,nA'
p3663
ssbsg1326
I00
sba(issf_api
Word
p3664
(dp3665
g1560
I00
sg1561
V\u0915\u0947
p3666
sg1563
(issf_api
FeatureSet
p3667
(dp3668
g232
(dp3669
S'posn'
p3670
S'230'
p3671
sS'name'
p3672
S'\xe0\xa4\x95\xe0\xa5\x872'
p3673
sS'drel'
p3674
S'lwg__psp:\xe0\xa4\x96\xe0\xa4\xb0\xe0\xa5\x80\xe0\xa4\xa6\xe0\xa4\xa8\xe0\xa5\x87'
p3675
sS'chunktype'
p3676
S'child:VGNN'
p3677
sS'af'
p3678
S'\xe0\xa4\x95\xe0\xa5\x87,psp,,,,,,'
p3679
ssbsg1304
I00
sg1307
I00
sg1318
Nsg1305
Nsg171
I11
sg158
I3
sg1579
Nsg1316
Nsg1580
S'PSP'
p3680
sg229
(issf_api
FeatureSet
p3681
(dp3682
g232
(dp3683
S'posn'
p3684
S'230'
p3685
sS'name'
p3686
S'\xe0\xa4\x95\xe0\xa5\x872'
p3687
sS'af'
p3688
S'\xe0\xa4\x95\xe0\xa5\x87,psp,,,,,,'
p3689
ssbsg1326
I00
sba(issf_api
Word
p3690
(dp3691
g1560
I00
sg1561
V\u0932\u093f\u090f
p3692
sg1563
(issf_api
FeatureSet
p3693
(dp3694
g232
(dp3695
S'posn'
p3696
S'240'
p3697
sS'name'
p3698
S'\xe0\xa4\xb2\xe0\xa4\xbf\xe0\xa4\x8f'
p3699
sS'drel'
p3700
S'lwg__psp:\xe0\xa4\x96\xe0\xa4\xb0\xe0\xa5\x80\xe0\xa4\xa6\xe0\xa4\xa8\xe0\xa5\x87'
p3701
sS'chunktype'
p3702
S'child:VGNN'
p3703
sS'af'
p3704
S'\xe0\xa4\xb2\xe0\xa4\xbf\xe0\xa4\x8f,psp,,,,,,'
p3705
ssbsg1304
I00
sg1307
I00
sg1318
Nsg1305
Nsg171
I11
sg158
I3
sg1579
Nsg1316
Nsg1580
S'PSP'
p3706
sg229
(issf_api
FeatureSet
p3707
(dp3708
g232
(dp3709
S'posn'
p3710
S'240'
p3711
sS'name'
p3712
S'\xe0\xa4\xb2\xe0\xa4\xbf\xe0\xa4\x8f'
p3713
sS'af'
p3714
S'\xe0\xa4\xb2\xe0\xa4\xbf\xe0\xa4\x8f,psp,,,,,,'
p3715
ssbsg1326
I00
sba(issf_api
Word
p3716
(dp3717
g1560
I00
sg1561
V\u0938\u093f\u0924\u0902\u092c\u0930
p3718
sg1563
(issf_api
FeatureSet
p3719
(dp3720
g232
(dp3721
S'posn'
p3722
S'250'
p3723
sS'name'
p3724
S'\xe0\xa4\xb8\xe0\xa4\xbf\xe0\xa4\xa4\xe0\xa4\x82\xe0\xa4\xac\xe0\xa4\xb0'
p3725
sS'drel'
p3726
S'nmod__adj:\xe0\xa5\xa8\xe0\xa5\xa6\xe0\xa5\xa6\xe0\xa5\xa9'
p3727
sS'chunktype'
p3728
S'child:NP9'
p3729
sS'af'
p3730
S'\xe0\xa4\xb8\xe0\xa4\xbf\xe0\xa4\xa4\xe0\xa4\x82\xe0\xa4\xac\xe0\xa4\xb0,n,m,sg,3,d,0,0'
p3731
ssbsg1304
I00
sg1307
I00
sg1318
Nsg1305
Nsg171
I12
sg158
I3
sg1579
Nsg1316
Nsg1580
S'NNP'
p3732
sg229
(issf_api
FeatureSet
p3733
(dp3734
g232
(dp3735
S'posn'
p3736
S'250'
p3737
sS'name'
p3738
S'\xe0\xa4\xb8\xe0\xa4\xbf\xe0\xa4\xa4\xe0\xa4\x82\xe0\xa4\xac\xe0\xa4\xb0'
p3739
sS'af'
p3740
S'\xe0\xa4\xb8\xe0\xa4\xbf\xe0\xa4\xa4\xe0\xa4\x82\xe0\xa4\xac\xe0\xa4\xb0,n,m,sg,3,d,0,0'
p3741
ssbsg1326
I00
sba(issf_api
Word
p3742
(dp3743
g1560
I00
sg1561
V,
sg1563
(issf_api
FeatureSet
p3744
(dp3745
g232
(dp3746
S'posn'
p3747
S'260'
p3748
sS'name'
p3749
S','
sS'drel'
p3750
S'rsym:\xe0\xa5\xa8\xe0\xa5\xa6\xe0\xa5\xa6\xe0\xa5\xa9'
p3751
sS'chunktype'
p3752
S'child:NP9'
p3753
sS'af'
p3754
S'COMMA,punc,,,,,,'
p3755
ssbsg1304
I00
sg1307
I00
sg1318
Nsg1305
Nsg171
I12
sg158
I3
sg1579
Nsg1316
Nsg1580
S'SYM'
p3756
sg229
(issf_api
FeatureSet
p3757
(dp3758
g232
(dp3759
S'posn'
p3760
S'260'
p3761
sS'name'
p3762
S','
sS'af'
p3763
S'COMMA,punc,,,,,,'
p3764
ssbsg1326
I00
sba(issf_api
Word
p3765
(dp3766
g1560
I00
sg1561
V\u0968\u0966\u0966\u0969
p3767
sg1563
(issf_api
FeatureSet
p3768
(dp3769
g232
(dp3770
S'posn'
p3771
S'270'
p3772
sS'name'
p3773
S'\xe0\xa5\xa8\xe0\xa5\xa6\xe0\xa5\xa6\xe0\xa5\xa9'
p3774
sS'af'
p3775
S'\xe0\xa5\xa8\xe0\xa5\xa6\xe0\xa5\xa6\xe0\xa5\xa9,n,any,sg,3,o,0_\xe0\xa4\xae\xe0\xa5\x87\xe0\xa4\x82,0'
p3776
sS'chunkid'
p3777
S'NP9'
p3778
sS'drel'
p3779
S'k7t:\xe0\xa4\x9c\xe0\xa4\xa4\xe0\xa4\xbe\xe0\xa4\x88'
p3780
sS'vpos'
p3781
S'vib_vib_4'
p3782
sS'chunktype'
p3783
S'head:NP9'
p3784
ssbsg1304
I00
sg1307
I00
sg1318
Nsg1305
Nsg171
I12
sg158
I3
sg1579
Nsg1316
Nsg1580
S'NNP'
p3785
sg229
(issf_api
FeatureSet
p3786
(dp3787
g232
(dp3788
S'posn'
p3789
S'270'
p3790
sS'name'
p3791
S'\xe0\xa5\xa8\xe0\xa5\xa6\xe0\xa5\xa6\xe0\xa5\xa9'
p3792
sS'af'
p3793
S'\xe0\xa5\xa8\xe0\xa5\xa6\xe0\xa5\xa6\xe0\xa5\xa9,n,any,sg,3,o,0,0'
p3794
ssbsg1326
I00
sba(issf_api
Word
p3795
(dp3796
g1560
I00
sg1561
V\u092e\u0947\u0902
p3797
sg1563
(issf_api
FeatureSet
p3798
(dp3799
g232
(dp3800
S'posn'
p3801
S'280'
p3802
sS'name'
p3803
S'\xe0\xa4\xae\xe0\xa5\x87\xe0\xa4\x822'
p3804
sS'drel'
p3805
S'lwg__psp:\xe0\xa5\xa8\xe0\xa5\xa6\xe0\xa5\xa6\xe0\xa5\xa9'
p3806
sS'chunktype'
p3807
S'child:NP9'
p3808
sS'af'
p3809
S'\xe0\xa4\xae\xe0\xa5\x87\xe0\xa4\x82,psp,,,,,,'
p3810
ssbsg1304
I00
sg1307
I00
sg1318
Nsg1305
Nsg171
I12
sg158
I3
sg1579
Nsg1316
Nsg1580
S'PSP'
p3811
sg229
(issf_api
FeatureSet
p3812
(dp3813
g232
(dp3814
S'posn'
p3815
S'280'
p3816
sS'name'
p3817
S'\xe0\xa4\xae\xe0\xa5\x87\xe0\xa4\x822'
p3818
sS'af'
p3819
S'\xe0\xa4\xae\xe0\xa5\x87\xe0\xa4\x82,psp,,,,,,'
p3820
ssbsg1326
I00
sba(issf_api
Word
p3821
(dp3822
g1560
I00
sg1561
V\u0905\u092a\u0928\u0940
p3823
sg1563
(issf_api
FeatureSet
p3824
(dp3825
g232
(dp3826
S'posn'
p3827
S'290'
p3828
sS'name'
p3829
S'\xe0\xa4\x85\xe0\xa4\xaa\xe0\xa4\xa8\xe0\xa5\x80'
p3830
sS'af'
p3831
S'\xe0\xa4\x85\xe0\xa4\xaa\xe0\xa4\xa8\xe0\xa4\xbe,pn,f,any,any,d,0,0'
p3832
sS'chunkid'
p3833
S'NP10'
p3834
sS'drel'
p3835
S'r6:\xe0\xa4\x87\xe0\xa4\x9a\xe0\xa5\x8d\xe0\xa4\x9b\xe0\xa4\xbe'
p3836
sS'chunktype'
p3837
S'head:NP10'
p3838
ssbsg1304
I00
sg1307
I00
sg1318
Nsg1305
Nsg171
I13
sg158
I3
sg1579
Nsg1316
Nsg1580
S'PRP'
p3839
sg229
(issf_api
FeatureSet
p3840
(dp3841
g232
(dp3842
S'posn'
p3843
S'290'
p3844
sS'name'
p3845
S'\xe0\xa4\x85\xe0\xa4\xaa\xe0\xa4\xa8\xe0\xa5\x80'
p3846
sS'af'
p3847
S'\xe0\xa4\x85\xe0\xa4\xaa\xe0\xa4\xa8\xe0\xa4\xbe,pn,f,any,any,d,0,0'
p3848
ssbsg1326
I00
sba(issf_api
Word
p3849
(dp3850
g1560
I00
sg1561
V\u0907\u091a\u094d\u091b\u093e
p3851
sg1563
(issf_api
FeatureSet
p3852
(dp3853
g232
(dp3854
S'posn'
p3855
S'300'
p3856
sS'name'
p3857
S'\xe0\xa4\x87\xe0\xa4\x9a\xe0\xa5\x8d\xe0\xa4\x9b\xe0\xa4\xbe'
p3858
sS'af'
p3859
S'\xe0\xa4\x87\xe0\xa4\x9a\xe0\xa5\x8d\xe0\xa4\x9b\xe0\xa4\xbe,n,f,sg,3,d,0,0'
p3860
sS'chunkid'
p3861
S'NP11'
p3862
sS'drel'
p3863
S'k2:\xe0\xa4\x9c\xe0\xa4\xa4\xe0\xa4\xbe\xe0\xa4\x88'
p3864
sS'chunktype'
p3865
S'head:NP11'
p3866
ssbsg1304
I00
sg1307
I00
sg1318
Nsg1305
Nsg171
I14
sg158
I3
sg1579
Nsg1316
Nsg1580
S'NN'
p3867
sg229
(issf_api
FeatureSet
p3868
(dp3869
g232
(dp3870
S'posn'
p3871
S'300'
p3872
sS'name'
p3873
S'\xe0\xa4\x87\xe0\xa4\x9a\xe0\xa5\x8d\xe0\xa4\x9b\xe0\xa4\xbe'
p3874
sS'af'
p3875
S'\xe0\xa4\x87\xe0\xa4\x9a\xe0\xa5\x8d\xe0\xa4\x9b\xe0\xa4\xbe,n,f,sg,3,d,0,0'
p3876
ssbsg1326
I00
sba(issf_api
Word
p3877
(dp3878
g1560
I00
sg1561
V\u091c\u0924\u093e\u0908
p3879
sg1563
(issf_api
FeatureSet
p3880
(dp3881
g232
(dp3882
S'posn'
p3883
S'310'
p3884
sS'name'
p3885
S'\xe0\xa4\x9c\xe0\xa4\xa4\xe0\xa4\xbe\xe0\xa4\x88'
p3886
sS'af'
p3887
S'\xe0\xa4\x9c\xe0\xa4\xa4\xe0\xa4\xbe,v,f,sg,any,,\xe0\xa4\xaf\xe0\xa4\xbe_\xe0\xa4\xa5\xe0\xa4\xbe,yA'
p3888
sS'chunkid'
p3889
S'VGF2'
p3890
sS'stype'
p3891
S'declarative'
p3892
sS'drel'
p3893
S'ccof:\xe0\xa4\x95\xe0\xa4\xbf'
p3894
sS'voicetype'
p3895
S'active'
p3896
sS'vpos'
p3897
S'tam_2'
p3898
sS'chunktype'
p3899
S'head:VGF2'
p3900
ssbsg1304
I00
sg1307
I00
sg1318
Nsg1305
Nsg171
I15
sg158
I3
sg1579
Nsg1316
Nsg1580
S'VM'
p3901
sg229
(issf_api
FeatureSet
p3902
(dp3903
g232
(dp3904
S'posn'
p3905
S'310'
p3906
sS'name'
p3907
S'\xe0\xa4\x9c\xe0\xa4\xa4\xe0\xa4\xbe\xe0\xa4\x88'
p3908
sS'af'
p3909
S'\xe0\xa4\x9c\xe0\xa4\xa4\xe0\xa4\xbe,v,f,sg,any,,\xe0\xa4\xaf\xe0\xa4\xbe,yA'
p3910
ssbsg1326
I00
sba(issf_api
Word
p3911
(dp3912
g1560
I00
sg1561
V\u0925\u0940
p3913
sg1563
(issf_api
FeatureSet
p3914
(dp3915
g232
(dp3916
S'posn'
p3917
S'320'
p3918
sS'name'
p3919
S'\xe0\xa4\xa5\xe0\xa5\x80'
p3920
sS'drel'
p3921
S'lwg__vaux:\xe0\xa4\x9c\xe0\xa4\xa4\xe0\xa4\xbe\xe0\xa4\x88'
p3922
sS'chunktype'
p3923
S'child:VGF2'
p3924
sS'af'
p3925
S'\xe0\xa4\xa5\xe0\xa4\xbe,v,f,sg,any,,\xe0\xa4\xa5\xe0\xa4\xbe,WA'
p3926
ssbsg1304
I00
sg1307
I00
sg1318
Nsg1305
Nsg171
I15
sg158
I3
sg1579
Nsg1316
Nsg1580
S'VAUX'
p3927
sg229
(issf_api
FeatureSet
p3928
(dp3929
g232
(dp3930
S'posn'
p3931
S'320'
p3932
sS'name'
p3933
S'\xe0\xa4\xa5\xe0\xa5\x80'
p3934
sS'af'
p3935
S'\xe0\xa4\xa5\xe0\xa4\xbe,v,f,sg,any,,\xe0\xa4\xa5\xe0\xa4\xbe,WA'
p3936
ssbsg1326
I00
sba(issf_api
Word
p3937
(dp3938
g1560
I00
sg1561
V\u0964
sg1563
(issf_api
FeatureSet
p3939
(dp3940
g232
(dp3941
S'posn'
p3942
S'330'
p3943
sS'name'
p3944
S'\xe0\xa5\xa4'
p3945
sS'af'
p3946
S'\xe0\xa5\xa4,punc,,,,,,'
p3947
sS'chunkid'
p3948
S'BLK'
p3949
sS'drel'
p3950
S'rsym:\xe0\xa4\x95\xe0\xa4\xb9\xe0\xa4\xbe'
p3951
sS'chunktype'
p3952
S'head:BLK'
p3953
ssbsg1304
I00
sg1307
I00
sg1318
Nsg1305
Nsg171
I16
sg158
I3
sg1579
Nsg1316
Nsg1580
S'SYM'
p3954
sg229
(issf_api
FeatureSet
p3955
(dp3956
g232
(dp3957
S'posn'
p3958
S'330'
p3959
sS'name'
p3960
S'\xe0\xa5\xa4'
p3961
sS'af'
p3962
S'\xe0\xa5\xa4,punc,,,,,,'
p3963
ssbsg1326
I00
sba(issf_api
Word
p3964
(dp3965
g1560
I00
sg1561
V\u090f\u092b\u0906\u0908\u092a\u0940\u092c\u0940
p3966
sg1563
(issf_api
FeatureSet
p3967
(dp3968
g232
(dp3969
S'posn'
p3970
S'10'
p3971
sS'name'
p3972
S'\xe0\xa4\x8f\xe0\xa4\xab\xe0\xa4\x86\xe0\xa4\x88\xe0\xa4\xaa\xe0\xa5\x80\xe0\xa4\xac\xe0\xa5\x80'
p3973
sS'af'
p3974
S'\xe0\xa4\x8f\xe0\xa4\xab\xe0\xa4\x86\xe0\xa4\x88\xe0\xa4\xaa\xe0\xa5\x80\xe0\xa4\xac\xe0\xa5\x80,n,m,sg,3,o,0,0'
p3975
sS'chunkid'
p3976
S'NP'
p3977
sS'drel'
p3978
S'ccof:\xe0\xa4\xb5'
p3979
sS'chunktype'
p3980
S'head:NP'
p3981
ssbsg1304
I00
sg1307
I00
sg1318
Nsg1305
Nsg171
I0
sg158
I4
sg1579
Nsg1316
Nsg1580
S'NNP'
p3982
sg229
(issf_api
FeatureSet
p3983
(dp3984
g232
(dp3985
S'posn'
p3986
S'10'
p3987
sS'name'
p3988
S'\xe0\xa4\x8f\xe0\xa4\xab\xe0\xa4\x86\xe0\xa4\x88\xe0\xa4\xaa\xe0\xa5\x80\xe0\xa4\xac\xe0\xa5\x80'
p3989
sS'af'
p3990
S'\xe0\xa4\x8f\xe0\xa4\xab\xe0\xa4\x86\xe0\xa4\x88\xe0\xa4\xaa\xe0\xa5\x80\xe0\xa4\xac\xe0\xa5\x80,n,m,sg,3,o,0,0'
p3991
ssbsg1326
I00
sba(issf_api
Word
p3992
(dp3993
g1560
I00
sg1561
V\u0935
sg1563
(issf_api
FeatureSet
p3994
(dp3995
g232
(dp3996
S'posn'
p3997
S'20'
p3998
sS'name'
p3999
S'\xe0\xa4\xb5'
p4000
sS'af'
p4001
S'\xe0\xa4\xb5,avy,,,,,,'
p4002
sS'chunkid'
p4003
S'CCP'
p4004
sS'drel'
p4005
S'vmod:\xe0\xa4\x95\xe0\xa4\xbf\xe0\xa4\x8f'
p4006
sS'chunktype'
p4007
S'head:CCP'
p4008
ssbsg1304
I00
sg1307
I00
sg1318
Nsg1305
Nsg171
I1
sg158
I4
sg1579
Nsg1316
Nsg1580
S'CC'
p4009
sg229
(issf_api
FeatureSet
p4010
(dp4011
g232
(dp4012
S'posn'
p4013
S'20'
p4014
sS'name'
p4015
S'\xe0\xa4\xb5'
p4016
sS'af'
p4017
S'\xe0\xa4\xb5,avy,,,,,,'
p4018
ssbsg1326
I00
sba(issf_api
Word
p4019
(dp4020
g1560
I00
sg1561
V\u0930\u093f\u091c\u0930\u094d\u0935
p4021
sg1563
(issf_api
FeatureSet
p4022
(dp4023
g232
(dp4024
S'posn'
p4025
S'30'
p4026
sS'name'
p4027
S'\xe0\xa4\xb0\xe0\xa4\xbf\xe0\xa4\x9c\xe0\xa4\xb0\xe0\xa5\x8d\xe0\xa4\xb5'
p4028
sS'drel'
p4029
S'pof__cn:\xe0\xa4\xac\xe0\xa5\x88\xe0\xa4\x82\xe0\xa4\x95'
p4030
sS'chunktype'
p4031
S'child:NP2'
p4032
sS'af'
p4033
S'\xe0\xa4\xb0\xe0\xa4\xbf\xe0\xa4\x9c\xe0\xa4\xb0\xe0\xa5\x8d\xe0\xa4\xb5,n,m,sg,3,d,0,0'
p4034
ssbsg1304
I00
sg1307
I00
sg1318
Nsg1305
Nsg171
I2
sg158
I4
sg1579
Nsg1316
Nsg1580
S'NNPC'
p4035
sg229
(issf_api
FeatureSet
p4036
(dp4037
g232
(dp4038
S'posn'
p4039
S'30'
p4040
sS'name'
p4041
S'\xe0\xa4\xb0\xe0\xa4\xbf\xe0\xa4\x9c\xe0\xa4\xb0\xe0\xa5\x8d\xe0\xa4\xb5'
p4042
sS'af'
p4043
S'\xe0\xa4\xb0\xe0\xa4\xbf\xe0\xa4\x9c\xe0\xa4\xb0\xe0\xa5\x8d\xe0\xa4\xb5,n,m,sg,3,d,0,0'
p4044
ssbsg1326
I00
sba(issf_api
Word
p4045
(dp4046
g1560
I00
sg1561
V\u092c\u0948\u0902\u0915
p4047
sg1563
(issf_api
FeatureSet
p4048
(dp4049
g232
(dp4050
S'posn'
p4051
S'40'
p4052
sS'name'
p4053
S'\xe0\xa4\xac\xe0\xa5\x88\xe0\xa4\x82\xe0\xa4\x95'
p4054
sS'af'
p4055
S'\xe0\xa4\xac\xe0\xa5\x88\xe0\xa4\x82\xe0\xa4\x95,n,m,sg,3,o,0_\xe0\xa4\xb8\xe0\xa4\xae\xe0\xa5\x87\xe0\xa4\xa4,0'
p4056
sS'chunkid'
p4057
S'NP2'
p4058
sS'drel'
p4059
S'ccof:\xe0\xa4\xb5'
p4060
sS'vpos'
p4061
S'vib_3'
p4062
sS'chunktype'
p4063
S'head:NP2'
p4064
ssbsg1304
I00
sg1307
I00
sg1318
Nsg1305
Nsg171
I2
sg158
I4
sg1579
Nsg1316
Nsg1580
S'NNP'
p4065
sg229
(issf_api
FeatureSet
p4066
(dp4067
g232
(dp4068
S'posn'
p4069
S'40'
p4070
sS'name'
p4071
S'\xe0\xa4\xac\xe0\xa5\x88\xe0\xa4\x82\xe0\xa4\x95'
p4072
sS'af'
p4073
S'\xe0\xa4\xac\xe0\xa5\x88\xe0\xa4\x82\xe0\xa4\x95,n,m,sg,3,o,0,0'
p4074
ssbsg1326
I00
sba(issf_api
Word
p4075
(dp4076
g1560
I00
sg1561
V\u0938\u092e\u0947\u0924
p4077
sg1563
(issf_api
FeatureSet
p4078
(dp4079
g232
(dp4080
S'posn'
p4081
S'50'
p4082
sS'name'
p4083
S'\xe0\xa4\xb8\xe0\xa4\xae\xe0\xa5\x87\xe0\xa4\xa4'
p4084
sS'drel'
p4085
S'lwg__psp:\xe0\xa4\xac\xe0\xa5\x88\xe0\xa4\x82\xe0\xa4\x95'
p4086
sS'chunktype'
p4087
S'child:NP2'
p4088
sS'af'
p4089
S'\xe0\xa4\xb8\xe0\xa4\xae\xe0\xa5\x87\xe0\xa4\xa4,psp,,,,,,'
p4090
ssbsg1304
I00
sg1307
I00
sg1318
Nsg1305
Nsg171
I2
sg158
I4
sg1579
Nsg1316
Nsg1580
S'PSP'
p4091
sg229
(issf_api
FeatureSet
p4092
(dp4093
g232
(dp4094
S'posn'
p4095
S'50'
p4096
sS'name'
p4097
S'\xe0\xa4\xb8\xe0\xa4\xae\xe0\xa5\x87\xe0\xa4\xa4'
p4098
sS'af'
p4099
S'\xe0\xa4\xb8\xe0\xa4\xae\xe0\xa5\x87\xe0\xa4\xa4,psp,,,,,,'
p4100
ssbsg1326
I00
sba(issf_api
Word
p4101
(dp4102
g1560
I00
sg1561
V\u0938\u092d\u0940
p4103
sg1563
(issf_api
FeatureSet
p4104
(dp4105
g232
(dp4106
S'posn'
p4107
S'60'
p4108
sS'name'
p4109
S'\xe0\xa4\xb8\xe0\xa4\xad\xe0\xa5\x80'
p4110
sS'drel'
p4111
S'nmod__adj:\xe0\xa4\xae\xe0\xa4\x82\xe0\xa4\x9c\xe0\xa5\x82\xe0\xa4\xb0\xe0\xa5\x80'
p4112
sS'chunktype'
p4113
S'child:NP3'
p4114
sS'af'
p4115
S'\xe0\xa4\xb8\xe0\xa4\xad\xe0\xa5\x80,avy,,,,,,'
p4116
ssbsg1304
I00
sg1307
I00
sg1318
Nsg1305
Nsg171
I3
sg158
I4
sg1579
Nsg1316
Nsg1580
S'QF'
p4117
sg229
(issf_api
FeatureSet
p4118
(dp4119
g232
(dp4120
S'posn'
p4121
S'60'
p4122
sS'name'
p4123
S'\xe0\xa4\xb8\xe0\xa4\xad\xe0\xa5\x80'
p4124
sS'af'
p4125
S'\xe0\xa4\xb8\xe0\xa4\xad\xe0\xa5\x80,avy,,,,,,'
p4126
ssbsg1326
I00
sba(issf_api
Word
p4127
(dp4128
g1560
I00
sg1561
V\u0906\u0935\u0936\u094d\u092f\u0915
p4129
sg1563
(issf_api
FeatureSet
p4130
(dp4131
g232
(dp4132
S'posn'
p4133
S'70'
p4134
sS'name'
p4135
S'\xe0\xa4\x86\xe0\xa4\xb5\xe0\xa4\xb6\xe0\xa5\x8d\xe0\xa4\xaf\xe0\xa4\x95'
p4136
sS'drel'
p4137
S'nmod__adj:\xe0\xa4\xae\xe0\xa4\x82\xe0\xa4\x9c\xe0\xa5\x82\xe0\xa4\xb0\xe0\xa5\x80'
p4138
sS'chunktype'
p4139
S'child:NP3'
p4140
sS'af'
p4141
S'\xe0\xa4\x86\xe0\xa4\xb5\xe0\xa4\xb6\xe0\xa5\x8d\xe0\xa4\xaf\xe0\xa4\x95,adj,any,any,,o,,'
p4142
ssbsg1304
I00
sg1307
I00
sg1318
Nsg1305
Nsg171
I3
sg158
I4
sg1579
Nsg1316
Nsg1580
S'JJ'
p4143
sg229
(issf_api
FeatureSet
p4144
(dp4145
g232
(dp4146
S'posn'
p4147
S'70'
p4148
sS'name'
p4149
S'\xe0\xa4\x86\xe0\xa4\xb5\xe0\xa4\xb6\xe0\xa5\x8d\xe0\xa4\xaf\xe0\xa4\x95'
p4150
sS'af'
p4151
S'\xe0\xa4\x86\xe0\xa4\xb5\xe0\xa4\xb6\xe0\xa5\x8d\xe0\xa4\xaf\xe0\xa4\x95,adj,any,any,,o,,'
p4152
ssbsg1326
I00
sba(issf_api
Word
p4153
(dp4154
g1560
I00
sg1561
V\u0914\u092a\u091a\u093e\u0930\u093f\u0915
p4155
sg1563
(issf_api
FeatureSet
p4156
(dp4157
g232
(dp4158
S'posn'
p4159
S'80'
p4160
sS'name'
p4161
S'\xe0\xa4\x94\xe0\xa4\xaa\xe0\xa4\x9a\xe0\xa4\xbe\xe0\xa4\xb0\xe0\xa4\xbf\xe0\xa4\x95'
p4162
sS'drel'
p4163
S'nmod__adj:\xe0\xa4\xae\xe0\xa4\x82\xe0\xa4\x9c\xe0\xa5\x82\xe0\xa4\xb0\xe0\xa5\x80'
p4164
sS'chunktype'
p4165
S'child:NP3'
p4166
sS'af'
p4167
S'\xe0\xa4\x94\xe0\xa4\xaa\xe0\xa4\x9a\xe0\xa4\xbe\xe0\xa4\xb0\xe0\xa4\xbf\xe0\xa4\x95,adj,any,any,,o,,'
p4168
ssbsg1304
I00
sg1307
I00
sg1318
Nsg1305
Nsg171
I3
sg158
I4
sg1579
Nsg1316
Nsg1580
S'JJ'
p4169
sg229
(issf_api
FeatureSet
p4170
(dp4171
g232
(dp4172
S'posn'
p4173
S'80'
p4174
sS'name'
p4175
S'\xe0\xa4\x94\xe0\xa4\xaa\xe0\xa4\x9a\xe0\xa4\xbe\xe0\xa4\xb0\xe0\xa4\xbf\xe0\xa4\x95'
p4176
sS'af'
p4177
S'\xe0\xa4\x94\xe0\xa4\xaa\xe0\xa4\x9a\xe0\xa4\xbe\xe0\xa4\xb0\xe0\xa4\xbf\xe0\xa4\x95,adj,any,any,,o,,'
p4178
ssbsg1326
I00
sba(issf_api
Word
p4179
(dp4180
g1560
I00
sg1561
V\u092e\u0902\u091c\u0942\u0930\u0940
p4181
sg1563
(issf_api
FeatureSet
p4182
(dp4183
g232
(dp4184
S'posn'
p4185
S'90'
p4186
sS'name'
p4187
S'\xe0\xa4\xae\xe0\xa4\x82\xe0\xa4\x9c\xe0\xa5\x82\xe0\xa4\xb0\xe0\xa5\x80'
p4188
sS'af'
p4189
S'\xe0\xa4\xae\xe0\xa4\x82\xe0\xa4\x9c\xe0\xa5\x82\xe0\xa4\xb0\xe0\xa5\x80,n,f,sg,3,o,0_\xe0\xa4\x95\xe0\xa5\x87_\xe0\xa4\xac\xe0\xa4\xbe\xe0\xa4\xa6,0'
p4190
sS'chunkid'
p4191
S'NP3'
p4192
sS'drel'
p4193
S'k7t:\xe0\xa4\x95\xe0\xa4\xbf\xe0\xa4\x8f'
p4194
sS'vpos'
p4195
S'vib_5_6'
p4196
sS'chunktype'
p4197
S'head:NP3'
p4198
ssbsg1304
I00
sg1307
I00
sg1318
Nsg1305
Nsg171
I3
sg158
I4
sg1579
Nsg1316
Nsg1580
S'NN'
p4199
sg229
(issf_api
FeatureSet
p4200
(dp4201
g232
(dp4202
S'posn'
p4203
S'90'
p4204
sS'name'
p4205
S'\xe0\xa4\xae\xe0\xa4\x82\xe0\xa4\x9c\xe0\xa5\x82\xe0\xa4\xb0\xe0\xa5\x80'
p4206
sS'af'
p4207
S'\xe0\xa4\xae\xe0\xa4\x82\xe0\xa4\x9c\xe0\xa5\x82\xe0\xa4\xb0\xe0\xa5\x80,n,f,sg,3,o,0,0'
p4208
ssbsg1326
I00
sba(issf_api
Word
p4209
(dp4210
g1560
I00
sg1561
V\u0915\u0947
p4211
sg1563
(issf_api
FeatureSet
p4212
(dp4213
g232
(dp4214
S'posn'
p4215
S'100'
p4216
sS'name'
p4217
S'\xe0\xa4\x95\xe0\xa5\x87'
p4218
sS'drel'
p4219
S'lwg__psp:\xe0\xa4\xae\xe0\xa4\x82\xe0\xa4\x9c\xe0\xa5\x82\xe0\xa4\xb0\xe0\xa5\x80'
p4220
sS'chunktype'
p4221
S'child:NP3'
p4222
sS'af'
p4223
S'\xe0\xa4\x95\xe0\xa5\x87,psp,,,,,,'
p4224
ssbsg1304
I00
sg1307
I00
sg1318
Nsg1305
Nsg171
I3
sg158
I4
sg1579
Nsg1316
Nsg1580
S'PSP'
p4225
sg229
(issf_api
FeatureSet
p4226
(dp4227
g232
(dp4228
S'posn'
p4229
S'100'
p4230
sS'name'
p4231
S'\xe0\xa4\x95\xe0\xa5\x87'
p4232
sS'af'
p4233
S'\xe0\xa4\x95\xe0\xa5\x87,psp,,,,,,'
p4234
ssbsg1326
I00
sba(issf_api
Word
p4235
(dp4236
g1560
I00
sg1561
V\u092c\u093e\u0926
p4237
sg1563
(issf_api
FeatureSet
p4238
(dp4239
g232
(dp4240
S'posn'
p4241
S'110'
p4242
sS'name'
p4243
S'\xe0\xa4\xac\xe0\xa4\xbe\xe0\xa4\xa6'
p4244
sS'drel'
p4245
S'lwg__psp:\xe0\xa4\xae\xe0\xa4\x82\xe0\xa4\x9c\xe0\xa5\x82\xe0\xa4\xb0\xe0\xa5\x80'
p4246
sS'chunktype'
p4247
S'child:NP3'
p4248
sS'af'
p4249
S'\xe0\xa4\xac\xe0\xa4\xbe\xe0\xa4\xa6,nst,m,sg,3,d,,'
p4250
ssbsg1304
I00
sg1307
I00
sg1318
Nsg1305
Nsg171
I3
sg158
I4
sg1579
Nsg1316
Nsg1580
S'NST'
p4251
sg229
(issf_api
FeatureSet
p4252
(dp4253
g232
(dp4254
S'posn'
p4255
S'110'
p4256
sS'name'
p4257
S'\xe0\xa4\xac\xe0\xa4\xbe\xe0\xa4\xa6'
p4258
sS'af'
p4259
S'\xe0\xa4\xac\xe0\xa4\xbe\xe0\xa4\xa6,nst,m,sg,3,d,,'
p4260
ssbsg1326
I00
sba(issf_api
Word
p4261
(dp4262
g1560
I00
sg1561
V\u0938\u092e\u091d\u094c\u0924\u0947
p4263
sg1563
(issf_api
FeatureSet
p4264
(dp4265
g232
(dp4266
S'posn'
p4267
S'120'
p4268
sS'name'
p4269
S'\xe0\xa4\xb8\xe0\xa4\xae\xe0\xa4\x9d\xe0\xa5\x8c\xe0\xa4\xa4\xe0\xa5\x87'
p4270
sS'af'
p4271
S'\xe0\xa4\xb8\xe0\xa4\xae\xe0\xa4\x9d\xe0\xa5\x8c\xe0\xa4\xa4\xe0\xa4\xbe,n,m,sg,3,o,0_\xe0\xa4\xaa\xe0\xa4\xb0,0'
p4272
sS'chunkid'
p4273
S'NP4'
p4274
sS'drel'
p4275
S'k7:\xe0\xa4\x95\xe0\xa4\xbf\xe0\xa4\x8f'
p4276
sS'vpos'
p4277
S'vib_2'
p4278
sS'chunktype'
p4279
S'head:NP4'
p4280
ssbsg1304
I00
sg1307
I00
sg1318
Nsg1305
Nsg171
I4
sg158
I4
sg1579
Nsg1316
Nsg1580
S'NN'
p4281
sg229
(issf_api
FeatureSet
p4282
(dp4283
g232
(dp4284
S'posn'
p4285
S'120'
p4286
sS'name'
p4287
S'\xe0\xa4\xb8\xe0\xa4\xae\xe0\xa4\x9d\xe0\xa5\x8c\xe0\xa4\xa4\xe0\xa5\x87'
p4288
sS'af'
p4289
S'\xe0\xa4\xb8\xe0\xa4\xae\xe0\xa4\x9d\xe0\xa5\x8c\xe0\xa4\xa4\xe0\xa4\xbe,n,m,sg,3,o,0,0'
p4290
ssbsg1326
I00
sba(issf_api
Word
p4291
(dp4292
g1560
I00
sg1561
V\u092a\u0930
p4293
sg1563
(issf_api
FeatureSet
p4294
(dp4295
g232
(dp4296
S'posn'
p4297
S'130'
p4298
sS'name'
p4299
S'\xe0\xa4\xaa\xe0\xa4\xb0'
p4300
sS'drel'
p4301
S'lwg__psp:\xe0\xa4\xb8\xe0\xa4\xae\xe0\xa4\x9d\xe0\xa5\x8c\xe0\xa4\xa4\xe0\xa5\x87'
p4302
sS'chunktype'
p4303
S'child:NP4'
p4304
sS'af'
p4305
S'\xe0\xa4\xaa\xe0\xa4\xb0,psp,,,,,,'
p4306
ssbsg1304
I00
sg1307
I00
sg1318
Nsg1305
Nsg171
I4
sg158
I4
sg1579
Nsg1316
Nsg1580
S'PSP'
p4307
sg229
(issf_api
FeatureSet
p4308
(dp4309
g232
(dp4310
S'posn'
p4311
S'130'
p4312
sS'name'
p4313
S'\xe0\xa4\xaa\xe0\xa4\xb0'
p4314
sS'af'
p4315
S'\xe0\xa4\xaa\xe0\xa4\xb0,psp,,,,,,'
p4316
ssbsg1326
I00
sba(issf_api
Word
p4317
(dp4318
g1560
I00
sg1561
V\u0939\u0938\u094d\u0924\u093e\u0915\u094d\u0937\u0930
p4319
sg1563
(issf_api
FeatureSet
p4320
(dp4321
g232
(dp4322
S'posn'
p4323
S'140'
p4324
sS'name'
p4325
S'\xe0\xa4\xb9\xe0\xa4\xb8\xe0\xa5\x8d\xe0\xa4\xa4\xe0\xa4\xbe\xe0\xa4\x95\xe0\xa5\x8d\xe0\xa4\xb7\xe0\xa4\xb0'
p4326
sS'af'
p4327
S'\xe0\xa4\xb9\xe0\xa4\xb8\xe0\xa5\x8d\xe0\xa4\xa4\xe0\xa4\xbe\xe0\xa4\x95\xe0\xa5\x8d\xe0\xa4\xb7\xe0\xa4\xb0,n,m,pl,3,d,0,0'
p4328
sS'chunkid'
p4329
S'NP5'
p4330
sS'drel'
p4331
S'pof:\xe0\xa4\x95\xe0\xa4\xbf\xe0\xa4\x8f'
p4332
sS'chunktype'
p4333
S'head:NP5'
p4334
ssbsg1304
I00
sg1307
I00
sg1318
Nsg1305
Nsg171
I5
sg158
I4
sg1579
Nsg1316
Nsg1580
S'NN'
p4335
sg229
(issf_api
FeatureSet
p4336
(dp4337
g232
(dp4338
S'posn'
p4339
S'140'
p4340
sS'name'
p4341
S'\xe0\xa4\xb9\xe0\xa4\xb8\xe0\xa5\x8d\xe0\xa4\xa4\xe0\xa4\xbe\xe0\xa4\x95\xe0\xa5\x8d\xe0\xa4\xb7\xe0\xa4\xb0'
p4342
sS'af'
p4343
S'\xe0\xa4\xb9\xe0\xa4\xb8\xe0\xa5\x8d\xe0\xa4\xa4\xe0\xa4\xbe\xe0\xa4\x95\xe0\xa5\x8d\xe0\xa4\xb7\xe0\xa4\xb0,n,m,pl,3,d,0,0'
p4344
ssbsg1326
I00
sba(issf_api
Word
p4345
(dp4346
g1560
I00
sg1561
V\u0915\u093f\u090f
p4347
sg1563
(issf_api
FeatureSet
p4348
(dp4349
g232
(dp4350
S'posn'
p4351
S'150'
p4352
sS'name'
p4353
S'\xe0\xa4\x95\xe0\xa4\xbf\xe0\xa4\x8f'
p4354
sS'af'
p4355
S'\xe0\xa4\x95\xe0\xa4\xb0,v,m,pl,any,,\xe0\xa4\xaf\xe0\xa4\xbe_\xe0\xa4\x9c\xe0\xa4\xbe+\xe0\xa4\xaf\xe0\xa4\xbe\xe0\xa5\xa7,yA'
p4356
sS'chunkid'
p4357
S'VGF'
p4358
sS'chunktype'
p4359
S'head:VGF'
p4360
sS'voicetype'
p4361
S'passive'
p4362
sS'vpos'
p4363
S'tam_2'
p4364
sS'stype'
p4365
S'declarative'
p4366
ssbsg1304
I00
sg1307
I00
sg1318
Nsg1305
Nsg171
I6
sg158
I4
sg1579
Nsg1316
Nsg1580
S'VM'
p4367
sg229
(issf_api
FeatureSet
p4368
(dp4369
g232
(dp4370
S'posn'
p4371
S'150'
p4372
sS'name'
p4373
S'\xe0\xa4\x95\xe0\xa4\xbf\xe0\xa4\x8f'
p4374
sS'af'
p4375
S'\xe0\xa4\x95\xe0\xa4\xb0,v,m,pl,any,,\xe0\xa4\xaf\xe0\xa4\xbe,yA'
p4376
ssbsg1326
I00
sba(issf_api
Word
p4377
(dp4378
g1560
I00
sg1561
V\u0917\u090f
p4379
sg1563
(issf_api
FeatureSet
p4380
(dp4381
g232
(dp4382
S'posn'
p4383
S'160'
p4384
sS'name'
p4385
S'\xe0\xa4\x97\xe0\xa4\x8f'
p4386
sS'drel'
p4387
S'lwg__vaux:\xe0\xa4\x95\xe0\xa4\xbf\xe0\xa4\x8f'
p4388
sS'chunktype'
p4389
S'child:VGF'
p4390
sS'af'
p4391
S'\xe0\xa4\x9c\xe0\xa4\xbe,v,m,pl,any,,\xe0\xa4\xaf\xe0\xa4\xbe\xe0\xa5\xa7,yA1'
p4392
ssbsg1304
I00
sg1307
I00
sg1318
Nsg1305
Nsg171
I6
sg158
I4
sg1579
Nsg1316
Nsg1580
S'VAUX'
p4393
sg229
(issf_api
FeatureSet
p4394
(dp4395
g232
(dp4396
S'posn'
p4397
S'160'
p4398
sS'name'
p4399
S'\xe0\xa4\x97\xe0\xa4\x8f'
p4400
sS'af'
p4401
S'\xe0\xa4\x9c\xe0\xa4\xbe,v,m,pl,any,,\xe0\xa4\xaf\xe0\xa4\xbe\xe0\xa5\xa7,yA1'
p4402
ssbsg1326
I00
sba(issf_api
Word
p4403
(dp4404
g1560
I00
sg1561
V\u0964
sg1563
(issf_api
FeatureSet
p4405
(dp4406
g232
(dp4407
S'posn'
p4408
S'170'
p4409
sS'name'
p4410
S'\xe0\xa5\xa4'
p4411
sS'af'
p4412
S'\xe0\xa5\xa4,punc,,,,,,'
p4413
sS'chunkid'
p4414
S'BLK'
p4415
sS'drel'
p4416
S'rsym:\xe0\xa4\x95\xe0\xa4\xbf\xe0\xa4\x8f'
p4417
sS'chunktype'
p4418
S'head:BLK'
p4419
ssbsg1304
I00
sg1307
I00
sg1318
Nsg1305
Nsg171
I7
sg158
I4
sg1579
Nsg1316
Nsg1580
S'SYM'
p4420
sg229
(issf_api
FeatureSet
p4421
(dp4422
g232
(dp4423
S'posn'
p4424
S'170'
p4425
sS'name'
p4426
S'\xe0\xa5\xa4'
p4427
sS'af'
p4428
S'\xe0\xa5\xa4,punc,,,,,,'
p4429
ssbsg1326
I00
sba(issf_api
Word
p4430
(dp4431
g1560
I00
sg1561
V\u0909\u0928\u094d\u0939\u094b\u0902\u0928\u0947
p4432
sg1563
(issf_api
FeatureSet
p4433
(dp4434
g232
(dp4435
S'posn'
p4436
S'10'
p4437
sS'name'
p4438
S'\xe0\xa4\x89\xe0\xa4\xa8\xe0\xa5\x8d\xe0\xa4\xb9\xe0\xa5\x8b\xe0\xa4\x82\xe0\xa4\xa8\xe0\xa5\x87'
p4439
sS'af'
p4440
S'\xe0\xa4\xb5\xe0\xa4\xb9,pn,any,sg,3h,o,\xe0\xa4\xa8\xe0\xa5\x87,ne'
p4441
sS'chunkid'
p4442
S'NP'
p4443
sS'drel'
p4444
S'k1:\xe0\xa4\xac\xe0\xa4\xa4\xe0\xa4\xbe\xe0\xa4\xaf\xe0\xa4\xbe'
p4445
sS'chunktype'
p4446
S'head:NP'
p4447
ssbsg1304
I01
sg1307
I00
sg1318
Nsg1305
Nsg171
I0
sg158
I5
sg1579
I1
sg1316
Nsg1580
S'PRP'
p4448
sg229
(issf_api
FeatureSet
p4449
(dp4450
g232
(dp4451
S'posn'
p4452
S'10'
p4453
sS'name'
p4454
S'\xe0\xa4\x89\xe0\xa4\xa8\xe0\xa5\x8d\xe0\xa4\xb9\xe0\xa5\x8b\xe0\xa4\x82\xe0\xa4\xa8\xe0\xa5\x87'
p4455
sS'af'
p4456
S'\xe0\xa4\xb5\xe0\xa4\xb9,pn,any,sg,3h,o,\xe0\xa4\xa8\xe0\xa5\x87,ne'
p4457
ssbsg1326
I00
sba(issf_api
Word
p4458
(dp4459
g1560
I00
sg1561
V\u092c\u0924\u093e\u092f\u093e
p4460
sg1563
(issf_api
FeatureSet
p4461
(dp4462
g232
(dp4463
S'posn'
p4464
S'20'
p4465
sS'name'
p4466
S'\xe0\xa4\xac\xe0\xa4\xa4\xe0\xa4\xbe\xe0\xa4\xaf\xe0\xa4\xbe'
p4467
sS'af'
p4468
S'\xe0\xa4\xac\xe0\xa4\xa4\xe0\xa4\xbe,v,m,sg,any,,\xe0\xa4\xaf\xe0\xa4\xbe,yA'
p4469
sS'chunkid'
p4470
S'VGF'
p4471
sS'chunktype'
p4472
S'head:VGF'
p4473
sS'voicetype'
p4474
S'active'
p4475
sS'stype'
p4476
S'declarative'
p4477
ssbsg1304
I01
sg1307
I00
sg1318
Nsg1305
Nsg171
I1
sg158
I5
sg1579
I1
sg1316
Nsg1580
S'VM'
p4478
sg229
(issf_api
FeatureSet
p4479
(dp4480
g232
(dp4481
S'posn'
p4482
S'20'
p4483
sS'name'
p4484
S'\xe0\xa4\xac\xe0\xa4\xa4\xe0\xa4\xbe\xe0\xa4\xaf\xe0\xa4\xbe'
p4485
sS'af'
p4486
S'\xe0\xa4\xac\xe0\xa4\xa4\xe0\xa4\xbe,v,m,sg,any,,\xe0\xa4\xaf\xe0\xa4\xbe,yA'
p4487
ssbsg1326
I00
sba(issf_api
Word
p4488
(dp4489
g1560
I00
sg1561
V\u0915\u093f
p4490
sg1563
(issf_api
FeatureSet
p4491
(dp4492
g232
(dp4493
S'posn'
p4494
S'30'
p4495
sS'name'
p4496
S'\xe0\xa4\x95\xe0\xa4\xbf'
p4497
sS'af'
p4498
S'\xe0\xa4\x95\xe0\xa4\xbf,avy,,,,,,'
p4499
sS'chunkid'
p4500
S'CCP'
p4501
sS'drel'
p4502
S'k2:\xe0\xa4\xac\xe0\xa4\xa4\xe0\xa4\xbe\xe0\xa4\xaf\xe0\xa4\xbe'
p4503
sS'chunktype'
p4504
S'head:CCP'
p4505
ssbsg1304
I01
sg1307
I00
sg1318
Nsg1305
Nsg171
I2
sg158
I5
sg1579
I1
sg1316
Nsg1580
S'CC'
p4506
sg229
(issf_api
FeatureSet
p4507
(dp4508
g232
(dp4509
S'posn'
p4510
S'30'
p4511
sS'name'
p4512
S'\xe0\xa4\x95\xe0\xa4\xbf'
p4513
sS'af'
p4514
S'\xe0\xa4\x95\xe0\xa4\xbf,avy,,,,,,'
p4515
ssbsg1326
I00
sba(issf_api
Word
p4516
(dp4517
g1560
I00
sg1561
V\u092c\u093f\u091c\u0928\u0947\u0938
p4518
sg1563
(issf_api
FeatureSet
p4519
(dp4520
g232
(dp4521
S'posn'
p4522
S'40'
p4523
sS'name'
p4524
S'\xe0\xa4\xac\xe0\xa4\xbf\xe0\xa4\x9c\xe0\xa4\xa8\xe0\xa5\x87\xe0\xa4\xb8'
p4525
sS'drel'
p4526
S'pof__cn:\xe0\xa4\xb8\xe0\xa5\x8d\xe0\xa4\x9f\xe0\xa5\x88\xe0\xa4\x82\xe0\xa4\xa1\xe0\xa4\xb0\xe0\xa5\x8d\xe0\xa4\xa1'
p4527
sS'chunktype'
p4528
S'child:NP2'
p4529
sS'af'
p4530
S'\xe0\xa4\xac\xe0\xa4\xbf\xe0\xa4\x9c\xe0\xa4\xa8\xe0\xa5\x87\xe0\xa4\xb8,n,m,sg,3,d,0,0'
p4531
ssbsg1304
I01
sg1307
I00
sg1318
Nsg1305
Nsg171
I3
sg158
I5
sg1579
I1
sg1316
Nsg1580
S'NNPC'
p4532
sg229
(issf_api
FeatureSet
p4533
(dp4534
g232
(dp4535
S'posn'
p4536
S'40'
p4537
sS'name'
p4538
S'\xe0\xa4\xac\xe0\xa4\xbf\xe0\xa4\x9c\xe0\xa4\xa8\xe0\xa5\x87\xe0\xa4\xb8'
p4539
sS'af'
p4540
S'\xe0\xa4\xac\xe0\xa4\xbf\xe0\xa4\x9c\xe0\xa4\xa8\xe0\xa5\x87\xe0\xa4\xb8,n,m,sg,3,d,0,0'
p4541
ssbsg1326
I00
sba(issf_api
Word
p4542
(dp4543
g1560
I00
sg1561
V\u0938\u094d\u091f\u0948\u0902\u0921\u0930\u094d\u0921
p4544
sg1563
(issf_api
FeatureSet
p4545
(dp4546
g232
(dp4547
S'posn'
p4548
S'50'
p4549
sS'name'
p4550
S'\xe0\xa4\xb8\xe0\xa5\x8d\xe0\xa4\x9f\xe0\xa5\x88\xe0\xa4\x82\xe0\xa4\xa1\xe0\xa4\xb0\xe0\xa5\x8d\xe0\xa4\xa1'
p4551
sS'af'
p4552
S'\xe0\xa4\xb8\xe0\xa5\x8d\xe0\xa4\x9f\xe0\xa5\x88\xe0\xa4\x82\xe0\xa4\xa1\xe0\xa4\xb0\xe0\xa5\x8d\xe0\xa4\xa1,n,m,sg,3,o,0_\xe0\xa4\x95\xe0\xa4\xbe,0'
p4553
sS'chunkid'
p4554
S'NP2'
p4555
sS'drel'
p4556
S'r6:\xe0\xa4\xac\xe0\xa5\x8b\xe0\xa4\xb0\xe0\xa5\x8d\xe0\xa4\xa1'
p4557
sS'vpos'
p4558
S'vib_3'
p4559
sS'chunktype'
p4560
S'head:NP2'
p4561
ssbsg1304
I01
sg1307
I00
sg1318
Nsg1305
Nsg171
I3
sg158
I5
sg1579
I1
sg1316
Nsg1580
S'NNP'
p4562
sg229
(issf_api
FeatureSet
p4563
(dp4564
g232
(dp4565
S'posn'
p4566
S'50'
p4567
sS'name'
p4568
S'\xe0\xa4\xb8\xe0\xa5\x8d\xe0\xa4\x9f\xe0\xa5\x88\xe0\xa4\x82\xe0\xa4\xa1\xe0\xa4\xb0\xe0\xa5\x8d\xe0\xa4\xa1'
p4569
sS'af'
p4570
S'\xe0\xa4\xb8\xe0\xa5\x8d\xe0\xa4\x9f\xe0\xa5\x88\xe0\xa4\x82\xe0\xa4\xa1\xe0\xa4\xb0\xe0\xa5\x8d\xe0\xa4\xa1,n,m,sg,3,o,0,0'
p4571
ssbsg1326
I00
sba(issf_api
Word
p4572
(dp4573
g1560
I00
sg1561
V\u0915\u0947
p4574
sg1563
(issf_api
FeatureSet
p4575
(dp4576
g232
(dp4577
S'posn'
p4578
S'60'
p4579
sS'name'
p4580
S'\xe0\xa4\x95\xe0\xa5\x87'
p4581
sS'drel'
p4582
S'lwg__psp:\xe0\xa4\xb8\xe0\xa5\x8d\xe0\xa4\x9f\xe0\xa5\x88\xe0\xa4\x82\xe0\xa4\xa1\xe0\xa4\xb0\xe0\xa5\x8d\xe0\xa4\xa1'
p4583
sS'chunktype'
p4584
S'child:NP2'
p4585
sS'af'
p4586
S'\xe0\xa4\x95\xe0\xa4\xbe,psp,m,sg,,o,,'
p4587
ssbsg1304
I01
sg1307
I00
sg1318
Nsg1305
Nsg171
I3
sg158
I5
sg1579
I1
sg1316
Nsg1580
S'PSP'
p4588
sg229
(issf_api
FeatureSet
p4589
(dp4590
g232
(dp4591
S'posn'
p4592
S'60'
p4593
sS'name'
p4594
S'\xe0\xa4\x95\xe0\xa5\x87'
p4595
sS'af'
p4596
S'\xe0\xa4\x95\xe0\xa4\xbe,psp,m,sg,,o,,'
p4597
ssbsg1326
I00
sba(issf_api
Word
p4598
(dp4599
g1560
I00
sg1561
V\u0906\u0920
p4600
sg1563
(issf_api
FeatureSet
p4601
(dp4602
g232
(dp4603
S'posn'
p4604
S'70'
p4605
sS'name'
p4606
S'\xe0\xa4\x86\xe0\xa4\xa0'
p4607
sS'drel'
p4608
S'nmod__adj:\xe0\xa4\xac\xe0\xa5\x8b\xe0\xa4\xb0\xe0\xa5\x8d\xe0\xa4\xa1'
p4609
sS'chunktype'
p4610
S'child:NP3'
p4611
sS'af'
p4612
S'\xe0\xa4\x86\xe0\xa4\xa0,num,any,any,,any,,'
p4613
ssbsg1304
I01
sg1307
I00
sg1318
Nsg1305
Nsg171
I4
sg158
I5
sg1579
I1
sg1316
Nsg1580
S'QC'
p4614
sg229
(issf_api
FeatureSet
p4615
(dp4616
g232
(dp4617
S'posn'
p4618
S'70'
p4619
sS'name'
p4620
S'\xe0\xa4\x86\xe0\xa4\xa0'
p4621
sS'af'
p4622
S'\xe0\xa4\x86\xe0\xa4\xa0,num,any,any,,any,,'
p4623
ssbsg1326
I00
sba(issf_api
Word
p4624
(dp4625
g1560
I00
sg1561
V\u0938\u0926\u0938\u094d\u092f\u0940\u092f
p4626
sg1563
(issf_api
FeatureSet
p4627
(dp4628
g232
(dp4629
S'posn'
p4630
S'80'
p4631
sS'name'
p4632
S'\xe0\xa4\xb8\xe0\xa4\xa6\xe0\xa4\xb8\xe0\xa5\x8d\xe0\xa4\xaf\xe0\xa5\x80\xe0\xa4\xaf'
p4633
sS'drel'
p4634
S'nmod__adj:\xe0\xa4\xac\xe0\xa5\x8b\xe0\xa4\xb0\xe0\xa5\x8d\xe0\xa4\xa1'
p4635
sS'chunktype'
p4636
S'child:NP3'
p4637
sS'af'
p4638
S'\xe0\xa4\xb8\xe0\xa4\xa6\xe0\xa4\xb8\xe0\xa5\x8d\xe0\xa4\xaf\xe0\xa5\x80\xe0\xa4\xaf,adj,any,any,,o,,'
p4639
ssbsg1304
I01
sg1307
I00
sg1318
Nsg1305
Nsg171
I4
sg158
I5
sg1579
I1
sg1316
Nsg1580
S'JJ'
p4640
sg229
(issf_api
FeatureSet
p4641
(dp4642
g232
(dp4643
S'posn'
p4644
S'80'
p4645
sS'name'
p4646
S'\xe0\xa4\xb8\xe0\xa4\xa6\xe0\xa4\xb8\xe0\xa5\x8d\xe0\xa4\xaf\xe0\xa5\x80\xe0\xa4\xaf'
p4647
sS'af'
p4648
S'\xe0\xa4\xb8\xe0\xa4\xa6\xe0\xa4\xb8\xe0\xa5\x8d\xe0\xa4\xaf\xe0\xa5\x80\xe0\xa4\xaf,adj,any,any,,o,,'
p4649
ssbsg1326
I00
sba(issf_api
Word
p4650
(dp4651
g1560
I00
sg1561
V\u092c\u094b\u0930\u094d\u0921
p4652
sg1563
(issf_api
FeatureSet
p4653
(dp4654
g232
(dp4655
S'posn'
p4656
S'90'
p4657
sS'name'
p4658
S'\xe0\xa4\xac\xe0\xa5\x8b\xe0\xa4\xb0\xe0\xa5\x8d\xe0\xa4\xa1'
p4659
sS'af'
p4660
S'\xe0\xa4\xac\xe0\xa5\x8b\xe0\xa4\xb0\xe0\xa5\x8d\xe0\xa4\xa1,n,m,sg,3,o,0_\xe0\xa4\xae\xe0\xa5\x87\xe0\xa4\x82,0'
p4661
sS'chunkid'
p4662
S'NP3'
p4663
sS'drel'
p4664
S'k7:\xe0\xa4\xb9\xe0\xa5\x8b\xe0\xa4\x97\xe0\xa4\xbe'
p4665
sS'vpos'
p4666
S'vib_4'
p4667
sS'chunktype'
p4668
S'head:NP3'
p4669
ssbsg1304
I01
sg1307
I00
sg1318
Nsg1305
Nsg171
I4
sg158
I5
sg1579
I1
sg1316
Nsg1580
S'NN'
p4670
sg229
(issf_api
FeatureSet
p4671
(dp4672
g232
(dp4673
S'posn'
p4674
S'90'
p4675
sS'name'
p4676
S'\xe0\xa4\xac\xe0\xa5\x8b\xe0\xa4\xb0\xe0\xa5\x8d\xe0\xa4\xa1'
p4677
sS'af'
p4678
S'\xe0\xa4\xac\xe0\xa5\x8b\xe0\xa4\xb0\xe0\xa5\x8d\xe0\xa4\xa1,n,m,sg,3,o,0,0'
p4679
ssbsg1326
I00
sba(issf_api
Word
p4680
(dp4681
g1560
I00
sg1561
V\u092e\u0947\u0902
p4682
sg1563
(issf_api
FeatureSet
p4683
(dp4684
g232
(dp4685
S'posn'
p4686
S'100'
p4687
sS'name'
p4688
S'\xe0\xa4\xae\xe0\xa5\x87\xe0\xa4\x82'
p4689
sS'drel'
p4690
S'lwg__psp:\xe0\xa4\xac\xe0\xa5\x8b\xe0\xa4\xb0\xe0\xa5\x8d\xe0\xa4\xa1'
p4691
sS'chunktype'
p4692
S'child:NP3'
p4693
sS'af'
p4694
S'\xe0\xa4\xae\xe0\xa5\x87\xe0\xa4\x82,psp,,,,,,'
p4695
ssbsg1304
I01
sg1307
I00
sg1318
Nsg1305
Nsg171
I4
sg158
I5
sg1579
I1
sg1316
Nsg1580
S'PSP'
p4696
sg229
(issf_api
FeatureSet
p4697
(dp4698
g232
(dp4699
S'posn'
p4700
S'100'
p4701
sS'name'
p4702
S'\xe0\xa4\xae\xe0\xa5\x87\xe0\xa4\x82'
p4703
sS'af'
p4704
S'\xe0\xa4\xae\xe0\xa5\x87\xe0\xa4\x82,psp,,,,,,'
p4705
ssbsg1326
I00
sba(issf_api
Word
p4706
(dp4707
g1560
I00
sg1561
V\u0905\u092c
p4708
sg1563
(issf_api
FeatureSet
p4709
(dp4710
g232
(dp4711
S'posn'
p4712
S'110'
p4713
sS'name'
p4714
S'\xe0\xa4\x85\xe0\xa4\xac'
p4715
sS'af'
p4716
S'\xe0\xa4\x85\xe0\xa4\xac,pn,,,,d,,'
p4717
sS'chunkid'
p4718
S'NP4'
p4719
sS'drel'
p4720
S'k7t:\xe0\xa4\xb9\xe0\xa5\x8b\xe0\xa4\x97\xe0\xa4\xbe'
p4721
sS'chunktype'
p4722
S'head:NP4'
p4723
ssbsg1304
I01
sg1307
I00
sg1318
Nsg1305
Nsg171
I5
sg158
I5
sg1579
I1
sg1316
Nsg1580
S'PRP'
p4724
sg229
(issf_api
FeatureSet
p4725
(dp4726
g232
(dp4727
S'posn'
p4728
S'110'
p4729
sS'name'
p4730
S'\xe0\xa4\x85\xe0\xa4\xac'
p4731
sS'af'
p4732
S'\xe0\xa4\x85\xe0\xa4\xac,pn,,,,d,,'
p4733
ssbsg1326
I00
sba(issf_api
Word
p4734
(dp4735
g1560
I00
sg1561
V\u092b\u093e\u0907\u0928\u0947\u0902\u0936\u093f\u092f\u0932
p4736
sg1563
(issf_api
FeatureSet
p4737
(dp4738
g232
(dp4739
S'posn'
p4740
S'120'
p4741
sS'name'
p4742
S'\xe0\xa4\xab\xe0\xa4\xbe\xe0\xa4\x87\xe0\xa4\xa8\xe0\xa5\x87\xe0\xa4\x82\xe0\xa4\xb6\xe0\xa4\xbf\xe0\xa4\xaf\xe0\xa4\xb2'
p4743
sS'drel'
p4744
S'pof__cn:\xe0\xa4\x9f\xe0\xa4\xbe\xe0\xa4\x87\xe0\xa4\xae\xe0\xa5\x8d\xe0\xa4\xb8'
p4745
sS'chunktype'
p4746
S'child:NP5'
p4747
sS'af'
p4748
S'\xe0\xa4\xab\xe0\xa4\xbe\xe0\xa4\x87\xe0\xa4\xa8\xe0\xa5\x87\xe0\xa4\x82\xe0\xa4\xb6\xe0\xa4\xbf\xe0\xa4\xaf\xe0\xa4\xb2,n,m,sg,3,d,0,0'
p4749
ssbsg1304
I01
sg1307
I00
sg1318
Nsg1305
Nsg171
I6
sg158
I5
sg1579
I1
sg1316
Nsg1580
S'NNPC'
p4750
sg229
(issf_api
FeatureSet
p4751
(dp4752
g232
(dp4753
S'posn'
p4754
S'120'
p4755
sS'name'
p4756
S'\xe0\xa4\xab\xe0\xa4\xbe\xe0\xa4\x87\xe0\xa4\xa8\xe0\xa5\x87\xe0\xa4\x82\xe0\xa4\xb6\xe0\xa4\xbf\xe0\xa4\xaf\xe0\xa4\xb2'
p4757
sS'af'
p4758
S'\xe0\xa4\xab\xe0\xa4\xbe\xe0\xa4\x87\xe0\xa4\xa8\xe0\xa5\x87\xe0\xa4\x82\xe0\xa4\xb6\xe0\xa4\xbf\xe0\xa4\xaf\xe0\xa4\xb2,n,m,sg,3,d,0,0'
p4759
ssbsg1326
I00
sba(issf_api
Word
p4760
(dp4761
g1560
I00
sg1561
V\u091f\u093e\u0907\u092e\u094d\u0938
p4762
sg1563
(issf_api
FeatureSet
p4763
(dp4764
g232
(dp4765
S'posn'
p4766
S'130'
p4767
sS'name'
p4768
S'\xe0\xa4\x9f\xe0\xa4\xbe\xe0\xa4\x87\xe0\xa4\xae\xe0\xa5\x8d\xe0\xa4\xb8'
p4769
sS'af'
p4770
S'\xe0\xa4\x9f\xe0\xa4\xbe\xe0\xa4\x87\xe0\xa4\xae\xe0\xa5\x8d\xe0\xa4\xb8,n,m,sg,3,o,0_\xe0\xa4\x95\xe0\xa4\xbe,0'
p4771
sS'chunkid'
p4772
S'NP5'
p4773
sS'drel'
p4774
S'r6-k1:\xe0\xa4\xaa\xe0\xa5\x8d\xe0\xa4\xb0\xe0\xa4\xa4\xe0\xa4\xbf\xe0\xa4\xa8\xe0\xa4\xbf\xe0\xa4\xa7\xe0\xa4\xbf'
p4775
sS'vpos'
p4776
S'vib_3_RP'
p4777
sS'chunktype'
p4778
S'head:NP5'
p4779
ssbsg1304
I01
sg1307
I00
sg1318
Nsg1305
Nsg171
I6
sg158
I5
sg1579
I1
sg1316
Nsg1580
S'NNP'
p4780
sg229
(issf_api
FeatureSet
p4781
(dp4782
g232
(dp4783
S'posn'
p4784
S'130'
p4785
sS'name'
p4786
S'\xe0\xa4\x9f\xe0\xa4\xbe\xe0\xa4\x87\xe0\xa4\xae\xe0\xa5\x8d\xe0\xa4\xb8'
p4787
sS'af'
p4788
S'\xe0\xa4\x9f\xe0\xa4\xbe\xe0\xa4\x87\xe0\xa4\xae\xe0\xa5\x8d\xe0\xa4\xb8,n,m,sg,3,o,0,0'
p4789
ssbsg1326
I00
sba(issf_api
Word
p4790
(dp4791
g1560
I00
sg1561
V\u0915\u093e
p4792
sg1563
(issf_api
FeatureSet
p4793
(dp4794
g232
(dp4795
S'posn'
p4796
S'140'
p4797
sS'name'
p4798
S'\xe0\xa4\x95\xe0\xa4\xbe'
p4799
sS'drel'
p4800
S'lwg__psp:\xe0\xa4\x9f\xe0\xa4\xbe\xe0\xa4\x87\xe0\xa4\xae\xe0\xa5\x8d\xe0\xa4\xb8'
p4801
sS'chunktype'
p4802
S'child:NP5'
p4803
sS'af'
p4804
S'\xe0\xa4\x95\xe0\xa4\xbe,psp,m,sg,,d,,'
p4805
ssbsg1304
I01
sg1307
I00
sg1318
Nsg1305
Nsg171
I6
sg158
I5
sg1579
I1
sg1316
Nsg1580
S'PSP'
p4806
sg229
(issf_api
FeatureSet
p4807
(dp4808
g232
(dp4809
S'posn'
p4810
S'140'
p4811
sS'name'
p4812
S'\xe0\xa4\x95\xe0\xa4\xbe'
p4813
sS'af'
p4814
S'\xe0\xa4\x95\xe0\xa4\xbe,psp,m,sg,,d,,'
p4815
ssbsg1326
I00
sba(issf_api
Word
p4816
(dp4817
g1560
I00
sg1561
V\u092d\u0940
p4818
sg1563
(issf_api
FeatureSet
p4819
(dp4820
g232
(dp4821
S'posn'
p4822
S'150'
p4823
sS'name'
p4824
S'\xe0\xa4\xad\xe0\xa5\x80'
p4825
sS'drel'
p4826
S'lwg__rp:\xe0\xa4\x9f\xe0\xa4\xbe\xe0\xa4\x87\xe0\xa4\xae\xe0\xa5\x8d\xe0\xa4\xb8'
p4827
sS'chunktype'
p4828
S'child:NP5'
p4829
sS'af'
p4830
S'\xe0\xa4\xad\xe0\xa5\x80,avy,,,,,,'
p4831
ssbsg1304
I01
sg1307
I00
sg1318
Nsg1305
Nsg171
I6
sg158
I5
sg1579
I1
sg1316
Nsg1580
S'RP'
p4832
sg229
(issf_api
FeatureSet
p4833
(dp4834
g232
(dp4835
S'posn'
p4836
S'150'
p4837
sS'name'
p4838
S'\xe0\xa4\xad\xe0\xa5\x80'
p4839
sS'af'
p4840
S'\xe0\xa4\xad\xe0\xa5\x80,avy,,,,,,'
p4841
ssbsg1326
I00
sba(issf_api
Word
p4842
(dp4843
g1560
I00
sg1561
V\u090f\u0915
p4844
sg1563
(issf_api
FeatureSet
p4845
(dp4846
g232
(dp4847
S'posn'
p4848
S'160'
p4849
sS'name'
p4850
S'\xe0\xa4\x8f\xe0\xa4\x95'
p4851
sS'drel'
p4852
S'nmod__adj:\xe0\xa4\xaa\xe0\xa5\x8d\xe0\xa4\xb0\xe0\xa4\xa4\xe0\xa4\xbf\xe0\xa4\xa8\xe0\xa4\xbf\xe0\xa4\xa7\xe0\xa4\xbf'
p4853
sS'chunktype'
p4854
S'child:NP6'
p4855
sS'af'
p4856
S'\xe0\xa4\x8f\xe0\xa4\x95,num,any,any,,any,,'
p4857
ssbsg1304
I01
sg1307
I00
sg1318
Nsg1305
Nsg171
I7
sg158
I5
sg1579
I1
sg1316
Nsg1580
S'QC'
p4858
sg229
(issf_api
FeatureSet
p4859
(dp4860
g232
(dp4861
S'posn'
p4862
S'160'
p4863
sS'name'
p4864
S'\xe0\xa4\x8f\xe0\xa4\x95'
p4865
sS'af'
p4866
S'\xe0\xa4\x8f\xe0\xa4\x95,num,any,any,,any,,'
p4867
ssbsg1326
I00
sba(issf_api
Word
p4868
(dp4869
g1560
I00
sg1561
V\u092a\u094d\u0930\u0924\u093f\u0928\u093f\u0927\u093f
p4870
sg1563
(issf_api
FeatureSet
p4871
(dp4872
g232
(dp4873
S'posn'
p4874
S'170'
p4875
sS'name'
p4876
S'\xe0\xa4\xaa\xe0\xa5\x8d\xe0\xa4\xb0\xe0\xa4\xa4\xe0\xa4\xbf\xe0\xa4\xa8\xe0\xa4\xbf\xe0\xa4\xa7\xe0\xa4\xbf'
p4877
sS'af'
p4878
S'\xe0\xa4\xaa\xe0\xa5\x8d\xe0\xa4\xb0\xe0\xa4\xa4\xe0\xa4\xbf\xe0\xa4\xa8\xe0\xa4\xbf\xe0\xa4\xa7\xe0\xa4\xbf,n,m,sg,3,d,0,0'
p4879
sS'chunkid'
p4880
S'NP6'
p4881
sS'drel'
p4882
S'pof:\xe0\xa4\xb9\xe0\xa5\x8b\xe0\xa4\x97\xe0\xa4\xbe'
p4883
sS'chunktype'
p4884
S'head:NP6'
p4885
ssbsg1304
I01
sg1307
I00
sg1318
Nsg1305
Nsg171
I7
sg158
I5
sg1579
I1
sg1316
Nsg1580
S'NN'
p4886
sg229
(issf_api
FeatureSet
p4887
(dp4888
g232
(dp4889
S'posn'
p4890
S'170'
p4891
sS'name'
p4892
S'\xe0\xa4\xaa\xe0\xa5\x8d\xe0\xa4\xb0\xe0\xa4\xa4\xe0\xa4\xbf\xe0\xa4\xa8\xe0\xa4\xbf\xe0\xa4\xa7\xe0\xa4\xbf'
p4893
sS'af'
p4894
S'\xe0\xa4\xaa\xe0\xa5\x8d\xe0\xa4\xb0\xe0\xa4\xa4\xe0\xa4\xbf\xe0\xa4\xa8\xe0\xa4\xbf\xe0\xa4\xa7\xe0\xa4\xbf,n,m,sg,3,d,0,0'
p4895
ssbsg1326
I00
sba(issf_api
Word
p4896
(dp4897
g1560
I00
sg1561
V\u0939\u094b\u0917\u093e
p4898
sg1563
(issf_api
FeatureSet
p4899
(dp4900
g232
(dp4901
S'posn'
p4902
S'180'
p4903
sS'name'
p4904
S'\xe0\xa4\xb9\xe0\xa5\x8b\xe0\xa4\x97\xe0\xa4\xbe'
p4905
sS'af'
p4906
S'\xe0\xa4\xb9\xe0\xa5\x8b,v,m,sg,3,,\xe0\xa4\x97\xe0\xa4\xbe,gA'
p4907
sS'chunkid'
p4908
S'VGF2'
p4909
sS'stype'
p4910
S'declarative'
p4911
sS'drel'
p4912
S'ccof:\xe0\xa4\x95\xe0\xa4\xbf'
p4913
sS'voicetype'
p4914
S'active'
p4915
sS'chunktype'
p4916
S'head:VGF2'
p4917
ssbsg1304
I01
sg1307
I00
sg1318
Nsg1305
Nsg171
I8
sg158
I5
sg1579
I1
sg1316
Nsg1580
S'VM'
p4918
sg229
(issf_api
FeatureSet
p4919
(dp4920
g232
(dp4921
S'posn'
p4922
S'180'
p4923
sS'name'
p4924
S'\xe0\xa4\xb9\xe0\xa5\x8b\xe0\xa4\x97\xe0\xa4\xbe'
p4925
sS'af'
p4926
S'\xe0\xa4\xb9\xe0\xa5\x8b,v,m,sg,3,,\xe0\xa4\x97\xe0\xa4\xbe,gA'
p4927
ssbsg1326
I00
sba(issf_api
Word
p4928
(dp4929
g1560
I00
sg1561
V\u0964
sg1563
(issf_api
FeatureSet
p4930
(dp4931
g232
(dp4932
S'posn'
p4933
S'190'
p4934
sS'name'
p4935
S'\xe0\xa5\xa4'
p4936
sS'af'
p4937
S'\xe0\xa5\xa4,punc,,,,,,'
p4938
sS'chunkid'
p4939
S'BLK'
p4940
sS'drel'
p4941
S'rsym:\xe0\xa4\xac\xe0\xa4\xa4\xe0\xa4\xbe\xe0\xa4\xaf\xe0\xa4\xbe'
p4942
sS'chunktype'
p4943
S'head:BLK'
p4944
ssbsg1304
I01
sg1307
I00
sg1318
Nsg1305
Nsg171
I9
sg158
I5
sg1579
I1
sg1316
Nsg1580
S'SYM'
p4945
sg229
(issf_api
FeatureSet
p4946
(dp4947
g232
(dp4948
S'posn'
p4949
S'190'
p4950
sS'name'
p4951
S'\xe0\xa5\xa4'
p4952
sS'af'
p4953
S'\xe0\xa5\xa4,punc,,,,,,'
p4954
ssbsg1326
I00
sba(issf_api
Word
p4955
(dp4956
g1560
I00
sg1561
V\u092c\u0939\u0930\u0939\u093e\u0932
p4957
sg1563
(issf_api
FeatureSet
p4958
(dp4959
g232
(dp4960
S'posn'
p4961
S'10'
p4962
sS'chunkid'
p4963
S'CCP'
p4964
sS'name'
p4965
S'\xe0\xa4\xac\xe0\xa4\xb9\xe0\xa4\xb0\xe0\xa4\xb9\xe0\xa4\xbe\xe0\xa4\xb2'
p4966
sS'chunktype'
p4967
S'head:CCP'
p4968
sS'af'
p4969
S'\xe0\xa4\xac\xe0\xa4\xb9\xe0\xa4\xb0\xe0\xa4\xb9\xe0\xa4\xbe\xe0\xa4\xb2,avy,,,,,,'
p4970
ssbsg1304
I00
sg1307
I00
sg1318
g1398
sg1305
(lp4971
I104
aI105
aI106
aI107
aI108
aI109
aI110
aI111
aI112
aI113
aI114
aI115
aI116
aI117
aI118
aI119
aI120
aI121
aI122
asg171
I0
sg158
I6
sg1579
I1
sg1316
(lp4972
I125
aI126
aI127
aI128
aI129
aI130
aI131
aI132
aI133
aI134
aI135
aI136
aI137
aI138
aI139
aI140
aI141
aI142
aI143
aI144
aI145
aI146
asg1580
S'CC'
p4973
sg229
(issf_api
FeatureSet
p4974
(dp4975
g232
(dp4976
S'posn'
p4977
S'10'
p4978
sS'name'
p4979
S'\xe0\xa4\xac\xe0\xa4\xb9\xe0\xa4\xb0\xe0\xa4\xb9\xe0\xa4\xbe\xe0\xa4\xb2'
p4980
sS'af'
p4981
S'\xe0\xa4\xac\xe0\xa4\xb9\xe0\xa4\xb0\xe0\xa4\xb9\xe0\xa4\xbe\xe0\xa4\xb2,avy,,,,,,'
p4982
ssbsg1326
I01
sba(issf_api
Word
p4983
(dp4984
g1560
I00
sg1561
V,
sg1563
(issf_api
FeatureSet
p4985
(dp4986
g232
(dp4987
S'posn'
p4988
S'20'
p4989
sS'name'
p4990
S','
sS'drel'
p4991
S'rsym:\xe0\xa4\xac\xe0\xa4\xb9\xe0\xa4\xb0\xe0\xa4\xb9\xe0\xa4\xbe\xe0\xa4\xb2'
p4992
sS'chunktype'
p4993
S'child:CCP'
p4994
sS'af'
p4995
S'COMMA,punc,,,,,,'
p4996
ssbsg1304
I00
sg1307
I00
sg1318
Nsg1305
Nsg171
I0
sg158
I6
sg1579
Nsg1316
Nsg1580
S'SYM'
p4997
sg229
(issf_api
FeatureSet
p4998
(dp4999
g232
(dp5000
S'posn'
p5001
S'20'
p5002
sS'name'
p5003
S','
sS'af'
p5004
S'COMMA,punc,,,,,,'
p5005
ssbsg1326
I00
sba(issf_api
Word
p5006
(dp5007
g1560
I00
sg1561
V\u0935\u0930\u094d\u0924\u092e\u093e\u0928
p5008
sg1563
(issf_api
FeatureSet
p5009
(dp5010
g232
(dp5011
S'posn'
p5012
S'10'
p5013
sS'name'
p5014
S'\xe0\xa4\xb5\xe0\xa4\xb0\xe0\xa5\x8d\xe0\xa4\xa4\xe0\xa4\xae\xe0\xa4\xbe\xe0\xa4\xa8'
p5015
sS'af'
p5016
S'\xe0\xa4\xb5\xe0\xa4\xb0\xe0\xa5\x8d\xe0\xa4\xa4\xe0\xa4\xae\xe0\xa4\xbe\xe0\xa4\xa8,adj,any,any,,o,,'
p5017
sS'drel'
p5018
S'nmod__adj:\xe0\xa4\xa8\xe0\xa4\xbf\xe0\xa4\xb0\xe0\xa5\x8d\xe0\xa4\xa6\xe0\xa5\x87\xe0\xa4\xb6\xe0\xa5\x8b\xe0\xa4\x82'
p5019
sS'chunktype'
p5020
S'child:NP'
p5021
sS'poslcat'
p5022
S'NM'
p5023
ssbsg1304
I00
sg1307
I01
sg1318
Nsg1305
Nsg171
I1
sg158
I6
sg1579
I1
sg1316
Nsg1580
S'JJ'
p5024
sg229
(issf_api
FeatureSet
p5025
(dp5026
g232
(dp5027
S'posn'
p5028
S'10'
p5029
sS'poslcat'
p5030
S'NM'
p5031
sS'name'
p5032
S'\xe0\xa4\xb5\xe0\xa4\xb0\xe0\xa5\x8d\xe0\xa4\xa4\xe0\xa4\xae\xe0\xa4\xbe\xe0\xa4\xa8'
p5033
sS'af'
p5034
S'\xe0\xa4\xb5\xe0\xa4\xb0\xe0\xa5\x8d\xe0\xa4\xa4\xe0\xa4\xae\xe0\xa4\xbe\xe0\xa4\xa8,adj,any,any,,o,,'
p5035
ssbsg1326
I00
sba(issf_api
Word
p5036
(dp5037
g1560
I00
sg1561
V\u0926\u093f\u0936\u093e
p5038
sg1563
(issf_api
FeatureSet
p5039
(dp5040
g232
(dp5041
S'posn'
p5042
S'40'
p5043
sS'name'
p5044
S'\xe0\xa4\xa6\xe0\xa4\xbf\xe0\xa4\xb6\xe0\xa4\xbe'
p5045
sS'drel'
p5046
S'pof__cn:\xe0\xa4\xa8\xe0\xa4\xbf\xe0\xa4\xb0\xe0\xa5\x8d\xe0\xa4\xa6\xe0\xa5\x87\xe0\xa4\xb6\xe0\xa5\x8b\xe0\xa4\x82'
p5047
sS'chunktype'
p5048
S'child:NP'
p5049
sS'af'
p5050
S'\xe0\xa4\xa6\xe0\xa4\xbf\xe0\xa4\xb6\xe0\xa4\xbe,n,f,sg,3,d,0,0'
p5051
ssbsg1304
I00
sg1307
I01
sg1318
Nsg1305
Nsg171
I1
sg158
I6
sg1579
I1
sg1316
Nsg1580
S'NNC'
p5052
sg229
(issf_api
FeatureSet
p5053
(dp5054
g232
(dp5055
S'posn'
p5056
S'40'
p5057
sS'name'
p5058
S'\xe0\xa4\xa6\xe0\xa4\xbf\xe0\xa4\xb6\xe0\xa4\xbe'
p5059
sS'af'
p5060
S'\xe0\xa4\xa6\xe0\xa4\xbf\xe0\xa4\xb6\xe0\xa4\xbe,n,f,sg,3,d,0,0'
p5061
ssbsg1326
I00
sba(issf_api
Word
p5062
(dp5063
g1560
I00
sg1561
V\u0928\u093f\u0930\u094d\u0926\u0947\u0936\u094b\u0902
p5064
sg1563
(issf_api
FeatureSet
p5065
(dp5066
g232
(dp5067
S'posn'
p5068
S'50'
p5069
sS'name'
p5070
S'\xe0\xa4\xa8\xe0\xa4\xbf\xe0\xa4\xb0\xe0\xa5\x8d\xe0\xa4\xa6\xe0\xa5\x87\xe0\xa4\xb6\xe0\xa5\x8b\xe0\xa4\x82'
p5071
sS'af'
p5072
S'\xe0\xa4\xa8\xe0\xa4\xbf\xe0\xa4\xb0\xe0\xa5\x8d\xe0\xa4\xa6\xe0\xa5\x87\xe0\xa4\xb6,n,m,pl,3,o,0_\xe0\xa4\x95\xe0\xa5\x87_\xe0\xa4\xae\xe0\xa5\x81\xe0\xa4\xa4\xe0\xa4\xbe\xe0\xa4\xac\xe0\xa4\xbf\xe0\xa4\x95,0'
p5073
sS'chunkid'
p5074
S'NP'
p5075
sS'drel'
p5076
S'k7a:\xe0\xa4\x95\xe0\xa4\xb0'
p5077
sS'vpos'
p5078
S'vib_4_5'
p5079
sS'chunktype'
p5080
S'head:NP'
p5081
ssbsg1304
I00
sg1307
I01
sg1318
Nsg1305
Nsg171
I1
sg158
I6
sg1579
I1
sg1316
Nsg1580
S'NN'
p5082
sg229
(issf_api
FeatureSet
p5083
(dp5084
g232
(dp5085
S'posn'
p5086
S'50'
p5087
sS'name'
p5088
S'\xe0\xa4\xa8\xe0\xa4\xbf\xe0\xa4\xb0\xe0\xa5\x8d\xe0\xa4\xa6\xe0\xa5\x87\xe0\xa4\xb6\xe0\xa5\x8b\xe0\xa4\x82'
p5089
sS'af'
p5090
S'\xe0\xa4\xa8\xe0\xa4\xbf\xe0\xa4\xb0\xe0\xa5\x8d\xe0\xa4\xa6\xe0\xa5\x87\xe0\xa4\xb6,n,m,pl,3,o,0,0'
p5091
ssbsg1326
I00
sba(issf_api
Word
p5092
(dp5093
g1560
I00
sg1561
V\u0915\u0947
p5094
sg1563
(issf_api
FeatureSet
p5095
(dp5096
g232
(dp5097
S'posn'
p5098
S'60'
p5099
sS'name'
p5100
S'\xe0\xa4\x95\xe0\xa5\x87'
p5101
sS'drel'
p5102
S'lwg__psp:\xe0\xa4\xa8\xe0\xa4\xbf\xe0\xa4\xb0\xe0\xa5\x8d\xe0\xa4\xa6\xe0\xa5\x87\xe0\xa4\xb6\xe0\xa5\x8b\xe0\xa4\x82'
p5103
sS'chunktype'
p5104
S'child:NP'
p5105
sS'af'
p5106
S'\xe0\xa4\x95\xe0\xa5\x87,psp,,,,,,'
p5107
ssbsg1304
I00
sg1307
I01
sg1318
Nsg1305
Nsg171
I1
sg158
I6
sg1579
I1
sg1316
Nsg1580
S'PSP'
p5108
sg229
(issf_api
FeatureSet
p5109
(dp5110
g232
(dp5111
S'posn'
p5112
S'60'
p5113
sS'name'
p5114
S'\xe0\xa4\x95\xe0\xa5\x87'
p5115
sS'af'
p5116
S'\xe0\xa4\x95\xe0\xa5\x87,psp,,,,,,'
p5117
ssbsg1326
I00
sba(issf_api
Word
p5118
(dp5119
g1560
I00
sg1561
V\u092e\u0941\u0924\u093e\u092c\u093f\u0915
p5120
sg1563
(issf_api
FeatureSet
p5121
(dp5122
g232
(dp5123
S'posn'
p5124
S'70'
p5125
sS'name'
p5126
S'\xe0\xa4\xae\xe0\xa5\x81\xe0\xa4\xa4\xe0\xa4\xbe\xe0\xa4\xac\xe0\xa4\xbf\xe0\xa4\x95'
p5127
sS'drel'
p5128
S'lwg__psp:\xe0\xa4\xa8\xe0\xa4\xbf\xe0\xa4\xb0\xe0\xa5\x8d\xe0\xa4\xa6\xe0\xa5\x87\xe0\xa4\xb6\xe0\xa5\x8b\xe0\xa4\x82'
p5129
sS'chunktype'
p5130
S'child:NP'
p5131
sS'af'
p5132
S'\xe0\xa4\xae\xe0\xa5\x81\xe0\xa4\xa4\xe0\xa4\xbe\xe0\xa4\xac\xe0\xa4\xbf\xe0\xa4\x95,psp,,,,,,'
p5133
ssbsg1304
I00
sg1307
I01
sg1318
Nsg1305
Nsg171
I1
sg158
I6
sg1579
I1
sg1316
Nsg1580
S'PSP'
p5134
sg229
(issf_api
FeatureSet
p5135
(dp5136
g232
(dp5137
S'posn'
p5138
S'70'
p5139
sS'name'
p5140
S'\xe0\xa4\xae\xe0\xa5\x81\xe0\xa4\xa4\xe0\xa4\xbe\xe0\xa4\xac\xe0\xa4\xbf\xe0\xa4\x95'
p5141
sS'af'
p5142
S'\xe0\xa4\xae\xe0\xa5\x81\xe0\xa4\xa4\xe0\xa4\xbe\xe0\xa4\xac\xe0\xa4\xbf\xe0\xa4\x95,psp,,,,,,'
p5143
ssbsg1326
I00
sba(issf_api
Word
p5144
(dp5145
g1560
I00
sg1561
V\u0935\u093f\u0926\u0947\u0936\u0940
p5146
sg1563
(issf_api
FeatureSet
p5147
(dp5148
g232
(dp5149
S'posn'
p5150
S'80'
p5151
sS'name'
p5152
S'\xe0\xa4\xb5\xe0\xa4\xbf\xe0\xa4\xa6\xe0\xa5\x87\xe0\xa4\xb6\xe0\xa5\x80'
p5153
sS'drel'
p5154
S'nmod__adj:\xe0\xa4\xa8\xe0\xa4\xbf\xe0\xa4\xb5\xe0\xa5\x87\xe0\xa4\xb6\xe0\xa4\x95'
p5155
sS'chunktype'
p5156
S'child:NP2'
p5157
sS'af'
p5158
S'\xe0\xa4\xb5\xe0\xa4\xbf\xe0\xa4\xa6\xe0\xa5\x87\xe0\xa4\xb6\xe0\xa5\x80,adj,any,any,,d,,'
p5159
ssbsg1304
I00
sg1307
I01
sg1318
Nsg1305
Nsg171
I2
sg158
I6
sg1579
I1
sg1316
Nsg1580
S'JJ'
p5160
sg229
(issf_api
FeatureSet
p5161
(dp5162
g232
(dp5163
S'posn'
p5164
S'80'
p5165
sS'name'
p5166
S'\xe0\xa4\xb5\xe0\xa4\xbf\xe0\xa4\xa6\xe0\xa5\x87\xe0\xa4\xb6\xe0\xa5\x80'
p5167
sS'af'
p5168
S'\xe0\xa4\xb5\xe0\xa4\xbf\xe0\xa4\xa6\xe0\xa5\x87\xe0\xa4\xb6\xe0\xa5\x80,adj,any,any,,d,,'
p5169
ssbsg1326
I00
sba(issf_api
Word
p5170
(dp5171
g1560
I00
sg1561
V\u092e\u0940\u0921\u093f\u092f\u093e
p5172
sg1563
(issf_api
FeatureSet
p5173
(dp5174
g232
(dp5175
S'posn'
p5176
S'90'
p5177
sS'name'
p5178
S'\xe0\xa4\xae\xe0\xa5\x80\xe0\xa4\xa1\xe0\xa4\xbf\xe0\xa4\xaf\xe0\xa4\xbe'
p5179
sS'drel'
p5180
S'pof__cn:\xe0\xa4\xa8\xe0\xa4\xbf\xe0\xa4\xb5\xe0\xa5\x87\xe0\xa4\xb6\xe0\xa4\x95'
p5181
sS'chunktype'
p5182
S'child:NP2'
p5183
sS'af'
p5184
S'\xe0\xa4\xae\xe0\xa5\x80\xe0\xa4\xa1\xe0\xa4\xbf\xe0\xa4\xaf\xe0\xa4\xbe,n,m,sg,3,d,0,0'
p5185
ssbsg1304
I00
sg1307
I01
sg1318
Nsg1305
Nsg171
I2
sg158
I6
sg1579
I1
sg1316
Nsg1580
S'NNC'
p5186
sg229
(issf_api
FeatureSet
p5187
(dp5188
g232
(dp5189
S'posn'
p5190
S'90'
p5191
sS'name'
p5192
S'\xe0\xa4\xae\xe0\xa5\x80\xe0\xa4\xa1\xe0\xa4\xbf\xe0\xa4\xaf\xe0\xa4\xbe'
p5193
sS'af'
p5194
S'\xe0\xa4\xae\xe0\xa5\x80\xe0\xa4\xa1\xe0\xa4\xbf\xe0\xa4\xaf\xe0\xa4\xbe,n,m,sg,3,d,0,0'
p5195
ssbsg1326
I00
sba(issf_api
Word
p5196
(dp5197
g1560
I00
sg1561
V\u0928\u093f\u0935\u0947\u0936\u0915
p5198
sg1563
(issf_api
FeatureSet
p5199
(dp5200
g232
(dp5201
S'posn'
p5202
S'100'
p5203
sS'name'
p5204
S'\xe0\xa4\xa8\xe0\xa4\xbf\xe0\xa4\xb5\xe0\xa5\x87\xe0\xa4\xb6\xe0\xa4\x95'
p5205
sS'af'
p5206
S'\xe0\xa4\xa8\xe0\xa4\xbf\xe0\xa4\xb5\xe0\xa5\x87\xe0\xa4\xb6\xe0\xa4\x95,n,m,pl,3,d,0,0'
p5207
sS'chunkid'
p5208
S'NP2'
p5209
sS'drel'
p5210
S'k1:\xe0\xa4\x95\xe0\xa4\xb0'
p5211
sS'chunktype'
p5212
S'head:NP2'
p5213
ssbsg1304
I00
sg1307
I01
sg1318
Nsg1305
Nsg171
I2
sg158
I6
sg1579
I1
sg1316
Nsg1580
S'NN'
p5214
sg229
(issf_api
FeatureSet
p5215
(dp5216
g232
(dp5217
S'posn'
p5218
S'100'
p5219
sS'name'
p5220
S'\xe0\xa4\xa8\xe0\xa4\xbf\xe0\xa4\xb5\xe0\xa5\x87\xe0\xa4\xb6\xe0\xa4\x95'
p5221
sS'af'
p5222
S'\xe0\xa4\xa8\xe0\xa4\xbf\xe0\xa4\xb5\xe0\xa5\x87\xe0\xa4\xb6\xe0\xa4\x95,n,m,pl,3,d,0,0'
p5223
ssbsg1326
I00
sba(issf_api
Word
p5224
(dp5225
g1560
I00
sg1561
V\u0915\u093f\u0938\u0940
p5226
sg1563
(issf_api
FeatureSet
p5227
(dp5228
g232
(dp5229
S'posn'
p5230
S'110'
p5231
sS'name'
p5232
S'\xe0\xa4\x95\xe0\xa4\xbf\xe0\xa4\xb8\xe0\xa5\x80'
p5233
sS'drel'
p5234
S'nmod__adj:\xe0\xa4\x95\xe0\xa4\x82\xe0\xa4\xaa\xe0\xa4\xa8\xe0\xa5\x80'
p5235
sS'chunktype'
p5236
S'child:NP3'
p5237
sS'af'
p5238
S'\xe0\xa4\x95\xe0\xa5\x8b\xe0\xa4\x88,pn,any,sg,3,o,0,0'
p5239
ssbsg1304
I00
sg1307
I01
sg1318
Nsg1305
Nsg171
I3
sg158
I6
sg1579
I1
sg1316
Nsg1580
S'PRP'
p5240
sg229
(issf_api
FeatureSet
p5241
(dp5242
g232
(dp5243
S'posn'
p5244
S'110'
p5245
sS'name'
p5246
S'\xe0\xa4\x95\xe0\xa4\xbf\xe0\xa4\xb8\xe0\xa5\x80'
p5247
sS'af'
p5248
S'\xe0\xa4\x95\xe0\xa5\x8b\xe0\xa4\x88,pn,any,sg,3,o,0,0'
p5249
ssbsg1326
I00
sba(issf_api
Word
p5250
(dp5251
g1560
I00
sg1561
V\u092d\u093e\u0930\u0924\u0940\u092f
p5252
sg1563
(issf_api
FeatureSet
p5253
(dp5254
g232
(dp5255
S'posn'
p5256
S'120'
p5257
sS'name'
p5258
S'\xe0\xa4\xad\xe0\xa4\xbe\xe0\xa4\xb0\xe0\xa4\xa4\xe0\xa5\x80\xe0\xa4\xaf'
p5259
sS'drel'
p5260
S'nmod__adj:\xe0\xa4\x95\xe0\xa4\x82\xe0\xa4\xaa\xe0\xa4\xa8\xe0\xa5\x80'
p5261
sS'chunktype'
p5262
S'child:NP3'
p5263
sS'af'
p5264
S'\xe0\xa4\xad\xe0\xa4\xbe\xe0\xa4\xb0\xe0\xa4\xa4\xe0\xa5\x80\xe0\xa4\xaf,adj,any,any,,o,,'
p5265
ssbsg1304
I00
sg1307
I01
sg1318
Nsg1305
Nsg171
I3
sg158
I6
sg1579
I1
sg1316
Nsg1580
S'JJ'
p5266
sg229
(issf_api
FeatureSet
p5267
(dp5268
g232
(dp5269
S'posn'
p5270
S'120'
p5271
sS'name'
p5272
S'\xe0\xa4\xad\xe0\xa4\xbe\xe0\xa4\xb0\xe0\xa4\xa4\xe0\xa5\x80\xe0\xa4\xaf'
p5273
sS'af'
p5274
S'\xe0\xa4\xad\xe0\xa4\xbe\xe0\xa4\xb0\xe0\xa4\xa4\xe0\xa5\x80\xe0\xa4\xaf,adj,any,any,,o,,'
p5275
ssbsg1326
I00
sba(issf_api
Word
p5276
(dp5277
g1560
I00
sg1561
V\u092e\u0940\u0921\u093f\u092f\u093e
p5278
sg1563
(issf_api
FeatureSet
p5279
(dp5280
g232
(dp5281
S'posn'
p5282
S'130'
p5283
sS'name'
p5284
S'\xe0\xa4\xae\xe0\xa5\x80\xe0\xa4\xa1\xe0\xa4\xbf\xe0\xa4\xaf\xe0\xa4\xbe2'
p5285
sS'drel'
p5286
S'pof__cn:\xe0\xa4\x95\xe0\xa4\x82\xe0\xa4\xaa\xe0\xa4\xa8\xe0\xa5\x80'
p5287
sS'chunktype'
p5288
S'child:NP3'
p5289
sS'af'
p5290
S'\xe0\xa4\xae\xe0\xa5\x80\xe0\xa4\xa1\xe0\xa4\xbf\xe0\xa4\xaf\xe0\xa4\xbe,n,m,sg,3,d,0,0'
p5291
ssbsg1304
I00
sg1307
I01
sg1318
Nsg1305
Nsg171
I3
sg158
I6
sg1579
I1
sg1316
Nsg1580
S'NNC'
p5292
sg229
(issf_api
FeatureSet
p5293
(dp5294
g232
(dp5295
S'posn'
p5296
S'130'
p5297
sS'name'
p5298
S'\xe0\xa4\xae\xe0\xa5\x80\xe0\xa4\xa1\xe0\xa4\xbf\xe0\xa4\xaf\xe0\xa4\xbe2'
p5299
sS'af'
p5300
S'\xe0\xa4\xae\xe0\xa5\x80\xe0\xa4\xa1\xe0\xa4\xbf\xe0\xa4\xaf\xe0\xa4\xbe,n,m,sg,3,d,0,0'
p5301
ssbsg1326
I00
sba(issf_api
Word
p5302
(dp5303
g1560
I00
sg1561
V\u0915\u0902\u092a\u0928\u0940
p5304
sg1563
(issf_api
FeatureSet
p5305
(dp5306
g232
(dp5307
S'posn'
p5308
S'140'
p5309
sS'name'
p5310
S'\xe0\xa4\x95\xe0\xa4\x82\xe0\xa4\xaa\xe0\xa4\xa8\xe0\xa5\x80'
p5311
sS'af'
p5312
S'\xe0\xa4\x95\xe0\xa4\x82\xe0\xa4\xaa\xe0\xa4\xa8\xe0\xa5\x80,n,f,sg,3,o,0_\xe0\xa4\xae\xe0\xa5\x87\xe0\xa4\x82,0'
p5313
sS'chunkid'
p5314
S'NP3'
p5315
sS'drel'
p5316
S'k7:\xe0\xa4\x95\xe0\xa4\xb0'
p5317
sS'vpos'
p5318
S'vib_vib_5'
p5319
sS'chunktype'
p5320
S'head:NP3'
p5321
ssbsg1304
I00
sg1307
I01
sg1318
Nsg1305
Nsg171
I3
sg158
I6
sg1579
I1
sg1316
Nsg1580
S'NN'
p5322
sg229
(issf_api
FeatureSet
p5323
(dp5324
g232
(dp5325
S'posn'
p5326
S'140'
p5327
sS'name'
p5328
S'\xe0\xa4\x95\xe0\xa4\x82\xe0\xa4\xaa\xe0\xa4\xa8\xe0\xa5\x80'
p5329
sS'af'
p5330
S'\xe0\xa4\x95\xe0\xa4\x82\xe0\xa4\xaa\xe0\xa4\xa8\xe0\xa5\x80,n,f,sg,3,o,0,0'
p5331
ssbsg1326
I00
sba(issf_api
Word
p5332
(dp5333
g1560
I00
sg1561
V\u092e\u0947\u0902
p5334
sg1563
(issf_api
FeatureSet
p5335
(dp5336
g232
(dp5337
S'posn'
p5338
S'150'
p5339
sS'name'
p5340
S'\xe0\xa4\xae\xe0\xa5\x87\xe0\xa4\x82'
p5341
sS'drel'
p5342
S'lwg__psp:\xe0\xa4\x95\xe0\xa4\x82\xe0\xa4\xaa\xe0\xa4\xa8\xe0\xa5\x80'
p5343
sS'chunktype'
p5344
S'child:NP3'
p5345
sS'af'
p5346
S'\xe0\xa4\xae\xe0\xa5\x87\xe0\xa4\x82,psp,,,,,,'
p5347
ssbsg1304
I00
sg1307
I01
sg1318
Nsg1305
Nsg171
I3
sg158
I6
sg1579
I1
sg1316
Nsg1580
S'PSP'
p5348
sg229
(issf_api
FeatureSet
p5349
(dp5350
g232
(dp5351
S'posn'
p5352
S'150'
p5353
sS'name'
p5354
S'\xe0\xa4\xae\xe0\xa5\x87\xe0\xa4\x82'
p5355
sS'af'
p5356
S'\xe0\xa4\xae\xe0\xa5\x87\xe0\xa4\x82,psp,,,,,,'
p5357
ssbsg1326
I00
sba(issf_api
Word
p5358
(dp5359
g1560
I00
sg1561
V\u0905\u0927\u093f\u0915\u0924\u092e
p5360
sg1563
(issf_api
FeatureSet
p5361
(dp5362
g232
(dp5363
S'posn'
p5364
S'160'
p5365
sS'name'
p5366
S'\xe0\xa4\x85\xe0\xa4\xa7\xe0\xa4\xbf\xe0\xa4\x95\xe0\xa4\xa4\xe0\xa4\xae'
p5367
sS'drel'
p5368
S'nmod__adj:\xe0\xa4\xaa\xe0\xa5\x8d\xe0\xa4\xb0\xe0\xa4\xa4\xe0\xa4\xbf\xe0\xa4\xb6\xe0\xa4\xa4'
p5369
sS'chunktype'
p5370
S'child:NP4'
p5371
sS'af'
p5372
S'\xe0\xa4\x85\xe0\xa4\xa7\xe0\xa4\xbf\xe0\xa4\x95\xe0\xa4\xa4\xe0\xa4\xae,adj,any,any,,o,,'
p5373
ssbsg1304
I00
sg1307
I01
sg1318
Nsg1305
Nsg171
I4
sg158
I6
sg1579
I1
sg1316
Nsg1580
S'JJ'
p5374
sg229
(issf_api
FeatureSet
p5375
(dp5376
g232
(dp5377
S'posn'
p5378
S'160'
p5379
sS'name'
p5380
S'\xe0\xa4\x85\xe0\xa4\xa7\xe0\xa4\xbf\xe0\xa4\x95\xe0\xa4\xa4\xe0\xa4\xae'
p5381
sS'af'
p5382
S'\xe0\xa4\x85\xe0\xa4\xa7\xe0\xa4\xbf\xe0\xa4\x95\xe0\xa4\xa4\xe0\xa4\xae,adj,any,any,,o,,'
p5383
ssbsg1326
I00
sba(issf_api
Word
p5384
(dp5385
g1560
I00
sg1561
V\u0968\u096c
p5386
sg1563
(issf_api
FeatureSet
p5387
(dp5388
g232
(dp5389
S'posn'
p5390
S'170'
p5391
sS'name'
p5392
S'\xe0\xa5\xa8\xe0\xa5\xac'
p5393
sS'drel'
p5394
S'nmod__adj:\xe0\xa4\xaa\xe0\xa5\x8d\xe0\xa4\xb0\xe0\xa4\xa4\xe0\xa4\xbf\xe0\xa4\xb6\xe0\xa4\xa4'
p5395
sS'chunktype'
p5396
S'child:NP4'
p5397
sS'af'
p5398
S'\xe0\xa5\xa8\xe0\xa5\xac,num,any,any,,any,,'
p5399
ssbsg1304
I00
sg1307
I01
sg1318
Nsg1305
Nsg171
I4
sg158
I6
sg1579
I1
sg1316
Nsg1580
S'QC'
p5400
sg229
(issf_api
FeatureSet
p5401
(dp5402
g232
(dp5403
S'posn'
p5404
S'170'
p5405
sS'name'
p5406
S'\xe0\xa5\xa8\xe0\xa5\xac'
p5407
sS'af'
p5408
S'\xe0\xa5\xa8\xe0\xa5\xac,num,any,any,,any,,'
p5409
ssbsg1326
I00
sba(issf_api
Word
p5410
(dp5411
g1560
I00
sg1561
V\u092a\u094d\u0930\u0924\u093f\u0936\u0924
p5412
sg1563
(issf_api
FeatureSet
p5413
(dp5414
g232
(dp5415
S'posn'
p5416
S'180'
p5417
sS'name'
p5418
S'\xe0\xa4\xaa\xe0\xa5\x8d\xe0\xa4\xb0\xe0\xa4\xa4\xe0\xa4\xbf\xe0\xa4\xb6\xe0\xa4\xa4'
p5419
sS'af'
p5420
S'\xe0\xa4\xaa\xe0\xa5\x8d\xe0\xa4\xb0\xe0\xa4\xa4\xe0\xa4\xbf\xe0\xa4\xb6\xe0\xa4\xa4,n,m,sg,3,o,0_\xe0\xa4\x95\xe0\xa4\xbe,0'
p5421
sS'chunkid'
p5422
S'NP4'
p5423
sS'drel'
p5424
S'r6-k2:\xe0\xa4\xa8\xe0\xa4\xbf\xe0\xa4\xb5\xe0\xa5\x87\xe0\xa4\xb6'
p5425
sS'vpos'
p5426
S'vib_4'
p5427
sS'chunktype'
p5428
S'head:NP4'
p5429
ssbsg1304
I00
sg1307
I01
sg1318
Nsg1305
Nsg171
I4
sg158
I6
sg1579
I1
sg1316
Nsg1580
S'NN'
p5430
sg229
(issf_api
FeatureSet
p5431
(dp5432
g232
(dp5433
S'posn'
p5434
S'180'
p5435
sS'name'
p5436
S'\xe0\xa4\xaa\xe0\xa5\x8d\xe0\xa4\xb0\xe0\xa4\xa4\xe0\xa4\xbf\xe0\xa4\xb6\xe0\xa4\xa4'
p5437
sS'af'
p5438
S'\xe0\xa4\xaa\xe0\xa5\x8d\xe0\xa4\xb0\xe0\xa4\xa4\xe0\xa4\xbf\xe0\xa4\xb6\xe0\xa4\xa4,n,m,sg,3,o,0,0'
p5439
ssbsg1326
I00
sba(issf_api
Word
p5440
(dp5441
g1560
I00
sg1561
V\u0915\u093e
p5442
sg1563
(issf_api
FeatureSet
p5443
(dp5444
g232
(dp5445
S'posn'
p5446
S'190'
p5447
sS'name'
p5448
S'\xe0\xa4\x95\xe0\xa4\xbe'
p5449
sS'drel'
p5450
S'lwg__psp:\xe0\xa4\xaa\xe0\xa5\x8d\xe0\xa4\xb0\xe0\xa4\xa4\xe0\xa4\xbf\xe0\xa4\xb6\xe0\xa4\xa4'
p5451
sS'chunktype'
p5452
S'child:NP4'
p5453
sS'af'
p5454
S'\xe0\xa4\x95\xe0\xa4\xbe,psp,m,sg,,d,,'
p5455
ssbsg1304
I00
sg1307
I01
sg1318
Nsg1305
Nsg171
I4
sg158
I6
sg1579
I1
sg1316
Nsg1580
S'PSP'
p5456
sg229
(issf_api
FeatureSet
p5457
(dp5458
g232
(dp5459
S'posn'
p5460
S'190'
p5461
sS'name'
p5462
S'\xe0\xa4\x95\xe0\xa4\xbe'
p5463
sS'af'
p5464
S'\xe0\xa4\x95\xe0\xa4\xbe,psp,m,sg,,d,,'
p5465
ssbsg1326
I00
sba(issf_api
Word
p5466
(dp5467
g1560
I00
sg1561
V\u0928\u093f\u0935\u0947\u0936
p5468
sg1563
(issf_api
FeatureSet
p5469
(dp5470
g232
(dp5471
S'posn'
p5472
S'200'
p5473
sS'name'
p5474
S'\xe0\xa4\xa8\xe0\xa4\xbf\xe0\xa4\xb5\xe0\xa5\x87\xe0\xa4\xb6'
p5475
sS'af'
p5476
S'\xe0\xa4\xa8\xe0\xa4\xbf\xe0\xa4\xb5\xe0\xa5\x87\xe0\xa4\xb6,n,m,sg,3,d,0,0'
p5477
sS'chunkid'
p5478
S'NP5'
p5479
sS'drel'
p5480
S'pof:\xe0\xa4\x95\xe0\xa4\xb0'
p5481
sS'chunktype'
p5482
S'head:NP5'
p5483
ssbsg1304
I00
sg1307
I01
sg1318
Nsg1305
Nsg171
I5
sg158
I6
sg1579
I1
sg1316
Nsg1580
S'NN'
p5484
sg229
(issf_api
FeatureSet
p5485
(dp5486
g232
(dp5487
S'posn'
p5488
S'200'
p5489
sS'name'
p5490
S'\xe0\xa4\xa8\xe0\xa4\xbf\xe0\xa4\xb5\xe0\xa5\x87\xe0\xa4\xb6'
p5491
sS'af'
p5492
S'\xe0\xa4\xa8\xe0\xa4\xbf\xe0\xa4\xb5\xe0\xa5\x87\xe0\xa4\xb6,n,m,sg,3,d,0,0'
p5493
ssbsg1326
I00
sba(issf_api
Word
p5494
(dp5495
g1560
I00
sg1561
V\u0915\u0930
p5496
sg1563
(issf_api
FeatureSet
p5497
(dp5498
g232
(dp5499
S'posn'
p5500
S'210'
p5501
sS'name'
p5502
S'\xe0\xa4\x95\xe0\xa4\xb0'
p5503
sS'af'
p5504
S'\xe0\xa4\x95\xe0\xa4\xb0,v,m,pl,3,,0_\xe0\xa4\xb8\xe0\xa4\x95+\xe0\xa4\xa4\xe0\xa4\xbe_\xe0\xa4\xb9\xe0\xa5\x88,0'
p5505
sS'chunkid'
p5506
S'VGF'
p5507
sS'stype'
p5508
S'declarative'
p5509
sS'drel'
p5510
S'ccof:\xe0\xa4\xac\xe0\xa4\xb9\xe0\xa4\xb0\xe0\xa4\xb9\xe0\xa4\xbe\xe0\xa4\xb2'
p5511
sS'voicetype'
p5512
S'active'
p5513
sS'vpos'
p5514
S'tam_2_3'
p5515
sS'chunktype'
p5516
S'head:VGF'
p5517
ssbsg1304
I00
sg1307
I01
sg1318
Nsg1305
Nsg171
I6
sg158
I6
sg1579
I1
sg1316
Nsg1580
S'VM'
p5518
sg229
(issf_api
FeatureSet
p5519
(dp5520
g232
(dp5521
S'posn'
p5522
S'210'
p5523
sS'name'
p5524
S'\xe0\xa4\x95\xe0\xa4\xb0'
p5525
sS'af'
p5526
S'\xe0\xa4\x95\xe0\xa4\xb0,v,any,any,any,,0,0'
p5527
ssbsg1326
I00
sba(issf_api
Word
p5528
(dp5529
g1560
I00
sg1561
V\u0938\u0915\u0924\u0947
p5530
sg1563
(issf_api
FeatureSet
p5531
(dp5532
g232
(dp5533
S'posn'
p5534
S'220'
p5535
sS'name'
p5536
S'\xe0\xa4\xb8\xe0\xa4\x95\xe0\xa4\xa4\xe0\xa5\x87'
p5537
sS'drel'
p5538
S'lwg__vaux:\xe0\xa4\x95\xe0\xa4\xb0'
p5539
sS'chunktype'
p5540
S'child:VGF'
p5541
sS'af'
p5542
S'\xe0\xa4\xb8\xe0\xa4\x95,v,m,pl,any,,\xe0\xa4\xa4\xe0\xa4\xbe,wA'
p5543
ssbsg1304
I00
sg1307
I01
sg1318
Nsg1305
Nsg171
I6
sg158
I6
sg1579
I1
sg1316
Nsg1580
S'VAUX'
p5544
sg229
(issf_api
FeatureSet
p5545
(dp5546
g232
(dp5547
S'posn'
p5548
S'220'
p5549
sS'name'
p5550
S'\xe0\xa4\xb8\xe0\xa4\x95\xe0\xa4\xa4\xe0\xa5\x87'
p5551
sS'af'
p5552
S'\xe0\xa4\xb8\xe0\xa4\x95,v,m,pl,any,,\xe0\xa4\xa4\xe0\xa4\xbe,wA'
p5553
ssbsg1326
I00
sba(issf_api
Word
p5554
(dp5555
g1560
I00
sg1561
V\u0939\u0948\u0902
p5556
sg1563
(issf_api
FeatureSet
p5557
(dp5558
g232
(dp5559
S'posn'
p5560
S'230'
p5561
sS'name'
p5562
S'\xe0\xa4\xb9\xe0\xa5\x88\xe0\xa4\x82'
p5563
sS'drel'
p5564
S'lwg__vaux:\xe0\xa4\x95\xe0\xa4\xb0'
p5565
sS'chunktype'
p5566
S'child:VGF'
p5567
sS'af'
p5568
S'\xe0\xa4\xb9\xe0\xa5\x88,v,any,pl,3,,\xe0\xa4\xb9\xe0\xa5\x88,hE'
p5569
ssbsg1304
I00
sg1307
I01
sg1318
Nsg1305
Nsg171
I6
sg158
I6
sg1579
I1
sg1316
Nsg1580
S'VAUX'
p5570
sg229
(issf_api
FeatureSet
p5571
(dp5572
g232
(dp5573
S'posn'
p5574
S'230'
p5575
sS'name'
p5576
S'\xe0\xa4\xb9\xe0\xa5\x88\xe0\xa4\x82'
p5577
sS'af'
p5578
S'\xe0\xa4\xb9\xe0\xa5\x88,v,any,pl,3,,\xe0\xa4\xb9\xe0\xa5\x88,hE'
p5579
ssbsg1326
I00
sba(issf_api
Word
p5580
(dp5581
g1560
I00
sg1561
V\u0964
sg1563
(issf_api
FeatureSet
p5582
(dp5583
g232
(dp5584
S'posn'
p5585
S'240'
p5586
sS'name'
p5587
S'\xe0\xa5\xa4'
p5588
sS'af'
p5589
S'\xe0\xa5\xa4,punc,,,,,,'
p5590
sS'chunkid'
p5591
S'BLK'
p5592
sS'drel'
p5593
S'rsym:\xe0\xa4\xac\xe0\xa4\xb9\xe0\xa4\xb0\xe0\xa4\xb9\xe0\xa4\xbe\xe0\xa4\xb2'
p5594
sS'chunktype'
p5595
S'head:BLK'
p5596
ssbsg1304
I00
sg1307
I01
sg1318
Nsg1305
Nsg171
I7
sg158
I6
sg1579
I1
sg1316
Nsg1580
S'SYM'
p5597
sg229
(issf_api
FeatureSet
p5598
(dp5599
g232
(dp5600
S'posn'
p5601
S'240'
p5602
sS'name'
p5603
S'\xe0\xa5\xa4'
p5604
sS'af'
p5605
S'\xe0\xa5\xa4,punc,,,,,,'
p5606
ssbsg1326
I00
sbasb.