(iannotated_data
discourseFile
p1
(dp2
S'annToRawMapping'
p3
(dp4
I0
(I0
tp5
sI1
(I1
tp6
sI2
(I2
tp7
sI3
(I3
tp8
sI4
(I4
tp9
sI5
(I5
tp10
sI6
(I6
tp11
sI7
(I7
tp12
sI8
(I8
tp13
sI9
(I9
tp14
sI10
(I10
tp15
sI11
(I11
tp16
sI12
(I12
tp17
sI13
(I13
tp18
sI14
(I14
tp19
sI15
(I15
tp20
sI16
(I16
tp21
sI17
(I17
tp22
sI18
(I18
tp23
sI19
(I19
tp24
sI20
(I20
tp25
sI21
(I21
tp26
sI22
(I22
tp27
sI23
(I23
tp28
sI24
(I24
tp29
sI25
(I25
tp30
sI26
(I26
tp31
sI27
(I27
tp32
sI28
(I28
tp33
sI29
(I29
tp34
sI30
(I30
tp35
sI31
(I31
tp36
sI32
(I32
tp37
sI33
(I33
tp38
sI34
(I34
tp39
sI35
(I35
tp40
sI36
(I36
tp41
sI37
(I37
tp42
sI38
(I38
tp43
sI39
(I39
tp44
sI40
(I40
tp45
sI41
(I41
tp46
sI42
(I42
tp47
sI43
(I43
tp48
sI44
(I44
tp49
sI45
(I45
tp50
sI46
(I46
tp51
sI47
(I47
tp52
sI48
(I48
tp53
sI49
(I49
tp54
sI50
(I50
tp55
sI51
(I51
tp56
sI52
(I52
tp57
sI53
(I53
tp58
sI54
(I54
tp59
sI55
(I55
tp60
sI56
(I56
tp61
sI57
(I57
tp62
sI58
(I58
tp63
sI59
(I59
tp64
sI60
(I60
tp65
sI61
(I61
tp66
sI62
(I62
tp67
sI63
(I63
tp68
sI64
(I64
tp69
sI65
(I65
tp70
sI66
(I66
tp71
sI67
(I67
tp72
sI68
(I68
tp73
sI69
(I69
tp74
sI70
(I70
tp75
sI71
(I71
tp76
sI72
(I72
tp77
sI73
(I73
tp78
sI74
(I74
tp79
sI75
(I75
tp80
sI76
(I76
tp81
sI77
(I77
tp82
sI78
(I78
tp83
sI79
(I79
tp84
sI80
(I80
tp85
sI81
(I81
tp86
sI82
(I82
tp87
sI83
(I83
tp88
sI84
(I84
tp89
sI85
(I85
tp90
sI86
(I86
tp91
sI87
(I87
tp92
sI88
(I88
tp93
sI89
(I89
tp94
sI90
(I90
tp95
sI91
(I91
tp96
sI92
(I92
tp97
sI93
(I93
tp98
sI94
(I94
tp99
sI95
(I95
tp100
sI96
(I96
tp101
sI97
(I97
tp102
sI98
(I98
tp103
sI99
(I99
tp104
sI100
(I100
tp105
sI101
(I101
tp106
sI102
(I102
tp107
sI103
(I103
tp108
sI104
(I104
tp109
sI105
(I105
tp110
sI106
(I106
tp111
sI107
(I107
tp112
sI108
(I108
tp113
sI109
(I109
tp114
sI110
(I110
tp115
sI111
(I111
tp116
sI112
(I112
tp117
sI113
(I113
tp118
sI114
(I114
tp119
sI115
(I115
tp120
sI116
(I116
tp121
sI117
(I117
tp122
sI118
(I118
tp123
sI119
(I119
tp124
sI120
(I120
tp125
sI121
(I121
tp126
sI122
(I122
tp127
sI123
(I123
tp128
sI124
(I124
tp129
sI125
(I125
tp130
sI126
(I126
tp131
sI127
(I127
tp132
sI128
(I128
tp133
sI129
(I129
tp134
sI130
(I130
tp135
sI131
(I131
tp136
sI132
(I132
tp137
sI133
(I133
tp138
sI134
(I134
tp139
sI135
(I135
tp140
sI136
(I136
tp141
sI137
(I137
tp142
sI138
(I138
tp143
sI139
(I139
tp144
sI140
(I140
tp145
sI141
(I141
tp146
sI142
(I142
tp147
sI143
(I143
tp148
sI144
(I144
tp149
sI145
(I145
tp150
sI146
(I146
tp151
sI147
(I147
tp152
sI148
(I148
tp153
sI149
(I149
tp154
sI150
(I150
tp155
sI151
(I151
tp156
sI152
(I152
tp157
sI153
(I153
tp158
sI154
(I154
tp159
sI155
(I155
tp160
sI156
(I156
tp161
sI157
(I157
tp162
sI158
(I158
tp163
sI159
(I159
tp164
sI160
(I160
tp165
sI161
(I161
tp166
sI162
(I162
tp167
sI163
(I163
tp168
sI164
(I164
tp169
sI165
(I165
tp170
sI166
(I166
tp171
sI167
(I167
tp172
sI168
(I168
tp173
sI169
(I169
tp174
sI170
(I170
tp175
sI171
(I171
tp176
sI172
(I172
tp177
sI173
(I173
tp178
sI174
(I174
tp179
ssS'sentenceList'
p180
(lp181
(issf_api
Sentence
p182
(dp183
S'rootNode'
p184
(lp185
sS'sentenceNum'
p186
I0
sS'wordNumList'
p187
(lp188
I0
aI1
aI2
aI3
aI4
aI5
aI6
aI7
aI8
aI9
aI10
aI11
aI12
aI13
aI14
aI15
aI16
aI17
aI18
aI19
aI20
aI21
aI22
aI23
aI24
aI25
aI26
aI27
aI28
aI29
aI30
aI31
aI32
aI33
aI34
aI35
aI36
aI37
aI38
aI39
aI40
aI41
aI42
asS'nodeDict'
p189
(dp190
S'NP10'
p191
(issf_api
Node
p192
(dp193
S'nodeRelation'
p194
S'ccof'
p195
sS'nodeName'
p196
g191
sS'nodeParent'
p197
S'CCP'
p198
sS'nodeLevel'
p199
I-1
sS'chunkNum'
p200
I11
sS'childList'
p201
(lp202
sbsS'NP11'
p203
(issf_api
Node
p204
(dp205
g194
S'ccof'
p206
sg196
g203
sg197
S'CCP'
p207
sg199
I-1
sg200
I13
sg201
(lp208
sbsS'VGNN'
p209
(issf_api
Node
p210
(dp211
g194
S'rt'
p212
sg196
g209
sg197
S'VGF'
p213
sg199
I-1
sg200
I10
sg201
(lp214
sbsS'VGF'
p215
(issf_api
Node
p216
(dp217
g194
S'None'
p218
sg196
g215
sg197
g218
sg199
I-1
sg200
I15
sg201
(lp219
sbsS'NP12'
p220
(issf_api
Node
p221
(dp222
g194
S'pof'
p223
sg196
g220
sg197
S'VGF'
p224
sg199
I-1
sg200
I14
sg201
(lp225
sbsS'CCP'
p226
(issf_api
Node
p227
(dp228
g194
S'r6-k2'
p229
sg196
g226
sg197
S'NP12'
p230
sg199
I-1
sg200
I12
sg201
(lp231
sbsS'NP5'
p232
(issf_api
Node
p233
(dp234
g194
S'rs'
p235
sg196
g232
sg197
S'NP4'
p236
sg199
I-1
sg200
I4
sg201
(lp237
sbsS'NP9'
p238
(issf_api
Node
p239
(dp240
g194
S'k2'
p241
sg196
g238
sg197
S'VGNN'
p242
sg199
I-1
sg200
I9
sg201
(lp243
sbsS'NP8'
p244
(issf_api
Node
p245
(dp246
g194
S'k7'
p247
sg196
g244
sg197
S'VGNN'
p248
sg199
I-1
sg200
I8
sg201
(lp249
sbsS'BLK'
p250
(issf_api
Node
p251
(dp252
g194
S'rsym'
p253
sg196
g250
sg197
S'VGF'
p254
sg199
I-1
sg200
I16
sg201
(lp255
sbsS'FRAGP'
p256
(issf_api
Node
p257
(dp258
g194
S'fragof'
p259
sg196
g256
sg197
S'NP4'
p260
sg199
I-1
sg200
I5
sg201
(lp261
sbsS'NP'
p262
(issf_api
Node
p263
(dp264
g194
S'k1'
p265
sg196
g262
sg197
S'VGF'
p266
sg199
I-1
sg200
I0
sg201
(lp267
sbsS'NP4'
p268
(issf_api
Node
p269
(dp270
g194
S'k4'
p271
sg196
g268
sg197
S'VGF'
p272
sg199
I-1
sg200
I3
sg201
(lp273
sbsS'NP7'
p274
(issf_api
Node
p275
(dp276
g194
S'k5'
p277
sg196
g274
sg197
S'VGNN'
p278
sg199
I-1
sg200
I7
sg201
(lp279
sbsS'NP6'
p280
(issf_api
Node
p281
(dp282
g194
S'nmod'
p283
sg196
g280
sg197
S'NP7'
p284
sg199
I-1
sg200
I6
sg201
(lp285
sbsS'NP3'
p286
(issf_api
Node
p287
(dp288
g194
S'r6'
p289
sg196
g286
sg197
S'NP4'
p290
sg199
I-1
sg200
I2
sg201
(lp291
sbsS'NP2'
p292
(issf_api
Node
p293
(dp294
g194
S'k7t'
p295
sg196
g292
sg197
S'VGF'
p296
sg199
I-1
sg200
I1
sg201
(lp297
sbssS'chunkList'
p298
(lp299
(issf_api
Chunk
p300
(dp301
g196
g262
sg200
I0
sS'chunkTag'
p302
S'NP'
p303
sg186
I0
sg187
(lp304
I0
aI1
aI2
aI3
asS'featureSet'
p305
(issf_api
FeatureSet
p306
(dp307
S'featureDict'
p308
(dp309
S'drel'
p310
S'k1:VGF'
p311
sS'name'
p312
g262
ssbsba(issf_api
Chunk
p313
(dp314
g196
g292
sg200
I1
sg302
S'NP'
p315
sg186
I0
sg187
(lp316
I4
aI5
asg305
(issf_api
FeatureSet
p317
(dp318
g308
(dp319
S'drel'
p320
S'k7t:VGF'
p321
sS'name'
p322
g292
ssbsba(issf_api
Chunk
p323
(dp324
g196
g286
sg200
I2
sg302
S'NP'
p325
sg186
I0
sg187
(lp326
I6
aI7
aI8
asg305
(issf_api
FeatureSet
p327
(dp328
g308
(dp329
S'drel'
p330
S'r6:NP4'
p331
sS'name'
p332
g286
ssbsba(issf_api
Chunk
p333
(dp334
g196
g268
sg200
I3
sg302
S'NP'
p335
sg186
I0
sg187
(lp336
I9
aI10
aI11
asg305
(issf_api
FeatureSet
p337
(dp338
g308
(dp339
S'drel'
p340
S'k4:VGF'
p341
sS'name'
p342
g268
ssbsba(issf_api
Chunk
p343
(dp344
g196
g232
sg200
I4
sg302
S'NP'
p345
sg186
I0
sg187
(lp346
I12
aI13
aI14
asg305
(issf_api
FeatureSet
p347
(dp348
g308
(dp349
S'drel'
p350
S'rs:NP4'
p351
sS'name'
p352
g232
ssbsba(issf_api
Chunk
p353
(dp354
g196
g256
sg200
I5
sg302
S'FRAGP'
p355
sg186
I0
sg187
(lp356
I15
asg305
(issf_api
FeatureSet
p357
(dp358
g308
(dp359
S'drel'
p360
S'fragof:NP4'
p361
sS'name'
p362
g256
ssbsba(issf_api
Chunk
p363
(dp364
g196
g280
sg200
I6
sg302
S'NP'
p365
sg186
I0
sg187
(lp366
I16
asg305
(issf_api
FeatureSet
p367
(dp368
g308
(dp369
S'drel'
p370
S'nmod:NP7'
p371
sS'name'
p372
g280
ssbsba(issf_api
Chunk
p373
(dp374
g196
g274
sg200
I7
sg302
S'NP'
p375
sg186
I0
sg187
(lp376
I17
aI18
aI19
asg305
(issf_api
FeatureSet
p377
(dp378
g308
(dp379
S'drel'
p380
S'k5:VGNN'
p381
sS'name'
p382
g274
ssbsba(issf_api
Chunk
p383
(dp384
g196
g244
sg200
I8
sg302
S'NP'
p385
sg186
I0
sg187
(lp386
I20
aI21
aI22
aI23
aI24
aI25
asg305
(issf_api
FeatureSet
p387
(dp388
g308
(dp389
S'drel'
p390
S'k7:VGNN'
p391
sS'name'
p392
g244
ssbsba(issf_api
Chunk
p393
(dp394
g196
g238
sg200
I9
sg302
S'NP'
p395
sg186
I0
sg187
(lp396
I26
aI27
asg305
(issf_api
FeatureSet
p397
(dp398
g308
(dp399
S'drel'
p400
S'k2:VGNN'
p401
sS'name'
p402
g238
ssbsba(issf_api
Chunk
p403
(dp404
g196
g209
sg200
I10
sg302
S'VGNN'
p405
sg186
I0
sg187
(lp406
I28
aI29
aI30
asg305
(issf_api
FeatureSet
p407
(dp408
g308
(dp409
S'drel'
p410
S'rt:VGF'
p411
sS'name'
p412
g209
ssbsba(issf_api
Chunk
p413
(dp414
g196
g191
sg200
I11
sg302
S'NP'
p415
sg186
I0
sg187
(lp416
I31
aI32
aI33
asg305
(issf_api
FeatureSet
p417
(dp418
g308
(dp419
S'drel'
p420
S'ccof:CCP'
p421
sS'name'
p422
g191
ssbsba(issf_api
Chunk
p423
(dp424
g196
g226
sg200
I12
sg302
S'CCP'
p425
sg186
I0
sg187
(lp426
I34
asg305
(issf_api
FeatureSet
p427
(dp428
g308
(dp429
S'drel'
p430
S'r6-k2:NP12'
p431
sS'name'
p432
g226
ssbsba(issf_api
Chunk
p433
(dp434
g196
g203
sg200
I13
sg302
S'NP'
p435
sg186
I0
sg187
(lp436
I35
aI36
aI37
asg305
(issf_api
FeatureSet
p437
(dp438
g308
(dp439
S'drel'
p440
S'ccof:CCP'
p441
sS'name'
p442
g203
ssbsba(issf_api
Chunk
p443
(dp444
g196
g220
sg200
I14
sg302
S'NP'
p445
sg186
I0
sg187
(lp446
I38
asg305
(issf_api
FeatureSet
p447
(dp448
g308
(dp449
S'drel'
p450
S'pof:VGF'
p451
sS'name'
p452
g220
ssbsba(issf_api
Chunk
p453
(dp454
g196
g215
sg200
I15
sg302
S'VGF'
p455
sg186
I0
sg187
(lp456
I39
aI40
aI41
asg305
(issf_api
FeatureSet
p457
(dp458
g308
(dp459
S'name'
p460
g215
sS'stype'
p461
S'declarative'
p462
sS'voicetype'
p463
S'active'
p464
ssbsba(issf_api
Chunk
p465
(dp466
g196
g250
sg200
I16
sg302
S'BLK'
p467
sg186
I0
sg187
(lp468
I42
asg305
(issf_api
FeatureSet
p469
(dp470
g308
(dp471
S'drel'
p472
S'rsym:VGF'
p473
sS'name'
p474
g250
ssbsbasba(issf_api
Sentence
p475
(dp476
g184
(lp477
sg186
I1
sg187
(lp478
I43
aI44
aI45
aI46
aI47
aI48
aI49
aI50
aI51
aI52
aI53
aI54
aI55
aI56
aI57
aI58
aI59
aI60
aI61
aI62
aI63
aI64
aI65
aI66
aI67
aI68
aI69
aI70
aI71
aI72
aI73
aI74
aI75
aI76
aI77
asg189
(dp479
S'VGNF'
p480
(issf_api
Node
p481
(dp482
g194
S'vmod'
p483
sg196
g480
sg197
S'VGF'
p484
sg199
I-1
sg200
I4
sg201
(lp485
sbsS'NP11'
p486
(issf_api
Node
p487
(dp488
g194
S'pof'
p489
sg196
g486
sg197
S'VGF'
p490
sg199
I-1
sg200
I13
sg201
(lp491
sbsS'NP10'
p492
(issf_api
Node
p493
(dp494
g194
S'ccof'
p495
sg196
g492
sg197
S'CCP'
p496
sg199
I-1
sg200
I11
sg201
(lp497
sbsS'VGF'
p498
(issf_api
Node
p499
(dp500
g194
g218
sg196
g498
sg197
g218
sg199
I-1
sg200
I14
sg201
(lp501
sbsS'CCP'
p502
(issf_api
Node
p503
(dp504
g194
S'pof'
p505
sg196
g502
sg197
S'VGNN'
p506
sg199
I-1
sg200
I10
sg201
(lp507
sbsS'NP5'
p508
(issf_api
Node
p509
(dp510
g194
S'k1'
p511
sg196
g508
sg197
S'VGF'
p512
sg199
I-1
sg200
I5
sg201
(lp513
sbsS'NP9'
p514
(issf_api
Node
p515
(dp516
g194
S'ccof'
p517
sg196
g514
sg197
S'CCP'
p518
sg199
I-1
sg200
I9
sg201
(lp519
sbsS'NP8'
p520
(issf_api
Node
p521
(dp522
g194
S'ccof'
p523
sg196
g520
sg197
S'CCP'
p524
sg199
I-1
sg200
I8
sg201
(lp525
sbsS'BLK'
p526
(issf_api
Node
p527
(dp528
g194
S'rsym'
p529
sg196
g526
sg197
S'VGF'
p530
sg199
I-1
sg200
I15
sg201
(lp531
sbsS'VGNN'
p532
(issf_api
Node
p533
(dp534
g194
S'r6-k2'
p535
sg196
g532
sg197
S'NP11'
p536
sg199
I-1
sg200
I12
sg201
(lp537
sbsS'NP'
p538
(issf_api
Node
p539
(dp540
g194
S'nmod'
p541
sg196
g538
sg197
S'NP2'
p542
sg199
I-1
sg200
I0
sg201
(lp543
sbsS'NP4'
p544
(issf_api
Node
p545
(dp546
g194
S'pof'
p547
sg196
g544
sg197
S'VGNF'
p548
sg199
I-1
sg200
I3
sg201
(lp549
sbsS'NP7'
p550
(issf_api
Node
p551
(dp552
g194
S'k7'
p553
sg196
g550
sg197
S'VGNN'
p554
sg199
I-1
sg200
I7
sg201
(lp555
sbsS'NP6'
p556
(issf_api
Node
p557
(dp558
g194
S'k4'
p559
sg196
g556
sg197
S'VGF'
p560
sg199
I-1
sg200
I6
sg201
(lp561
sbsS'NP3'
p562
(issf_api
Node
p563
(dp564
g194
S'k7'
p565
sg196
g562
sg197
S'VGNF'
p566
sg199
I-1
sg200
I2
sg201
(lp567
sbsS'NP2'
p568
(issf_api
Node
p569
(dp570
g194
S'r6'
p571
sg196
g568
sg197
S'NP3'
p572
sg199
I-1
sg200
I1
sg201
(lp573
sbssg298
(lp574
(issf_api
Chunk
p575
(dp576
g196
g538
sg200
I0
sg302
S'NP'
p577
sg186
I1
sg187
(lp578
I43
aI44
asg305
(issf_api
FeatureSet
p579
(dp580
g308
(dp581
S'drel'
p582
S'nmod:NP2'
p583
sS'name'
p584
g538
ssbsba(issf_api
Chunk
p585
(dp586
g196
g568
sg200
I1
sg302
S'NP'
p587
sg186
I1
sg187
(lp588
I45
aI46
aI47
asg305
(issf_api
FeatureSet
p589
(dp590
g308
(dp591
S'drel'
p592
S'r6:NP3'
p593
sS'name'
p594
g568
ssbsba(issf_api
Chunk
p595
(dp596
g196
g562
sg200
I2
sg302
S'NP'
p597
sg186
I1
sg187
(lp598
I48
aI49
asg305
(issf_api
FeatureSet
p599
(dp600
g308
(dp601
S'drel'
p602
S'k7:VGNF'
p603
sS'name'
p604
g562
ssbsba(issf_api
Chunk
p605
(dp606
g196
g544
sg200
I3
sg302
S'NP'
p607
sg186
I1
sg187
(lp608
I50
asg305
(issf_api
FeatureSet
p609
(dp610
g308
(dp611
S'drel'
p612
S'pof:VGNF'
p613
sS'name'
p614
g544
ssbsba(issf_api
Chunk
p615
(dp616
g196
g480
sg200
I4
sg302
S'VGNF'
p617
sg186
I1
sg187
(lp618
I51
aI52
asg305
(issf_api
FeatureSet
p619
(dp620
g308
(dp621
S'drel'
p622
S'vmod:VGF'
p623
sS'name'
p624
g480
ssbsba(issf_api
Chunk
p625
(dp626
g196
g508
sg200
I5
sg302
S'NP'
p627
sg186
I1
sg187
(lp628
I53
aI54
aI55
aI56
aI57
asg305
(issf_api
FeatureSet
p629
(dp630
g308
(dp631
S'drel'
p632
S'k1:VGF'
p633
sS'name'
p634
g508
ssbsba(issf_api
Chunk
p635
(dp636
g196
g556
sg200
I6
sg302
S'NP'
p637
sg186
I1
sg187
(lp638
I58
aI59
asg305
(issf_api
FeatureSet
p639
(dp640
g308
(dp641
S'drel'
p642
S'k4:VGF'
p643
sS'name'
p644
g556
ssbsba(issf_api
Chunk
p645
(dp646
g196
g550
sg200
I7
sg302
S'NP'
p647
sg186
I1
sg187
(lp648
I60
aI61
asg305
(issf_api
FeatureSet
p649
(dp650
g308
(dp651
S'drel'
p652
S'k7:VGNN'
p653
sS'name'
p654
g550
ssbsba(issf_api
Chunk
p655
(dp656
g196
g520
sg200
I8
sg302
S'NP'
p657
sg186
I1
sg187
(lp658
I62
aI63
aI64
aI65
asg305
(issf_api
FeatureSet
p659
(dp660
g308
(dp661
S'drel'
p662
S'ccof:CCP'
p663
sS'name'
p664
g520
ssbsba(issf_api
Chunk
p665
(dp666
g196
g514
sg200
I9
sg302
S'NP'
p667
sg186
I1
sg187
(lp668
I66
aI67
asg305
(issf_api
FeatureSet
p669
(dp670
g308
(dp671
S'drel'
p672
S'ccof:CCP'
p673
sS'name'
p674
g514
ssbsba(issf_api
Chunk
p675
(dp676
g196
g502
sg200
I10
sg302
S'CCP'
p677
sg186
I1
sg187
(lp678
I68
asg305
(issf_api
FeatureSet
p679
(dp680
g308
(dp681
S'drel'
p682
S'pof:VGNN'
p683
sS'name'
p684
g502
ssbsba(issf_api
Chunk
p685
(dp686
g196
g492
sg200
I11
sg302
S'NP'
p687
sg186
I1
sg187
(lp688
I69
aI70
aI71
asg305
(issf_api
FeatureSet
p689
(dp690
g308
(dp691
S'drel'
p692
S'ccof:CCP'
p693
sS'name'
p694
g492
ssbsba(issf_api
Chunk
p695
(dp696
g196
g532
sg200
I12
sg302
S'VGNN'
p697
sg186
I1
sg187
(lp698
I72
aI73
asg305
(issf_api
FeatureSet
p699
(dp700
g308
(dp701
S'drel'
p702
S'r6-k2:NP11'
p703
sS'name'
p704
g532
ssbsba(issf_api
Chunk
p705
(dp706
g196
g486
sg200
I13
sg302
S'NP'
p707
sg186
I1
sg187
(lp708
I74
asg305
(issf_api
FeatureSet
p709
(dp710
g308
(dp711
S'drel'
p712
S'pof:VGF'
p713
sS'name'
p714
g486
ssbsba(issf_api
Chunk
p715
(dp716
g196
g498
sg200
I14
sg302
S'VGF'
p717
sg186
I1
sg187
(lp718
I75
aI76
asg305
(issf_api
FeatureSet
p719
(dp720
g308
(dp721
S'name'
p722
g498
sS'stype'
p723
S'declarative'
p724
sS'voicetype'
p725
S'active'
p726
ssbsba(issf_api
Chunk
p727
(dp728
g196
g526
sg200
I15
sg302
S'BLK'
p729
sg186
I1
sg187
(lp730
I77
asg305
(issf_api
FeatureSet
p731
(dp732
g308
(dp733
S'drel'
p734
S'rsym:VGF'
p735
sS'name'
p736
g526
ssbsbasba(issf_api
Sentence
p737
(dp738
g184
(lp739
sg186
I2
sg187
(lp740
I78
aI79
aI80
aI81
aI82
aI83
aI84
aI85
aI86
aI87
aI88
aI89
aI90
asg189
(dp741
S'VGF'
p742
(issf_api
Node
p743
(dp744
g194
g218
sg196
g742
sg197
g218
sg199
I-1
sg200
I4
sg201
(lp745
sbsS'BLK'
p746
(issf_api
Node
p747
(dp748
g194
S'rsym'
p749
sg196
g746
sg197
S'VGF'
p750
sg199
I-1
sg200
I5
sg201
(lp751
sbsS'NP'
p752
(issf_api
Node
p753
(dp754
g194
S'k1'
p755
sg196
g752
sg197
S'VGF'
p756
sg199
I-1
sg200
I0
sg201
(lp757
sbsS'NP4'
p758
(issf_api
Node
p759
(dp760
g194
S'k2'
p761
sg196
g758
sg197
S'VGF'
p762
sg199
I-1
sg200
I3
sg201
(lp763
sbsS'NP3'
p764
(issf_api
Node
p765
(dp766
g194
S'r6'
p767
sg196
g764
sg197
S'NP4'
p768
sg199
I-1
sg200
I2
sg201
(lp769
sbsS'NP2'
p770
(issf_api
Node
p771
(dp772
g194
S'rt'
p773
sg196
g770
sg197
S'VGF'
p774
sg199
I-1
sg200
I1
sg201
(lp775
sbssg298
(lp776
(issf_api
Chunk
p777
(dp778
g196
g752
sg200
I0
sg302
S'NP'
p779
sg186
I2
sg187
(lp780
I78
aI79
aI80
asg305
(issf_api
FeatureSet
p781
(dp782
g308
(dp783
S'drel'
p784
S'k1:VGF'
p785
sS'name'
p786
g752
ssbsba(issf_api
Chunk
p787
(dp788
g196
g770
sg200
I1
sg302
S'NP'
p789
sg186
I2
sg187
(lp790
I81
aI82
aI83
asg305
(issf_api
FeatureSet
p791
(dp792
g308
(dp793
S'drel'
p794
S'rt:VGF'
p795
sS'name'
p796
g770
ssbsba(issf_api
Chunk
p797
(dp798
g196
g764
sg200
I2
sg302
S'NP'
p799
sg186
I2
sg187
(lp800
I84
aI85
asg305
(issf_api
FeatureSet
p801
(dp802
g308
(dp803
S'drel'
p804
S'r6:NP4'
p805
sS'name'
p806
g764
ssbsba(issf_api
Chunk
p807
(dp808
g196
g758
sg200
I3
sg302
S'NP'
p809
sg186
I2
sg187
(lp810
I86
asg305
(issf_api
FeatureSet
p811
(dp812
g308
(dp813
S'drel'
p814
S'k2:VGF'
p815
sS'name'
p816
g758
ssbsba(issf_api
Chunk
p817
(dp818
g196
g742
sg200
I4
sg302
S'VGF'
p819
sg186
I2
sg187
(lp820
I87
aI88
aI89
asg305
(issf_api
FeatureSet
p821
(dp822
g308
(dp823
S'name'
p824
g742
sS'stype'
p825
S'declarative'
p826
sS'voicetype'
p827
S'active'
p828
ssbsba(issf_api
Chunk
p829
(dp830
g196
g746
sg200
I5
sg302
S'BLK'
p831
sg186
I2
sg187
(lp832
I90
asg305
(issf_api
FeatureSet
p833
(dp834
g308
(dp835
S'drel'
p836
S'rsym:VGF'
p837
sS'name'
p838
g746
ssbsbasba(issf_api
Sentence
p839
(dp840
g184
(lp841
sg186
I3
sg187
(lp842
I91
aI92
aI93
aI94
aI95
aI96
aI97
aI98
aI99
aI100
aI101
aI102
aI103
aI104
aI105
aI106
aI107
aI108
aI109
aI110
aI111
aI112
aI113
aI114
aI115
aI116
aI117
aI118
aI119
aI120
aI121
aI122
aI123
aI124
aI125
aI126
aI127
aI128
aI129
aI130
aI131
aI132
asg189
(dp843
S'VGF2'
p844
(issf_api
Node
p845
(dp846
g194
S'ccof'
p847
sg196
g844
sg197
S'CCP'
p848
sg199
I-1
sg200
I19
sg201
(lp849
sbsS'VGNN3'
p850
(issf_api
Node
p851
(dp852
g194
S'r6'
p853
sg196
g850
sg197
S'NP11'
p854
sg199
I-1
sg200
I17
sg201
(lp855
sbsS'NP11'
p856
(issf_api
Node
p857
(dp858
g194
S'k1'
p859
sg196
g856
sg197
S'VGF2'
p860
sg199
I-1
sg200
I18
sg201
(lp861
sbsS'VGNN'
p862
(issf_api
Node
p863
(dp864
g194
S'k7'
p865
sg196
g862
sg197
S'VGNN2'
p866
sg199
I-1
sg200
I9
sg201
(lp867
sbsS'VGF'
p868
(issf_api
Node
p869
(dp870
g194
g218
sg196
g868
sg197
g218
sg199
I-1
sg200
I1
sg201
(lp871
sbsS'CCP'
p872
(issf_api
Node
p873
(dp874
g194
S'k2'
p875
sg196
g872
sg197
S'VGF'
p876
sg199
I-1
sg200
I2
sg201
(lp877
sbsS'JJP'
p878
(issf_api
Node
p879
(dp880
g194
S'pof'
p881
sg196
g878
sg197
S'VGNN'
p882
sg199
I-1
sg200
I8
sg201
(lp883
sbsS'VGNN2'
p884
(issf_api
Node
p885
(dp886
g194
S'rt'
p887
sg196
g884
sg197
S'VGF2'
p888
sg199
I-1
sg200
I11
sg201
(lp889
sbsS'NP5'
p890
(issf_api
Node
p891
(dp892
g194
S'ccof'
p893
sg196
g890
sg197
S'CCP2'
p894
sg199
I-1
sg200
I7
sg201
(lp895
sbsS'NP9'
p896
(issf_api
Node
p897
(dp898
g194
S'ccof'
p899
sg196
g896
sg197
S'CCP3'
p900
sg199
I-1
sg200
I14
sg201
(lp901
sbsS'NP8'
p902
(issf_api
Node
p903
(dp904
g194
S'ccof'
p905
sg196
g902
sg197
S'CCP3'
p906
sg199
I-1
sg200
I13
sg201
(lp907
sbsS'BLK'
p908
(issf_api
Node
p909
(dp910
g194
S'rsym'
p911
sg196
g908
sg197
S'VGF'
p912
sg199
I-1
sg200
I20
sg201
(lp913
sbsS'NP10'
p914
(issf_api
Node
p915
(dp916
g194
S'ccof'
p917
sg196
g914
sg197
S'CCP3'
p918
sg199
I-1
sg200
I16
sg201
(lp919
sbsS'NP'
p920
(issf_api
Node
p921
(dp922
g194
S'k1'
p923
sg196
g920
sg197
S'VGF'
p924
sg199
I-1
sg200
I0
sg201
(lp925
sbsS'NP4'
p926
(issf_api
Node
p927
(dp928
g194
S'ccof'
p929
sg196
g926
sg197
S'CCP2'
p930
sg199
I-1
sg200
I5
sg201
(lp931
sbsS'NP7'
p932
(issf_api
Node
p933
(dp934
g194
S'r6'
p935
sg196
g932
sg197
S'NP8'
p936
sg199
I-1
sg200
I12
sg201
(lp937
sbsS'NP6'
p938
(issf_api
Node
p939
(dp940
g194
S'k2'
p941
sg196
g938
sg197
S'VGNN2'
p942
sg199
I-1
sg200
I10
sg201
(lp943
sbsS'CCP2'
p944
(issf_api
Node
p945
(dp946
g194
S'k1'
p947
sg196
g944
sg197
S'VGNN'
p948
sg199
I-1
sg200
I6
sg201
(lp949
sbsS'CCP3'
p950
(issf_api
Node
p951
(dp952
g194
S'pof'
p953
sg196
g950
sg197
S'VGNN3'
p954
sg199
I-1
sg200
I15
sg201
(lp955
sbsS'NP3'
p956
(issf_api
Node
p957
(dp958
g194
S'k7'
p959
sg196
g956
sg197
S'VGNN'
p960
sg199
I-1
sg200
I4
sg201
(lp961
sbsS'NP2'
p962
(issf_api
Node
p963
(dp964
g194
S'r6'
p965
sg196
g962
sg197
S'NP3'
p966
sg199
I-1
sg200
I3
sg201
(lp967
sbssg298
(lp968
(issf_api
Chunk
p969
(dp970
g196
g920
sg200
I0
sg302
S'NP'
p971
sg186
I3
sg187
(lp972
I91
aI92
aI93
asg305
(issf_api
FeatureSet
p973
(dp974
g308
(dp975
S'drel'
p976
S'k1:VGF'
p977
sS'name'
p978
g920
ssbsba(issf_api
Chunk
p979
(dp980
g196
g868
sg200
I1
sg302
S'VGF'
p981
sg186
I3
sg187
(lp982
I94
asg305
(issf_api
FeatureSet
p983
(dp984
g308
(dp985
S'name'
p986
g868
sS'stype'
p987
S'declarative'
p988
sS'voicetype'
p989
S'active'
p990
ssbsba(issf_api
Chunk
p991
(dp992
g196
g872
sg200
I2
sg302
S'CCP'
p993
sg186
I3
sg187
(lp994
I95
asg305
(issf_api
FeatureSet
p995
(dp996
g308
(dp997
S'drel'
p998
S'k2:VGF'
p999
sS'name'
p1000
g872
ssbsba(issf_api
Chunk
p1001
(dp1002
g196
g962
sg200
I3
sg302
S'NP'
p1003
sg186
I3
sg187
(lp1004
I96
aI97
asg305
(issf_api
FeatureSet
p1005
(dp1006
g308
(dp1007
S'drel'
p1008
S'r6:NP3'
p1009
sS'name'
p1010
g962
ssbsba(issf_api
Chunk
p1011
(dp1012
g196
g956
sg200
I4
sg302
S'NP'
p1013
sg186
I3
sg187
(lp1014
I98
aI99
aI100
asg305
(issf_api
FeatureSet
p1015
(dp1016
g308
(dp1017
S'drel'
p1018
S'k7:VGNN'
p1019
sS'name'
p1020
g956
ssbsba(issf_api
Chunk
p1021
(dp1022
g196
g926
sg200
I5
sg302
S'NP'
p1023
sg186
I3
sg187
(lp1024
I101
asg305
(issf_api
FeatureSet
p1025
(dp1026
g308
(dp1027
S'drel'
p1028
S'ccof:CCP2'
p1029
sS'name'
p1030
g926
ssbsba(issf_api
Chunk
p1031
(dp1032
g196
g944
sg200
I6
sg302
S'CCP'
p1033
sg186
I3
sg187
(lp1034
I102
asg305
(issf_api
FeatureSet
p1035
(dp1036
g308
(dp1037
S'drel'
p1038
S'k1:VGNN'
p1039
sS'name'
p1040
g944
ssbsba(issf_api
Chunk
p1041
(dp1042
g196
g890
sg200
I7
sg302
S'NP'
p1043
sg186
I3
sg187
(lp1044
I103
aI104
aI105
asg305
(issf_api
FeatureSet
p1045
(dp1046
g308
(dp1047
S'drel'
p1048
S'ccof:CCP2'
p1049
sS'name'
p1050
g890
ssbsba(issf_api
Chunk
p1051
(dp1052
g196
g878
sg200
I8
sg302
S'JJP'
p1053
sg186
I3
sg187
(lp1054
I106
asg305
(issf_api
FeatureSet
p1055
(dp1056
g308
(dp1057
S'drel'
p1058
S'pof:VGNN'
p1059
sS'name'
p1060
g878
ssbsba(issf_api
Chunk
p1061
(dp1062
g196
g862
sg200
I9
sg302
S'VGNN'
p1063
sg186
I3
sg187
(lp1064
I107
aI108
aI109
aI110
asg305
(issf_api
FeatureSet
p1065
(dp1066
g308
(dp1067
S'drel'
p1068
S'k7:VGNN2'
p1069
sS'name'
p1070
g862
ssbsba(issf_api
Chunk
p1071
(dp1072
g196
g938
sg200
I10
sg302
S'NP'
p1073
sg186
I3
sg187
(lp1074
I111
aI112
asg305
(issf_api
FeatureSet
p1075
(dp1076
g308
(dp1077
S'drel'
p1078
S'k2:VGNN2'
p1079
sS'name'
p1080
g938
ssbsba(issf_api
Chunk
p1081
(dp1082
g196
g884
sg200
I11
sg302
S'VGNN'
p1083
sg186
I3
sg187
(lp1084
I113
aI114
aI115
asg305
(issf_api
FeatureSet
p1085
(dp1086
g308
(dp1087
S'drel'
p1088
S'rt:VGF2'
p1089
sS'name'
p1090
g884
ssbsba(issf_api
Chunk
p1091
(dp1092
g196
g932
sg200
I12
sg302
S'NP'
p1093
sg186
I3
sg187
(lp1094
I116
aI117
asg305
(issf_api
FeatureSet
p1095
(dp1096
g308
(dp1097
S'drel'
p1098
S'r6:NP8'
p1099
sS'name'
p1100
g932
ssbsba(issf_api
Chunk
p1101
(dp1102
g196
g902
sg200
I13
sg302
S'NP'
p1103
sg186
I3
sg187
(lp1104
I118
aI119
aI120
aI121
asg305
(issf_api
FeatureSet
p1105
(dp1106
g308
(dp1107
S'drel'
p1108
S'ccof:CCP3'
p1109
sS'name'
p1110
g902
ssbsba(issf_api
Chunk
p1111
(dp1112
g196
g896
sg200
I14
sg302
S'NP'
p1113
sg186
I3
sg187
(lp1114
I122
aI123
asg305
(issf_api
FeatureSet
p1115
(dp1116
g308
(dp1117
S'drel'
p1118
S'ccof:CCP3'
p1119
sS'name'
p1120
g896
ssbsba(issf_api
Chunk
p1121
(dp1122
g196
g950
sg200
I15
sg302
S'CCP'
p1123
sg186
I3
sg187
(lp1124
I124
asg305
(issf_api
FeatureSet
p1125
(dp1126
g308
(dp1127
S'drel'
p1128
S'pof:VGNN3'
p1129
sS'name'
p1130
g950
ssbsba(issf_api
Chunk
p1131
(dp1132
g196
g914
sg200
I16
sg302
S'NP'
p1133
sg186
I3
sg187
(lp1134
I125
aI126
aI127
asg305
(issf_api
FeatureSet
p1135
(dp1136
g308
(dp1137
S'drel'
p1138
S'ccof:CCP3'
p1139
sS'name'
p1140
g914
ssbsba(issf_api
Chunk
p1141
(dp1142
g196
g850
sg200
I17
sg302
S'VGNN'
p1143
sg186
I3
sg187
(lp1144
I128
aI129
asg305
(issf_api
FeatureSet
p1145
(dp1146
g308
(dp1147
S'drel'
p1148
S'r6:NP11'
p1149
sS'name'
p1150
g850
ssbsba(issf_api
Chunk
p1151
(dp1152
g196
g856
sg200
I18
sg302
S'NP'
p1153
sg186
I3
sg187
(lp1154
I130
asg305
(issf_api
FeatureSet
p1155
(dp1156
g308
(dp1157
S'drel'
p1158
S'k1:VGF2'
p1159
sS'name'
p1160
g856
ssbsba(issf_api
Chunk
p1161
(dp1162
g196
g844
sg200
I19
sg302
S'VGF'
p1163
sg186
I3
sg187
(lp1164
I131
asg305
(issf_api
FeatureSet
p1165
(dp1166
g308
(dp1167
S'voicetype'
p1168
S"active'"
p1169
sS'drel'
p1170
S'ccof:CCP'
p1171
sS'stype'
p1172
S'declarative'
p1173
sS'name'
p1174
g844
ssbsba(issf_api
Chunk
p1175
(dp1176
g196
g908
sg200
I20
sg302
S'BLK'
p1177
sg186
I3
sg187
(lp1178
I132
asg305
(issf_api
FeatureSet
p1179
(dp1180
g308
(dp1181
S'drel'
p1182
S'rsym:VGF'
p1183
sS'name'
p1184
g908
ssbsbasba(issf_api
Sentence
p1185
(dp1186
g184
(lp1187
sg186
I4
sg187
(lp1188
I133
aI134
aI135
aI136
aI137
aI138
aI139
aI140
aI141
aI142
aI143
aI144
aI145
aI146
aI147
aI148
aI149
aI150
aI151
aI152
aI153
aI154
aI155
aI156
aI157
asg189
(dp1189
S'VGNF'
p1190
(issf_api
Node
p1191
(dp1192
g194
S'nmod__k1inv'
p1193
sg196
g1190
sg197
S'NP6'
p1194
sg199
I-1
sg200
I9
sg201
(lp1195
sbsS'VGF'
p1196
(issf_api
Node
p1197
(dp1198
g194
g218
sg196
g1196
sg197
g218
sg199
I-1
sg200
I2
sg201
(lp1199
sbsS'CCP'
p1200
(issf_api
Node
p1201
(dp1202
g194
S'k2'
p1203
sg196
g1200
sg197
S'VGF'
p1204
sg199
I-1
sg200
I3
sg201
(lp1205
sbsS'JJP'
p1206
(issf_api
Node
p1207
(dp1208
g194
S'pof'
p1209
sg196
g1206
sg197
S'VGNF'
p1210
sg199
I-1
sg200
I8
sg201
(lp1211
sbsS'VGF2'
p1212
(issf_api
Node
p1213
(dp1214
g194
S'ccof'
p1215
sg196
g1212
sg197
S'CCP'
p1216
sg199
I-1
sg200
I13
sg201
(lp1217
sbsS'NP5'
p1218
(issf_api
Node
p1219
(dp1220
g194
S'ccof'
p1221
sg196
g1218
sg197
S'CCP2'
p1222
sg199
I-1
sg200
I7
sg201
(lp1223
sbsS'NP8'
p1224
(issf_api
Node
p1225
(dp1226
g194
S'pof'
p1227
sg196
g1224
sg197
S'VGF2'
p1228
sg199
I-1
sg200
I12
sg201
(lp1229
sbsS'BLK'
p1230
(issf_api
Node
p1231
(dp1232
g194
S'rsym'
p1233
sg196
g1230
sg197
S'VGF'
p1234
sg199
I-1
sg200
I14
sg201
(lp1235
sbsS'NP'
p1236
(issf_api
Node
p1237
(dp1238
g194
S'k1'
p1239
sg196
g1236
sg197
S'VGF'
p1240
sg199
I-1
sg200
I0
sg201
(lp1241
sbsS'NP4'
p1242
(issf_api
Node
p1243
(dp1244
g194
S'ccof'
p1245
sg196
g1242
sg197
S'CCP2'
p1246
sg199
I-1
sg200
I5
sg201
(lp1247
sbsS'NP7'
p1248
(issf_api
Node
p1249
(dp1250
g194
S'r6-k2'
p1251
sg196
g1248
sg197
S'NP8'
p1252
sg199
I-1
sg200
I11
sg201
(lp1253
sbsS'NP6'
p1254
(issf_api
Node
p1255
(dp1256
g194
S'r6'
p1257
sg196
g1254
sg197
S'NP7'
p1258
sg199
I-1
sg200
I10
sg201
(lp1259
sbsS'CCP2'
p1260
(issf_api
Node
p1261
(dp1262
g194
S'k7'
p1263
sg196
g1260
sg197
S'VGNF'
p1264
sg199
I-1
sg200
I6
sg201
(lp1265
sbsS'NP3'
p1266
(issf_api
Node
p1267
(dp1268
g194
S'k1'
p1269
sg196
g1266
sg197
S'VGF2'
p1270
sg199
I-1
sg200
I4
sg201
(lp1271
sbsS'NP2'
p1272
(issf_api
Node
p1273
(dp1274
g194
S'k4'
p1275
sg196
g1272
sg197
S'VGF'
p1276
sg199
I-1
sg200
I1
sg201
(lp1277
sbssg298
(lp1278
(issf_api
Chunk
p1279
(dp1280
g196
g1236
sg200
I0
sg302
S'NP'
p1281
sg186
I4
sg187
(lp1282
I133
aI134
aI135
asg305
(issf_api
FeatureSet
p1283
(dp1284
g308
(dp1285
S'drel'
p1286
S'k1:VGF'
p1287
sS'name'
p1288
g1236
ssbsba(issf_api
Chunk
p1289
(dp1290
g196
g1272
sg200
I1
sg302
S'NP'
p1291
sg186
I4
sg187
(lp1292
I136
aI137
asg305
(issf_api
FeatureSet
p1293
(dp1294
g308
(dp1295
S'drel'
p1296
S'k4:VGF'
p1297
sS'name'
p1298
g1272
ssbsba(issf_api
Chunk
p1299
(dp1300
g196
g1196
sg200
I2
sg302
S'VGF'
p1301
sg186
I4
sg187
(lp1302
I138
asg305
(issf_api
FeatureSet
p1303
(dp1304
g308
(dp1305
S'name'
p1306
g1196
sS'stype'
p1307
S'declarative'
p1308
sS'voicetype'
p1309
S'active'
p1310
ssbsba(issf_api
Chunk
p1311
(dp1312
g196
g1200
sg200
I3
sg302
S'CCP'
p1313
sg186
I4
sg187
(lp1314
I139
asg305
(issf_api
FeatureSet
p1315
(dp1316
g308
(dp1317
S'drel'
p1318
S'k2:VGF'
p1319
sS'name'
p1320
g1200
ssbsba(issf_api
Chunk
p1321
(dp1322
g196
g1266
sg200
I4
sg302
S'NP'
p1323
sg186
I4
sg187
(lp1324
I140
aI141
asg305
(issf_api
FeatureSet
p1325
(dp1326
g308
(dp1327
S'drel'
p1328
S'k1:VGF2'
p1329
sS'name'
p1330
g1266
ssbsba(issf_api
Chunk
p1331
(dp1332
g196
g1242
sg200
I5
sg302
S'NP'
p1333
sg186
I4
sg187
(lp1334
I142
asg305
(issf_api
FeatureSet
p1335
(dp1336
g308
(dp1337
S'drel'
p1338
S'ccof:CCP2'
p1339
sS'name'
p1340
g1242
ssbsba(issf_api
Chunk
p1341
(dp1342
g196
g1260
sg200
I6
sg302
S'CCP'
p1343
sg186
I4
sg187
(lp1344
I143
asg305
(issf_api
FeatureSet
p1345
(dp1346
g308
(dp1347
S'drel'
p1348
S'k7:VGNF'
p1349
sS'name'
p1350
g1260
ssbsba(issf_api
Chunk
p1351
(dp1352
g196
g1218
sg200
I7
sg302
S'NP'
p1353
sg186
I4
sg187
(lp1354
I144
aI145
aI146
asg305
(issf_api
FeatureSet
p1355
(dp1356
g308
(dp1357
S'drel'
p1358
S'ccof:CCP2'
p1359
sS'name'
p1360
g1218
ssbsba(issf_api
Chunk
p1361
(dp1362
g196
g1206
sg200
I8
sg302
S'JJP'
p1363
sg186
I4
sg187
(lp1364
I147
asg305
(issf_api
FeatureSet
p1365
(dp1366
g308
(dp1367
S'drel'
p1368
S'pof:VGNF'
p1369
sS'name'
p1370
g1206
ssbsba(issf_api
Chunk
p1371
(dp1372
g196
g1190
sg200
I9
sg302
S'VGNF'
p1373
sg186
I4
sg187
(lp1374
I148
asg305
(issf_api
FeatureSet
p1375
(dp1376
g308
(dp1377
S'drel'
p1378
S'nmod__k1inv:NP6'
p1379
sS'name'
p1380
g1190
ssbsba(issf_api
Chunk
p1381
(dp1382
g196
g1254
sg200
I10
sg302
S'NP'
p1383
sg186
I4
sg187
(lp1384
I149
aI150
aI151
asg305
(issf_api
FeatureSet
p1385
(dp1386
g308
(dp1387
S'drel'
p1388
S'r6:NP7'
p1389
sS'name'
p1390
g1254
ssbsba(issf_api
Chunk
p1391
(dp1392
g196
g1248
sg200
I11
sg302
S'NP'
p1393
sg186
I4
sg187
(lp1394
I152
aI153
asg305
(issf_api
FeatureSet
p1395
(dp1396
g308
(dp1397
S'drel'
p1398
S'r6-k2:NP8'
p1399
sS'name'
p1400
g1248
ssbsba(issf_api
Chunk
p1401
(dp1402
g196
g1224
sg200
I12
sg302
S'NP'
p1403
sg186
I4
sg187
(lp1404
I154
asg305
(issf_api
FeatureSet
p1405
(dp1406
g308
(dp1407
S'drel'
p1408
S'pof:VGF2'
p1409
sS'name'
p1410
g1224
ssbsba(issf_api
Chunk
p1411
(dp1412
g196
g1212
sg200
I13
sg302
S'VGF'
p1413
sg186
I4
sg187
(lp1414
I155
aI156
asg305
(issf_api
FeatureSet
p1415
(dp1416
g308
(dp1417
S'voicetype'
p1418
S"active'"
p1419
sS'drel'
p1420
S'ccof:CCP'
p1421
sS'stype'
p1422
S'declarative'
p1423
sS'name'
p1424
g1212
ssbsba(issf_api
Chunk
p1425
(dp1426
g196
g1230
sg200
I14
sg302
S'BLK'
p1427
sg186
I4
sg187
(lp1428
I157
asg305
(issf_api
FeatureSet
p1429
(dp1430
g308
(dp1431
S'drel'
p1432
S'rsym:VGF'
p1433
sS'name'
p1434
g1230
ssbsbasba(issf_api
Sentence
p1435
(dp1436
g184
(lp1437
sg186
I5
sg187
(lp1438
I158
aI159
aI160
aI161
aI162
aI163
aI164
aI165
aI166
aI167
aI168
aI169
aI170
aI171
aI172
aI173
aI174
asg189
(dp1439
S'VGNN'
p1440
(issf_api
Node
p1441
(dp1442
g194
S'rt'
p1443
sg196
g1440
sg197
S'VGF'
p1444
sg199
I-1
sg200
I3
sg201
(lp1445
sbsS'VGF'
p1446
(issf_api
Node
p1447
(dp1448
g194
g218
sg196
g1446
sg197
g218
sg199
I-1
sg200
I9
sg201
(lp1449
sbsS'VGNN2'
p1450
(issf_api
Node
p1451
(dp1452
g194
S'r6'
p1453
sg196
g1450
sg197
S'NP7'
p1454
sg199
I-1
sg200
I7
sg201
(lp1455
sbsS'NP5'
p1456
(issf_api
Node
p1457
(dp1458
g194
S'k7'
p1459
sg196
g1456
sg197
S'VGNN2'
p1460
sg199
I-1
sg200
I5
sg201
(lp1461
sbsS'BLK'
p1462
(issf_api
Node
p1463
(dp1464
g194
S'rsym'
p1465
sg196
g1462
sg197
S'VGF'
p1466
sg199
I-1
sg200
I10
sg201
(lp1467
sbsS'NP'
p1468
(issf_api
Node
p1469
(dp1470
g194
S'r6'
p1471
sg196
g1468
sg197
S'NP2'
p1472
sg199
I-1
sg200
I0
sg201
(lp1473
sbsS'NP4'
p1474
(issf_api
Node
p1475
(dp1476
g194
S'k1'
p1477
sg196
g1474
sg197
S'VGF'
p1478
sg199
I-1
sg200
I4
sg201
(lp1479
sbsS'NP7'
p1480
(issf_api
Node
p1481
(dp1482
g194
S'k1s'
p1483
sg196
g1480
sg197
S'VGF'
p1484
sg199
I-1
sg200
I8
sg201
(lp1485
sbsS'NP6'
p1486
(issf_api
Node
p1487
(dp1488
g194
S'pof'
p1489
sg196
g1486
sg197
S'VGNN2'
p1490
sg199
I-1
sg200
I6
sg201
(lp1491
sbsS'NP3'
p1492
(issf_api
Node
p1493
(dp1494
g194
S'pof'
p1495
sg196
g1492
sg197
S'VGNN'
p1496
sg199
I-1
sg200
I2
sg201
(lp1497
sbsS'NP2'
p1498
(issf_api
Node
p1499
(dp1500
g194
S'r6-k2'
p1501
sg196
g1498
sg197
S'NP3'
p1502
sg199
I-1
sg200
I1
sg201
(lp1503
sbssg298
(lp1504
(issf_api
Chunk
p1505
(dp1506
g196
g1468
sg200
I0
sg302
S'NP'
p1507
sg186
I5
sg187
(lp1508
I158
asg305
(issf_api
FeatureSet
p1509
(dp1510
g308
(dp1511
S'drel'
p1512
S'r6:NP2'
p1513
sS'name'
p1514
g1468
ssbsba(issf_api
Chunk
p1515
(dp1516
g196
g1498
sg200
I1
sg302
S'NP'
p1517
sg186
I5
sg187
(lp1518
I159
aI160
asg305
(issf_api
FeatureSet
p1519
(dp1520
g308
(dp1521
S'drel'
p1522
S'r6-k2:NP3'
p1523
sS'name'
p1524
g1498
ssbsba(issf_api
Chunk
p1525
(dp1526
g196
g1492
sg200
I2
sg302
S'NP'
p1527
sg186
I5
sg187
(lp1528
I161
asg305
(issf_api
FeatureSet
p1529
(dp1530
g308
(dp1531
S'drel'
p1532
S'pof:VGNN'
p1533
sS'name'
p1534
g1492
ssbsba(issf_api
Chunk
p1535
(dp1536
g196
g1440
sg200
I3
sg302
S'VGNN'
p1537
sg186
I5
sg187
(lp1538
I162
aI163
aI164
asg305
(issf_api
FeatureSet
p1539
(dp1540
g308
(dp1541
S'drel'
p1542
S'rt:VGF'
p1543
sS'name'
p1544
g1440
ssbsba(issf_api
Chunk
p1545
(dp1546
g196
g1474
sg200
I4
sg302
S'NP'
p1547
sg186
I5
sg187
(lp1548
I165
aI166
asg305
(issf_api
FeatureSet
p1549
(dp1550
g308
(dp1551
S'drel'
p1552
S'k1:VGF'
p1553
sS'name'
p1554
g1474
ssbsba(issf_api
Chunk
p1555
(dp1556
g196
g1456
sg200
I5
sg302
S'NP'
p1557
sg186
I5
sg187
(lp1558
I167
aI168
asg305
(issf_api
FeatureSet
p1559
(dp1560
g308
(dp1561
S'drel'
p1562
S'k7:VGNN2'
p1563
sS'name'
p1564
g1456
ssbsba(issf_api
Chunk
p1565
(dp1566
g196
g1486
sg200
I6
sg302
S'NP'
p1567
sg186
I5
sg187
(lp1568
I169
asg305
(issf_api
FeatureSet
p1569
(dp1570
g308
(dp1571
S'drel'
p1572
S'pof:VGNN2'
p1573
sS'name'
p1574
g1486
ssbsba(issf_api
Chunk
p1575
(dp1576
g196
g1450
sg200
I7
sg302
S'VGNN'
p1577
sg186
I5
sg187
(lp1578
I170
aI171
asg305
(issf_api
FeatureSet
p1579
(dp1580
g308
(dp1581
S'drel'
p1582
S'r6:NP7'
p1583
sS'name'
p1584
g1450
ssbsba(issf_api
Chunk
p1585
(dp1586
g196
g1480
sg200
I8
sg302
S'NP'
p1587
sg186
I5
sg187
(lp1588
I172
asg305
(issf_api
FeatureSet
p1589
(dp1590
g308
(dp1591
S'drel'
p1592
S'k1s:VGF'
p1593
sS'name'
p1594
g1480
ssbsba(issf_api
Chunk
p1595
(dp1596
g196
g1446
sg200
I9
sg302
S'VGF'
p1597
sg186
I5
sg187
(lp1598
I173
asg305
(issf_api
FeatureSet
p1599
(dp1600
g308
(dp1601
S'name'
p1602
g1446
sS'stype'
p1603
S'declarative'
p1604
sS'voicetype'
p1605
S'active'
p1606
ssbsba(issf_api
Chunk
p1607
(dp1608
g196
g1462
sg200
I10
sg302
S'BLK'
p1609
sg186
I5
sg187
(lp1610
I174
asg305
(issf_api
FeatureSet
p1611
(dp1612
g308
(dp1613
S'drel'
p1614
S'rsym:VGF'
p1615
sS'name'
p1616
g1462
ssbsbasbasS'relationList'
p1617
(lp1618
(iextract_relations
discourseRelation
p1619
(dp1620
S'arg1Trees'
p1621
(lp1622
sS'arg2Sentence'
p1623
(lp1624
sS'arg1Sentence'
p1625
(lp1626
sS'connList'
p1627
(lp1628
sS'isPaired'
p1629
I00
sS'arg1'
p1630
NsS'arg1Span'
p1631
V130..338
p1632
sS'arg2'
p1633
NsS'arg2Trees'
p1634
(lp1635
sS'fileName'
p1636
S'../data/raw/Section_17/fullnews_id_2617885_date_23_7_2004.utf8'
p1637
sS'connTrees'
p1638
(lp1639
sS'arg2List'
p1640
(lp1641
sS'arg2Span'
p1642
V339..498
p1643
sS'sense'
p1644
VExpansion.Restatement.Specification
p1645
sS'relationType'
p1646
VImplicit
p1647
sS'connSpan'
p1648
V
sS'arg1List'
p1649
(lp1650
sS'conn'
p1651
Vxarasal
p1652
sba(iextract_relations
discourseRelation
p1653
(dp1654
g1621
(lp1655
sg1623
(lp1656
sg1625
(lp1657
sg1627
(lp1658
sg1629
I00
sg1630
Nsg1631
V339..498
p1659
sg1633
Nsg1634
(lp1660
sg1636
g1637
sg1638
(lp1661
sg1640
(lp1662
sg1642
V500..555
p1663
sg1644
VContingency.Cause.Reason
p1664
sg1646
VImplicit
p1665
sg1648
V
sg1649
(lp1666
sg1651
VkyoMki
p1667
sba(iextract_relations
discourseRelation
p1668
(dp1669
g1621
(lp1670
sg1623
(lp1671
sg1625
(lp1672
sg1627
(lp1673
sg1629
I00
sg1630
Nsg1631
V500..555
p1674
sg1633
Nsg1634
(lp1675
sg1636
g1637
sg1638
(lp1676
sg1640
(lp1677
sg1642
V556..759
p1678
sg1644
VContingency.Pragmatic cause
p1679
sg1646
VImplicit
p1680
sg1648
V
sg1649
(lp1681
sg1651
VkyoMki
p1682
sba(iextract_relations
discourseRelation
p1683
(dp1684
g1621
(lp1685
sg1623
(lp1686
sg1625
(lp1687
sg1627
(lp1688
sg1629
I00
sg1630
Nsg1631
V589..759
p1689
sg1633
Nsg1634
(lp1690
sg1636
g1637
sg1638
(lp1691
sg1640
(lp1692
sg1642
V760..944
p1693
sg1644
VContingency.Cause.Result
p1694
sg1646
VImplicit
p1695
sg1648
V
sg1649
(lp1696
sg1651
Visa liye
p1697
sba(iextract_relations
discourseRelation
p1698
(dp1699
g1621
(lp1700
sg1623
(lp1701
sg1625
(lp1702
sg1627
(lp1703
sg1629
I00
sg1630
Nsg1631
V760..868
p1704
sg1633
Nsg1634
(lp1705
sg1636
g1637
sg1638
(lp1706
sg1640
(lp1707
sg1642
V870..944
p1708
sg1644
VExpansion.Conjunction
p1709
sg1646
VImplicit
p1710
sg1648
V
sg1649
(lp1711
sg1651
VOra
p1712
sbasS'rawData'
p1713
V<DOC>\u000a<DOCNO>fullnews_id_2617885_date_23_7_2004.utf8</DOCNO>\u000a<TEXT>\u000a\u000a\u000a\u0938\u0932\u0947\u092e \u0915\u0947 \u0932\u093e\u0908-\u0921\u093f\u091f\u0947\u0915\u094d\u091f\u0930 \u091f\u0947\u0938\u094d\u091f \u0915\u0940 \u0905\u0928\u0941\u092e\u0924\u093f\u000a\u000a\u000a\u000a\u092a\u094d\u0930\u0947\u000a\u000a\u092e\u0941\u0902\u092c\u0908\u0964  \u000a\u000a\u000a\u000a\u000a\u000a\u0935\u093f\u0936\u0947\u0937 \u091f\u093e\u0921\u093e \u0905\u0926\u093e\u0932\u0924 \u0928\u0947 \u0936\u0941\u0915\u094d\u0930\u0935\u093e\u0930 \u0915\u094b \u092e\u0941\u0902\u092c\u0908 \u092a\u0941\u0932\u093f\u0938 \u0915\u0947 \u0906\u0924\u0902\u0915\u0935\u093e\u0926\u0940 \u0935\u093f\u0930\u094b\u0927\u0940 \u0926\u0938\u094d\u0924\u0947 (\u090f\u091f\u0940\u090f\u0938) \u0915\u094b \u0917\u0948\u0902\u0917\u0938\u094d\u091f\u0930 \u0905\u092c\u0942 \u0938\u0932\u0947\u092e \u0938\u0947 \u092a\u094d\u0930\u0926\u0940\u092a \u091c\u0948\u0928 \u0939\u0924\u094d\u092f\u093e\u0915\u093e\u0902\u0921 \u0915\u0947 \u092c\u093e\u0930\u0947 \u092e\u0947\u0902 \u0914\u0930 \u091c\u093e\u0928\u0915\u093e\u0930\u0940 \u091c\u0941\u091f\u093e\u0928\u0947 \u0915\u0947 \u0932\u093f\u090f \u0932\u093e\u0908-\u0921\u093f\u091f\u0947\u0915\u094d\u091f\u0930 \u0914\u0930 \u0905\u0928\u094d\u092f \u092a\u0930\u0940\u0915\u094d\u0937\u0923\u094b\u0902 \u0915\u0940 \u0905\u0928\u0941\u092e\u0924\u093f \u0926\u0947 \u0926\u0940 \u0939\u0948\u0964\u0938\u0930\u0915\u093e\u0930\u0940 \u0935\u0915\u0940\u0932 \u0909\u091c\u094d\u091c\u0935\u0932 \u0928\u093f\u0915\u092e \u0915\u0940 \u092f\u093e\u091a\u093f\u0915\u093e \u092a\u0930 \u0938\u0941\u0928\u0935\u093e\u0908 \u0915\u0930\u0924\u0947 \u0939\u0941\u090f \u091c\u091c \u092a\u0940.\u0935\u0940.\u092c\u093e\u0935\u0915\u0930 \u0928\u0947 \u090f\u091f\u0940\u090f\u0938 \u0915\u094b \u0938\u0932\u0947\u092e \u092a\u0930 \u0932\u093e\u0907-\u0921\u093f\u091f\u0947\u0915\u094d\u091f\u0930, \u092c\u094d\u0930\u0947\u0928 \u092e\u0948\u092a\u093f\u0902\u0917 \u0914\u0930 \u0928\u093e\u0930\u0915\u094b \u090f\u0928\u093e\u0932\u0947\u0938\u093f\u0938 \u091f\u0947\u0938\u094d\u091f \u0915\u0930\u0928\u0947 \u0915\u0940 \u0905\u0928\u0941\u092e\u0924\u093f \u0926\u0947 \u0926\u0940\u0964 \u0938\u0930\u0915\u093e\u0930\u0940 \u0935\u0915\u0940\u0932 \u0928\u0947 \u092a\u0930\u0940\u0915\u094d\u0937\u0923\u094b\u0902 \u0915\u0947 \u0932\u093f\u090f \u0938\u0932\u0947\u092e \u0915\u0940 \u0938\u0939\u092e\u0924\u093f \u0932\u0947 \u0932\u0940 \u0939\u0948\u0964 \u090f\u091f\u0940\u090f\u0938 \u0938\u0942\u0924\u094d\u0930\u094b\u0902 \u0928\u0947 \u0915\u0939\u093e \u0915\u093f \u0926\u0938\u094d\u0924\u0947 \u0915\u0940 \u091c\u0948\u0928 \u0939\u0924\u094d\u092f\u093e\u0915\u093e\u0902\u0921 \u092e\u0947\u0902 \u0938\u0932\u0947\u092e \u0914\u0930 \u0905\u0928\u094d\u092f \u0906\u0930\u094b\u092a\u093f\u092f\u094b\u0902 \u0915\u0947 \u0936\u093e\u092e\u093f\u0932 \u0939\u094b\u0928\u0947 \u0915\u0947 \u092c\u093e\u0930\u0947 \u092e\u0947\u0902 \u0914\u0930 \u091c\u093e\u0928\u0915\u093e\u0930\u0940 \u091c\u0941\u091f\u093e\u0928\u0947 \u0915\u0947 \u0932\u093f\u090f \u0917\u0948\u0902\u0917\u0938\u094d\u091f\u0930 \u0915\u093e \u0932\u093e\u0907-\u0921\u093f\u091f\u0947\u0915\u094d\u091f\u0930, \u092c\u094d\u0930\u0947\u0928 \u092e\u0948\u092a\u093f\u0902\u0917 \u0914\u0930 \u0928\u093e\u0930\u0915\u094b \u090f\u0928\u093e\u0932\u0947\u0938\u093f\u0938 \u091f\u0947\u0938\u094d\u091f \u0915\u0930\u0928\u0947 \u0915\u0940 \u092e\u0902\u0936\u093e \u0939\u0948\u0964 \u0938\u0930\u0915\u093e\u0930\u0940 \u0935\u0915\u0940\u0932 \u0928\u0947 \u0905\u0926\u093e\u0932\u0924 \u0938\u0947 \u0915\u0939\u093e \u0915\u093f \u0938\u0932\u0947\u092e \u0928\u0947 \u092b\u093f\u0930\u094c\u0924\u0940 \u0914\u0930 \u0927\u0928 \u0909\u0917\u093e\u0939\u0940 \u092e\u0947\u0902 \u0936\u093e\u092e\u093f\u0932 \u0930\u0939\u0947 \u0915\u0941\u091b \u0932\u094b\u0917\u094b\u0902 \u0915\u0947 \u0928\u093e\u092e\u094b\u0902 \u0915\u093e \u0916\u0941\u0932\u093e\u0938\u093e \u0915\u093f\u092f\u093e \u0939\u0948\u0964 \u0907\u0938\u0915\u0940 \u0938\u091a\u094d\u091a\u093e\u0908 \u0915\u093e \u092a\u0924\u093e \u0932\u0917\u093e\u0928\u0947 \u0915\u0947 \u0932\u093f\u090f \u090f\u091f\u0940\u090f\u0938 \u0915\u094b \u0938\u0932\u0947\u092e \u092a\u0930 \u092a\u0930\u0940\u0915\u094d\u0937\u0923 \u0915\u0930\u0928\u0947 \u0915\u0940 \u091c\u0930\u0942\u0930\u0924 \u0939\u0948\u0964\u000a\u000a\u000a\u000a\u000a</TEXT>\u000a</DOC>
p1714
sS'rawFileName'
p1715
g1637
sS'rawToAnnMapping'
p1716
(dp1717
I0
(I0
tp1718
sI1
(I1
tp1719
sI2
(I2
tp1720
sI3
(I3
tp1721
sI4
(I4
tp1722
sI5
(I5
tp1723
sI6
(I6
tp1724
sI7
(I7
tp1725
sI8
(I8
tp1726
sI9
(I9
tp1727
sI10
(I10
tp1728
sI11
(I11
tp1729
sI12
(I12
tp1730
sI13
(I13
tp1731
sI14
(I14
tp1732
sI15
(I15
tp1733
sI16
(I16
tp1734
sI17
(I17
tp1735
sI18
(I18
tp1736
sI19
(I19
tp1737
sI20
(I20
tp1738
sI21
(I21
tp1739
sI22
(I22
tp1740
sI23
(I23
tp1741
sI24
(I24
tp1742
sI25
(I25
tp1743
sI26
(I26
tp1744
sI27
(I27
tp1745
sI28
(I28
tp1746
sI29
(I29
tp1747
sI30
(I30
tp1748
sI31
(I31
tp1749
sI32
(I32
tp1750
sI33
(I33
tp1751
sI34
(I34
tp1752
sI35
(I35
tp1753
sI36
(I36
tp1754
sI37
(I37
tp1755
sI38
(I38
tp1756
sI39
(I39
tp1757
sI40
(I40
tp1758
sI41
(I41
tp1759
sI42
(I42
tp1760
sI43
(I43
tp1761
sI44
(I44
tp1762
sI45
(I45
tp1763
sI46
(I46
tp1764
sI47
(I47
tp1765
sI48
(I48
tp1766
sI49
(I49
tp1767
sI50
(I50
tp1768
sI51
(I51
tp1769
sI52
(I52
tp1770
sI53
(I53
tp1771
sI54
(I54
tp1772
sI55
(I55
tp1773
sI56
(I56
tp1774
sI57
(I57
tp1775
sI58
(I58
tp1776
sI59
(I59
tp1777
sI60
(I60
tp1778
sI61
(I61
tp1779
sI62
(I62
tp1780
sI63
(I63
tp1781
sI64
(I64
tp1782
sI65
(I65
tp1783
sI66
(I66
tp1784
sI67
(I67
tp1785
sI68
(I68
tp1786
sI69
(I69
tp1787
sI70
(I70
tp1788
sI71
(I71
tp1789
sI72
(I72
tp1790
sI73
(I73
tp1791
sI74
(I74
tp1792
sI75
(I75
tp1793
sI76
(I76
tp1794
sI77
(I77
tp1795
sI78
(I78
tp1796
sI79
(I79
tp1797
sI80
(I80
tp1798
sI81
(I81
tp1799
sI82
(I82
tp1800
sI83
(I83
tp1801
sI84
(I84
tp1802
sI85
(I85
tp1803
sI86
(I86
tp1804
sI87
(I87
tp1805
sI88
(I88
tp1806
sI89
(I89
tp1807
sI90
(I90
tp1808
sI91
(I91
tp1809
sI92
(I92
tp1810
sI93
(I93
tp1811
sI94
(I94
tp1812
sI95
(I95
tp1813
sI96
(I96
tp1814
sI97
(I97
tp1815
sI98
(I98
tp1816
sI99
(I99
tp1817
sI100
(I100
tp1818
sI101
(I101
tp1819
sI102
(I102
tp1820
sI103
(I103
tp1821
sI104
(I104
tp1822
sI105
(I105
tp1823
sI106
(I106
tp1824
sI107
(I107
tp1825
sI108
(I108
tp1826
sI109
(I109
tp1827
sI110
(I110
tp1828
sI111
(I111
tp1829
sI112
(I112
tp1830
sI113
(I113
tp1831
sI114
(I114
tp1832
sI115
(I115
tp1833
sI116
(I116
tp1834
sI117
(I117
tp1835
sI118
(I118
tp1836
sI119
(I119
tp1837
sI120
(I120
tp1838
sI121
(I121
tp1839
sI122
(I122
tp1840
sI123
(I123
tp1841
sI124
(I124
tp1842
sI125
(I125
tp1843
sI126
(I126
tp1844
sI127
(I127
tp1845
sI128
(I128
tp1846
sI129
(I129
tp1847
sI130
(I130
tp1848
sI131
(I131
tp1849
sI132
(I132
tp1850
sI133
(I133
tp1851
sI134
(I134
tp1852
sI135
(I135
tp1853
sI136
(I136
tp1854
sI137
(I137
tp1855
sI138
(I138
tp1856
sI139
(I139
tp1857
sI140
(I140
tp1858
sI141
(I141
tp1859
sI142
(I142
tp1860
sI143
(I143
tp1861
sI144
(I144
tp1862
sI145
(I145
tp1863
sI146
(I146
tp1864
sI147
(I147
tp1865
sI148
(I148
tp1866
sI149
(I149
tp1867
sI150
(I150
tp1868
sI151
(I151
tp1869
sI152
(I152
tp1870
sI153
(I153
tp1871
sI154
(I154
tp1872
sI155
(I155
tp1873
sI156
(I156
tp1874
sI157
(I157
tp1875
sI158
(I158
tp1876
sI159
(I159
tp1877
sI160
(I160
tp1878
sI161
(I161
tp1879
sI162
(I162
tp1880
sI163
(I163
tp1881
sI164
(I164
tp1882
sI165
(I165
tp1883
sI166
(I166
tp1884
sI167
(I167
tp1885
sI168
(I168
tp1886
sI169
(I169
tp1887
sI170
(I170
tp1888
sI171
(I171
tp1889
sI172
(I172
tp1890
sI173
(I173
tp1891
sI174
(I174
tp1892
ssS'globalWordList'
p1893
(lp1894
(issf_api
Word
p1895
(dp1896
S'splitConn'
p1897
I00
sS'word'
p1898
V\u0935\u093f\u0936\u0947\u0937
p1899
sS'extraFeatureSet'
p1900
(issf_api
FeatureSet
p1901
(dp1902
g308
(dp1903
S'posn'
p1904
S'10'
p1905
sS'name'
p1906
S'\xe0\xa4\xb5\xe0\xa4\xbf\xe0\xa4\xb6\xe0\xa5\x87\xe0\xa4\xb7'
p1907
sS'drel'
p1908
S'nmod__adj:\xe0\xa4\x85\xe0\xa4\xa6\xe0\xa4\xbe\xe0\xa4\xb2\xe0\xa4\xa4'
p1909
sS'chunktype'
p1910
S'child:NP'
p1911
sS'af'
p1912
S'\xe0\xa4\xb5\xe0\xa4\xbf\xe0\xa4\xb6\xe0\xa5\x87\xe0\xa4\xb7,adj,any,any,,o,,'
p1913
ssbsg1630
I00
sg1633
I00
sg1644
Nsg1631
Nsg200
I0
sg186
I0
sS'relationNum'
p1914
Nsg1642
NsS'wordTag'
p1915
S'JJ'
p1916
sg305
(issf_api
FeatureSet
p1917
(dp1918
g308
(dp1919
S'posn'
p1920
S'10'
p1921
sS'name'
p1922
S'\xe0\xa4\xb5\xe0\xa4\xbf\xe0\xa4\xb6\xe0\xa5\x87\xe0\xa4\xb7'
p1923
sS'af'
p1924
S'\xe0\xa4\xb5\xe0\xa4\xbf\xe0\xa4\xb6\xe0\xa5\x87\xe0\xa4\xb7,adj,any,any,,o,,'
p1925
ssbsg1651
I00
sba(issf_api
Word
p1926
(dp1927
g1897
I00
sg1898
V\u091f\u093e\u0921\u093e
p1928
sg1900
(issf_api
FeatureSet
p1929
(dp1930
g308
(dp1931
S'posn'
p1932
S'20'
p1933
sS'name'
p1934
S'\xe0\xa4\x9f\xe0\xa4\xbe\xe0\xa4\xa1\xe0\xa4\xbe'
p1935
sS'drel'
p1936
S'nmod__adj:\xe0\xa4\x85\xe0\xa4\xa6\xe0\xa4\xbe\xe0\xa4\xb2\xe0\xa4\xa4'
p1937
sS'chunktype'
p1938
S'child:NP'
p1939
sS'af'
p1940
S'\xe0\xa4\x9f\xe0\xa4\xbe\xe0\xa4\xa1\xe0\xa4\xbe,n,m,sg,3,d,0,0'
p1941
ssbsg1630
I00
sg1633
I00
sg1644
Nsg1631
Nsg200
I0
sg186
I0
sg1914
Nsg1642
Nsg1915
S'NNP'
p1942
sg305
(issf_api
FeatureSet
p1943
(dp1944
g308
(dp1945
S'posn'
p1946
S'20'
p1947
sS'name'
p1948
S'\xe0\xa4\x9f\xe0\xa4\xbe\xe0\xa4\xa1\xe0\xa4\xbe'
p1949
sS'af'
p1950
S'\xe0\xa4\x9f\xe0\xa4\xbe\xe0\xa4\xa1\xe0\xa4\xbe,n,m,sg,3,d,0,0'
p1951
ssbsg1651
I00
sba(issf_api
Word
p1952
(dp1953
g1897
I00
sg1898
V\u0905\u0926\u093e\u0932\u0924
p1954
sg1900
(issf_api
FeatureSet
p1955
(dp1956
g308
(dp1957
S'posn'
p1958
S'30'
p1959
sS'name'
p1960
S'\xe0\xa4\x85\xe0\xa4\xa6\xe0\xa4\xbe\xe0\xa4\xb2\xe0\xa4\xa4'
p1961
sS'af'
p1962
S'\xe0\xa4\x85\xe0\xa4\xa6\xe0\xa4\xbe\xe0\xa4\xb2\xe0\xa4\xa4,n,f,sg,3,o,0_\xe0\xa4\xa8\xe0\xa5\x87,0'
p1963
sS'chunkid'
p1964
S'NP'
p1965
sS'drel'
p1966
S'k1:\xe0\xa4\xa6\xe0\xa5\x87'
p1967
sS'vpos'
p1968
S'vib_vib_4'
p1969
sS'chunktype'
p1970
S'head:NP'
p1971
ssbsg1630
I00
sg1633
I00
sg1644
Nsg1631
Nsg200
I0
sg186
I0
sg1914
Nsg1642
Nsg1915
S'NN'
p1972
sg305
(issf_api
FeatureSet
p1973
(dp1974
g308
(dp1975
S'posn'
p1976
S'30'
p1977
sS'name'
p1978
S'\xe0\xa4\x85\xe0\xa4\xa6\xe0\xa4\xbe\xe0\xa4\xb2\xe0\xa4\xa4'
p1979
sS'af'
p1980
S'\xe0\xa4\x85\xe0\xa4\xa6\xe0\xa4\xbe\xe0\xa4\xb2\xe0\xa4\xa4,n,f,sg,3,o,0,0'
p1981
ssbsg1651
I00
sba(issf_api
Word
p1982
(dp1983
g1897
I00
sg1898
V\u0928\u0947
p1984
sg1900
(issf_api
FeatureSet
p1985
(dp1986
g308
(dp1987
S'posn'
p1988
S'40'
p1989
sS'name'
p1990
S'\xe0\xa4\xa8\xe0\xa5\x87'
p1991
sS'drel'
p1992
S'lwg__psp:\xe0\xa4\x85\xe0\xa4\xa6\xe0\xa4\xbe\xe0\xa4\xb2\xe0\xa4\xa4'
p1993
sS'chunktype'
p1994
S'child:NP'
p1995
sS'af'
p1996
S'\xe0\xa4\xa8\xe0\xa5\x87,psp,,,,,,'
p1997
ssbsg1630
I00
sg1633
I00
sg1644
Nsg1631
Nsg200
I0
sg186
I0
sg1914
Nsg1642
Nsg1915
S'PSP'
p1998
sg305
(issf_api
FeatureSet
p1999
(dp2000
g308
(dp2001
S'posn'
p2002
S'40'
p2003
sS'name'
p2004
S'\xe0\xa4\xa8\xe0\xa5\x87'
p2005
sS'af'
p2006
S'\xe0\xa4\xa8\xe0\xa5\x87,psp,,,,,,'
p2007
ssbsg1651
I00
sba(issf_api
Word
p2008
(dp2009
g1897
I00
sg1898
V\u0936\u0941\u0915\u094d\u0930\u0935\u093e\u0930
p2010
sg1900
(issf_api
FeatureSet
p2011
(dp2012
g308
(dp2013
S'posn'
p2014
S'50'
p2015
sS'name'
p2016
S'\xe0\xa4\xb6\xe0\xa5\x81\xe0\xa4\x95\xe0\xa5\x8d\xe0\xa4\xb0\xe0\xa4\xb5\xe0\xa4\xbe\xe0\xa4\xb0'
p2017
sS'af'
p2018
S'\xe0\xa4\xb6\xe0\xa5\x81\xe0\xa4\x95\xe0\xa5\x8d\xe0\xa4\xb0\xe0\xa4\xb5\xe0\xa4\xbe\xe0\xa4\xb0,n,m,sg,3,o,0_\xe0\xa4\x95\xe0\xa5\x8b,0'
p2019
sS'chunkid'
p2020
S'NP2'
p2021
sS'drel'
p2022
S'k7t:\xe0\xa4\xa6\xe0\xa5\x87'
p2023
sS'vpos'
p2024
S'vib_2'
p2025
sS'chunktype'
p2026
S'head:NP2'
p2027
ssbsg1630
I00
sg1633
I00
sg1644
Nsg1631
Nsg200
I1
sg186
I0
sg1914
Nsg1642
Nsg1915
S'NNP'
p2028
sg305
(issf_api
FeatureSet
p2029
(dp2030
g308
(dp2031
S'posn'
p2032
S'50'
p2033
sS'name'
p2034
S'\xe0\xa4\xb6\xe0\xa5\x81\xe0\xa4\x95\xe0\xa5\x8d\xe0\xa4\xb0\xe0\xa4\xb5\xe0\xa4\xbe\xe0\xa4\xb0'
p2035
sS'af'
p2036
S'\xe0\xa4\xb6\xe0\xa5\x81\xe0\xa4\x95\xe0\xa5\x8d\xe0\xa4\xb0\xe0\xa4\xb5\xe0\xa4\xbe\xe0\xa4\xb0,n,m,sg,3,o,0,0'
p2037
ssbsg1651
I00
sba(issf_api
Word
p2038
(dp2039
g1897
I00
sg1898
V\u0915\u094b
p2040
sg1900
(issf_api
FeatureSet
p2041
(dp2042
g308
(dp2043
S'posn'
p2044
S'60'
p2045
sS'name'
p2046
S'\xe0\xa4\x95\xe0\xa5\x8b'
p2047
sS'drel'
p2048
S'lwg__psp:\xe0\xa4\xb6\xe0\xa5\x81\xe0\xa4\x95\xe0\xa5\x8d\xe0\xa4\xb0\xe0\xa4\xb5\xe0\xa4\xbe\xe0\xa4\xb0'
p2049
sS'chunktype'
p2050
S'child:NP2'
p2051
sS'af'
p2052
S'\xe0\xa4\x95\xe0\xa5\x8b,psp,,,,,,'
p2053
ssbsg1630
I00
sg1633
I00
sg1644
Nsg1631
Nsg200
I1
sg186
I0
sg1914
Nsg1642
Nsg1915
S'PSP'
p2054
sg305
(issf_api
FeatureSet
p2055
(dp2056
g308
(dp2057
S'posn'
p2058
S'60'
p2059
sS'name'
p2060
S'\xe0\xa4\x95\xe0\xa5\x8b'
p2061
sS'af'
p2062
S'\xe0\xa4\x95\xe0\xa5\x8b,psp,,,,,,'
p2063
ssbsg1651
I00
sba(issf_api
Word
p2064
(dp2065
g1897
I00
sg1898
V\u092e\u0941\u0902\u092c\u0908
p2066
sg1900
(issf_api
FeatureSet
p2067
(dp2068
g308
(dp2069
S'posn'
p2070
S'70'
p2071
sS'name'
p2072
S'\xe0\xa4\xae\xe0\xa5\x81\xe0\xa4\x82\xe0\xa4\xac\xe0\xa4\x88'
p2073
sS'drel'
p2074
S'nmod__adj:\xe0\xa4\xaa\xe0\xa5\x81\xe0\xa4\xb2\xe0\xa4\xbf\xe0\xa4\xb8'
p2075
sS'chunktype'
p2076
S'child:NP3'
p2077
sS'af'
p2078
S'\xe0\xa4\xae\xe0\xa5\x81\xe0\xa4\x82\xe0\xa4\xac\xe0\xa4\x88,n,f,sg,3,d,0,0'
p2079
ssbsg1630
I00
sg1633
I00
sg1644
Nsg1631
Nsg200
I2
sg186
I0
sg1914
Nsg1642
Nsg1915
S'NNP'
p2080
sg305
(issf_api
FeatureSet
p2081
(dp2082
g308
(dp2083
S'posn'
p2084
S'70'
p2085
sS'name'
p2086
S'\xe0\xa4\xae\xe0\xa5\x81\xe0\xa4\x82\xe0\xa4\xac\xe0\xa4\x88'
p2087
sS'af'
p2088
S'\xe0\xa4\xae\xe0\xa5\x81\xe0\xa4\x82\xe0\xa4\xac\xe0\xa4\x88,n,f,sg,3,d,0,0'
p2089
ssbsg1651
I00
sba(issf_api
Word
p2090
(dp2091
g1897
I00
sg1898
V\u092a\u0941\u0932\u093f\u0938
p2092
sg1900
(issf_api
FeatureSet
p2093
(dp2094
g308
(dp2095
S'posn'
p2096
S'80'
p2097
sS'name'
p2098
S'\xe0\xa4\xaa\xe0\xa5\x81\xe0\xa4\xb2\xe0\xa4\xbf\xe0\xa4\xb8'
p2099
sS'af'
p2100
S'\xe0\xa4\xaa\xe0\xa5\x81\xe0\xa4\xb2\xe0\xa4\xbf\xe0\xa4\xb8,n,f,sg,3,o,0_\xe0\xa4\x95\xe0\xa4\xbe,0'
p2101
sS'chunkid'
p2102
S'NP3'
p2103
sS'drel'
p2104
S'r6:\xe0\xa4\xa6\xe0\xa4\xb8\xe0\xa5\x8d\xe0\xa4\xa4\xe0\xa5\x87'
p2105
sS'vpos'
p2106
S'vib_vib_3'
p2107
sS'chunktype'
p2108
S'head:NP3'
p2109
ssbsg1630
I00
sg1633
I00
sg1644
Nsg1631
Nsg200
I2
sg186
I0
sg1914
Nsg1642
Nsg1915
S'NN'
p2110
sg305
(issf_api
FeatureSet
p2111
(dp2112
g308
(dp2113
S'posn'
p2114
S'80'
p2115
sS'name'
p2116
S'\xe0\xa4\xaa\xe0\xa5\x81\xe0\xa4\xb2\xe0\xa4\xbf\xe0\xa4\xb8'
p2117
sS'af'
p2118
S'\xe0\xa4\xaa\xe0\xa5\x81\xe0\xa4\xb2\xe0\xa4\xbf\xe0\xa4\xb8,n,f,sg,3,o,0,0'
p2119
ssbsg1651
I00
sba(issf_api
Word
p2120
(dp2121
g1897
I00
sg1898
V\u0915\u0947
p2122
sg1900
(issf_api
FeatureSet
p2123
(dp2124
g308
(dp2125
S'posn'
p2126
S'90'
p2127
sS'name'
p2128
S'\xe0\xa4\x95\xe0\xa5\x87'
p2129
sS'drel'
p2130
S'lwg__psp:\xe0\xa4\xaa\xe0\xa5\x81\xe0\xa4\xb2\xe0\xa4\xbf\xe0\xa4\xb8'
p2131
sS'chunktype'
p2132
S'child:NP3'
p2133
sS'af'
p2134
S'\xe0\xa4\x95\xe0\xa4\xbe,psp,m,sg,,o,,'
p2135
ssbsg1630
I00
sg1633
I00
sg1644
Nsg1631
Nsg200
I2
sg186
I0
sg1914
Nsg1642
Nsg1915
S'PSP'
p2136
sg305
(issf_api
FeatureSet
p2137
(dp2138
g308
(dp2139
S'posn'
p2140
S'90'
p2141
sS'name'
p2142
S'\xe0\xa4\x95\xe0\xa5\x87'
p2143
sS'af'
p2144
S'\xe0\xa4\x95\xe0\xa4\xbe,psp,m,sg,,o,,'
p2145
ssbsg1651
I00
sba(issf_api
Word
p2146
(dp2147
g1897
I00
sg1898
V\u0906\u0924\u0902\u0915\u0935\u093e\u0926\u0940
p2148
sg1900
(issf_api
FeatureSet
p2149
(dp2150
g308
(dp2151
S'posn'
p2152
S'100'
p2153
sS'name'
p2154
S'\xe0\xa4\x86\xe0\xa4\xa4\xe0\xa4\x82\xe0\xa4\x95\xe0\xa4\xb5\xe0\xa4\xbe\xe0\xa4\xa6\xe0\xa5\x80'
p2155
sS'drel'
p2156
S'pof__cn:\xe0\xa4\xa6\xe0\xa4\xb8\xe0\xa5\x8d\xe0\xa4\xa4\xe0\xa5\x87'
p2157
sS'chunktype'
p2158
S'child:NP4'
p2159
sS'af'
p2160
S'\xe0\xa4\x86\xe0\xa4\xa4\xe0\xa4\x82\xe0\xa4\x95\xe0\xa4\xb5\xe0\xa4\xbe\xe0\xa4\xa6\xe0\xa5\x80,adj,any,any,,o,,'
p2161
ssbsg1630
I00
sg1633
I00
sg1644
Nsg1631
Nsg200
I3
sg186
I0
sg1914
Nsg1642
Nsg1915
S'NNC'
p2162
sg305
(issf_api
FeatureSet
p2163
(dp2164
g308
(dp2165
S'posn'
p2166
S'100'
p2167
sS'name'
p2168
S'\xe0\xa4\x86\xe0\xa4\xa4\xe0\xa4\x82\xe0\xa4\x95\xe0\xa4\xb5\xe0\xa4\xbe\xe0\xa4\xa6\xe0\xa5\x80'
p2169
sS'af'
p2170
S'\xe0\xa4\x86\xe0\xa4\xa4\xe0\xa4\x82\xe0\xa4\x95\xe0\xa4\xb5\xe0\xa4\xbe\xe0\xa4\xa6\xe0\xa5\x80,adj,any,any,,o,,'
p2171
ssbsg1651
I00
sba(issf_api
Word
p2172
(dp2173
g1897
I00
sg1898
V\u0935\u093f\u0930\u094b\u0927\u0940
p2174
sg1900
(issf_api
FeatureSet
p2175
(dp2176
g308
(dp2177
S'posn'
p2178
S'110'
p2179
sS'name'
p2180
S'\xe0\xa4\xb5\xe0\xa4\xbf\xe0\xa4\xb0\xe0\xa5\x8b\xe0\xa4\xa7\xe0\xa5\x80'
p2181
sS'drel'
p2182
S'pof__cn:\xe0\xa4\xa6\xe0\xa4\xb8\xe0\xa5\x8d\xe0\xa4\xa4\xe0\xa5\x87'
p2183
sS'chunktype'
p2184
S'child:NP4'
p2185
sS'af'
p2186
S'\xe0\xa4\xb5\xe0\xa4\xbf\xe0\xa4\xb0\xe0\xa5\x8b\xe0\xa4\xa7\xe0\xa5\x80,adj,any,any,,o,,'
p2187
ssbsg1630
I00
sg1633
I00
sg1644
Nsg1631
Nsg200
I3
sg186
I0
sg1914
Nsg1642
Nsg1915
S'NNC'
p2188
sg305
(issf_api
FeatureSet
p2189
(dp2190
g308
(dp2191
S'posn'
p2192
S'110'
p2193
sS'name'
p2194
S'\xe0\xa4\xb5\xe0\xa4\xbf\xe0\xa4\xb0\xe0\xa5\x8b\xe0\xa4\xa7\xe0\xa5\x80'
p2195
sS'af'
p2196
S'\xe0\xa4\xb5\xe0\xa4\xbf\xe0\xa4\xb0\xe0\xa5\x8b\xe0\xa4\xa7\xe0\xa5\x80,adj,any,any,,o,,'
p2197
ssbsg1651
I00
sba(issf_api
Word
p2198
(dp2199
g1897
I00
sg1898
V\u0926\u0938\u094d\u0924\u0947
p2200
sg1900
(issf_api
FeatureSet
p2201
(dp2202
g308
(dp2203
S'posn'
p2204
S'120'
p2205
sS'name'
p2206
S'\xe0\xa4\xa6\xe0\xa4\xb8\xe0\xa5\x8d\xe0\xa4\xa4\xe0\xa5\x87'
p2207
sS'af'
p2208
S'\xe0\xa4\xa6\xe0\xa4\xb8\xe0\xa5\x8d\xe0\xa4\xa4\xe0\xa4\xbe,n,m,sg,3,o,0,0'
p2209
sS'chunkid'
p2210
S'NP4'
p2211
sS'drel'
p2212
S'k4:\xe0\xa4\xa6\xe0\xa5\x87'
p2213
sS'chunktype'
p2214
S'head:NP4'
p2215
ssbsg1630
I00
sg1633
I00
sg1644
Nsg1631
Nsg200
I3
sg186
I0
sg1914
Nsg1642
Nsg1915
S'NN'
p2216
sg305
(issf_api
FeatureSet
p2217
(dp2218
g308
(dp2219
S'posn'
p2220
S'120'
p2221
sS'name'
p2222
S'\xe0\xa4\xa6\xe0\xa4\xb8\xe0\xa5\x8d\xe0\xa4\xa4\xe0\xa5\x87'
p2223
sS'af'
p2224
S'\xe0\xa4\xa6\xe0\xa4\xb8\xe0\xa5\x8d\xe0\xa4\xa4\xe0\xa4\xbe,n,m,sg,3,o,0,0'
p2225
ssbsg1651
I00
sba(issf_api
Word
p2226
(dp2227
g1897
I00
sg1898
V(
sg1900
(issf_api
FeatureSet
p2228
(dp2229
g308
(dp2230
S'posn'
p2231
S'130'
p2232
sS'name'
p2233
S'('
sS'drel'
p2234
S'rsym:\xe0\xa4\x8f\xe0\xa4\x9f\xe0\xa5\x80\xe0\xa4\x8f\xe0\xa4\xb8'
p2235
sS'chunktype'
p2236
S'child:NP5'
p2237
sS'af'
p2238
S',punc,,,,,,'
p2239
ssbsg1630
I00
sg1633
I00
sg1644
Nsg1631
Nsg200
I4
sg186
I0
sg1914
Nsg1642
Nsg1915
S'SYM'
p2240
sg305
(issf_api
FeatureSet
p2241
(dp2242
g308
(dp2243
S'posn'
p2244
S'130'
p2245
sS'name'
p2246
S'('
sS'af'
p2247
S',punc,,,,,,'
p2248
ssbsg1651
I00
sba(issf_api
Word
p2249
(dp2250
g1897
I00
sg1898
V\u090f\u091f\u0940\u090f\u0938
p2251
sg1900
(issf_api
FeatureSet
p2252
(dp2253
g308
(dp2254
S'posn'
p2255
S'140'
p2256
sS'name'
p2257
S'\xe0\xa4\x8f\xe0\xa4\x9f\xe0\xa5\x80\xe0\xa4\x8f\xe0\xa4\xb8'
p2258
sS'af'
p2259
S'\xe0\xa4\x8f\xe0\xa4\x9f\xe0\xa5\x80\xe0\xa4\x8f\xe0\xa4\xb8,n,m,sg,3,o,0,0'
p2260
sS'chunkid'
p2261
S'NP5'
p2262
sS'drel'
p2263
S'rs:\xe0\xa4\xa6\xe0\xa4\xb8\xe0\xa5\x8d\xe0\xa4\xa4\xe0\xa5\x87'
p2264
sS'chunktype'
p2265
S'head:NP5'
p2266
ssbsg1630
I00
sg1633
I00
sg1644
Nsg1631
Nsg200
I4
sg186
I0
sg1914
Nsg1642
Nsg1915
S'NN'
p2267
sg305
(issf_api
FeatureSet
p2268
(dp2269
g308
(dp2270
S'posn'
p2271
S'140'
p2272
sS'name'
p2273
S'\xe0\xa4\x8f\xe0\xa4\x9f\xe0\xa5\x80\xe0\xa4\x8f\xe0\xa4\xb8'
p2274
sS'af'
p2275
S'\xe0\xa4\x8f\xe0\xa4\x9f\xe0\xa5\x80\xe0\xa4\x8f\xe0\xa4\xb8,n,m,sg,3,o,0,0'
p2276
ssbsg1651
I00
sba(issf_api
Word
p2277
(dp2278
g1897
I00
sg1898
V)
sg1900
(issf_api
FeatureSet
p2279
(dp2280
g308
(dp2281
S'posn'
p2282
S'150'
p2283
sS'name'
p2284
S')'
sS'drel'
p2285
S'rsym:\xe0\xa4\x8f\xe0\xa4\x9f\xe0\xa5\x80\xe0\xa4\x8f\xe0\xa4\xb8'
p2286
sS'chunktype'
p2287
S'child:NP5'
p2288
sS'af'
p2289
S',punc,,,,,,'
p2290
ssbsg1630
I00
sg1633
I00
sg1644
Nsg1631
Nsg200
I4
sg186
I0
sg1914
Nsg1642
Nsg1915
S'SYM'
p2291
sg305
(issf_api
FeatureSet
p2292
(dp2293
g308
(dp2294
S'posn'
p2295
S'150'
p2296
sS'name'
p2297
S')'
sS'af'
p2298
S',punc,,,,,,'
p2299
ssbsg1651
I00
sba(issf_api
Word
p2300
(dp2301
g1897
I00
sg1898
V\u0915\u094b
p2302
sg1900
(issf_api
FeatureSet
p2303
(dp2304
g308
(dp2305
S'name'
p2306
S'\xe0\xa4\x95\xe0\xa5\x8b2'
p2307
sS'drel'
p2308
S'fragof:\xe0\xa4\xa6\xe0\xa4\xb8\xe0\xa5\x8d\xe0\xa4\xa4\xe0\xa5\x87'
p2309
sS'chunktype'
p2310
S'head:FRAGP'
p2311
sS'chunkid'
p2312
S'FRAGP'
p2313
ssbsg1630
I00
sg1633
I00
sg1644
Nsg1631
Nsg200
I5
sg186
I0
sg1914
Nsg1642
Nsg1915
S'PSP'
p2314
sg305
(issf_api
FeatureSet
p2315
(dp2316
g308
(dp2317
S'posn'
p2318
S'160'
p2319
sS'name'
p2320
S'\xe0\xa4\x95\xe0\xa5\x8b2'
p2321
sS'af'
p2322
S'\xe0\xa4\x95\xe0\xa5\x8b,psp,,,,,,'
p2323
ssbsg1651
I00
sba(issf_api
Word
p2324
(dp2325
g1897
I00
sg1898
V\u0917\u0948\u0902\u0917\u0938\u094d\u091f\u0930
p2326
sg1900
(issf_api
FeatureSet
p2327
(dp2328
g308
(dp2329
S'posn'
p2330
S'170'
p2331
sS'name'
p2332
S'\xe0\xa4\x97\xe0\xa5\x88\xe0\xa4\x82\xe0\xa4\x97\xe0\xa4\xb8\xe0\xa5\x8d\xe0\xa4\x9f\xe0\xa4\xb0'
p2333
sS'af'
p2334
S'\xe0\xa4\x97\xe0\xa5\x88\xe0\xa4\x82\xe0\xa4\x97\xe0\xa4\xb8\xe0\xa5\x8d\xe0\xa4\x9f\xe0\xa4\xb0,n,m,sg,3,o,0,0'
p2335
sS'chunkid'
p2336
S'NP6'
p2337
sS'drel'
p2338
S'nmod:\xe0\xa4\xb8\xe0\xa4\xb2\xe0\xa5\x87\xe0\xa4\xae'
p2339
sS'chunktype'
p2340
S'head:NP6'
p2341
ssbsg1630
I00
sg1633
I00
sg1644
Nsg1631
Nsg200
I6
sg186
I0
sg1914
Nsg1642
Nsg1915
S'NN'
p2342
sg305
(issf_api
FeatureSet
p2343
(dp2344
g308
(dp2345
S'posn'
p2346
S'170'
p2347
sS'name'
p2348
S'\xe0\xa4\x97\xe0\xa5\x88\xe0\xa4\x82\xe0\xa4\x97\xe0\xa4\xb8\xe0\xa5\x8d\xe0\xa4\x9f\xe0\xa4\xb0'
p2349
sS'af'
p2350
S'\xe0\xa4\x97\xe0\xa5\x88\xe0\xa4\x82\xe0\xa4\x97\xe0\xa4\xb8\xe0\xa5\x8d\xe0\xa4\x9f\xe0\xa4\xb0,n,m,sg,3,o,0,0'
p2351
ssbsg1651
I00
sba(issf_api
Word
p2352
(dp2353
g1897
I00
sg1898
V\u0905\u092c\u0942
p2354
sg1900
(issf_api
FeatureSet
p2355
(dp2356
g308
(dp2357
S'posn'
p2358
S'180'
p2359
sS'name'
p2360
S'\xe0\xa4\x85\xe0\xa4\xac\xe0\xa5\x82'
p2361
sS'drel'
p2362
S'pof__cn:\xe0\xa4\xb8\xe0\xa4\xb2\xe0\xa5\x87\xe0\xa4\xae'
p2363
sS'chunktype'
p2364
S'child:NP7'
p2365
sS'af'
p2366
S'\xe0\xa4\x85\xe0\xa4\xac\xe0\xa5\x82,n,m,sg,3,d,0,0'
p2367
ssbsg1630
I00
sg1633
I00
sg1644
Nsg1631
Nsg200
I7
sg186
I0
sg1914
Nsg1642
Nsg1915
S'NNPC'
p2368
sg305
(issf_api
FeatureSet
p2369
(dp2370
g308
(dp2371
S'posn'
p2372
S'180'
p2373
sS'name'
p2374
S'\xe0\xa4\x85\xe0\xa4\xac\xe0\xa5\x82'
p2375
sS'af'
p2376
S'\xe0\xa4\x85\xe0\xa4\xac\xe0\xa5\x82,n,m,sg,3,d,0,0'
p2377
ssbsg1651
I00
sba(issf_api
Word
p2378
(dp2379
g1897
I00
sg1898
V\u0938\u0932\u0947\u092e
p2380
sg1900
(issf_api
FeatureSet
p2381
(dp2382
g308
(dp2383
S'posn'
p2384
S'190'
p2385
sS'name'
p2386
S'\xe0\xa4\xb8\xe0\xa4\xb2\xe0\xa5\x87\xe0\xa4\xae'
p2387
sS'af'
p2388
S'\xe0\xa4\xb8\xe0\xa4\xb2\xe0\xa5\x87\xe0\xa4\xae,n,m,sg,3,o,0_\xe0\xa4\xb8\xe0\xa5\x87,0'
p2389
sS'chunkid'
p2390
S'NP7'
p2391
sS'drel'
p2392
S'k5:\xe0\xa4\x9c\xe0\xa5\x81\xe0\xa4\x9f\xe0\xa4\xbe\xe0\xa4\xa8\xe0\xa5\x87'
p2393
sS'vpos'
p2394
S'vib_3'
p2395
sS'chunktype'
p2396
S'head:NP7'
p2397
ssbsg1630
I00
sg1633
I00
sg1644
Nsg1631
Nsg200
I7
sg186
I0
sg1914
Nsg1642
Nsg1915
S'NNP'
p2398
sg305
(issf_api
FeatureSet
p2399
(dp2400
g308
(dp2401
S'posn'
p2402
S'190'
p2403
sS'name'
p2404
S'\xe0\xa4\xb8\xe0\xa4\xb2\xe0\xa5\x87\xe0\xa4\xae'
p2405
sS'af'
p2406
S'\xe0\xa4\xb8\xe0\xa4\xb2\xe0\xa5\x87\xe0\xa4\xae,n,m,sg,3,o,0,0'
p2407
ssbsg1651
I00
sba(issf_api
Word
p2408
(dp2409
g1897
I00
sg1898
V\u0938\u0947
p2410
sg1900
(issf_api
FeatureSet
p2411
(dp2412
g308
(dp2413
S'posn'
p2414
S'200'
p2415
sS'name'
p2416
S'\xe0\xa4\xb8\xe0\xa5\x87'
p2417
sS'drel'
p2418
S'lwg__psp:\xe0\xa4\xb8\xe0\xa4\xb2\xe0\xa5\x87\xe0\xa4\xae'
p2419
sS'chunktype'
p2420
S'child:NP7'
p2421
sS'af'
p2422
S'\xe0\xa4\xb8\xe0\xa5\x87,psp,,,,,,'
p2423
ssbsg1630
I00
sg1633
I00
sg1644
Nsg1631
Nsg200
I7
sg186
I0
sg1914
Nsg1642
Nsg1915
S'PSP'
p2424
sg305
(issf_api
FeatureSet
p2425
(dp2426
g308
(dp2427
S'posn'
p2428
S'200'
p2429
sS'name'
p2430
S'\xe0\xa4\xb8\xe0\xa5\x87'
p2431
sS'af'
p2432
S'\xe0\xa4\xb8\xe0\xa5\x87,psp,,,,,,'
p2433
ssbsg1651
I00
sba(issf_api
Word
p2434
(dp2435
g1897
I00
sg1898
V\u092a\u094d\u0930\u0926\u0940\u092a
p2436
sg1900
(issf_api
FeatureSet
p2437
(dp2438
g308
(dp2439
S'posn'
p2440
S'210'
p2441
sS'name'
p2442
S'\xe0\xa4\xaa\xe0\xa5\x8d\xe0\xa4\xb0\xe0\xa4\xa6\xe0\xa5\x80\xe0\xa4\xaa'
p2443
sS'drel'
p2444
S'pof__cn:\xe0\xa4\x9c\xe0\xa5\x88\xe0\xa4\xa8'
p2445
sS'chunktype'
p2446
S'child:NP8'
p2447
sS'af'
p2448
S'\xe0\xa4\xaa\xe0\xa5\x8d\xe0\xa4\xb0\xe0\xa4\xa6\xe0\xa5\x80\xe0\xa4\xaa,n,m,sg,3,d,0,0'
p2449
ssbsg1630
I00
sg1633
I00
sg1644
Nsg1631
Nsg200
I8
sg186
I0
sg1914
Nsg1642
Nsg1915
S'NNPC'
p2450
sg305
(issf_api
FeatureSet
p2451
(dp2452
g308
(dp2453
S'posn'
p2454
S'210'
p2455
sS'name'
p2456
S'\xe0\xa4\xaa\xe0\xa5\x8d\xe0\xa4\xb0\xe0\xa4\xa6\xe0\xa5\x80\xe0\xa4\xaa'
p2457
sS'af'
p2458
S'\xe0\xa4\xaa\xe0\xa5\x8d\xe0\xa4\xb0\xe0\xa4\xa6\xe0\xa5\x80\xe0\xa4\xaa,n,m,sg,3,d,0,0'
p2459
ssbsg1651
I00
sba(issf_api
Word
p2460
(dp2461
g1897
I00
sg1898
V\u091c\u0948\u0928
p2462
sg1900
(issf_api
FeatureSet
p2463
(dp2464
g308
(dp2465
S'posn'
p2466
S'220'
p2467
sS'name'
p2468
S'\xe0\xa4\x9c\xe0\xa5\x88\xe0\xa4\xa8'
p2469
sS'drel'
p2470
S'nmod__adj:\xe0\xa4\xb9\xe0\xa4\xa4\xe0\xa5\x8d\xe0\xa4\xaf\xe0\xa4\xbe\xe0\xa4\x95\xe0\xa4\xbe\xe0\xa4\x82\xe0\xa4\xa1'
p2471
sS'chunktype'
p2472
S'child:NP8'
p2473
sS'af'
p2474
S'\xe0\xa4\x9c\xe0\xa5\x88\xe0\xa4\xa8,n,any,sg,3,d,0,0'
p2475
ssbsg1630
I00
sg1633
I00
sg1644
Nsg1631
Nsg200
I8
sg186
I0
sg1914
Nsg1642
Nsg1915
S'NNP'
p2476
sg305
(issf_api
FeatureSet
p2477
(dp2478
g308
(dp2479
S'posn'
p2480
S'220'
p2481
sS'name'
p2482
S'\xe0\xa4\x9c\xe0\xa5\x88\xe0\xa4\xa8'
p2483
sS'af'
p2484
S'\xe0\xa4\x9c\xe0\xa5\x88\xe0\xa4\xa8,n,any,sg,3,d,0,0'
p2485
ssbsg1651
I00
sba(issf_api
Word
p2486
(dp2487
g1897
I00
sg1898
V\u0939\u0924\u094d\u092f\u093e\u0915\u093e\u0902\u0921
p2488
sg1900
(issf_api
FeatureSet
p2489
(dp2490
g308
(dp2491
S'posn'
p2492
S'230'
p2493
sS'name'
p2494
S'\xe0\xa4\xb9\xe0\xa4\xa4\xe0\xa5\x8d\xe0\xa4\xaf\xe0\xa4\xbe\xe0\xa4\x95\xe0\xa4\xbe\xe0\xa4\x82\xe0\xa4\xa1'
p2495
sS'af'
p2496
S'\xe0\xa4\xb9\xe0\xa4\xa4\xe0\xa5\x8d\xe0\xa4\xaf\xe0\xa4\xbe\xe0\xa4\x95\xe0\xa4\xbe\xe0\xa4\x82\xe0\xa4\xa1,n,m,sg,3,o,0_\xe0\xa4\x95\xe0\xa5\x87_\xe0\xa4\xac\xe0\xa4\xbe\xe0\xa4\xb0\xe0\xa5\x87_\xe0\xa4\xae\xe0\xa5\x87\xe0\xa4\x82,0'
p2497
sS'chunkid'
p2498
S'NP8'
p2499
sS'drel'
p2500
S'k7:\xe0\xa4\x9c\xe0\xa5\x81\xe0\xa4\x9f\xe0\xa4\xbe\xe0\xa4\xa8\xe0\xa5\x87'
p2501
sS'vpos'
p2502
S'vib_vib_4_5_6'
p2503
sS'chunktype'
p2504
S'head:NP8'
p2505
ssbsg1630
I00
sg1633
I00
sg1644
Nsg1631
Nsg200
I8
sg186
I0
sg1914
Nsg1642
Nsg1915
S'NN'
p2506
sg305
(issf_api
FeatureSet
p2507
(dp2508
g308
(dp2509
S'posn'
p2510
S'230'
p2511
sS'name'
p2512
S'\xe0\xa4\xb9\xe0\xa4\xa4\xe0\xa5\x8d\xe0\xa4\xaf\xe0\xa4\xbe\xe0\xa4\x95\xe0\xa4\xbe\xe0\xa4\x82\xe0\xa4\xa1'
p2513
sS'af'
p2514
S'\xe0\xa4\xb9\xe0\xa4\xa4\xe0\xa5\x8d\xe0\xa4\xaf\xe0\xa4\xbe\xe0\xa4\x95\xe0\xa4\xbe\xe0\xa4\x82\xe0\xa4\xa1,n,m,sg,3,o,0,0'
p2515
ssbsg1651
I00
sba(issf_api
Word
p2516
(dp2517
g1897
I00
sg1898
V\u0915\u0947
p2518
sg1900
(issf_api
FeatureSet
p2519
(dp2520
g308
(dp2521
S'posn'
p2522
S'240'
p2523
sS'name'
p2524
S'\xe0\xa4\x95\xe0\xa5\x872'
p2525
sS'drel'
p2526
S'lwg__psp:\xe0\xa4\xb9\xe0\xa4\xa4\xe0\xa5\x8d\xe0\xa4\xaf\xe0\xa4\xbe\xe0\xa4\x95\xe0\xa4\xbe\xe0\xa4\x82\xe0\xa4\xa1'
p2527
sS'chunktype'
p2528
S'child:NP8'
p2529
sS'af'
p2530
S'\xe0\xa4\x95\xe0\xa5\x87,psp,,,,,,'
p2531
ssbsg1630
I00
sg1633
I00
sg1644
Nsg1631
Nsg200
I8
sg186
I0
sg1914
Nsg1642
Nsg1915
S'PSP'
p2532
sg305
(issf_api
FeatureSet
p2533
(dp2534
g308
(dp2535
S'posn'
p2536
S'240'
p2537
sS'name'
p2538
S'\xe0\xa4\x95\xe0\xa5\x872'
p2539
sS'af'
p2540
S'\xe0\xa4\x95\xe0\xa5\x87,psp,,,,,,'
p2541
ssbsg1651
I00
sba(issf_api
Word
p2542
(dp2543
g1897
I00
sg1898
V\u092c\u093e\u0930\u0947
p2544
sg1900
(issf_api
FeatureSet
p2545
(dp2546
g308
(dp2547
S'posn'
p2548
S'250'
p2549
sS'name'
p2550
S'\xe0\xa4\xac\xe0\xa4\xbe\xe0\xa4\xb0\xe0\xa5\x87'
p2551
sS'drel'
p2552
S'lwg__psp:\xe0\xa4\xb9\xe0\xa4\xa4\xe0\xa5\x8d\xe0\xa4\xaf\xe0\xa4\xbe\xe0\xa4\x95\xe0\xa4\xbe\xe0\xa4\x82\xe0\xa4\xa1'
p2553
sS'chunktype'
p2554
S'child:NP8'
p2555
sS'af'
p2556
S'\xe0\xa4\xac\xe0\xa4\xbe\xe0\xa4\xb0\xe0\xa5\x87,psp,,,,,,'
p2557
ssbsg1630
I00
sg1633
I00
sg1644
Nsg1631
Nsg200
I8
sg186
I0
sg1914
Nsg1642
Nsg1915
S'PSP'
p2558
sg305
(issf_api
FeatureSet
p2559
(dp2560
g308
(dp2561
S'posn'
p2562
S'250'
p2563
sS'name'
p2564
S'\xe0\xa4\xac\xe0\xa4\xbe\xe0\xa4\xb0\xe0\xa5\x87'
p2565
sS'af'
p2566
S'\xe0\xa4\xac\xe0\xa4\xbe\xe0\xa4\xb0\xe0\xa5\x87,psp,,,,,,'
p2567
ssbsg1651
I00
sba(issf_api
Word
p2568
(dp2569
g1897
I00
sg1898
V\u092e\u0947\u0902
p2570
sg1900
(issf_api
FeatureSet
p2571
(dp2572
g308
(dp2573
S'posn'
p2574
S'260'
p2575
sS'name'
p2576
S'\xe0\xa4\xae\xe0\xa5\x87\xe0\xa4\x82'
p2577
sS'drel'
p2578
S'lwg__psp:\xe0\xa4\xb9\xe0\xa4\xa4\xe0\xa5\x8d\xe0\xa4\xaf\xe0\xa4\xbe\xe0\xa4\x95\xe0\xa4\xbe\xe0\xa4\x82\xe0\xa4\xa1'
p2579
sS'chunktype'
p2580
S'child:NP8'
p2581
sS'af'
p2582
S'\xe0\xa4\xae\xe0\xa5\x87\xe0\xa4\x82,psp,,,,,,'
p2583
ssbsg1630
I00
sg1633
I00
sg1644
Nsg1631
Nsg200
I8
sg186
I0
sg1914
Nsg1642
Nsg1915
S'PSP'
p2584
sg305
(issf_api
FeatureSet
p2585
(dp2586
g308
(dp2587
S'posn'
p2588
S'260'
p2589
sS'name'
p2590
S'\xe0\xa4\xae\xe0\xa5\x87\xe0\xa4\x82'
p2591
sS'af'
p2592
S'\xe0\xa4\xae\xe0\xa5\x87\xe0\xa4\x82,psp,,,,,,'
p2593
ssbsg1651
I00
sba(issf_api
Word
p2594
(dp2595
g1897
I00
sg1898
V\u0914\u0930
p2596
sg1900
(issf_api
FeatureSet
p2597
(dp2598
g308
(dp2599
S'posn'
p2600
S'270'
p2601
sS'name'
p2602
S'\xe0\xa4\x94\xe0\xa4\xb0'
p2603
sS'drel'
p2604
S'nmod__adj:\xe0\xa4\x9c\xe0\xa4\xbe\xe0\xa4\xa8\xe0\xa4\x95\xe0\xa4\xbe\xe0\xa4\xb0\xe0\xa5\x80'
p2605
sS'chunktype'
p2606
S'child:NP9'
p2607
sS'af'
p2608
S'\xe0\xa4\x94\xe0\xa4\xb0,avy,,,,,,'
p2609
ssbsg1630
I00
sg1633
I00
sg1644
Nsg1631
Nsg200
I9
sg186
I0
sg1914
Nsg1642
Nsg1915
S'QF'
p2610
sg305
(issf_api
FeatureSet
p2611
(dp2612
g308
(dp2613
S'posn'
p2614
S'270'
p2615
sS'name'
p2616
S'\xe0\xa4\x94\xe0\xa4\xb0'
p2617
sS'af'
p2618
S'\xe0\xa4\x94\xe0\xa4\xb0,avy,,,,,,'
p2619
ssbsg1651
I00
sba(issf_api
Word
p2620
(dp2621
g1897
I00
sg1898
V\u091c\u093e\u0928\u0915\u093e\u0930\u0940
p2622
sg1900
(issf_api
FeatureSet
p2623
(dp2624
g308
(dp2625
S'posn'
p2626
S'280'
p2627
sS'name'
p2628
S'\xe0\xa4\x9c\xe0\xa4\xbe\xe0\xa4\xa8\xe0\xa4\x95\xe0\xa4\xbe\xe0\xa4\xb0\xe0\xa5\x80'
p2629
sS'af'
p2630
S'\xe0\xa4\x9c\xe0\xa4\xbe\xe0\xa4\xa8\xe0\xa4\x95\xe0\xa4\xbe\xe0\xa4\xb0\xe0\xa5\x80,n,f,sg,3,d,0,0'
p2631
sS'chunkid'
p2632
S'NP9'
p2633
sS'drel'
p2634
S'k2:\xe0\xa4\x9c\xe0\xa5\x81\xe0\xa4\x9f\xe0\xa4\xbe\xe0\xa4\xa8\xe0\xa5\x87'
p2635
sS'chunktype'
p2636
S'head:NP9'
p2637
ssbsg1630
I00
sg1633
I00
sg1644
Nsg1631
Nsg200
I9
sg186
I0
sg1914
Nsg1642
Nsg1915
S'NN'
p2638
sg305
(issf_api
FeatureSet
p2639
(dp2640
g308
(dp2641
S'posn'
p2642
S'280'
p2643
sS'name'
p2644
S'\xe0\xa4\x9c\xe0\xa4\xbe\xe0\xa4\xa8\xe0\xa4\x95\xe0\xa4\xbe\xe0\xa4\xb0\xe0\xa5\x80'
p2645
sS'af'
p2646
S'\xe0\xa4\x9c\xe0\xa4\xbe\xe0\xa4\xa8\xe0\xa4\x95\xe0\xa4\xbe\xe0\xa4\xb0\xe0\xa5\x80,n,f,sg,3,d,0,0'
p2647
ssbsg1651
I00
sba(issf_api
Word
p2648
(dp2649
g1897
I00
sg1898
V\u091c\u0941\u091f\u093e\u0928\u0947
p2650
sg1900
(issf_api
FeatureSet
p2651
(dp2652
g308
(dp2653
S'posn'
p2654
S'290'
p2655
sS'name'
p2656
S'\xe0\xa4\x9c\xe0\xa5\x81\xe0\xa4\x9f\xe0\xa4\xbe\xe0\xa4\xa8\xe0\xa5\x87'
p2657
sS'af'
p2658
S'\xe0\xa4\x9c\xe0\xa5\x81\xe0\xa4\x9f\xe0\xa4\xbe,v,any,any,any,o,\xe0\xa4\xa8\xe0\xa4\xbe_\xe0\xa4\x95\xe0\xa5\x87_\xe0\xa4\xb2\xe0\xa4\xbf\xe0\xa4\x8f,nA'
p2659
sS'chunkid'
p2660
S'VGNN'
p2661
sS'drel'
p2662
S'rt:\xe0\xa4\xa6\xe0\xa5\x87'
p2663
sS'vpos'
p2664
S'tam_2_3'
p2665
sS'chunktype'
p2666
S'head:VGNN'
p2667
ssbsg1630
I00
sg1633
I00
sg1644
Nsg1631
Nsg200
I10
sg186
I0
sg1914
Nsg1642
Nsg1915
S'VM'
p2668
sg305
(issf_api
FeatureSet
p2669
(dp2670
g308
(dp2671
S'posn'
p2672
S'290'
p2673
sS'name'
p2674
S'\xe0\xa4\x9c\xe0\xa5\x81\xe0\xa4\x9f\xe0\xa4\xbe\xe0\xa4\xa8\xe0\xa5\x87'
p2675
sS'af'
p2676
S'\xe0\xa4\x9c\xe0\xa5\x81\xe0\xa4\x9f\xe0\xa4\xbe,v,any,any,any,o,\xe0\xa4\xa8\xe0\xa4\xbe,nA'
p2677
ssbsg1651
I00
sba(issf_api
Word
p2678
(dp2679
g1897
I00
sg1898
V\u0915\u0947
p2680
sg1900
(issf_api
FeatureSet
p2681
(dp2682
g308
(dp2683
S'posn'
p2684
S'300'
p2685
sS'name'
p2686
S'\xe0\xa4\x95\xe0\xa5\x873'
p2687
sS'drel'
p2688
S'lwg__psp:\xe0\xa4\x9c\xe0\xa5\x81\xe0\xa4\x9f\xe0\xa4\xbe\xe0\xa4\xa8\xe0\xa5\x87'
p2689
sS'chunktype'
p2690
S'child:VGNN'
p2691
sS'af'
p2692
S'\xe0\xa4\x95\xe0\xa5\x87,psp,,,,,,'
p2693
ssbsg1630
I00
sg1633
I00
sg1644
Nsg1631
Nsg200
I10
sg186
I0
sg1914
Nsg1642
Nsg1915
S'PSP'
p2694
sg305
(issf_api
FeatureSet
p2695
(dp2696
g308
(dp2697
S'posn'
p2698
S'300'
p2699
sS'name'
p2700
S'\xe0\xa4\x95\xe0\xa5\x873'
p2701
sS'af'
p2702
S'\xe0\xa4\x95\xe0\xa5\x87,psp,,,,,,'
p2703
ssbsg1651
I00
sba(issf_api
Word
p2704
(dp2705
g1897
I00
sg1898
V\u0932\u093f\u090f
p2706
sg1900
(issf_api
FeatureSet
p2707
(dp2708
g308
(dp2709
S'posn'
p2710
S'310'
p2711
sS'name'
p2712
S'\xe0\xa4\xb2\xe0\xa4\xbf\xe0\xa4\x8f'
p2713
sS'drel'
p2714
S'lwg__psp:\xe0\xa4\x9c\xe0\xa5\x81\xe0\xa4\x9f\xe0\xa4\xbe\xe0\xa4\xa8\xe0\xa5\x87'
p2715
sS'chunktype'
p2716
S'child:VGNN'
p2717
sS'af'
p2718
S'\xe0\xa4\xb2\xe0\xa4\xbf\xe0\xa4\x8f,psp,,,,,,'
p2719
ssbsg1630
I00
sg1633
I00
sg1644
Nsg1631
Nsg200
I10
sg186
I0
sg1914
Nsg1642
Nsg1915
S'PSP'
p2720
sg305
(issf_api
FeatureSet
p2721
(dp2722
g308
(dp2723
S'posn'
p2724
S'310'
p2725
sS'name'
p2726
S'\xe0\xa4\xb2\xe0\xa4\xbf\xe0\xa4\x8f'
p2727
sS'af'
p2728
S'\xe0\xa4\xb2\xe0\xa4\xbf\xe0\xa4\x8f,psp,,,,,,'
p2729
ssbsg1651
I00
sba(issf_api
Word
p2730
(dp2731
g1897
I00
sg1898
V\u0932\u093e\u0908
p2732
sg1900
(issf_api
FeatureSet
p2733
(dp2734
g308
(dp2735
S'posn'
p2736
S'320'
p2737
sS'name'
p2738
S'\xe0\xa4\xb2\xe0\xa4\xbe\xe0\xa4\x88'
p2739
sS'drel'
p2740
S'pof__cn:\xe0\xa4\xa1\xe0\xa4\xbf\xe0\xa4\x9f\xe0\xa5\x87\xe0\xa4\x95\xe0\xa5\x8d\xe0\xa4\x9f\xe0\xa4\xb0'
p2741
sS'chunktype'
p2742
S'child:NP10'
p2743
sS'af'
p2744
S'\xe0\xa4\xb2\xe0\xa4\xbe\xe0\xa4\x88,n,m,sg,3,d,0,0'
p2745
ssbsg1630
I00
sg1633
I00
sg1644
Nsg1631
Nsg200
I11
sg186
I0
sg1914
Nsg1642
Nsg1915
S'NNC'
p2746
sg305
(issf_api
FeatureSet
p2747
(dp2748
g308
(dp2749
S'posn'
p2750
S'320'
p2751
sS'name'
p2752
S'\xe0\xa4\xb2\xe0\xa4\xbe\xe0\xa4\x88'
p2753
sS'af'
p2754
S'\xe0\xa4\xb2\xe0\xa4\xbe\xe0\xa4\x88,n,m,sg,3,d,0,0'
p2755
ssbsg1651
I00
sba(issf_api
Word
p2756
(dp2757
g1897
I00
sg1898
V-
sg1900
(issf_api
FeatureSet
p2758
(dp2759
g308
(dp2760
S'posn'
p2761
S'330'
p2762
sS'name'
p2763
S'-'
sS'drel'
p2764
S'pof__cn:\xe0\xa4\xa1\xe0\xa4\xbf\xe0\xa4\x9f\xe0\xa5\x87\xe0\xa4\x95\xe0\xa5\x8d\xe0\xa4\x9f\xe0\xa4\xb0'
p2765
sS'chunktype'
p2766
S'child:NP10'
p2767
sS'af'
p2768
S'-,punc,,,,,,'
p2769
ssbsg1630
I00
sg1633
I00
sg1644
Nsg1631
Nsg200
I11
sg186
I0
sg1914
Nsg1642
Nsg1915
S'SYM'
p2770
sg305
(issf_api
FeatureSet
p2771
(dp2772
g308
(dp2773
S'posn'
p2774
S'330'
p2775
sS'name'
p2776
S'-'
sS'af'
p2777
S'-,punc,,,,,,'
p2778
ssbsg1651
I00
sba(issf_api
Word
p2779
(dp2780
g1897
I00
sg1898
V\u0921\u093f\u091f\u0947\u0915\u094d\u091f\u0930
p2781
sg1900
(issf_api
FeatureSet
p2782
(dp2783
g308
(dp2784
S'posn'
p2785
S'340'
p2786
sS'name'
p2787
S'\xe0\xa4\xa1\xe0\xa4\xbf\xe0\xa4\x9f\xe0\xa5\x87\xe0\xa4\x95\xe0\xa5\x8d\xe0\xa4\x9f\xe0\xa4\xb0'
p2788
sS'af'
p2789
S'\xe0\xa4\xa1\xe0\xa4\xbf\xe0\xa4\x9f\xe0\xa5\x87\xe0\xa4\x95\xe0\xa5\x8d\xe0\xa4\x9f\xe0\xa4\xb0,n,m,sg,3,d,0,0'
p2790
sS'chunkid'
p2791
S'NP10'
p2792
sS'drel'
p2793
S'ccof:\xe0\xa4\x94\xe0\xa4\xb02'
p2794
sS'chunktype'
p2795
S'head:NP10'
p2796
ssbsg1630
I00
sg1633
I00
sg1644
Nsg1631
Nsg200
I11
sg186
I0
sg1914
Nsg1642
Nsg1915
S'NN'
p2797
sg305
(issf_api
FeatureSet
p2798
(dp2799
g308
(dp2800
S'posn'
p2801
S'340'
p2802
sS'name'
p2803
S'\xe0\xa4\xa1\xe0\xa4\xbf\xe0\xa4\x9f\xe0\xa5\x87\xe0\xa4\x95\xe0\xa5\x8d\xe0\xa4\x9f\xe0\xa4\xb0'
p2804
sS'af'
p2805
S'\xe0\xa4\xa1\xe0\xa4\xbf\xe0\xa4\x9f\xe0\xa5\x87\xe0\xa4\x95\xe0\xa5\x8d\xe0\xa4\x9f\xe0\xa4\xb0,n,m,sg,3,d,0,0'
p2806
ssbsg1651
I00
sba(issf_api
Word
p2807
(dp2808
g1897
I00
sg1898
V\u0914\u0930
p2809
sg1900
(issf_api
FeatureSet
p2810
(dp2811
g308
(dp2812
S'posn'
p2813
S'350'
p2814
sS'name'
p2815
S'\xe0\xa4\x94\xe0\xa4\xb02'
p2816
sS'af'
p2817
S'\xe0\xa4\x94\xe0\xa4\xb0,avy,,,,,,'
p2818
sS'chunkid'
p2819
S'CCP'
p2820
sS'drel'
p2821
S'r6-k2:\xe0\xa4\x85\xe0\xa4\xa8\xe0\xa5\x81\xe0\xa4\xae\xe0\xa4\xa4\xe0\xa4\xbf'
p2822
sS'chunktype'
p2823
S'head:CCP'
p2824
ssbsg1630
I00
sg1633
I00
sg1644
Nsg1631
Nsg200
I12
sg186
I0
sg1914
Nsg1642
Nsg1915
S'CC'
p2825
sg305
(issf_api
FeatureSet
p2826
(dp2827
g308
(dp2828
S'posn'
p2829
S'350'
p2830
sS'name'
p2831
S'\xe0\xa4\x94\xe0\xa4\xb02'
p2832
sS'af'
p2833
S'\xe0\xa4\x94\xe0\xa4\xb0,avy,,,,,,'
p2834
ssbsg1651
I00
sba(issf_api
Word
p2835
(dp2836
g1897
I00
sg1898
V\u0905\u0928\u094d\u092f
p2837
sg1900
(issf_api
FeatureSet
p2838
(dp2839
g308
(dp2840
S'posn'
p2841
S'360'
p2842
sS'name'
p2843
S'\xe0\xa4\x85\xe0\xa4\xa8\xe0\xa5\x8d\xe0\xa4\xaf'
p2844
sS'drel'
p2845
S'nmod__adj:\xe0\xa4\xaa\xe0\xa4\xb0\xe0\xa5\x80\xe0\xa4\x95\xe0\xa5\x8d\xe0\xa4\xb7\xe0\xa4\xa3\xe0\xa5\x8b\xe0\xa4\x82'
p2846
sS'chunktype'
p2847
S'child:NP11'
p2848
sS'af'
p2849
S'\xe0\xa4\x85\xe0\xa4\xa8\xe0\xa5\x8d\xe0\xa4\xaf,adj,any,any,,o,,'
p2850
ssbsg1630
I00
sg1633
I00
sg1644
Nsg1631
Nsg200
I13
sg186
I0
sg1914
Nsg1642
Nsg1915
S'JJ'
p2851
sg305
(issf_api
FeatureSet
p2852
(dp2853
g308
(dp2854
S'posn'
p2855
S'360'
p2856
sS'name'
p2857
S'\xe0\xa4\x85\xe0\xa4\xa8\xe0\xa5\x8d\xe0\xa4\xaf'
p2858
sS'af'
p2859
S'\xe0\xa4\x85\xe0\xa4\xa8\xe0\xa5\x8d\xe0\xa4\xaf,adj,any,any,,o,,'
p2860
ssbsg1651
I00
sba(issf_api
Word
p2861
(dp2862
g1897
I00
sg1898
V\u092a\u0930\u0940\u0915\u094d\u0937\u0923\u094b\u0902
p2863
sg1900
(issf_api
FeatureSet
p2864
(dp2865
g308
(dp2866
S'posn'
p2867
S'370'
p2868
sS'name'
p2869
S'\xe0\xa4\xaa\xe0\xa4\xb0\xe0\xa5\x80\xe0\xa4\x95\xe0\xa5\x8d\xe0\xa4\xb7\xe0\xa4\xa3\xe0\xa5\x8b\xe0\xa4\x82'
p2870
sS'af'
p2871
S'\xe0\xa4\xaa\xe0\xa4\xb0\xe0\xa5\x80\xe0\xa4\x95\xe0\xa5\x8d\xe0\xa4\xb7\xe0\xa4\xa3,n,m,pl,3,o,0_\xe0\xa4\x95\xe0\xa4\xbe,0'
p2872
sS'chunkid'
p2873
S'NP11'
p2874
sS'drel'
p2875
S'ccof:\xe0\xa4\x94\xe0\xa4\xb02'
p2876
sS'vpos'
p2877
S'vib_3'
p2878
sS'chunktype'
p2879
S'head:NP11'
p2880
ssbsg1630
I00
sg1633
I00
sg1644
Nsg1631
Nsg200
I13
sg186
I0
sg1914
Nsg1642
Nsg1915
S'NN'
p2881
sg305
(issf_api
FeatureSet
p2882
(dp2883
g308
(dp2884
S'posn'
p2885
S'370'
p2886
sS'name'
p2887
S'\xe0\xa4\xaa\xe0\xa4\xb0\xe0\xa5\x80\xe0\xa4\x95\xe0\xa5\x8d\xe0\xa4\xb7\xe0\xa4\xa3\xe0\xa5\x8b\xe0\xa4\x82'
p2888
sS'af'
p2889
S'\xe0\xa4\xaa\xe0\xa4\xb0\xe0\xa5\x80\xe0\xa4\x95\xe0\xa5\x8d\xe0\xa4\xb7\xe0\xa4\xa3,n,m,pl,3,o,0,0'
p2890
ssbsg1651
I00
sba(issf_api
Word
p2891
(dp2892
g1897
I00
sg1898
V\u0915\u0940
p2893
sg1900
(issf_api
FeatureSet
p2894
(dp2895
g308
(dp2896
S'posn'
p2897
S'380'
p2898
sS'name'
p2899
S'\xe0\xa4\x95\xe0\xa5\x80'
p2900
sS'drel'
p2901
S'lwg__psp:\xe0\xa4\xaa\xe0\xa4\xb0\xe0\xa5\x80\xe0\xa4\x95\xe0\xa5\x8d\xe0\xa4\xb7\xe0\xa4\xa3\xe0\xa5\x8b\xe0\xa4\x82'
p2902
sS'chunktype'
p2903
S'child:NP11'
p2904
sS'af'
p2905
S'\xe0\xa4\x95\xe0\xa4\xbe,psp,f,sg,,d,,'
p2906
ssbsg1630
I00
sg1633
I00
sg1644
Nsg1631
Nsg200
I13
sg186
I0
sg1914
Nsg1642
Nsg1915
S'PSP'
p2907
sg305
(issf_api
FeatureSet
p2908
(dp2909
g308
(dp2910
S'posn'
p2911
S'380'
p2912
sS'name'
p2913
S'\xe0\xa4\x95\xe0\xa5\x80'
p2914
sS'af'
p2915
S'\xe0\xa4\x95\xe0\xa4\xbe,psp,f,sg,,d,,'
p2916
ssbsg1651
I00
sba(issf_api
Word
p2917
(dp2918
g1897
I00
sg1898
V\u0905\u0928\u0941\u092e\u0924\u093f
p2919
sg1900
(issf_api
FeatureSet
p2920
(dp2921
g308
(dp2922
S'posn'
p2923
S'390'
p2924
sS'name'
p2925
S'\xe0\xa4\x85\xe0\xa4\xa8\xe0\xa5\x81\xe0\xa4\xae\xe0\xa4\xa4\xe0\xa4\xbf'
p2926
sS'af'
p2927
S'\xe0\xa4\x85\xe0\xa4\xa8\xe0\xa5\x81\xe0\xa4\xae\xe0\xa4\xa4\xe0\xa4\xbf,n,f,sg,3,d,0,0'
p2928
sS'chunkid'
p2929
S'NP12'
p2930
sS'drel'
p2931
S'pof:\xe0\xa4\xa6\xe0\xa5\x87'
p2932
sS'chunktype'
p2933
S'head:NP12'
p2934
ssbsg1630
I00
sg1633
I00
sg1644
Nsg1631
Nsg200
I14
sg186
I0
sg1914
Nsg1642
Nsg1915
S'NN'
p2935
sg305
(issf_api
FeatureSet
p2936
(dp2937
g308
(dp2938
S'posn'
p2939
S'390'
p2940
sS'name'
p2941
S'\xe0\xa4\x85\xe0\xa4\xa8\xe0\xa5\x81\xe0\xa4\xae\xe0\xa4\xa4\xe0\xa4\xbf'
p2942
sS'af'
p2943
S'\xe0\xa4\x85\xe0\xa4\xa8\xe0\xa5\x81\xe0\xa4\xae\xe0\xa4\xa4\xe0\xa4\xbf,n,f,sg,3,d,0,0'
p2944
ssbsg1651
I00
sba(issf_api
Word
p2945
(dp2946
g1897
I00
sg1898
V\u0926\u0947
p2947
sg1900
(issf_api
FeatureSet
p2948
(dp2949
g308
(dp2950
S'posn'
p2951
S'400'
p2952
sS'name'
p2953
S'\xe0\xa4\xa6\xe0\xa5\x87'
p2954
sS'af'
p2955
S'\xe0\xa4\xa6\xe0\xa5\x87,v,f,sg,3,,0_\xe0\xa4\xa6\xe0\xa5\x87+\xe0\xa4\xaf\xe0\xa4\xbe_\xe0\xa4\xb9\xe0\xa5\x88,0'
p2956
sS'chunkid'
p2957
S'VGF'
p2958
sS'chunktype'
p2959
S'head:VGF'
p2960
sS'voicetype'
p2961
S'active'
p2962
sS'vpos'
p2963
S'tam_2_3'
p2964
sS'stype'
p2965
S'declarative'
p2966
ssbsg1630
I00
sg1633
I00
sg1644
Nsg1631
Nsg200
I15
sg186
I0
sg1914
Nsg1642
Nsg1915
S'VM'
p2967
sg305
(issf_api
FeatureSet
p2968
(dp2969
g308
(dp2970
S'posn'
p2971
S'400'
p2972
sS'name'
p2973
S'\xe0\xa4\xa6\xe0\xa5\x87'
p2974
sS'af'
p2975
S'\xe0\xa4\xa6\xe0\xa5\x87,v,any,any,any,,0,0'
p2976
ssbsg1651
I00
sba(issf_api
Word
p2977
(dp2978
g1897
I00
sg1898
V\u0926\u0940
p2979
sg1900
(issf_api
FeatureSet
p2980
(dp2981
g308
(dp2982
S'posn'
p2983
S'410'
p2984
sS'name'
p2985
S'\xe0\xa4\xa6\xe0\xa5\x80'
p2986
sS'drel'
p2987
S'lwg__vaux:\xe0\xa4\xa6\xe0\xa5\x87'
p2988
sS'chunktype'
p2989
S'child:VGF'
p2990
sS'af'
p2991
S'\xe0\xa4\xa6\xe0\xa5\x87,v,f,sg,any,,\xe0\xa4\xaf\xe0\xa4\xbe,yA'
p2992
ssbsg1630
I00
sg1633
I00
sg1644
Nsg1631
Nsg200
I15
sg186
I0
sg1914
Nsg1642
Nsg1915
S'VAUX'
p2993
sg305
(issf_api
FeatureSet
p2994
(dp2995
g308
(dp2996
S'posn'
p2997
S'410'
p2998
sS'name'
p2999
S'\xe0\xa4\xa6\xe0\xa5\x80'
p3000
sS'af'
p3001
S'\xe0\xa4\xa6\xe0\xa5\x87,v,f,sg,any,,\xe0\xa4\xaf\xe0\xa4\xbe,yA'
p3002
ssbsg1651
I00
sba(issf_api
Word
p3003
(dp3004
g1897
I00
sg1898
V\u0939\u0948
p3005
sg1900
(issf_api
FeatureSet
p3006
(dp3007
g308
(dp3008
S'posn'
p3009
S'420'
p3010
sS'name'
p3011
S'\xe0\xa4\xb9\xe0\xa5\x88'
p3012
sS'drel'
p3013
S'lwg__vaux:\xe0\xa4\xa6\xe0\xa5\x87'
p3014
sS'chunktype'
p3015
S'child:VGF'
p3016
sS'af'
p3017
S'\xe0\xa4\xb9\xe0\xa5\x88,v,any,sg,3,,\xe0\xa4\xb9\xe0\xa5\x88,hE'
p3018
ssbsg1630
I00
sg1633
I00
sg1644
Nsg1631
Nsg200
I15
sg186
I0
sg1914
Nsg1642
Nsg1915
S'VAUX'
p3019
sg305
(issf_api
FeatureSet
p3020
(dp3021
g308
(dp3022
S'posn'
p3023
S'420'
p3024
sS'name'
p3025
S'\xe0\xa4\xb9\xe0\xa5\x88'
p3026
sS'af'
p3027
S'\xe0\xa4\xb9\xe0\xa5\x88,v,any,sg,3,,\xe0\xa4\xb9\xe0\xa5\x88,hE'
p3028
ssbsg1651
I00
sba(issf_api
Word
p3029
(dp3030
g1897
I00
sg1898
V\u0964
sg1900
(issf_api
FeatureSet
p3031
(dp3032
g308
(dp3033
S'posn'
p3034
S'430'
p3035
sS'name'
p3036
S'\xe0\xa5\xa4'
p3037
sS'af'
p3038
S'\xe0\xa5\xa4,punc,,,,,,'
p3039
sS'chunkid'
p3040
S'BLK'
p3041
sS'drel'
p3042
S'rsym:\xe0\xa4\xa6\xe0\xa5\x87'
p3043
sS'chunktype'
p3044
S'head:BLK'
p3045
ssbsg1630
I00
sg1633
I00
sg1644
Nsg1631
Nsg200
I16
sg186
I0
sg1914
Nsg1642
Nsg1915
S'SYM'
p3046
sg305
(issf_api
FeatureSet
p3047
(dp3048
g308
(dp3049
S'posn'
p3050
S'430'
p3051
sS'name'
p3052
S'\xe0\xa5\xa4'
p3053
sS'af'
p3054
S'\xe0\xa5\xa4,punc,,,,,,'
p3055
ssbsg1651
I00
sba(issf_api
Word
p3056
(dp3057
g1897
I00
sg1898
V\u0938\u0930\u0915\u093e\u0930\u0940
p3058
sg1900
(issf_api
FeatureSet
p3059
(dp3060
g308
(dp3061
S'posn'
p3062
S'10'
p3063
sS'name'
p3064
S'\xe0\xa4\xb8\xe0\xa4\xb0\xe0\xa4\x95\xe0\xa4\xbe\xe0\xa4\xb0\xe0\xa5\x80'
p3065
sS'drel'
p3066
S'nmod__adj:\xe0\xa4\xb5\xe0\xa4\x95\xe0\xa5\x80\xe0\xa4\xb2'
p3067
sS'chunktype'
p3068
S'child:NP'
p3069
sS'af'
p3070
S'\xe0\xa4\xb8\xe0\xa4\xb0\xe0\xa4\x95\xe0\xa4\xbe\xe0\xa4\xb0\xe0\xa5\x80,adj,any,any,,o,,'
p3071
ssbsg1630
I00
sg1633
I00
sg1644
Nsg1631
Nsg200
I0
sg186
I1
sg1914
Nsg1642
Nsg1915
S'JJ'
p3072
sg305
(issf_api
FeatureSet
p3073
(dp3074
g308
(dp3075
S'posn'
p3076
S'10'
p3077
sS'name'
p3078
S'\xe0\xa4\xb8\xe0\xa4\xb0\xe0\xa4\x95\xe0\xa4\xbe\xe0\xa4\xb0\xe0\xa5\x80'
p3079
sS'af'
p3080
S'\xe0\xa4\xb8\xe0\xa4\xb0\xe0\xa4\x95\xe0\xa4\xbe\xe0\xa4\xb0\xe0\xa5\x80,adj,any,any,,o,,'
p3081
ssbsg1651
I00
sba(issf_api
Word
p3082
(dp3083
g1897
I00
sg1898
V\u0935\u0915\u0940\u0932
p3084
sg1900
(issf_api
FeatureSet
p3085
(dp3086
g308
(dp3087
S'posn'
p3088
S'20'
p3089
sS'name'
p3090
S'\xe0\xa4\xb5\xe0\xa4\x95\xe0\xa5\x80\xe0\xa4\xb2'
p3091
sS'af'
p3092
S'\xe0\xa4\xb5\xe0\xa4\x95\xe0\xa5\x80\xe0\xa4\xb2,n,m,sg,3,o,0,0'
p3093
sS'chunkid'
p3094
S'NP'
p3095
sS'drel'
p3096
S'nmod:\xe0\xa4\xa8\xe0\xa4\xbf\xe0\xa4\x95\xe0\xa4\xae'
p3097
sS'chunktype'
p3098
S'head:NP'
p3099
ssbsg1630
I00
sg1633
I00
sg1644
Nsg1631
Nsg200
I0
sg186
I1
sg1914
Nsg1642
Nsg1915
S'NN'
p3100
sg305
(issf_api
FeatureSet
p3101
(dp3102
g308
(dp3103
S'posn'
p3104
S'20'
p3105
sS'name'
p3106
S'\xe0\xa4\xb5\xe0\xa4\x95\xe0\xa5\x80\xe0\xa4\xb2'
p3107
sS'af'
p3108
S'\xe0\xa4\xb5\xe0\xa4\x95\xe0\xa5\x80\xe0\xa4\xb2,n,m,sg,3,o,0,0'
p3109
ssbsg1651
I00
sba(issf_api
Word
p3110
(dp3111
g1897
I00
sg1898
V\u0909\u091c\u094d\u091c\u0935\u0932
p3112
sg1900
(issf_api
FeatureSet
p3113
(dp3114
g308
(dp3115
S'posn'
p3116
S'30'
p3117
sS'name'
p3118
S'\xe0\xa4\x89\xe0\xa4\x9c\xe0\xa5\x8d\xe0\xa4\x9c\xe0\xa4\xb5\xe0\xa4\xb2'
p3119
sS'drel'
p3120
S'pof__cn:\xe0\xa4\xa8\xe0\xa4\xbf\xe0\xa4\x95\xe0\xa4\xae'
p3121
sS'chunktype'
p3122
S'child:NP2'
p3123
sS'af'
p3124
S'\xe0\xa4\x89\xe0\xa4\x9c\xe0\xa5\x8d\xe0\xa4\x9c\xe0\xa4\xb5\xe0\xa4\xb2,n,m,sg,3,d,0,0'
p3125
ssbsg1630
I00
sg1633
I00
sg1644
Nsg1631
Nsg200
I1
sg186
I1
sg1914
Nsg1642
Nsg1915
S'NNPC'
p3126
sg305
(issf_api
FeatureSet
p3127
(dp3128
g308
(dp3129
S'posn'
p3130
S'30'
p3131
sS'name'
p3132
S'\xe0\xa4\x89\xe0\xa4\x9c\xe0\xa5\x8d\xe0\xa4\x9c\xe0\xa4\xb5\xe0\xa4\xb2'
p3133
sS'af'
p3134
S'\xe0\xa4\x89\xe0\xa4\x9c\xe0\xa5\x8d\xe0\xa4\x9c\xe0\xa4\xb5\xe0\xa4\xb2,n,m,sg,3,d,0,0'
p3135
ssbsg1651
I00
sba(issf_api
Word
p3136
(dp3137
g1897
I00
sg1898
V\u0928\u093f\u0915\u092e
p3138
sg1900
(issf_api
FeatureSet
p3139
(dp3140
g308
(dp3141
S'posn'
p3142
S'40'
p3143
sS'name'
p3144
S'\xe0\xa4\xa8\xe0\xa4\xbf\xe0\xa4\x95\xe0\xa4\xae'
p3145
sS'af'
p3146
S'\xe0\xa4\xa8\xe0\xa4\xbf\xe0\xa4\x95\xe0\xa4\xae,n,any,sg,3,o,0_\xe0\xa4\x95\xe0\xa4\xbe,0'
p3147
sS'chunkid'
p3148
S'NP2'
p3149
sS'drel'
p3150
S'r6:\xe0\xa4\xaf\xe0\xa4\xbe\xe0\xa4\x9a\xe0\xa4\xbf\xe0\xa4\x95\xe0\xa4\xbe'
p3151
sS'vpos'
p3152
S'vib_3'
p3153
sS'chunktype'
p3154
S'head:NP2'
p3155
ssbsg1630
I00
sg1633
I00
sg1644
Nsg1631
Nsg200
I1
sg186
I1
sg1914
Nsg1642
Nsg1915
S'NNP'
p3156
sg305
(issf_api
FeatureSet
p3157
(dp3158
g308
(dp3159
S'posn'
p3160
S'40'
p3161
sS'name'
p3162
S'\xe0\xa4\xa8\xe0\xa4\xbf\xe0\xa4\x95\xe0\xa4\xae'
p3163
sS'af'
p3164
S'\xe0\xa4\xa8\xe0\xa4\xbf\xe0\xa4\x95\xe0\xa4\xae,n,any,sg,3,o,0,0'
p3165
ssbsg1651
I00
sba(issf_api
Word
p3166
(dp3167
g1897
I00
sg1898
V\u0915\u0940
p3168
sg1900
(issf_api
FeatureSet
p3169
(dp3170
g308
(dp3171
S'posn'
p3172
S'50'
p3173
sS'name'
p3174
S'\xe0\xa4\x95\xe0\xa5\x80'
p3175
sS'drel'
p3176
S'lwg__psp:\xe0\xa4\xa8\xe0\xa4\xbf\xe0\xa4\x95\xe0\xa4\xae'
p3177
sS'chunktype'
p3178
S'child:NP2'
p3179
sS'af'
p3180
S'\xe0\xa4\x95\xe0\xa4\xbe,psp,f,sg,,o,,'
p3181
ssbsg1630
I00
sg1633
I00
sg1644
Nsg1631
Nsg200
I1
sg186
I1
sg1914
Nsg1642
Nsg1915
S'PSP'
p3182
sg305
(issf_api
FeatureSet
p3183
(dp3184
g308
(dp3185
S'posn'
p3186
S'50'
p3187
sS'name'
p3188
S'\xe0\xa4\x95\xe0\xa5\x80'
p3189
sS'af'
p3190
S'\xe0\xa4\x95\xe0\xa4\xbe,psp,f,sg,,o,,'
p3191
ssbsg1651
I00
sba(issf_api
Word
p3192
(dp3193
g1897
I00
sg1898
V\u092f\u093e\u091a\u093f\u0915\u093e
p3194
sg1900
(issf_api
FeatureSet
p3195
(dp3196
g308
(dp3197
S'posn'
p3198
S'60'
p3199
sS'name'
p3200
S'\xe0\xa4\xaf\xe0\xa4\xbe\xe0\xa4\x9a\xe0\xa4\xbf\xe0\xa4\x95\xe0\xa4\xbe'
p3201
sS'af'
p3202
S'\xe0\xa4\xaf\xe0\xa4\xbe\xe0\xa4\x9a\xe0\xa4\xbf\xe0\xa4\x95\xe0\xa4\xbe,n,f,sg,3,o,0_\xe0\xa4\xaa\xe0\xa4\xb0,0'
p3203
sS'chunkid'
p3204
S'NP3'
p3205
sS'drel'
p3206
S'k7:\xe0\xa4\x95\xe0\xa4\xb0\xe0\xa4\xa4\xe0\xa5\x87'
p3207
sS'vpos'
p3208
S'vib_2'
p3209
sS'chunktype'
p3210
S'head:NP3'
p3211
ssbsg1630
I00
sg1633
I00
sg1644
Nsg1631
Nsg200
I2
sg186
I1
sg1914
Nsg1642
Nsg1915
S'NN'
p3212
sg305
(issf_api
FeatureSet
p3213
(dp3214
g308
(dp3215
S'posn'
p3216
S'60'
p3217
sS'name'
p3218
S'\xe0\xa4\xaf\xe0\xa4\xbe\xe0\xa4\x9a\xe0\xa4\xbf\xe0\xa4\x95\xe0\xa4\xbe'
p3219
sS'af'
p3220
S'\xe0\xa4\xaf\xe0\xa4\xbe\xe0\xa4\x9a\xe0\xa4\xbf\xe0\xa4\x95\xe0\xa4\xbe,n,f,sg,3,o,0,0'
p3221
ssbsg1651
I00
sba(issf_api
Word
p3222
(dp3223
g1897
I00
sg1898
V\u092a\u0930
p3224
sg1900
(issf_api
FeatureSet
p3225
(dp3226
g308
(dp3227
S'posn'
p3228
S'70'
p3229
sS'name'
p3230
S'\xe0\xa4\xaa\xe0\xa4\xb0'
p3231
sS'drel'
p3232
S'lwg__psp:\xe0\xa4\xaf\xe0\xa4\xbe\xe0\xa4\x9a\xe0\xa4\xbf\xe0\xa4\x95\xe0\xa4\xbe'
p3233
sS'chunktype'
p3234
S'child:NP3'
p3235
sS'af'
p3236
S'\xe0\xa4\xaa\xe0\xa4\xb0,psp,,,,,,'
p3237
ssbsg1630
I00
sg1633
I00
sg1644
Nsg1631
Nsg200
I2
sg186
I1
sg1914
Nsg1642
Nsg1915
S'PSP'
p3238
sg305
(issf_api
FeatureSet
p3239
(dp3240
g308
(dp3241
S'posn'
p3242
S'70'
p3243
sS'name'
p3244
S'\xe0\xa4\xaa\xe0\xa4\xb0'
p3245
sS'af'
p3246
S'\xe0\xa4\xaa\xe0\xa4\xb0,psp,,,,,,'
p3247
ssbsg1651
I00
sba(issf_api
Word
p3248
(dp3249
g1897
I00
sg1898
V\u0938\u0941\u0928\u0935\u093e\u0908
p3250
sg1900
(issf_api
FeatureSet
p3251
(dp3252
g308
(dp3253
S'posn'
p3254
S'80'
p3255
sS'name'
p3256
S'\xe0\xa4\xb8\xe0\xa5\x81\xe0\xa4\xa8\xe0\xa4\xb5\xe0\xa4\xbe\xe0\xa4\x88'
p3257
sS'af'
p3258
S'\xe0\xa4\xb8\xe0\xa5\x81\xe0\xa4\xa8\xe0\xa4\xb5\xe0\xa4\xbe\xe0\xa4\x88,n,f,sg,3,d,0,0'
p3259
sS'chunkid'
p3260
S'NP4'
p3261
sS'drel'
p3262
S'pof:\xe0\xa4\x95\xe0\xa4\xb0\xe0\xa4\xa4\xe0\xa5\x87'
p3263
sS'chunktype'
p3264
S'head:NP4'
p3265
ssbsg1630
I00
sg1633
I00
sg1644
Nsg1631
Nsg200
I3
sg186
I1
sg1914
Nsg1642
Nsg1915
S'NN'
p3266
sg305
(issf_api
FeatureSet
p3267
(dp3268
g308
(dp3269
S'posn'
p3270
S'80'
p3271
sS'name'
p3272
S'\xe0\xa4\xb8\xe0\xa5\x81\xe0\xa4\xa8\xe0\xa4\xb5\xe0\xa4\xbe\xe0\xa4\x88'
p3273
sS'af'
p3274
S'\xe0\xa4\xb8\xe0\xa5\x81\xe0\xa4\xa8\xe0\xa4\xb5\xe0\xa4\xbe\xe0\xa4\x88,n,f,sg,3,d,0,0'
p3275
ssbsg1651
I00
sba(issf_api
Word
p3276
(dp3277
g1897
I00
sg1898
V\u0915\u0930\u0924\u0947
p3278
sg1900
(issf_api
FeatureSet
p3279
(dp3280
g308
(dp3281
S'posn'
p3282
S'90'
p3283
sS'name'
p3284
S'\xe0\xa4\x95\xe0\xa4\xb0\xe0\xa4\xa4\xe0\xa5\x87'
p3285
sS'af'
p3286
S'\xe0\xa4\x95\xe0\xa4\xb0,v,m,sg,3,,\xe0\xa4\xa4\xe0\xa4\xbe_\xe0\xa4\xb9\xe0\xa5\x8b+\xe0\xa4\xaf\xe0\xa4\xbe,wA'
p3287
sS'chunkid'
p3288
S'VGNF'
p3289
sS'drel'
p3290
S'vmod:\xe0\xa4\xa6\xe0\xa5\x87'
p3291
sS'vpos'
p3292
S'tam_2'
p3293
sS'chunktype'
p3294
S'head:VGNF'
p3295
ssbsg1630
I00
sg1633
I00
sg1644
Nsg1631
Nsg200
I4
sg186
I1
sg1914
Nsg1642
Nsg1915
S'VM'
p3296
sg305
(issf_api
FeatureSet
p3297
(dp3298
g308
(dp3299
S'posn'
p3300
S'90'
p3301
sS'name'
p3302
S'\xe0\xa4\x95\xe0\xa4\xb0\xe0\xa4\xa4\xe0\xa5\x87'
p3303
sS'af'
p3304
S'\xe0\xa4\x95\xe0\xa4\xb0,v,m,sg,3,,\xe0\xa4\xa4\xe0\xa4\xbe,wA'
p3305
ssbsg1651
I00
sba(issf_api
Word
p3306
(dp3307
g1897
I00
sg1898
V\u0939\u0941\u090f
p3308
sg1900
(issf_api
FeatureSet
p3309
(dp3310
g308
(dp3311
S'posn'
p3312
S'100'
p3313
sS'name'
p3314
S'\xe0\xa4\xb9\xe0\xa5\x81\xe0\xa4\x8f'
p3315
sS'drel'
p3316
S'lwg__vaux:\xe0\xa4\x95\xe0\xa4\xb0\xe0\xa4\xa4\xe0\xa5\x87'
p3317
sS'chunktype'
p3318
S'child:VGNF'
p3319
sS'af'
p3320
S'\xe0\xa4\xb9\xe0\xa5\x8b,v,m,sg,3,,\xe0\xa4\xaf\xe0\xa4\xbe,yA'
p3321
ssbsg1630
I00
sg1633
I00
sg1644
Nsg1631
Nsg200
I4
sg186
I1
sg1914
Nsg1642
Nsg1915
S'VAUX'
p3322
sg305
(issf_api
FeatureSet
p3323
(dp3324
g308
(dp3325
S'posn'
p3326
S'100'
p3327
sS'name'
p3328
S'\xe0\xa4\xb9\xe0\xa5\x81\xe0\xa4\x8f'
p3329
sS'af'
p3330
S'\xe0\xa4\xb9\xe0\xa5\x8b,v,m,sg,3,,\xe0\xa4\xaf\xe0\xa4\xbe,yA'
p3331
ssbsg1651
I00
sba(issf_api
Word
p3332
(dp3333
g1897
I00
sg1898
V\u091c\u091c
p3334
sg1900
(issf_api
FeatureSet
p3335
(dp3336
g308
(dp3337
S'posn'
p3338
S'110'
p3339
sS'name'
p3340
S'\xe0\xa4\x9c\xe0\xa4\x9c'
p3341
sS'drel'
p3342
S'pof__cn:\xe0\xa4\xaa\xe0\xa5\x80.'
p3343
sS'chunktype'
p3344
S'child:NP5'
p3345
sS'af'
p3346
S'\xe0\xa4\x9c\xe0\xa4\x9c,n,m,sg,3,d,0,0'
p3347
ssbsg1630
I00
sg1633
I00
sg1644
Nsg1631
Nsg200
I5
sg186
I1
sg1914
Nsg1642
Nsg1915
S'NNC'
p3348
sg305
(issf_api
FeatureSet
p3349
(dp3350
g308
(dp3351
S'posn'
p3352
S'110'
p3353
sS'name'
p3354
S'\xe0\xa4\x9c\xe0\xa4\x9c'
p3355
sS'af'
p3356
S'\xe0\xa4\x9c\xe0\xa4\x9c,n,m,sg,3,d,0,0'
p3357
ssbsg1651
I00
sba(issf_api
Word
p3358
(dp3359
g1897
I00
sg1898
V\u092a\u0940.
p3360
sg1900
(issf_api
FeatureSet
p3361
(dp3362
g308
(dp3363
S'posn'
p3364
S'120'
p3365
sS'name'
p3366
S'\xe0\xa4\xaa\xe0\xa5\x80.'
p3367
sS'drel'
p3368
S'pof__cn:\xe0\xa4\xac\xe0\xa4\xbe\xe0\xa4\xb5\xe0\xa4\x95\xe0\xa4\xb0'
p3369
sS'chunktype'
p3370
S'child:NP5'
p3371
sS'af'
p3372
S'\xe0\xa4\xaa\xe0\xa5\x80.,n,m,sg,3,d,0,0'
p3373
ssbsg1630
I00
sg1633
I00
sg1644
Nsg1631
Nsg200
I5
sg186
I1
sg1914
Nsg1642
Nsg1915
S'NNPC'
p3374
sg305
(issf_api
FeatureSet
p3375
(dp3376
g308
(dp3377
S'posn'
p3378
S'120'
p3379
sS'name'
p3380
S'\xe0\xa4\xaa\xe0\xa5\x80.'
p3381
sS'af'
p3382
S'\xe0\xa4\xaa\xe0\xa5\x80.,n,m,sg,3,d,0,0'
p3383
ssbsg1651
I00
sba(issf_api
Word
p3384
(dp3385
g1897
I00
sg1898
V\u0935\u0940.
p3386
sg1900
(issf_api
FeatureSet
p3387
(dp3388
g308
(dp3389
S'posn'
p3390
S'130'
p3391
sS'name'
p3392
S'\xe0\xa4\xb5\xe0\xa5\x80.'
p3393
sS'drel'
p3394
S'pof__cn:\xe0\xa4\xac\xe0\xa4\xbe\xe0\xa4\xb5\xe0\xa4\x95\xe0\xa4\xb0'
p3395
sS'chunktype'
p3396
S'child:NP5'
p3397
sS'af'
p3398
S'\xe0\xa4\xb5\xe0\xa5\x80.,n,m,sg,3,d,0,0'
p3399
ssbsg1630
I00
sg1633
I00
sg1644
Nsg1631
Nsg200
I5
sg186
I1
sg1914
Nsg1642
Nsg1915
S'NNPC'
p3400
sg305
(issf_api
FeatureSet
p3401
(dp3402
g308
(dp3403
S'posn'
p3404
S'130'
p3405
sS'name'
p3406
S'\xe0\xa4\xb5\xe0\xa5\x80.'
p3407
sS'af'
p3408
S'\xe0\xa4\xb5\xe0\xa5\x80.,n,m,sg,3,d,0,0'
p3409
ssbsg1651
I00
sba(issf_api
Word
p3410
(dp3411
g1897
I00
sg1898
V\u092c\u093e\u0935\u0915\u0930
p3412
sg1900
(issf_api
FeatureSet
p3413
(dp3414
g308
(dp3415
S'posn'
p3416
S'140'
p3417
sS'name'
p3418
S'\xe0\xa4\xac\xe0\xa4\xbe\xe0\xa4\xb5\xe0\xa4\x95\xe0\xa4\xb0'
p3419
sS'af'
p3420
S'\xe0\xa4\xac\xe0\xa4\xbe\xe0\xa4\xb5\xe0\xa4\x95\xe0\xa4\xb0,n,m,sg,3,o,0_\xe0\xa4\xa8\xe0\xa5\x87,0'
p3421
sS'chunkid'
p3422
S'NP5'
p3423
sS'drel'
p3424
S'k1:\xe0\xa4\xa6\xe0\xa5\x87'
p3425
sS'vpos'
p3426
S'vib_5'
p3427
sS'chunktype'
p3428
S'head:NP5'
p3429
ssbsg1630
I00
sg1633
I00
sg1644
Nsg1631
Nsg200
I5
sg186
I1
sg1914
Nsg1642
Nsg1915
S'NNP'
p3430
sg305
(issf_api
FeatureSet
p3431
(dp3432
g308
(dp3433
S'posn'
p3434
S'140'
p3435
sS'name'
p3436
S'\xe0\xa4\xac\xe0\xa4\xbe\xe0\xa4\xb5\xe0\xa4\x95\xe0\xa4\xb0'
p3437
sS'af'
p3438
S'\xe0\xa4\xac\xe0\xa4\xbe\xe0\xa4\xb5\xe0\xa4\x95\xe0\xa4\xb0,n,m,sg,3,o,0,0'
p3439
ssbsg1651
I00
sba(issf_api
Word
p3440
(dp3441
g1897
I00
sg1898
V\u0928\u0947
p3442
sg1900
(issf_api
FeatureSet
p3443
(dp3444
g308
(dp3445
S'posn'
p3446
S'150'
p3447
sS'name'
p3448
S'\xe0\xa4\xa8\xe0\xa5\x87'
p3449
sS'drel'
p3450
S'lwg__psp:\xe0\xa4\xac\xe0\xa4\xbe\xe0\xa4\xb5\xe0\xa4\x95\xe0\xa4\xb0'
p3451
sS'chunktype'
p3452
S'child:NP5'
p3453
sS'af'
p3454
S'\xe0\xa4\xa8\xe0\xa5\x87,psp,,,,,,'
p3455
ssbsg1630
I00
sg1633
I00
sg1644
Nsg1631
Nsg200
I5
sg186
I1
sg1914
Nsg1642
Nsg1915
S'PSP'
p3456
sg305
(issf_api
FeatureSet
p3457
(dp3458
g308
(dp3459
S'posn'
p3460
S'150'
p3461
sS'name'
p3462
S'\xe0\xa4\xa8\xe0\xa5\x87'
p3463
sS'af'
p3464
S'\xe0\xa4\xa8\xe0\xa5\x87,psp,,,,,,'
p3465
ssbsg1651
I00
sba(issf_api
Word
p3466
(dp3467
g1897
I00
sg1898
V\u090f\u091f\u0940\u090f\u0938
p3468
sg1900
(issf_api
FeatureSet
p3469
(dp3470
g308
(dp3471
S'posn'
p3472
S'160'
p3473
sS'name'
p3474
S'\xe0\xa4\x8f\xe0\xa4\x9f\xe0\xa5\x80\xe0\xa4\x8f\xe0\xa4\xb8'
p3475
sS'af'
p3476
S'\xe0\xa4\x8f\xe0\xa4\x9f\xe0\xa5\x80\xe0\xa4\x8f\xe0\xa4\xb8,n,m,sg,3,o,0_\xe0\xa4\x95\xe0\xa5\x8b,0'
p3477
sS'chunkid'
p3478
S'NP6'
p3479
sS'drel'
p3480
S'k4:\xe0\xa4\xa6\xe0\xa5\x87'
p3481
sS'vpos'
p3482
S'vib_2'
p3483
sS'chunktype'
p3484
S'head:NP6'
p3485
ssbsg1630
I00
sg1633
I00
sg1644
Nsg1631
Nsg200
I6
sg186
I1
sg1914
Nsg1642
Nsg1915
S'NN'
p3486
sg305
(issf_api
FeatureSet
p3487
(dp3488
g308
(dp3489
S'posn'
p3490
S'160'
p3491
sS'name'
p3492
S'\xe0\xa4\x8f\xe0\xa4\x9f\xe0\xa5\x80\xe0\xa4\x8f\xe0\xa4\xb8'
p3493
sS'af'
p3494
S'\xe0\xa4\x8f\xe0\xa4\x9f\xe0\xa5\x80\xe0\xa4\x8f\xe0\xa4\xb8,n,m,sg,3,o,0,0'
p3495
ssbsg1651
I00
sba(issf_api
Word
p3496
(dp3497
g1897
I00
sg1898
V\u0915\u094b
p3498
sg1900
(issf_api
FeatureSet
p3499
(dp3500
g308
(dp3501
S'posn'
p3502
S'170'
p3503
sS'name'
p3504
S'\xe0\xa4\x95\xe0\xa5\x8b'
p3505
sS'drel'
p3506
S'lwg__psp:\xe0\xa4\x8f\xe0\xa4\x9f\xe0\xa5\x80\xe0\xa4\x8f\xe0\xa4\xb8'
p3507
sS'chunktype'
p3508
S'child:NP6'
p3509
sS'af'
p3510
S'\xe0\xa4\x95\xe0\xa5\x8b,psp,,,,,,'
p3511
ssbsg1630
I00
sg1633
I00
sg1644
Nsg1631
Nsg200
I6
sg186
I1
sg1914
Nsg1642
Nsg1915
S'PSP'
p3512
sg305
(issf_api
FeatureSet
p3513
(dp3514
g308
(dp3515
S'posn'
p3516
S'170'
p3517
sS'name'
p3518
S'\xe0\xa4\x95\xe0\xa5\x8b'
p3519
sS'af'
p3520
S'\xe0\xa4\x95\xe0\xa5\x8b,psp,,,,,,'
p3521
ssbsg1651
I00
sba(issf_api
Word
p3522
(dp3523
g1897
I00
sg1898
V\u0938\u0932\u0947\u092e
p3524
sg1900
(issf_api
FeatureSet
p3525
(dp3526
g308
(dp3527
S'posn'
p3528
S'180'
p3529
sS'name'
p3530
S'\xe0\xa4\xb8\xe0\xa4\xb2\xe0\xa5\x87\xe0\xa4\xae'
p3531
sS'af'
p3532
S'\xe0\xa4\xb8\xe0\xa4\xb2\xe0\xa5\x87\xe0\xa4\xae,n,m,sg,3,o,0_\xe0\xa4\xaa\xe0\xa4\xb0,0'
p3533
sS'chunkid'
p3534
S'NP7'
p3535
sS'drel'
p3536
S'k7:\xe0\xa4\x95\xe0\xa4\xb0\xe0\xa4\xa8\xe0\xa5\x87'
p3537
sS'vpos'
p3538
S'vib_2'
p3539
sS'chunktype'
p3540
S'head:NP7'
p3541
ssbsg1630
I00
sg1633
I00
sg1644
Nsg1631
Nsg200
I7
sg186
I1
sg1914
Nsg1642
Nsg1915
S'NNP'
p3542
sg305
(issf_api
FeatureSet
p3543
(dp3544
g308
(dp3545
S'posn'
p3546
S'180'
p3547
sS'name'
p3548
S'\xe0\xa4\xb8\xe0\xa4\xb2\xe0\xa5\x87\xe0\xa4\xae'
p3549
sS'af'
p3550
S'\xe0\xa4\xb8\xe0\xa4\xb2\xe0\xa5\x87\xe0\xa4\xae,n,m,sg,3,o,0,0'
p3551
ssbsg1651
I00
sba(issf_api
Word
p3552
(dp3553
g1897
I00
sg1898
V\u092a\u0930
p3554
sg1900
(issf_api
FeatureSet
p3555
(dp3556
g308
(dp3557
S'posn'
p3558
S'190'
p3559
sS'name'
p3560
S'\xe0\xa4\xaa\xe0\xa4\xb02'
p3561
sS'drel'
p3562
S'lwg__psp:\xe0\xa4\xb8\xe0\xa4\xb2\xe0\xa5\x87\xe0\xa4\xae'
p3563
sS'chunktype'
p3564
S'child:NP7'
p3565
sS'af'
p3566
S'\xe0\xa4\xaa\xe0\xa4\xb0,psp,,,,,,'
p3567
ssbsg1630
I00
sg1633
I00
sg1644
Nsg1631
Nsg200
I7
sg186
I1
sg1914
Nsg1642
Nsg1915
S'PSP'
p3568
sg305
(issf_api
FeatureSet
p3569
(dp3570
g308
(dp3571
S'posn'
p3572
S'190'
p3573
sS'name'
p3574
S'\xe0\xa4\xaa\xe0\xa4\xb02'
p3575
sS'af'
p3576
S'\xe0\xa4\xaa\xe0\xa4\xb0,psp,,,,,,'
p3577
ssbsg1651
I00
sba(issf_api
Word
p3578
(dp3579
g1897
I00
sg1898
V\u0932\u093e\u0907
p3580
sg1900
(issf_api
FeatureSet
p3581
(dp3582
g308
(dp3583
S'posn'
p3584
S'200'
p3585
sS'name'
p3586
S'\xe0\xa4\xb2\xe0\xa4\xbe\xe0\xa4\x87'
p3587
sS'drel'
p3588
S'pof__cn:\xe0\xa4\xa1\xe0\xa4\xbf\xe0\xa4\x9f\xe0\xa5\x87\xe0\xa4\x95\xe0\xa5\x8d\xe0\xa4\x9f\xe0\xa4\xb0'
p3589
sS'chunktype'
p3590
S'child:NP8'
p3591
sS'af'
p3592
S'\xe0\xa4\xb2\xe0\xa4\xbe\xe0\xa4\x87,n,m,sg,3,d,0,0'
p3593
ssbsg1630
I00
sg1633
I00
sg1644
Nsg1631
Nsg200
I8
sg186
I1
sg1914
Nsg1642
Nsg1915
S'NNC'
p3594
sg305
(issf_api
FeatureSet
p3595
(dp3596
g308
(dp3597
S'posn'
p3598
S'200'
p3599
sS'name'
p3600
S'\xe0\xa4\xb2\xe0\xa4\xbe\xe0\xa4\x87'
p3601
sS'af'
p3602
S'\xe0\xa4\xb2\xe0\xa4\xbe\xe0\xa4\x87,n,m,sg,3,d,0,0'
p3603
ssbsg1651
I00
sba(issf_api
Word
p3604
(dp3605
g1897
I00
sg1898
V-
sg1900
(issf_api
FeatureSet
p3606
(dp3607
g308
(dp3608
S'posn'
p3609
S'210'
p3610
sS'name'
p3611
S'-'
sS'drel'
p3612
S'pof__cn:\xe0\xa4\xa1\xe0\xa4\xbf\xe0\xa4\x9f\xe0\xa5\x87\xe0\xa4\x95\xe0\xa5\x8d\xe0\xa4\x9f\xe0\xa4\xb0'
p3613
sS'chunktype'
p3614
S'child:NP8'
p3615
sS'af'
p3616
S'-,punc,,,,,,'
p3617
ssbsg1630
I00
sg1633
I00
sg1644
Nsg1631
Nsg200
I8
sg186
I1
sg1914
Nsg1642
Nsg1915
S'SYM'
p3618
sg305
(issf_api
FeatureSet
p3619
(dp3620
g308
(dp3621
S'posn'
p3622
S'210'
p3623
sS'name'
p3624
S'-'
sS'af'
p3625
S'-,punc,,,,,,'
p3626
ssbsg1651
I00
sba(issf_api
Word
p3627
(dp3628
g1897
I00
sg1898
V\u0921\u093f\u091f\u0947\u0915\u094d\u091f\u0930
p3629
sg1900
(issf_api
FeatureSet
p3630
(dp3631
g308
(dp3632
S'posn'
p3633
S'220'
p3634
sS'name'
p3635
S'\xe0\xa4\xa1\xe0\xa4\xbf\xe0\xa4\x9f\xe0\xa5\x87\xe0\xa4\x95\xe0\xa5\x8d\xe0\xa4\x9f\xe0\xa4\xb0'
p3636
sS'af'
p3637
S'\xe0\xa4\xa1\xe0\xa4\xbf\xe0\xa4\x9f\xe0\xa5\x87\xe0\xa4\x95\xe0\xa5\x8d\xe0\xa4\x9f\xe0\xa4\xb0,n,m,sg,3,d,0,0'
p3638
sS'chunkid'
p3639
S'NP8'
p3640
sS'drel'
p3641
S'ccof:\xe0\xa4\x94\xe0\xa4\xb0'
p3642
sS'chunktype'
p3643
S'head:NP8'
p3644
ssbsg1630
I00
sg1633
I00
sg1644
Nsg1631
Nsg200
I8
sg186
I1
sg1914
Nsg1642
Nsg1915
S'NN'
p3645
sg305
(issf_api
FeatureSet
p3646
(dp3647
g308
(dp3648
S'posn'
p3649
S'220'
p3650
sS'name'
p3651
S'\xe0\xa4\xa1\xe0\xa4\xbf\xe0\xa4\x9f\xe0\xa5\x87\xe0\xa4\x95\xe0\xa5\x8d\xe0\xa4\x9f\xe0\xa4\xb0'
p3652
sS'af'
p3653
S'\xe0\xa4\xa1\xe0\xa4\xbf\xe0\xa4\x9f\xe0\xa5\x87\xe0\xa4\x95\xe0\xa5\x8d\xe0\xa4\x9f\xe0\xa4\xb0,n,m,sg,3,d,0,0'
p3654
ssbsg1651
I00
sba(issf_api
Word
p3655
(dp3656
g1897
I00
sg1898
V,
sg1900
(issf_api
FeatureSet
p3657
(dp3658
g308
(dp3659
S'posn'
p3660
S'230'
p3661
sS'name'
p3662
S','
sS'drel'
p3663
S'rsym:\xe0\xa4\xa1\xe0\xa4\xbf\xe0\xa4\x9f\xe0\xa5\x87\xe0\xa4\x95\xe0\xa5\x8d\xe0\xa4\x9f\xe0\xa4\xb0'
p3664
sS'chunktype'
p3665
S'child:NP8'
p3666
sS'af'
p3667
S'COMMA,punc,,,,,,'
p3668
ssbsg1630
I00
sg1633
I00
sg1644
Nsg1631
Nsg200
I8
sg186
I1
sg1914
Nsg1642
Nsg1915
S'SYM'
p3669
sg305
(issf_api
FeatureSet
p3670
(dp3671
g308
(dp3672
S'posn'
p3673
S'230'
p3674
sS'name'
p3675
S','
sS'af'
p3676
S'COMMA,punc,,,,,,'
p3677
ssbsg1651
I00
sba(issf_api
Word
p3678
(dp3679
g1897
I00
sg1898
V\u092c\u094d\u0930\u0947\u0928
p3680
sg1900
(issf_api
FeatureSet
p3681
(dp3682
g308
(dp3683
S'posn'
p3684
S'240'
p3685
sS'name'
p3686
S'\xe0\xa4\xac\xe0\xa5\x8d\xe0\xa4\xb0\xe0\xa5\x87\xe0\xa4\xa8'
p3687
sS'drel'
p3688
S'pof__cn:\xe0\xa4\xae\xe0\xa5\x88\xe0\xa4\xaa\xe0\xa4\xbf\xe0\xa4\x82\xe0\xa4\x97'
p3689
sS'chunktype'
p3690
S'child:NP9'
p3691
sS'af'
p3692
S'\xe0\xa4\xac\xe0\xa5\x8d\xe0\xa4\xb0\xe0\xa5\x87\xe0\xa4\xa8,n,m,sg,3,d,0,0'
p3693
ssbsg1630
I00
sg1633
I00
sg1644
Nsg1631
Nsg200
I9
sg186
I1
sg1914
Nsg1642
Nsg1915
S'NNC'
p3694
sg305
(issf_api
FeatureSet
p3695
(dp3696
g308
(dp3697
S'posn'
p3698
S'240'
p3699
sS'name'
p3700
S'\xe0\xa4\xac\xe0\xa5\x8d\xe0\xa4\xb0\xe0\xa5\x87\xe0\xa4\xa8'
p3701
sS'af'
p3702
S'\xe0\xa4\xac\xe0\xa5\x8d\xe0\xa4\xb0\xe0\xa5\x87\xe0\xa4\xa8,n,m,sg,3,d,0,0'
p3703
ssbsg1651
I00
sba(issf_api
Word
p3704
(dp3705
g1897
I00
sg1898
V\u092e\u0948\u092a\u093f\u0902\u0917
p3706
sg1900
(issf_api
FeatureSet
p3707
(dp3708
g308
(dp3709
S'posn'
p3710
S'250'
p3711
sS'name'
p3712
S'\xe0\xa4\xae\xe0\xa5\x88\xe0\xa4\xaa\xe0\xa4\xbf\xe0\xa4\x82\xe0\xa4\x97'
p3713
sS'af'
p3714
S'\xe0\xa4\xae\xe0\xa5\x88\xe0\xa4\xaa\xe0\xa4\xbf\xe0\xa4\x82\xe0\xa4\x97,n,f,sg,3,d,0,0'
p3715
sS'chunkid'
p3716
S'NP9'
p3717
sS'drel'
p3718
S'ccof:\xe0\xa4\x94\xe0\xa4\xb0'
p3719
sS'chunktype'
p3720
S'head:NP9'
p3721
ssbsg1630
I00
sg1633
I00
sg1644
Nsg1631
Nsg200
I9
sg186
I1
sg1914
Nsg1642
Nsg1915
S'NN'
p3722
sg305
(issf_api
FeatureSet
p3723
(dp3724
g308
(dp3725
S'posn'
p3726
S'250'
p3727
sS'name'
p3728
S'\xe0\xa4\xae\xe0\xa5\x88\xe0\xa4\xaa\xe0\xa4\xbf\xe0\xa4\x82\xe0\xa4\x97'
p3729
sS'af'
p3730
S'\xe0\xa4\xae\xe0\xa5\x88\xe0\xa4\xaa\xe0\xa4\xbf\xe0\xa4\x82\xe0\xa4\x97,n,f,sg,3,d,0,0'
p3731
ssbsg1651
I00
sba(issf_api
Word
p3732
(dp3733
g1897
I00
sg1898
V\u0914\u0930
p3734
sg1900
(issf_api
FeatureSet
p3735
(dp3736
g308
(dp3737
S'posn'
p3738
S'260'
p3739
sS'name'
p3740
S'\xe0\xa4\x94\xe0\xa4\xb0'
p3741
sS'af'
p3742
S'\xe0\xa4\x94\xe0\xa4\xb0,avy,,,,,,'
p3743
sS'chunkid'
p3744
S'CCP'
p3745
sS'drel'
p3746
S'pof:\xe0\xa4\x95\xe0\xa4\xb0\xe0\xa4\xa8\xe0\xa5\x87'
p3747
sS'chunktype'
p3748
S'head:CCP'
p3749
ssbsg1630
I00
sg1633
I00
sg1644
Nsg1631
Nsg200
I10
sg186
I1
sg1914
Nsg1642
Nsg1915
S'CC'
p3750
sg305
(issf_api
FeatureSet
p3751
(dp3752
g308
(dp3753
S'posn'
p3754
S'260'
p3755
sS'name'
p3756
S'\xe0\xa4\x94\xe0\xa4\xb0'
p3757
sS'af'
p3758
S'\xe0\xa4\x94\xe0\xa4\xb0,avy,,,,,,'
p3759
ssbsg1651
I00
sba(issf_api
Word
p3760
(dp3761
g1897
I00
sg1898
V\u0928\u093e\u0930\u0915\u094b
p3762
sg1900
(issf_api
FeatureSet
p3763
(dp3764
g308
(dp3765
S'posn'
p3766
S'270'
p3767
sS'name'
p3768
S'\xe0\xa4\xa8\xe0\xa4\xbe\xe0\xa4\xb0\xe0\xa4\x95\xe0\xa5\x8b'
p3769
sS'drel'
p3770
S'pof__cn:\xe0\xa4\x9f\xe0\xa5\x87\xe0\xa4\xb8\xe0\xa5\x8d\xe0\xa4\x9f'
p3771
sS'chunktype'
p3772
S'child:NP10'
p3773
sS'af'
p3774
S'\xe0\xa4\xa8\xe0\xa4\xbe\xe0\xa4\xb0\xe0\xa4\x95\xe0\xa5\x8b,n,m,sg,3,d,0,0'
p3775
ssbsg1630
I00
sg1633
I00
sg1644
Nsg1631
Nsg200
I11
sg186
I1
sg1914
Nsg1642
Nsg1915
S'NNPC'
p3776
sg305
(issf_api
FeatureSet
p3777
(dp3778
g308
(dp3779
S'posn'
p3780
S'270'
p3781
sS'name'
p3782
S'\xe0\xa4\xa8\xe0\xa4\xbe\xe0\xa4\xb0\xe0\xa4\x95\xe0\xa5\x8b'
p3783
sS'af'
p3784
S'\xe0\xa4\xa8\xe0\xa4\xbe\xe0\xa4\xb0\xe0\xa4\x95\xe0\xa5\x8b,n,m,sg,3,d,0,0'
p3785
ssbsg1651
I00
sba(issf_api
Word
p3786
(dp3787
g1897
I00
sg1898
V\u090f\u0928\u093e\u0932\u0947\u0938\u093f\u0938
p3788
sg1900
(issf_api
FeatureSet
p3789
(dp3790
g308
(dp3791
S'posn'
p3792
S'280'
p3793
sS'name'
p3794
S'\xe0\xa4\x8f\xe0\xa4\xa8\xe0\xa4\xbe\xe0\xa4\xb2\xe0\xa5\x87\xe0\xa4\xb8\xe0\xa4\xbf\xe0\xa4\xb8'
p3795
sS'drel'
p3796
S'pof__cn:\xe0\xa4\x9f\xe0\xa5\x87\xe0\xa4\xb8\xe0\xa5\x8d\xe0\xa4\x9f'
p3797
sS'chunktype'
p3798
S'child:NP10'
p3799
sS'af'
p3800
S'\xe0\xa4\x8f\xe0\xa4\xa8\xe0\xa4\xbe\xe0\xa4\xb2\xe0\xa5\x87\xe0\xa4\xb8\xe0\xa4\xbf\xe0\xa4\xb8,n,m,sg,3,d,0,0'
p3801
ssbsg1630
I00
sg1633
I00
sg1644
Nsg1631
Nsg200
I11
sg186
I1
sg1914
Nsg1642
Nsg1915
S'NNPC'
p3802
sg305
(issf_api
FeatureSet
p3803
(dp3804
g308
(dp3805
S'posn'
p3806
S'280'
p3807
sS'name'
p3808
S'\xe0\xa4\x8f\xe0\xa4\xa8\xe0\xa4\xbe\xe0\xa4\xb2\xe0\xa5\x87\xe0\xa4\xb8\xe0\xa4\xbf\xe0\xa4\xb8'
p3809
sS'af'
p3810
S'\xe0\xa4\x8f\xe0\xa4\xa8\xe0\xa4\xbe\xe0\xa4\xb2\xe0\xa5\x87\xe0\xa4\xb8\xe0\xa4\xbf\xe0\xa4\xb8,n,m,sg,3,d,0,0'
p3811
ssbsg1651
I00
sba(issf_api
Word
p3812
(dp3813
g1897
I00
sg1898
V\u091f\u0947\u0938\u094d\u091f
p3814
sg1900
(issf_api
FeatureSet
p3815
(dp3816
g308
(dp3817
S'posn'
p3818
S'290'
p3819
sS'name'
p3820
S'\xe0\xa4\x9f\xe0\xa5\x87\xe0\xa4\xb8\xe0\xa5\x8d\xe0\xa4\x9f'
p3821
sS'af'
p3822
S'\xe0\xa4\x9f\xe0\xa5\x87\xe0\xa4\xb8\xe0\xa5\x8d\xe0\xa4\x9f,n,m,sg,3,d,0,0'
p3823
sS'chunkid'
p3824
S'NP10'
p3825
sS'drel'
p3826
S'ccof:\xe0\xa4\x94\xe0\xa4\xb0'
p3827
sS'chunktype'
p3828
S'head:NP10'
p3829
ssbsg1630
I00
sg1633
I00
sg1644
Nsg1631
Nsg200
I11
sg186
I1
sg1914
Nsg1642
Nsg1915
S'NNP'
p3830
sg305
(issf_api
FeatureSet
p3831
(dp3832
g308
(dp3833
S'posn'
p3834
S'290'
p3835
sS'name'
p3836
S'\xe0\xa4\x9f\xe0\xa5\x87\xe0\xa4\xb8\xe0\xa5\x8d\xe0\xa4\x9f'
p3837
sS'af'
p3838
S'\xe0\xa4\x9f\xe0\xa5\x87\xe0\xa4\xb8\xe0\xa5\x8d\xe0\xa4\x9f,n,m,sg,3,d,0,0'
p3839
ssbsg1651
I00
sba(issf_api
Word
p3840
(dp3841
g1897
I00
sg1898
V\u0915\u0930\u0928\u0947
p3842
sg1900
(issf_api
FeatureSet
p3843
(dp3844
g308
(dp3845
S'posn'
p3846
S'300'
p3847
sS'name'
p3848
S'\xe0\xa4\x95\xe0\xa4\xb0\xe0\xa4\xa8\xe0\xa5\x87'
p3849
sS'af'
p3850
S'\xe0\xa4\x95\xe0\xa4\xb0,v,any,sg,any,o,\xe0\xa4\xa8\xe0\xa4\xbe_\xe0\xa4\x95\xe0\xa4\xbe,nA'
p3851
sS'chunkid'
p3852
S'VGNN'
p3853
sS'drel'
p3854
S'r6-k2:\xe0\xa4\x85\xe0\xa4\xa8\xe0\xa5\x81\xe0\xa4\xae\xe0\xa4\xa4\xe0\xa4\xbf'
p3855
sS'vpos'
p3856
S'tam_2'
p3857
sS'chunktype'
p3858
S'head:VGNN'
p3859
ssbsg1630
I00
sg1633
I00
sg1644
Nsg1631
Nsg200
I12
sg186
I1
sg1914
Nsg1642
Nsg1915
S'VM'
p3860
sg305
(issf_api
FeatureSet
p3861
(dp3862
g308
(dp3863
S'posn'
p3864
S'300'
p3865
sS'name'
p3866
S'\xe0\xa4\x95\xe0\xa4\xb0\xe0\xa4\xa8\xe0\xa5\x87'
p3867
sS'af'
p3868
S'\xe0\xa4\x95\xe0\xa4\xb0,v,any,any,any,o,\xe0\xa4\xa8\xe0\xa4\xbe,nA'
p3869
ssbsg1651
I00
sba(issf_api
Word
p3870
(dp3871
g1897
I00
sg1898
V\u0915\u0940
p3872
sg1900
(issf_api
FeatureSet
p3873
(dp3874
g308
(dp3875
S'posn'
p3876
S'310'
p3877
sS'name'
p3878
S'\xe0\xa4\x95\xe0\xa5\x802'
p3879
sS'drel'
p3880
S'lwg__psp:\xe0\xa4\x95\xe0\xa4\xb0\xe0\xa4\xa8\xe0\xa5\x87'
p3881
sS'chunktype'
p3882
S'child:VGNN'
p3883
sS'af'
p3884
S'\xe0\xa4\x95\xe0\xa4\xbe,psp,f,sg,,d,,'
p3885
ssbsg1630
I00
sg1633
I00
sg1644
Nsg1631
Nsg200
I12
sg186
I1
sg1914
Nsg1642
Nsg1915
S'PSP'
p3886
sg305
(issf_api
FeatureSet
p3887
(dp3888
g308
(dp3889
S'posn'
p3890
S'310'
p3891
sS'name'
p3892
S'\xe0\xa4\x95\xe0\xa5\x802'
p3893
sS'af'
p3894
S'\xe0\xa4\x95\xe0\xa4\xbe,psp,f,sg,,d,,'
p3895
ssbsg1651
I00
sba(issf_api
Word
p3896
(dp3897
g1897
I00
sg1898
V\u0905\u0928\u0941\u092e\u0924\u093f
p3898
sg1900
(issf_api
FeatureSet
p3899
(dp3900
g308
(dp3901
S'posn'
p3902
S'320'
p3903
sS'name'
p3904
S'\xe0\xa4\x85\xe0\xa4\xa8\xe0\xa5\x81\xe0\xa4\xae\xe0\xa4\xa4\xe0\xa4\xbf'
p3905
sS'af'
p3906
S'\xe0\xa4\x85\xe0\xa4\xa8\xe0\xa5\x81\xe0\xa4\xae\xe0\xa4\xa4\xe0\xa4\xbf,n,f,sg,3,d,0,0'
p3907
sS'chunkid'
p3908
S'NP11'
p3909
sS'drel'
p3910
S'pof:\xe0\xa4\xa6\xe0\xa5\x87'
p3911
sS'chunktype'
p3912
S'head:NP11'
p3913
ssbsg1630
I00
sg1633
I00
sg1644
Nsg1631
Nsg200
I13
sg186
I1
sg1914
Nsg1642
Nsg1915
S'NN'
p3914
sg305
(issf_api
FeatureSet
p3915
(dp3916
g308
(dp3917
S'posn'
p3918
S'320'
p3919
sS'name'
p3920
S'\xe0\xa4\x85\xe0\xa4\xa8\xe0\xa5\x81\xe0\xa4\xae\xe0\xa4\xa4\xe0\xa4\xbf'
p3921
sS'af'
p3922
S'\xe0\xa4\x85\xe0\xa4\xa8\xe0\xa5\x81\xe0\xa4\xae\xe0\xa4\xa4\xe0\xa4\xbf,n,f,sg,3,d,0,0'
p3923
ssbsg1651
I00
sba(issf_api
Word
p3924
(dp3925
g1897
I00
sg1898
V\u0926\u0947
p3926
sg1900
(issf_api
FeatureSet
p3927
(dp3928
g308
(dp3929
S'posn'
p3930
S'330'
p3931
sS'name'
p3932
S'\xe0\xa4\xa6\xe0\xa5\x87'
p3933
sS'af'
p3934
S'\xe0\xa4\xa6\xe0\xa5\x87,v,any,sg,any,,0_\xe0\xa4\xa6\xe0\xa5\x87+\xe0\xa4\xaf\xe0\xa4\xbe,0'
p3935
sS'chunkid'
p3936
S'VGF'
p3937
sS'chunktype'
p3938
S'head:VGF'
p3939
sS'voicetype'
p3940
S'active'
p3941
sS'vpos'
p3942
S'tam_2'
p3943
sS'stype'
p3944
S'declarative'
p3945
ssbsg1630
I00
sg1633
I00
sg1644
Nsg1631
Nsg200
I14
sg186
I1
sg1914
Nsg1642
Nsg1915
S'VM'
p3946
sg305
(issf_api
FeatureSet
p3947
(dp3948
g308
(dp3949
S'posn'
p3950
S'330'
p3951
sS'name'
p3952
S'\xe0\xa4\xa6\xe0\xa5\x87'
p3953
sS'af'
p3954
S'\xe0\xa4\xa6\xe0\xa5\x87,v,any,any,any,,0,0'
p3955
ssbsg1651
I00
sba(issf_api
Word
p3956
(dp3957
g1897
I00
sg1898
V\u0926\u0940
p3958
sg1900
(issf_api
FeatureSet
p3959
(dp3960
g308
(dp3961
S'posn'
p3962
S'340'
p3963
sS'name'
p3964
S'\xe0\xa4\xa6\xe0\xa5\x80'
p3965
sS'drel'
p3966
S'lwg__vaux:\xe0\xa4\xa6\xe0\xa5\x87'
p3967
sS'chunktype'
p3968
S'child:VGF'
p3969
sS'af'
p3970
S'\xe0\xa4\xa6\xe0\xa5\x87,v,f,sg,any,,\xe0\xa4\xaf\xe0\xa4\xbe,yA'
p3971
ssbsg1630
I00
sg1633
I00
sg1644
Nsg1631
Nsg200
I14
sg186
I1
sg1914
Nsg1642
Nsg1915
S'VAUX'
p3972
sg305
(issf_api
FeatureSet
p3973
(dp3974
g308
(dp3975
S'posn'
p3976
S'340'
p3977
sS'name'
p3978
S'\xe0\xa4\xa6\xe0\xa5\x80'
p3979
sS'af'
p3980
S'\xe0\xa4\xa6\xe0\xa5\x87,v,f,sg,any,,\xe0\xa4\xaf\xe0\xa4\xbe,yA'
p3981
ssbsg1651
I00
sba(issf_api
Word
p3982
(dp3983
g1897
I00
sg1898
V\u0964
sg1900
(issf_api
FeatureSet
p3984
(dp3985
g308
(dp3986
S'posn'
p3987
S'350'
p3988
sS'name'
p3989
S'\xe0\xa5\xa4'
p3990
sS'af'
p3991
S'\xe0\xa5\xa4,punc,,,,,,'
p3992
sS'chunkid'
p3993
S'BLK'
p3994
sS'drel'
p3995
S'rsym:\xe0\xa4\xa6\xe0\xa5\x87'
p3996
sS'chunktype'
p3997
S'head:BLK'
p3998
ssbsg1630
I00
sg1633
I00
sg1644
Nsg1631
Nsg200
I15
sg186
I1
sg1914
Nsg1642
Nsg1915
S'SYM'
p3999
sg305
(issf_api
FeatureSet
p4000
(dp4001
g308
(dp4002
S'posn'
p4003
S'350'
p4004
sS'name'
p4005
S'\xe0\xa5\xa4'
p4006
sS'af'
p4007
S'\xe0\xa5\xa4,punc,,,,,,'
p4008
ssbsg1651
I00
sba(issf_api
Word
p4009
(dp4010
g1897
I00
sg1898
V\u0938\u0930\u0915\u093e\u0930\u0940
p4011
sg1900
(issf_api
FeatureSet
p4012
(dp4013
g308
(dp4014
S'posn'
p4015
S'10'
p4016
sS'name'
p4017
S'\xe0\xa4\xb8\xe0\xa4\xb0\xe0\xa4\x95\xe0\xa4\xbe\xe0\xa4\xb0\xe0\xa5\x80'
p4018
sS'drel'
p4019
S'nmod__adj:\xe0\xa4\xb5\xe0\xa4\x95\xe0\xa5\x80\xe0\xa4\xb2'
p4020
sS'chunktype'
p4021
S'child:NP'
p4022
sS'af'
p4023
S'\xe0\xa4\xb8\xe0\xa4\xb0\xe0\xa4\x95\xe0\xa4\xbe\xe0\xa4\xb0\xe0\xa5\x80,adj,any,any,,o,,'
p4024
ssbsg1630
I00
sg1633
I00
sg1644
Nsg1631
Nsg200
I0
sg186
I2
sg1914
Nsg1642
Nsg1915
S'JJ'
p4025
sg305
(issf_api
FeatureSet
p4026
(dp4027
g308
(dp4028
S'posn'
p4029
S'10'
p4030
sS'name'
p4031
S'\xe0\xa4\xb8\xe0\xa4\xb0\xe0\xa4\x95\xe0\xa4\xbe\xe0\xa4\xb0\xe0\xa5\x80'
p4032
sS'af'
p4033
S'\xe0\xa4\xb8\xe0\xa4\xb0\xe0\xa4\x95\xe0\xa4\xbe\xe0\xa4\xb0\xe0\xa5\x80,adj,any,any,,o,,'
p4034
ssbsg1651
I00
sba(issf_api
Word
p4035
(dp4036
g1897
I00
sg1898
V\u0935\u0915\u0940\u0932
p4037
sg1900
(issf_api
FeatureSet
p4038
(dp4039
g308
(dp4040
S'posn'
p4041
S'20'
p4042
sS'name'
p4043
S'\xe0\xa4\xb5\xe0\xa4\x95\xe0\xa5\x80\xe0\xa4\xb2'
p4044
sS'af'
p4045
S'\xe0\xa4\xb5\xe0\xa4\x95\xe0\xa5\x80\xe0\xa4\xb2,n,m,sg,3,o,0_\xe0\xa4\xa8\xe0\xa5\x87,0'
p4046
sS'chunkid'
p4047
S'NP'
p4048
sS'drel'
p4049
S'k1:\xe0\xa4\xb2\xe0\xa5\x87'
p4050
sS'vpos'
p4051
S'vib_3'
p4052
sS'chunktype'
p4053
S'head:NP'
p4054
ssbsg1630
I00
sg1633
I00
sg1644
Nsg1631
Nsg200
I0
sg186
I2
sg1914
Nsg1642
Nsg1915
S'NN'
p4055
sg305
(issf_api
FeatureSet
p4056
(dp4057
g308
(dp4058
S'posn'
p4059
S'20'
p4060
sS'name'
p4061
S'\xe0\xa4\xb5\xe0\xa4\x95\xe0\xa5\x80\xe0\xa4\xb2'
p4062
sS'af'
p4063
S'\xe0\xa4\xb5\xe0\xa4\x95\xe0\xa5\x80\xe0\xa4\xb2,n,m,sg,3,o,0,0'
p4064
ssbsg1651
I00
sba(issf_api
Word
p4065
(dp4066
g1897
I00
sg1898
V\u0928\u0947
p4067
sg1900
(issf_api
FeatureSet
p4068
(dp4069
g308
(dp4070
S'posn'
p4071
S'30'
p4072
sS'name'
p4073
S'\xe0\xa4\xa8\xe0\xa5\x87'
p4074
sS'drel'
p4075
S'lwg__psp:\xe0\xa4\xb5\xe0\xa4\x95\xe0\xa5\x80\xe0\xa4\xb2'
p4076
sS'chunktype'
p4077
S'child:NP'
p4078
sS'af'
p4079
S'\xe0\xa4\xa8\xe0\xa5\x87,psp,,,,,,'
p4080
ssbsg1630
I00
sg1633
I00
sg1644
Nsg1631
Nsg200
I0
sg186
I2
sg1914
Nsg1642
Nsg1915
S'PSP'
p4081
sg305
(issf_api
FeatureSet
p4082
(dp4083
g308
(dp4084
S'posn'
p4085
S'30'
p4086
sS'name'
p4087
S'\xe0\xa4\xa8\xe0\xa5\x87'
p4088
sS'af'
p4089
S'\xe0\xa4\xa8\xe0\xa5\x87,psp,,,,,,'
p4090
ssbsg1651
I00
sba(issf_api
Word
p4091
(dp4092
g1897
I00
sg1898
V\u092a\u0930\u0940\u0915\u094d\u0937\u0923\u094b\u0902
p4093
sg1900
(issf_api
FeatureSet
p4094
(dp4095
g308
(dp4096
S'posn'
p4097
S'40'
p4098
sS'name'
p4099
S'\xe0\xa4\xaa\xe0\xa4\xb0\xe0\xa5\x80\xe0\xa4\x95\xe0\xa5\x8d\xe0\xa4\xb7\xe0\xa4\xa3\xe0\xa5\x8b\xe0\xa4\x82'
p4100
sS'af'
p4101
S'\xe0\xa4\xaa\xe0\xa4\xb0\xe0\xa5\x80\xe0\xa4\x95\xe0\xa5\x8d\xe0\xa4\xb7\xe0\xa4\xa3,n,m,pl,3,o,0_\xe0\xa4\x95\xe0\xa5\x87_\xe0\xa4\xb2\xe0\xa4\xbf\xe0\xa4\x8f,0'
p4102
sS'chunkid'
p4103
S'NP2'
p4104
sS'drel'
p4105
S'rt:\xe0\xa4\xb2\xe0\xa5\x87'
p4106
sS'vpos'
p4107
S'vib_2_3'
p4108
sS'chunktype'
p4109
S'head:NP2'
p4110
ssbsg1630
I00
sg1633
I00
sg1644
Nsg1631
Nsg200
I1
sg186
I2
sg1914
Nsg1642
Nsg1915
S'NN'
p4111
sg305
(issf_api
FeatureSet
p4112
(dp4113
g308
(dp4114
S'posn'
p4115
S'40'
p4116
sS'name'
p4117
S'\xe0\xa4\xaa\xe0\xa4\xb0\xe0\xa5\x80\xe0\xa4\x95\xe0\xa5\x8d\xe0\xa4\xb7\xe0\xa4\xa3\xe0\xa5\x8b\xe0\xa4\x82'
p4118
sS'af'
p4119
S'\xe0\xa4\xaa\xe0\xa4\xb0\xe0\xa5\x80\xe0\xa4\x95\xe0\xa5\x8d\xe0\xa4\xb7\xe0\xa4\xa3,n,m,pl,3,o,0,0'
p4120
ssbsg1651
I00
sba(issf_api
Word
p4121
(dp4122
g1897
I00
sg1898
V\u0915\u0947
p4123
sg1900
(issf_api
FeatureSet
p4124
(dp4125
g308
(dp4126
S'posn'
p4127
S'50'
p4128
sS'name'
p4129
S'\xe0\xa4\x95\xe0\xa5\x87'
p4130
sS'drel'
p4131
S'lwg__psp:\xe0\xa4\xaa\xe0\xa4\xb0\xe0\xa5\x80\xe0\xa4\x95\xe0\xa5\x8d\xe0\xa4\xb7\xe0\xa4\xa3\xe0\xa5\x8b\xe0\xa4\x82'
p4132
sS'chunktype'
p4133
S'child:NP2'
p4134
sS'af'
p4135
S'\xe0\xa4\x95\xe0\xa5\x87,psp,,,,,,'
p4136
ssbsg1630
I00
sg1633
I00
sg1644
Nsg1631
Nsg200
I1
sg186
I2
sg1914
Nsg1642
Nsg1915
S'PSP'
p4137
sg305
(issf_api
FeatureSet
p4138
(dp4139
g308
(dp4140
S'posn'
p4141
S'50'
p4142
sS'name'
p4143
S'\xe0\xa4\x95\xe0\xa5\x87'
p4144
sS'af'
p4145
S'\xe0\xa4\x95\xe0\xa5\x87,psp,,,,,,'
p4146
ssbsg1651
I00
sba(issf_api
Word
p4147
(dp4148
g1897
I00
sg1898
V\u0932\u093f\u090f
p4149
sg1900
(issf_api
FeatureSet
p4150
(dp4151
g308
(dp4152
S'posn'
p4153
S'60'
p4154
sS'name'
p4155
S'\xe0\xa4\xb2\xe0\xa4\xbf\xe0\xa4\x8f'
p4156
sS'drel'
p4157
S'lwg__psp:\xe0\xa4\xaa\xe0\xa4\xb0\xe0\xa5\x80\xe0\xa4\x95\xe0\xa5\x8d\xe0\xa4\xb7\xe0\xa4\xa3\xe0\xa5\x8b\xe0\xa4\x82'
p4158
sS'chunktype'
p4159
S'child:NP2'
p4160
sS'af'
p4161
S'\xe0\xa4\xb2\xe0\xa4\xbf\xe0\xa4\x8f,psp,,,,,,'
p4162
ssbsg1630
I00
sg1633
I00
sg1644
Nsg1631
Nsg200
I1
sg186
I2
sg1914
Nsg1642
Nsg1915
S'PSP'
p4163
sg305
(issf_api
FeatureSet
p4164
(dp4165
g308
(dp4166
S'posn'
p4167
S'60'
p4168
sS'name'
p4169
S'\xe0\xa4\xb2\xe0\xa4\xbf\xe0\xa4\x8f'
p4170
sS'af'
p4171
S'\xe0\xa4\xb2\xe0\xa4\xbf\xe0\xa4\x8f,psp,,,,,,'
p4172
ssbsg1651
I00
sba(issf_api
Word
p4173
(dp4174
g1897
I00
sg1898
V\u0938\u0932\u0947\u092e
p4175
sg1900
(issf_api
FeatureSet
p4176
(dp4177
g308
(dp4178
S'posn'
p4179
S'70'
p4180
sS'name'
p4181
S'\xe0\xa4\xb8\xe0\xa4\xb2\xe0\xa5\x87\xe0\xa4\xae'
p4182
sS'af'
p4183
S'\xe0\xa4\xb8\xe0\xa4\xb2\xe0\xa5\x87\xe0\xa4\xae,n,m,sg,3,o,0_\xe0\xa4\x95\xe0\xa4\xbe,0'
p4184
sS'chunkid'
p4185
S'NP3'
p4186
sS'drel'
p4187
S'r6:\xe0\xa4\xb8\xe0\xa4\xb9\xe0\xa4\xae\xe0\xa4\xa4\xe0\xa4\xbf'
p4188
sS'vpos'
p4189
S'vib_2'
p4190
sS'chunktype'
p4191
S'head:NP3'
p4192
ssbsg1630
I00
sg1633
I00
sg1644
Nsg1631
Nsg200
I2
sg186
I2
sg1914
Nsg1642
Nsg1915
S'NNP'
p4193
sg305
(issf_api
FeatureSet
p4194
(dp4195
g308
(dp4196
S'posn'
p4197
S'70'
p4198
sS'name'
p4199
S'\xe0\xa4\xb8\xe0\xa4\xb2\xe0\xa5\x87\xe0\xa4\xae'
p4200
sS'af'
p4201
S'\xe0\xa4\xb8\xe0\xa4\xb2\xe0\xa5\x87\xe0\xa4\xae,n,m,sg,3,o,0,0'
p4202
ssbsg1651
I00
sba(issf_api
Word
p4203
(dp4204
g1897
I00
sg1898
V\u0915\u0940
p4205
sg1900
(issf_api
FeatureSet
p4206
(dp4207
g308
(dp4208
S'posn'
p4209
S'80'
p4210
sS'name'
p4211
S'\xe0\xa4\x95\xe0\xa5\x80'
p4212
sS'drel'
p4213
S'lwg__psp:\xe0\xa4\xb8\xe0\xa4\xb2\xe0\xa5\x87\xe0\xa4\xae'
p4214
sS'chunktype'
p4215
S'child:NP3'
p4216
sS'af'
p4217
S'\xe0\xa4\x95\xe0\xa4\xbe,psp,f,sg,,d,,'
p4218
ssbsg1630
I00
sg1633
I00
sg1644
Nsg1631
Nsg200
I2
sg186
I2
sg1914
Nsg1642
Nsg1915
S'PSP'
p4219
sg305
(issf_api
FeatureSet
p4220
(dp4221
g308
(dp4222
S'posn'
p4223
S'80'
p4224
sS'name'
p4225
S'\xe0\xa4\x95\xe0\xa5\x80'
p4226
sS'af'
p4227
S'\xe0\xa4\x95\xe0\xa4\xbe,psp,f,sg,,d,,'
p4228
ssbsg1651
I00
sba(issf_api
Word
p4229
(dp4230
g1897
I00
sg1898
V\u0938\u0939\u092e\u0924\u093f
p4231
sg1900
(issf_api
FeatureSet
p4232
(dp4233
g308
(dp4234
S'posn'
p4235
S'90'
p4236
sS'name'
p4237
S'\xe0\xa4\xb8\xe0\xa4\xb9\xe0\xa4\xae\xe0\xa4\xa4\xe0\xa4\xbf'
p4238
sS'af'
p4239
S'\xe0\xa4\xb8\xe0\xa4\xb9\xe0\xa4\xae\xe0\xa4\xa4\xe0\xa4\xbf,n,f,sg,3,d,0,0'
p4240
sS'chunkid'
p4241
S'NP4'
p4242
sS'drel'
p4243
S'k2:\xe0\xa4\xb2\xe0\xa5\x87'
p4244
sS'chunktype'
p4245
S'head:NP4'
p4246
ssbsg1630
I00
sg1633
I00
sg1644
Nsg1631
Nsg200
I3
sg186
I2
sg1914
Nsg1642
Nsg1915
S'NN'
p4247
sg305
(issf_api
FeatureSet
p4248
(dp4249
g308
(dp4250
S'posn'
p4251
S'90'
p4252
sS'name'
p4253
S'\xe0\xa4\xb8\xe0\xa4\xb9\xe0\xa4\xae\xe0\xa4\xa4\xe0\xa4\xbf'
p4254
sS'af'
p4255
S'\xe0\xa4\xb8\xe0\xa4\xb9\xe0\xa4\xae\xe0\xa4\xa4\xe0\xa4\xbf,n,f,sg,3,d,0,0'
p4256
ssbsg1651
I00
sba(issf_api
Word
p4257
(dp4258
g1897
I00
sg1898
V\u0932\u0947
p4259
sg1900
(issf_api
FeatureSet
p4260
(dp4261
g308
(dp4262
S'posn'
p4263
S'100'
p4264
sS'name'
p4265
S'\xe0\xa4\xb2\xe0\xa5\x87'
p4266
sS'af'
p4267
S'\xe0\xa4\xb2\xe0\xa5\x87,v,f,sg,3,,0_\xe0\xa4\xb2\xe0\xa5\x87+\xe0\xa4\xaf\xe0\xa4\xbe_\xe0\xa4\xb9\xe0\xa5\x88,0'
p4268
sS'chunkid'
p4269
S'VGF'
p4270
sS'chunktype'
p4271
S'head:VGF'
p4272
sS'voicetype'
p4273
S'active'
p4274
sS'vpos'
p4275
S'tam_2_3'
p4276
sS'stype'
p4277
S'declarative'
p4278
ssbsg1630
I00
sg1633
I00
sg1644
Nsg1631
Nsg200
I4
sg186
I2
sg1914
Nsg1642
Nsg1915
S'VM'
p4279
sg305
(issf_api
FeatureSet
p4280
(dp4281
g308
(dp4282
S'posn'
p4283
S'100'
p4284
sS'name'
p4285
S'\xe0\xa4\xb2\xe0\xa5\x87'
p4286
sS'af'
p4287
S'\xe0\xa4\xb2\xe0\xa5\x87,v,any,any,any,,0,0'
p4288
ssbsg1651
I00
sba(issf_api
Word
p4289
(dp4290
g1897
I00
sg1898
V\u0932\u0940
p4291
sg1900
(issf_api
FeatureSet
p4292
(dp4293
g308
(dp4294
S'posn'
p4295
S'110'
p4296
sS'name'
p4297
S'\xe0\xa4\xb2\xe0\xa5\x80'
p4298
sS'drel'
p4299
S'lwg__vaux:\xe0\xa4\xb2\xe0\xa5\x87'
p4300
sS'chunktype'
p4301
S'child:VGF'
p4302
sS'af'
p4303
S'\xe0\xa4\xb2\xe0\xa5\x87,v,f,sg,any,,\xe0\xa4\xaf\xe0\xa4\xbe,yA'
p4304
ssbsg1630
I00
sg1633
I00
sg1644
Nsg1631
Nsg200
I4
sg186
I2
sg1914
Nsg1642
Nsg1915
S'VAUX'
p4305
sg305
(issf_api
FeatureSet
p4306
(dp4307
g308
(dp4308
S'posn'
p4309
S'110'
p4310
sS'name'
p4311
S'\xe0\xa4\xb2\xe0\xa5\x80'
p4312
sS'af'
p4313
S'\xe0\xa4\xb2\xe0\xa5\x87,v,f,sg,any,,\xe0\xa4\xaf\xe0\xa4\xbe,yA'
p4314
ssbsg1651
I00
sba(issf_api
Word
p4315
(dp4316
g1897
I00
sg1898
V\u0939\u0948
p4317
sg1900
(issf_api
FeatureSet
p4318
(dp4319
g308
(dp4320
S'posn'
p4321
S'120'
p4322
sS'name'
p4323
S'\xe0\xa4\xb9\xe0\xa5\x88'
p4324
sS'drel'
p4325
S'lwg__vaux:\xe0\xa4\xb2\xe0\xa5\x87'
p4326
sS'chunktype'
p4327
S'child:VGF'
p4328
sS'af'
p4329
S'\xe0\xa4\xb9\xe0\xa5\x88,v,any,sg,3,,\xe0\xa4\xb9\xe0\xa5\x88,hE'
p4330
ssbsg1630
I00
sg1633
I00
sg1644
Nsg1631
Nsg200
I4
sg186
I2
sg1914
Nsg1642
Nsg1915
S'VAUX'
p4331
sg305
(issf_api
FeatureSet
p4332
(dp4333
g308
(dp4334
S'posn'
p4335
S'120'
p4336
sS'name'
p4337
S'\xe0\xa4\xb9\xe0\xa5\x88'
p4338
sS'af'
p4339
S'\xe0\xa4\xb9\xe0\xa5\x88,v,any,sg,3,,\xe0\xa4\xb9\xe0\xa5\x88,hE'
p4340
ssbsg1651
I00
sba(issf_api
Word
p4341
(dp4342
g1897
I00
sg1898
V\u0964
sg1900
(issf_api
FeatureSet
p4343
(dp4344
g308
(dp4345
S'posn'
p4346
S'130'
p4347
sS'name'
p4348
S'\xe0\xa5\xa4'
p4349
sS'af'
p4350
S'\xe0\xa5\xa4,punc,,,,,,'
p4351
sS'chunkid'
p4352
S'BLK'
p4353
sS'drel'
p4354
S'rsym:\xe0\xa4\xb2\xe0\xa5\x87'
p4355
sS'chunktype'
p4356
S'head:BLK'
p4357
ssbsg1630
I00
sg1633
I00
sg1644
Nsg1631
Nsg200
I5
sg186
I2
sg1914
Nsg1642
Nsg1915
S'SYM'
p4358
sg305
(issf_api
FeatureSet
p4359
(dp4360
g308
(dp4361
S'posn'
p4362
S'130'
p4363
sS'name'
p4364
S'\xe0\xa5\xa4'
p4365
sS'af'
p4366
S'\xe0\xa5\xa4,punc,,,,,,'
p4367
ssbsg1651
I00
sba(issf_api
Word
p4368
(dp4369
g1897
I00
sg1898
V\u090f\u091f\u0940\u090f\u0938
p4370
sg1900
(issf_api
FeatureSet
p4371
(dp4372
g308
(dp4373
S'posn'
p4374
S'10'
p4375
sS'name'
p4376
S'\xe0\xa4\x8f\xe0\xa4\x9f\xe0\xa5\x80\xe0\xa4\x8f\xe0\xa4\xb8'
p4377
sS'drel'
p4378
S'pof__cn:\xe0\xa4\xb8\xe0\xa5\x82\xe0\xa4\xa4\xe0\xa5\x8d\xe0\xa4\xb0\xe0\xa5\x8b\xe0\xa4\x82'
p4379
sS'chunktype'
p4380
S'child:NP'
p4381
sS'af'
p4382
S'\xe0\xa4\x8f\xe0\xa4\x9f\xe0\xa5\x80\xe0\xa4\x8f\xe0\xa4\xb8,n,m,sg,3,d,0,0'
p4383
ssbsg1630
I00
sg1633
I00
sg1644
Nsg1631
Nsg200
I0
sg186
I3
sg1914
Nsg1642
Nsg1915
S'NNC'
p4384
sg305
(issf_api
FeatureSet
p4385
(dp4386
g308
(dp4387
S'posn'
p4388
S'10'
p4389
sS'name'
p4390
S'\xe0\xa4\x8f\xe0\xa4\x9f\xe0\xa5\x80\xe0\xa4\x8f\xe0\xa4\xb8'
p4391
sS'af'
p4392
S'\xe0\xa4\x8f\xe0\xa4\x9f\xe0\xa5\x80\xe0\xa4\x8f\xe0\xa4\xb8,n,m,sg,3,d,0,0'
p4393
ssbsg1651
I00
sba(issf_api
Word
p4394
(dp4395
g1897
I00
sg1898
V\u0938\u0942\u0924\u094d\u0930\u094b\u0902
p4396
sg1900
(issf_api
FeatureSet
p4397
(dp4398
g308
(dp4399
S'posn'
p4400
S'20'
p4401
sS'name'
p4402
S'\xe0\xa4\xb8\xe0\xa5\x82\xe0\xa4\xa4\xe0\xa5\x8d\xe0\xa4\xb0\xe0\xa5\x8b\xe0\xa4\x82'
p4403
sS'af'
p4404
S'\xe0\xa4\xb8\xe0\xa5\x82\xe0\xa4\xa4\xe0\xa5\x8d\xe0\xa4\xb0,n,m,pl,3,o,0_\xe0\xa4\xa8\xe0\xa5\x87,0'
p4405
sS'chunkid'
p4406
S'NP'
p4407
sS'drel'
p4408
S'k1:\xe0\xa4\x95\xe0\xa4\xb9\xe0\xa4\xbe'
p4409
sS'vpos'
p4410
S'vib_3'
p4411
sS'chunktype'
p4412
S'head:NP'
p4413
ssbsg1630
I00
sg1633
I00
sg1644
Nsg1631
Nsg200
I0
sg186
I3
sg1914
Nsg1642
Nsg1915
S'NN'
p4414
sg305
(issf_api
FeatureSet
p4415
(dp4416
g308
(dp4417
S'posn'
p4418
S'20'
p4419
sS'name'
p4420
S'\xe0\xa4\xb8\xe0\xa5\x82\xe0\xa4\xa4\xe0\xa5\x8d\xe0\xa4\xb0\xe0\xa5\x8b\xe0\xa4\x82'
p4421
sS'af'
p4422
S'\xe0\xa4\xb8\xe0\xa5\x82\xe0\xa4\xa4\xe0\xa5\x8d\xe0\xa4\xb0,n,m,pl,3,o,0,0'
p4423
ssbsg1651
I00
sba(issf_api
Word
p4424
(dp4425
g1897
I00
sg1898
V\u0928\u0947
p4426
sg1900
(issf_api
FeatureSet
p4427
(dp4428
g308
(dp4429
S'posn'
p4430
S'30'
p4431
sS'name'
p4432
S'\xe0\xa4\xa8\xe0\xa5\x87'
p4433
sS'drel'
p4434
S'lwg__psp:\xe0\xa4\xb8\xe0\xa5\x82\xe0\xa4\xa4\xe0\xa5\x8d\xe0\xa4\xb0\xe0\xa5\x8b\xe0\xa4\x82'
p4435
sS'chunktype'
p4436
S'child:NP'
p4437
sS'af'
p4438
S'\xe0\xa4\xa8\xe0\xa5\x87,psp,,,,,,'
p4439
ssbsg1630
I00
sg1633
I00
sg1644
Nsg1631
Nsg200
I0
sg186
I3
sg1914
Nsg1642
Nsg1915
S'PSP'
p4440
sg305
(issf_api
FeatureSet
p4441
(dp4442
g308
(dp4443
S'posn'
p4444
S'30'
p4445
sS'name'
p4446
S'\xe0\xa4\xa8\xe0\xa5\x87'
p4447
sS'af'
p4448
S'\xe0\xa4\xa8\xe0\xa5\x87,psp,,,,,,'
p4449
ssbsg1651
I00
sba(issf_api
Word
p4450
(dp4451
g1897
I00
sg1898
V\u0915\u0939\u093e
p4452
sg1900
(issf_api
FeatureSet
p4453
(dp4454
g308
(dp4455
S'posn'
p4456
S'40'
p4457
sS'name'
p4458
S'\xe0\xa4\x95\xe0\xa4\xb9\xe0\xa4\xbe'
p4459
sS'af'
p4460
S'\xe0\xa4\x95\xe0\xa4\xb9,v,m,sg,any,,\xe0\xa4\xaf\xe0\xa4\xbe,yA'
p4461
sS'chunkid'
p4462
S'VGF'
p4463
sS'chunktype'
p4464
S'head:VGF'
p4465
sS'voicetype'
p4466
S'active'
p4467
sS'stype'
p4468
S'declarative'
p4469
ssbsg1630
I00
sg1633
I00
sg1644
Nsg1631
Nsg200
I1
sg186
I3
sg1914
Nsg1642
Nsg1915
S'VM'
p4470
sg305
(issf_api
FeatureSet
p4471
(dp4472
g308
(dp4473
S'posn'
p4474
S'40'
p4475
sS'name'
p4476
S'\xe0\xa4\x95\xe0\xa4\xb9\xe0\xa4\xbe'
p4477
sS'af'
p4478
S'\xe0\xa4\x95\xe0\xa4\xb9,v,m,sg,any,,\xe0\xa4\xaf\xe0\xa4\xbe,yA'
p4479
ssbsg1651
I00
sba(issf_api
Word
p4480
(dp4481
g1897
I00
sg1898
V\u0915\u093f
p4482
sg1900
(issf_api
FeatureSet
p4483
(dp4484
g308
(dp4485
S'posn'
p4486
S'50'
p4487
sS'name'
p4488
S'\xe0\xa4\x95\xe0\xa4\xbf'
p4489
sS'af'
p4490
S'\xe0\xa4\x95\xe0\xa4\xbf,avy,,,,,,'
p4491
sS'chunkid'
p4492
S'CCP'
p4493
sS'drel'
p4494
S'k2:\xe0\xa4\x95\xe0\xa4\xb9\xe0\xa4\xbe'
p4495
sS'chunktype'
p4496
S'head:CCP'
p4497
ssbsg1630
I00
sg1633
I00
sg1644
Nsg1631
Nsg200
I2
sg186
I3
sg1914
Nsg1642
Nsg1915
S'CC'
p4498
sg305
(issf_api
FeatureSet
p4499
(dp4500
g308
(dp4501
S'posn'
p4502
S'50'
p4503
sS'name'
p4504
S'\xe0\xa4\x95\xe0\xa4\xbf'
p4505
sS'af'
p4506
S'\xe0\xa4\x95\xe0\xa4\xbf,avy,,,,,,'
p4507
ssbsg1651
I00
sba(issf_api
Word
p4508
(dp4509
g1897
I00
sg1898
V\u0926\u0938\u094d\u0924\u0947
p4510
sg1900
(issf_api
FeatureSet
p4511
(dp4512
g308
(dp4513
S'posn'
p4514
S'60'
p4515
sS'name'
p4516
S'\xe0\xa4\xa6\xe0\xa4\xb8\xe0\xa5\x8d\xe0\xa4\xa4\xe0\xa5\x87'
p4517
sS'af'
p4518
S'\xe0\xa4\xa6\xe0\xa4\xb8\xe0\xa5\x8d\xe0\xa4\xa4\xe0\xa4\xbe,n,m,sg,3,o,0_\xe0\xa4\x95\xe0\xa4\xbe,0'
p4519
sS'chunkid'
p4520
S'NP2'
p4521
sS'drel'
p4522
S'r6:\xe0\xa4\xb9\xe0\xa4\xa4\xe0\xa5\x8d\xe0\xa4\xaf\xe0\xa4\xbe\xe0\xa4\x95\xe0\xa4\xbe\xe0\xa4\x82\xe0\xa4\xa1'
p4523
sS'vpos'
p4524
S'vib_2'
p4525
sS'chunktype'
p4526
S'head:NP2'
p4527
ssbsg1630
I00
sg1633
I00
sg1644
Nsg1631
Nsg200
I3
sg186
I3
sg1914
Nsg1642
Nsg1915
S'NN'
p4528
sg305
(issf_api
FeatureSet
p4529
(dp4530
g308
(dp4531
S'posn'
p4532
S'60'
p4533
sS'name'
p4534
S'\xe0\xa4\xa6\xe0\xa4\xb8\xe0\xa5\x8d\xe0\xa4\xa4\xe0\xa5\x87'
p4535
sS'af'
p4536
S'\xe0\xa4\xa6\xe0\xa4\xb8\xe0\xa5\x8d\xe0\xa4\xa4\xe0\xa4\xbe,n,m,sg,3,o,0,0'
p4537
ssbsg1651
I00
sba(issf_api
Word
p4538
(dp4539
g1897
I00
sg1898
V\u0915\u0940
p4540
sg1900
(issf_api
FeatureSet
p4541
(dp4542
g308
(dp4543
S'posn'
p4544
S'70'
p4545
sS'name'
p4546
S'\xe0\xa4\x95\xe0\xa5\x80'
p4547
sS'drel'
p4548
S'lwg__psp:\xe0\xa4\xa6\xe0\xa4\xb8\xe0\xa5\x8d\xe0\xa4\xa4\xe0\xa5\x87'
p4549
sS'chunktype'
p4550
S'child:NP2'
p4551
sS'af'
p4552
S'\xe0\xa4\x95\xe0\xa4\xbe,psp,f,sg,,o,,'
p4553
ssbsg1630
I00
sg1633
I00
sg1644
Nsg1631
Nsg200
I3
sg186
I3
sg1914
Nsg1642
Nsg1915
S'PSP'
p4554
sg305
(issf_api
FeatureSet
p4555
(dp4556
g308
(dp4557
S'posn'
p4558
S'70'
p4559
sS'name'
p4560
S'\xe0\xa4\x95\xe0\xa5\x80'
p4561
sS'af'
p4562
S'\xe0\xa4\x95\xe0\xa4\xbe,psp,f,sg,,o,,'
p4563
ssbsg1651
I00
sba(issf_api
Word
p4564
(dp4565
g1897
I00
sg1898
V\u091c\u0948\u0928
p4566
sg1900
(issf_api
FeatureSet
p4567
(dp4568
g308
(dp4569
S'posn'
p4570
S'80'
p4571
sS'name'
p4572
S'\xe0\xa4\x9c\xe0\xa5\x88\xe0\xa4\xa8'
p4573
sS'drel'
p4574
S'nmod__adj:\xe0\xa4\xb9\xe0\xa4\xa4\xe0\xa5\x8d\xe0\xa4\xaf\xe0\xa4\xbe\xe0\xa4\x95\xe0\xa4\xbe\xe0\xa4\x82\xe0\xa4\xa1'
p4575
sS'chunktype'
p4576
S'child:NP3'
p4577
sS'af'
p4578
S'\xe0\xa4\x9c\xe0\xa5\x88\xe0\xa4\xa8,n,any,sg,3,d,0,0'
p4579
ssbsg1630
I00
sg1633
I00
sg1644
Nsg1631
Nsg200
I4
sg186
I3
sg1914
Nsg1642
Nsg1915
S'NNP'
p4580
sg305
(issf_api
FeatureSet
p4581
(dp4582
g308
(dp4583
S'posn'
p4584
S'80'
p4585
sS'name'
p4586
S'\xe0\xa4\x9c\xe0\xa5\x88\xe0\xa4\xa8'
p4587
sS'af'
p4588
S'\xe0\xa4\x9c\xe0\xa5\x88\xe0\xa4\xa8,n,any,sg,3,d,0,0'
p4589
ssbsg1651
I00
sba(issf_api
Word
p4590
(dp4591
g1897
I00
sg1898
V\u0939\u0924\u094d\u092f\u093e\u0915\u093e\u0902\u0921
p4592
sg1900
(issf_api
FeatureSet
p4593
(dp4594
g308
(dp4595
S'posn'
p4596
S'90'
p4597
sS'name'
p4598
S'\xe0\xa4\xb9\xe0\xa4\xa4\xe0\xa5\x8d\xe0\xa4\xaf\xe0\xa4\xbe\xe0\xa4\x95\xe0\xa4\xbe\xe0\xa4\x82\xe0\xa4\xa1'
p4599
sS'af'
p4600
S'\xe0\xa4\xb9\xe0\xa4\xa4\xe0\xa5\x8d\xe0\xa4\xaf\xe0\xa4\xbe\xe0\xa4\x95\xe0\xa4\xbe\xe0\xa4\x82\xe0\xa4\xa1,n,m,sg,3,o,0_\xe0\xa4\xae\xe0\xa5\x87\xe0\xa4\x82,0'
p4601
sS'chunkid'
p4602
S'NP3'
p4603
sS'drel'
p4604
S'k7:\xe0\xa4\xb9\xe0\xa5\x8b\xe0\xa4\xa8\xe0\xa5\x87'
p4605
sS'vpos'
p4606
S'vib_vib_3'
p4607
sS'chunktype'
p4608
S'head:NP3'
p4609
ssbsg1630
I00
sg1633
I00
sg1644
Nsg1631
Nsg200
I4
sg186
I3
sg1914
Nsg1642
Nsg1915
S'NN'
p4610
sg305
(issf_api
FeatureSet
p4611
(dp4612
g308
(dp4613
S'posn'
p4614
S'90'
p4615
sS'name'
p4616
S'\xe0\xa4\xb9\xe0\xa4\xa4\xe0\xa5\x8d\xe0\xa4\xaf\xe0\xa4\xbe\xe0\xa4\x95\xe0\xa4\xbe\xe0\xa4\x82\xe0\xa4\xa1'
p4617
sS'af'
p4618
S'\xe0\xa4\xb9\xe0\xa4\xa4\xe0\xa5\x8d\xe0\xa4\xaf\xe0\xa4\xbe\xe0\xa4\x95\xe0\xa4\xbe\xe0\xa4\x82\xe0\xa4\xa1,n,m,sg,3,o,0,0'
p4619
ssbsg1651
I00
sba(issf_api
Word
p4620
(dp4621
g1897
I00
sg1898
V\u092e\u0947\u0902
p4622
sg1900
(issf_api
FeatureSet
p4623
(dp4624
g308
(dp4625
S'posn'
p4626
S'100'
p4627
sS'name'
p4628
S'\xe0\xa4\xae\xe0\xa5\x87\xe0\xa4\x82'
p4629
sS'drel'
p4630
S'lwg__psp:\xe0\xa4\xb9\xe0\xa4\xa4\xe0\xa5\x8d\xe0\xa4\xaf\xe0\xa4\xbe\xe0\xa4\x95\xe0\xa4\xbe\xe0\xa4\x82\xe0\xa4\xa1'
p4631
sS'chunktype'
p4632
S'child:NP3'
p4633
sS'af'
p4634
S'\xe0\xa4\xae\xe0\xa5\x87\xe0\xa4\x82,psp,,,,,,'
p4635
ssbsg1630
I00
sg1633
I00
sg1644
Nsg1631
Nsg200
I4
sg186
I3
sg1914
Nsg1642
Nsg1915
S'PSP'
p4636
sg305
(issf_api
FeatureSet
p4637
(dp4638
g308
(dp4639
S'posn'
p4640
S'100'
p4641
sS'name'
p4642
S'\xe0\xa4\xae\xe0\xa5\x87\xe0\xa4\x82'
p4643
sS'af'
p4644
S'\xe0\xa4\xae\xe0\xa5\x87\xe0\xa4\x82,psp,,,,,,'
p4645
ssbsg1651
I00
sba(issf_api
Word
p4646
(dp4647
g1897
I00
sg1898
V\u0938\u0932\u0947\u092e
p4648
sg1900
(issf_api
FeatureSet
p4649
(dp4650
g308
(dp4651
S'posn'
p4652
S'110'
p4653
sS'name'
p4654
S'\xe0\xa4\xb8\xe0\xa4\xb2\xe0\xa5\x87\xe0\xa4\xae'
p4655
sS'af'
p4656
S'\xe0\xa4\xb8\xe0\xa4\xb2\xe0\xa5\x87\xe0\xa4\xae,n,m,sg,3,o,0,0'
p4657
sS'chunkid'
p4658
S'NP4'
p4659
sS'drel'
p4660
S'ccof:\xe0\xa4\x94\xe0\xa4\xb0'
p4661
sS'chunktype'
p4662
S'head:NP4'
p4663
ssbsg1630
I00
sg1633
I00
sg1644
Nsg1631
Nsg200
I5
sg186
I3
sg1914
Nsg1642
Nsg1915
S'NNP'
p4664
sg305
(issf_api
FeatureSet
p4665
(dp4666
g308
(dp4667
S'posn'
p4668
S'110'
p4669
sS'name'
p4670
S'\xe0\xa4\xb8\xe0\xa4\xb2\xe0\xa5\x87\xe0\xa4\xae'
p4671
sS'af'
p4672
S'\xe0\xa4\xb8\xe0\xa4\xb2\xe0\xa5\x87\xe0\xa4\xae,n,m,sg,3,o,0,0'
p4673
ssbsg1651
I00
sba(issf_api
Word
p4674
(dp4675
g1897
I00
sg1898
V\u0914\u0930
p4676
sg1900
(issf_api
FeatureSet
p4677
(dp4678
g308
(dp4679
S'posn'
p4680
S'120'
p4681
sS'name'
p4682
S'\xe0\xa4\x94\xe0\xa4\xb0'
p4683
sS'af'
p4684
S'\xe0\xa4\x94\xe0\xa4\xb0,avy,,,,,,'
p4685
sS'chunkid'
p4686
S'CCP2'
p4687
sS'drel'
p4688
S'k1:\xe0\xa4\xb9\xe0\xa5\x8b\xe0\xa4\xa8\xe0\xa5\x87'
p4689
sS'chunktype'
p4690
S'head:CCP2'
p4691
ssbsg1630
I00
sg1633
I00
sg1644
Nsg1631
Nsg200
I6
sg186
I3
sg1914
Nsg1642
Nsg1915
S'CC'
p4692
sg305
(issf_api
FeatureSet
p4693
(dp4694
g308
(dp4695
S'posn'
p4696
S'120'
p4697
sS'name'
p4698
S'\xe0\xa4\x94\xe0\xa4\xb0'
p4699
sS'af'
p4700
S'\xe0\xa4\x94\xe0\xa4\xb0,avy,,,,,,'
p4701
ssbsg1651
I00
sba(issf_api
Word
p4702
(dp4703
g1897
I00
sg1898
V\u0905\u0928\u094d\u092f
p4704
sg1900
(issf_api
FeatureSet
p4705
(dp4706
g308
(dp4707
S'posn'
p4708
S'130'
p4709
sS'name'
p4710
S'\xe0\xa4\x85\xe0\xa4\xa8\xe0\xa5\x8d\xe0\xa4\xaf'
p4711
sS'drel'
p4712
S'nmod__adj:\xe0\xa4\x86\xe0\xa4\xb0\xe0\xa5\x8b\xe0\xa4\xaa\xe0\xa4\xbf\xe0\xa4\xaf\xe0\xa5\x8b\xe0\xa4\x82'
p4713
sS'chunktype'
p4714
S'child:NP5'
p4715
sS'af'
p4716
S'\xe0\xa4\x85\xe0\xa4\xa8\xe0\xa5\x8d\xe0\xa4\xaf,adj,any,any,,o,,'
p4717
ssbsg1630
I00
sg1633
I00
sg1644
Nsg1631
Nsg200
I7
sg186
I3
sg1914
Nsg1642
Nsg1915
S'JJ'
p4718
sg305
(issf_api
FeatureSet
p4719
(dp4720
g308
(dp4721
S'posn'
p4722
S'130'
p4723
sS'name'
p4724
S'\xe0\xa4\x85\xe0\xa4\xa8\xe0\xa5\x8d\xe0\xa4\xaf'
p4725
sS'af'
p4726
S'\xe0\xa4\x85\xe0\xa4\xa8\xe0\xa5\x8d\xe0\xa4\xaf,adj,any,any,,o,,'
p4727
ssbsg1651
I00
sba(issf_api
Word
p4728
(dp4729
g1897
I00
sg1898
V\u0906\u0930\u094b\u092a\u093f\u092f\u094b\u0902
p4730
sg1900
(issf_api
FeatureSet
p4731
(dp4732
g308
(dp4733
S'posn'
p4734
S'140'
p4735
sS'name'
p4736
S'\xe0\xa4\x86\xe0\xa4\xb0\xe0\xa5\x8b\xe0\xa4\xaa\xe0\xa4\xbf\xe0\xa4\xaf\xe0\xa5\x8b\xe0\xa4\x82'
p4737
sS'af'
p4738
S'\xe0\xa4\x86\xe0\xa4\xb0\xe0\xa5\x8b\xe0\xa4\xaa\xe0\xa5\x80,n,m,pl,3,o,0_\xe0\xa4\x95\xe0\xa4\xbe,0'
p4739
sS'chunkid'
p4740
S'NP5'
p4741
sS'drel'
p4742
S'ccof:\xe0\xa4\x94\xe0\xa4\xb0'
p4743
sS'vpos'
p4744
S'vib_3'
p4745
sS'chunktype'
p4746
S'head:NP5'
p4747
ssbsg1630
I00
sg1633
I00
sg1644
Nsg1631
Nsg200
I7
sg186
I3
sg1914
Nsg1642
Nsg1915
S'NN'
p4748
sg305
(issf_api
FeatureSet
p4749
(dp4750
g308
(dp4751
S'posn'
p4752
S'140'
p4753
sS'name'
p4754
S'\xe0\xa4\x86\xe0\xa4\xb0\xe0\xa5\x8b\xe0\xa4\xaa\xe0\xa4\xbf\xe0\xa4\xaf\xe0\xa5\x8b\xe0\xa4\x82'
p4755
sS'af'
p4756
S'\xe0\xa4\x86\xe0\xa4\xb0\xe0\xa5\x8b\xe0\xa4\xaa\xe0\xa5\x80,n,m,pl,3,o,0,0'
p4757
ssbsg1651
I00
sba(issf_api
Word
p4758
(dp4759
g1897
I00
sg1898
V\u0915\u0947
p4760
sg1900
(issf_api
FeatureSet
p4761
(dp4762
g308
(dp4763
S'posn'
p4764
S'150'
p4765
sS'name'
p4766
S'\xe0\xa4\x95\xe0\xa5\x87'
p4767
sS'drel'
p4768
S'lwg__psp:\xe0\xa4\x86\xe0\xa4\xb0\xe0\xa5\x8b\xe0\xa4\xaa\xe0\xa4\xbf\xe0\xa4\xaf\xe0\xa5\x8b\xe0\xa4\x82'
p4769
sS'chunktype'
p4770
S'child:NP5'
p4771
sS'af'
p4772
S'\xe0\xa4\x95\xe0\xa4\xbe,psp,m,sg,,o,,'
p4773
ssbsg1630
I00
sg1633
I00
sg1644
Nsg1631
Nsg200
I7
sg186
I3
sg1914
Nsg1642
Nsg1915
S'PSP'
p4774
sg305
(issf_api
FeatureSet
p4775
(dp4776
g308
(dp4777
S'posn'
p4778
S'150'
p4779
sS'name'
p4780
S'\xe0\xa4\x95\xe0\xa5\x87'
p4781
sS'af'
p4782
S'\xe0\xa4\x95\xe0\xa4\xbe,psp,m,sg,,o,,'
p4783
ssbsg1651
I00
sba(issf_api
Word
p4784
(dp4785
g1897
I00
sg1898
V\u0936\u093e\u092e\u093f\u0932
p4786
sg1900
(issf_api
FeatureSet
p4787
(dp4788
g308
(dp4789
S'posn'
p4790
S'160'
p4791
sS'name'
p4792
S'\xe0\xa4\xb6\xe0\xa4\xbe\xe0\xa4\xae\xe0\xa4\xbf\xe0\xa4\xb2'
p4793
sS'af'
p4794
S'\xe0\xa4\xb6\xe0\xa4\xbe\xe0\xa4\xae\xe0\xa4\xbf\xe0\xa4\xb2,adj,any,any,,,,'
p4795
sS'chunkid'
p4796
S'JJP'
p4797
sS'drel'
p4798
S'pof:\xe0\xa4\xb9\xe0\xa5\x8b\xe0\xa4\xa8\xe0\xa5\x87'
p4799
sS'chunktype'
p4800
S'head:JJP'
p4801
ssbsg1630
I00
sg1633
I00
sg1644
Nsg1631
Nsg200
I8
sg186
I3
sg1914
Nsg1642
Nsg1915
S'JJ'
p4802
sg305
(issf_api
FeatureSet
p4803
(dp4804
g308
(dp4805
S'posn'
p4806
S'160'
p4807
sS'name'
p4808
S'\xe0\xa4\xb6\xe0\xa4\xbe\xe0\xa4\xae\xe0\xa4\xbf\xe0\xa4\xb2'
p4809
sS'af'
p4810
S'\xe0\xa4\xb6\xe0\xa4\xbe\xe0\xa4\xae\xe0\xa4\xbf\xe0\xa4\xb2,adj,any,any,,,,'
p4811
ssbsg1651
I00
sba(issf_api
Word
p4812
(dp4813
g1897
I00
sg1898
V\u0939\u094b\u0928\u0947
p4814
sg1900
(issf_api
FeatureSet
p4815
(dp4816
g308
(dp4817
S'posn'
p4818
S'170'
p4819
sS'name'
p4820
S'\xe0\xa4\xb9\xe0\xa5\x8b\xe0\xa4\xa8\xe0\xa5\x87'
p4821
sS'af'
p4822
S'\xe0\xa4\xb9\xe0\xa5\x8b,v,any,any,any,o,\xe0\xa4\xa8\xe0\xa4\xbe_\xe0\xa4\x95\xe0\xa5\x87_\xe0\xa4\xac\xe0\xa4\xbe\xe0\xa4\xb0\xe0\xa5\x87_\xe0\xa4\xae\xe0\xa5\x87\xe0\xa4\x82,nA'
p4823
sS'chunkid'
p4824
S'VGNN'
p4825
sS'drel'
p4826
S'k7:\xe0\xa4\x9c\xe0\xa5\x81\xe0\xa4\x9f\xe0\xa4\xbe\xe0\xa4\xa8\xe0\xa5\x87'
p4827
sS'vpos'
p4828
S'tam_2_3_4'
p4829
sS'chunktype'
p4830
S'head:VGNN'
p4831
ssbsg1630
I00
sg1633
I00
sg1644
Nsg1631
Nsg200
I9
sg186
I3
sg1914
Nsg1642
Nsg1915
S'VM'
p4832
sg305
(issf_api
FeatureSet
p4833
(dp4834
g308
(dp4835
S'posn'
p4836
S'170'
p4837
sS'name'
p4838
S'\xe0\xa4\xb9\xe0\xa5\x8b\xe0\xa4\xa8\xe0\xa5\x87'
p4839
sS'af'
p4840
S'\xe0\xa4\xb9\xe0\xa5\x8b,v,any,any,any,o,\xe0\xa4\xa8\xe0\xa4\xbe,nA'
p4841
ssbsg1651
I00
sba(issf_api
Word
p4842
(dp4843
g1897
I00
sg1898
V\u0915\u0947
p4844
sg1900
(issf_api
FeatureSet
p4845
(dp4846
g308
(dp4847
S'posn'
p4848
S'180'
p4849
sS'name'
p4850
S'\xe0\xa4\x95\xe0\xa5\x872'
p4851
sS'drel'
p4852
S'lwg__psp:\xe0\xa4\xb9\xe0\xa5\x8b\xe0\xa4\xa8\xe0\xa5\x87'
p4853
sS'chunktype'
p4854
S'child:VGNN'
p4855
sS'af'
p4856
S'\xe0\xa4\x95\xe0\xa5\x87,psp,,,,,,'
p4857
ssbsg1630
I00
sg1633
I00
sg1644
Nsg1631
Nsg200
I9
sg186
I3
sg1914
Nsg1642
Nsg1915
S'PSP'
p4858
sg305
(issf_api
FeatureSet
p4859
(dp4860
g308
(dp4861
S'posn'
p4862
S'180'
p4863
sS'name'
p4864
S'\xe0\xa4\x95\xe0\xa5\x872'
p4865
sS'af'
p4866
S'\xe0\xa4\x95\xe0\xa5\x87,psp,,,,,,'
p4867
ssbsg1651
I00
sba(issf_api
Word
p4868
(dp4869
g1897
I00
sg1898
V\u092c\u093e\u0930\u0947
p4870
sg1900
(issf_api
FeatureSet
p4871
(dp4872
g308
(dp4873
S'posn'
p4874
S'190'
p4875
sS'name'
p4876
S'\xe0\xa4\xac\xe0\xa4\xbe\xe0\xa4\xb0\xe0\xa5\x87'
p4877
sS'drel'
p4878
S'lwg__psp:\xe0\xa4\xb9\xe0\xa5\x8b\xe0\xa4\xa8\xe0\xa5\x87'
p4879
sS'chunktype'
p4880
S'child:VGNN'
p4881
sS'af'
p4882
S'\xe0\xa4\xac\xe0\xa4\xbe\xe0\xa4\xb0\xe0\xa5\x87,psp,,,,,,'
p4883
ssbsg1630
I00
sg1633
I00
sg1644
Nsg1631
Nsg200
I9
sg186
I3
sg1914
Nsg1642
Nsg1915
S'PSP'
p4884
sg305
(issf_api
FeatureSet
p4885
(dp4886
g308
(dp4887
S'posn'
p4888
S'190'
p4889
sS'name'
p4890
S'\xe0\xa4\xac\xe0\xa4\xbe\xe0\xa4\xb0\xe0\xa5\x87'
p4891
sS'af'
p4892
S'\xe0\xa4\xac\xe0\xa4\xbe\xe0\xa4\xb0\xe0\xa5\x87,psp,,,,,,'
p4893
ssbsg1651
I00
sba(issf_api
Word
p4894
(dp4895
g1897
I00
sg1898
V\u092e\u0947\u0902
p4896
sg1900
(issf_api
FeatureSet
p4897
(dp4898
g308
(dp4899
S'posn'
p4900
S'200'
p4901
sS'name'
p4902
S'\xe0\xa4\xae\xe0\xa5\x87\xe0\xa4\x822'
p4903
sS'drel'
p4904
S'lwg__psp:\xe0\xa4\xb9\xe0\xa5\x8b\xe0\xa4\xa8\xe0\xa5\x87'
p4905
sS'chunktype'
p4906
S'child:VGNN'
p4907
sS'af'
p4908
S'\xe0\xa4\xae\xe0\xa5\x87\xe0\xa4\x82,psp,,,,,,'
p4909
ssbsg1630
I00
sg1633
I00
sg1644
Nsg1631
Nsg200
I9
sg186
I3
sg1914
Nsg1642
Nsg1915
S'PSP'
p4910
sg305
(issf_api
FeatureSet
p4911
(dp4912
g308
(dp4913
S'posn'
p4914
S'200'
p4915
sS'name'
p4916
S'\xe0\xa4\xae\xe0\xa5\x87\xe0\xa4\x822'
p4917
sS'af'
p4918
S'\xe0\xa4\xae\xe0\xa5\x87\xe0\xa4\x82,psp,,,,,,'
p4919
ssbsg1651
I00
sba(issf_api
Word
p4920
(dp4921
g1897
I00
sg1898
V\u0914\u0930
p4922
sg1900
(issf_api
FeatureSet
p4923
(dp4924
g308
(dp4925
S'posn'
p4926
S'210'
p4927
sS'name'
p4928
S'\xe0\xa4\x94\xe0\xa4\xb02'
p4929
sS'drel'
p4930
S'nmod__adj:\xe0\xa4\x9c\xe0\xa4\xbe\xe0\xa4\xa8\xe0\xa4\x95\xe0\xa4\xbe\xe0\xa4\xb0\xe0\xa5\x80'
p4931
sS'chunktype'
p4932
S'child:NP6'
p4933
sS'af'
p4934
S'\xe0\xa4\x94\xe0\xa4\xb0,avy,,,,,,'
p4935
ssbsg1630
I00
sg1633
I00
sg1644
Nsg1631
Nsg200
I10
sg186
I3
sg1914
Nsg1642
Nsg1915
S'QF'
p4936
sg305
(issf_api
FeatureSet
p4937
(dp4938
g308
(dp4939
S'posn'
p4940
S'210'
p4941
sS'name'
p4942
S'\xe0\xa4\x94\xe0\xa4\xb02'
p4943
sS'af'
p4944
S'\xe0\xa4\x94\xe0\xa4\xb0,avy,,,,,,'
p4945
ssbsg1651
I00
sba(issf_api
Word
p4946
(dp4947
g1897
I00
sg1898
V\u091c\u093e\u0928\u0915\u093e\u0930\u0940
p4948
sg1900
(issf_api
FeatureSet
p4949
(dp4950
g308
(dp4951
S'posn'
p4952
S'220'
p4953
sS'name'
p4954
S'\xe0\xa4\x9c\xe0\xa4\xbe\xe0\xa4\xa8\xe0\xa4\x95\xe0\xa4\xbe\xe0\xa4\xb0\xe0\xa5\x80'
p4955
sS'af'
p4956
S'\xe0\xa4\x9c\xe0\xa4\xbe\xe0\xa4\xa8\xe0\xa4\x95\xe0\xa4\xbe\xe0\xa4\xb0\xe0\xa5\x80,n,f,sg,3,d,0,0'
p4957
sS'chunkid'
p4958
S'NP6'
p4959
sS'drel'
p4960
S'k2:\xe0\xa4\x9c\xe0\xa5\x81\xe0\xa4\x9f\xe0\xa4\xbe\xe0\xa4\xa8\xe0\xa5\x87'
p4961
sS'chunktype'
p4962
S'head:NP6'
p4963
ssbsg1630
I00
sg1633
I00
sg1644
Nsg1631
Nsg200
I10
sg186
I3
sg1914
Nsg1642
Nsg1915
S'NN'
p4964
sg305
(issf_api
FeatureSet
p4965
(dp4966
g308
(dp4967
S'posn'
p4968
S'220'
p4969
sS'name'
p4970
S'\xe0\xa4\x9c\xe0\xa4\xbe\xe0\xa4\xa8\xe0\xa4\x95\xe0\xa4\xbe\xe0\xa4\xb0\xe0\xa5\x80'
p4971
sS'af'
p4972
S'\xe0\xa4\x9c\xe0\xa4\xbe\xe0\xa4\xa8\xe0\xa4\x95\xe0\xa4\xbe\xe0\xa4\xb0\xe0\xa5\x80,n,f,sg,3,d,0,0'
p4973
ssbsg1651
I00
sba(issf_api
Word
p4974
(dp4975
g1897
I00
sg1898
V\u091c\u0941\u091f\u093e\u0928\u0947
p4976
sg1900
(issf_api
FeatureSet
p4977
(dp4978
g308
(dp4979
S'posn'
p4980
S'230'
p4981
sS'name'
p4982
S'\xe0\xa4\x9c\xe0\xa5\x81\xe0\xa4\x9f\xe0\xa4\xbe\xe0\xa4\xa8\xe0\xa5\x87'
p4983
sS'af'
p4984
S'\xe0\xa4\x9c\xe0\xa5\x81\xe0\xa4\x9f\xe0\xa4\xbe,v,any,any,any,o,\xe0\xa4\xa8\xe0\xa4\xbe_\xe0\xa4\x95\xe0\xa5\x87_\xe0\xa4\xb2\xe0\xa4\xbf\xe0\xa4\x8f,nA'
p4985
sS'chunkid'
p4986
S'VGNN2'
p4987
sS'drel'
p4988
S'rt:\xe0\xa4\xb9\xe0\xa5\x88'
p4989
sS'vpos'
p4990
S'tam_2_3'
p4991
sS'chunktype'
p4992
S'head:VGNN2'
p4993
ssbsg1630
I00
sg1633
I00
sg1644
Nsg1631
Nsg200
I11
sg186
I3
sg1914
Nsg1642
Nsg1915
S'VM'
p4994
sg305
(issf_api
FeatureSet
p4995
(dp4996
g308
(dp4997
S'posn'
p4998
S'230'
p4999
sS'name'
p5000
S'\xe0\xa4\x9c\xe0\xa5\x81\xe0\xa4\x9f\xe0\xa4\xbe\xe0\xa4\xa8\xe0\xa5\x87'
p5001
sS'af'
p5002
S'\xe0\xa4\x9c\xe0\xa5\x81\xe0\xa4\x9f\xe0\xa4\xbe,v,any,any,any,o,\xe0\xa4\xa8\xe0\xa4\xbe,nA'
p5003
ssbsg1651
I00
sba(issf_api
Word
p5004
(dp5005
g1897
I00
sg1898
V\u0915\u0947
p5006
sg1900
(issf_api
FeatureSet
p5007
(dp5008
g308
(dp5009
S'posn'
p5010
S'240'
p5011
sS'name'
p5012
S'\xe0\xa4\x95\xe0\xa5\x873'
p5013
sS'drel'
p5014
S'lwg__psp:\xe0\xa4\x9c\xe0\xa5\x81\xe0\xa4\x9f\xe0\xa4\xbe\xe0\xa4\xa8\xe0\xa5\x87'
p5015
sS'chunktype'
p5016
S'child:VGNN2'
p5017
sS'af'
p5018
S'\xe0\xa4\x95\xe0\xa5\x87,psp,,,,,,'
p5019
ssbsg1630
I00
sg1633
I00
sg1644
Nsg1631
Nsg200
I11
sg186
I3
sg1914
Nsg1642
Nsg1915
S'PSP'
p5020
sg305
(issf_api
FeatureSet
p5021
(dp5022
g308
(dp5023
S'posn'
p5024
S'240'
p5025
sS'name'
p5026
S'\xe0\xa4\x95\xe0\xa5\x873'
p5027
sS'af'
p5028
S'\xe0\xa4\x95\xe0\xa5\x87,psp,,,,,,'
p5029
ssbsg1651
I00
sba(issf_api
Word
p5030
(dp5031
g1897
I00
sg1898
V\u0932\u093f\u090f
p5032
sg1900
(issf_api
FeatureSet
p5033
(dp5034
g308
(dp5035
S'posn'
p5036
S'250'
p5037
sS'name'
p5038
S'\xe0\xa4\xb2\xe0\xa4\xbf\xe0\xa4\x8f'
p5039
sS'drel'
p5040
S'lwg__psp:\xe0\xa4\x9c\xe0\xa5\x81\xe0\xa4\x9f\xe0\xa4\xbe\xe0\xa4\xa8\xe0\xa5\x87'
p5041
sS'chunktype'
p5042
S'child:VGNN2'
p5043
sS'af'
p5044
S'\xe0\xa4\xb2\xe0\xa4\xbf\xe0\xa4\x8f,psp,,,,,,'
p5045
ssbsg1630
I00
sg1633
I00
sg1644
Nsg1631
Nsg200
I11
sg186
I3
sg1914
Nsg1642
Nsg1915
S'PSP'
p5046
sg305
(issf_api
FeatureSet
p5047
(dp5048
g308
(dp5049
S'posn'
p5050
S'250'
p5051
sS'name'
p5052
S'\xe0\xa4\xb2\xe0\xa4\xbf\xe0\xa4\x8f'
p5053
sS'af'
p5054
S'\xe0\xa4\xb2\xe0\xa4\xbf\xe0\xa4\x8f,psp,,,,,,'
p5055
ssbsg1651
I00
sba(issf_api
Word
p5056
(dp5057
g1897
I00
sg1898
V\u0917\u0948\u0902\u0917\u0938\u094d\u091f\u0930
p5058
sg1900
(issf_api
FeatureSet
p5059
(dp5060
g308
(dp5061
S'posn'
p5062
S'260'
p5063
sS'name'
p5064
S'\xe0\xa4\x97\xe0\xa5\x88\xe0\xa4\x82\xe0\xa4\x97\xe0\xa4\xb8\xe0\xa5\x8d\xe0\xa4\x9f\xe0\xa4\xb0'
p5065
sS'af'
p5066
S'\xe0\xa4\x97\xe0\xa5\x88\xe0\xa4\x82\xe0\xa4\x97\xe0\xa4\xb8\xe0\xa5\x8d\xe0\xa4\x9f\xe0\xa4\xb0,n,m,sg,3,o,0_\xe0\xa4\x95\xe0\xa4\xbe,0'
p5067
sS'chunkid'
p5068
S'NP7'
p5069
sS'drel'
p5070
S'r6:\xe0\xa4\xa1\xe0\xa4\xbf\xe0\xa4\x9f\xe0\xa5\x87\xe0\xa4\x95\xe0\xa5\x8d\xe0\xa4\x9f\xe0\xa4\xb0'
p5071
sS'vpos'
p5072
S'vib_2'
p5073
sS'chunktype'
p5074
S'head:NP7'
p5075
ssbsg1630
I00
sg1633
I00
sg1644
Nsg1631
Nsg200
I12
sg186
I3
sg1914
Nsg1642
Nsg1915
S'NN'
p5076
sg305
(issf_api
FeatureSet
p5077
(dp5078
g308
(dp5079
S'posn'
p5080
S'260'
p5081
sS'name'
p5082
S'\xe0\xa4\x97\xe0\xa5\x88\xe0\xa4\x82\xe0\xa4\x97\xe0\xa4\xb8\xe0\xa5\x8d\xe0\xa4\x9f\xe0\xa4\xb0'
p5083
sS'af'
p5084
S'\xe0\xa4\x97\xe0\xa5\x88\xe0\xa4\x82\xe0\xa4\x97\xe0\xa4\xb8\xe0\xa5\x8d\xe0\xa4\x9f\xe0\xa4\xb0,n,m,sg,3,o,0,0'
p5085
ssbsg1651
I00
sba(issf_api
Word
p5086
(dp5087
g1897
I00
sg1898
V\u0915\u093e
p5088
sg1900
(issf_api
FeatureSet
p5089
(dp5090
g308
(dp5091
S'posn'
p5092
S'270'
p5093
sS'name'
p5094
S'\xe0\xa4\x95\xe0\xa4\xbe'
p5095
sS'drel'
p5096
S'lwg__psp:\xe0\xa4\x97\xe0\xa5\x88\xe0\xa4\x82\xe0\xa4\x97\xe0\xa4\xb8\xe0\xa5\x8d\xe0\xa4\x9f\xe0\xa4\xb0'
p5097
sS'chunktype'
p5098
S'child:NP7'
p5099
sS'af'
p5100
S'\xe0\xa4\x95\xe0\xa4\xbe,psp,m,sg,,d,,'
p5101
ssbsg1630
I00
sg1633
I00
sg1644
Nsg1631
Nsg200
I12
sg186
I3
sg1914
Nsg1642
Nsg1915
S'PSP'
p5102
sg305
(issf_api
FeatureSet
p5103
(dp5104
g308
(dp5105
S'posn'
p5106
S'270'
p5107
sS'name'
p5108
S'\xe0\xa4\x95\xe0\xa4\xbe'
p5109
sS'af'
p5110
S'\xe0\xa4\x95\xe0\xa4\xbe,psp,m,sg,,d,,'
p5111
ssbsg1651
I00
sba(issf_api
Word
p5112
(dp5113
g1897
I00
sg1898
V\u0932\u093e\u0907
p5114
sg1900
(issf_api
FeatureSet
p5115
(dp5116
g308
(dp5117
S'posn'
p5118
S'280'
p5119
sS'name'
p5120
S'\xe0\xa4\xb2\xe0\xa4\xbe\xe0\xa4\x87'
p5121
sS'drel'
p5122
S'pof__cn:\xe0\xa4\xa1\xe0\xa4\xbf\xe0\xa4\x9f\xe0\xa5\x87\xe0\xa4\x95\xe0\xa5\x8d\xe0\xa4\x9f\xe0\xa4\xb0'
p5123
sS'chunktype'
p5124
S'child:NP8'
p5125
sS'af'
p5126
S'\xe0\xa4\xb2\xe0\xa4\xbe\xe0\xa4\x87,n,m,sg,3,d,0,0'
p5127
ssbsg1630
I00
sg1633
I00
sg1644
Nsg1631
Nsg200
I13
sg186
I3
sg1914
Nsg1642
Nsg1915
S'NNC'
p5128
sg305
(issf_api
FeatureSet
p5129
(dp5130
g308
(dp5131
S'posn'
p5132
S'280'
p5133
sS'name'
p5134
S'\xe0\xa4\xb2\xe0\xa4\xbe\xe0\xa4\x87'
p5135
sS'af'
p5136
S'\xe0\xa4\xb2\xe0\xa4\xbe\xe0\xa4\x87,n,m,sg,3,d,0,0'
p5137
ssbsg1651
I00
sba(issf_api
Word
p5138
(dp5139
g1897
I00
sg1898
V-
sg1900
(issf_api
FeatureSet
p5140
(dp5141
g308
(dp5142
S'posn'
p5143
S'290'
p5144
sS'name'
p5145
S'-'
sS'drel'
p5146
S'pof__cn:\xe0\xa4\xa1\xe0\xa4\xbf\xe0\xa4\x9f\xe0\xa5\x87\xe0\xa4\x95\xe0\xa5\x8d\xe0\xa4\x9f\xe0\xa4\xb0'
p5147
sS'chunktype'
p5148
S'child:NP8'
p5149
sS'af'
p5150
S'-,punc,,,,,,'
p5151
ssbsg1630
I00
sg1633
I00
sg1644
Nsg1631
Nsg200
I13
sg186
I3
sg1914
Nsg1642
Nsg1915
S'SYM'
p5152
sg305
(issf_api
FeatureSet
p5153
(dp5154
g308
(dp5155
S'posn'
p5156
S'290'
p5157
sS'name'
p5158
S'-'
sS'af'
p5159
S'-,punc,,,,,,'
p5160
ssbsg1651
I00
sba(issf_api
Word
p5161
(dp5162
g1897
I00
sg1898
V\u0921\u093f\u091f\u0947\u0915\u094d\u091f\u0930
p5163
sg1900
(issf_api
FeatureSet
p5164
(dp5165
g308
(dp5166
S'posn'
p5167
S'300'
p5168
sS'name'
p5169
S'\xe0\xa4\xa1\xe0\xa4\xbf\xe0\xa4\x9f\xe0\xa5\x87\xe0\xa4\x95\xe0\xa5\x8d\xe0\xa4\x9f\xe0\xa4\xb0'
p5170
sS'af'
p5171
S'\xe0\xa4\xa1\xe0\xa4\xbf\xe0\xa4\x9f\xe0\xa5\x87\xe0\xa4\x95\xe0\xa5\x8d\xe0\xa4\x9f\xe0\xa4\xb0,n,m,sg,3,d,0,0'
p5172
sS'chunkid'
p5173
S'NP8'
p5174
sS'drel'
p5175
S'ccof:\xe0\xa4\x94\xe0\xa4\xb03'
p5176
sS'chunktype'
p5177
S'head:NP8'
p5178
ssbsg1630
I00
sg1633
I00
sg1644
Nsg1631
Nsg200
I13
sg186
I3
sg1914
Nsg1642
Nsg1915
S'NN'
p5179
sg305
(issf_api
FeatureSet
p5180
(dp5181
g308
(dp5182
S'posn'
p5183
S'300'
p5184
sS'name'
p5185
S'\xe0\xa4\xa1\xe0\xa4\xbf\xe0\xa4\x9f\xe0\xa5\x87\xe0\xa4\x95\xe0\xa5\x8d\xe0\xa4\x9f\xe0\xa4\xb0'
p5186
sS'af'
p5187
S'\xe0\xa4\xa1\xe0\xa4\xbf\xe0\xa4\x9f\xe0\xa5\x87\xe0\xa4\x95\xe0\xa5\x8d\xe0\xa4\x9f\xe0\xa4\xb0,n,m,sg,3,d,0,0'
p5188
ssbsg1651
I00
sba(issf_api
Word
p5189
(dp5190
g1897
I00
sg1898
V,
sg1900
(issf_api
FeatureSet
p5191
(dp5192
g308
(dp5193
S'posn'
p5194
S'310'
p5195
sS'name'
p5196
S','
sS'drel'
p5197
S'rsym:\xe0\xa4\xa1\xe0\xa4\xbf\xe0\xa4\x9f\xe0\xa5\x87\xe0\xa4\x95\xe0\xa5\x8d\xe0\xa4\x9f\xe0\xa4\xb0'
p5198
sS'chunktype'
p5199
S'child:NP8'
p5200
sS'af'
p5201
S'COMMA,punc,,,,,,'
p5202
ssbsg1630
I00
sg1633
I00
sg1644
Nsg1631
Nsg200
I13
sg186
I3
sg1914
Nsg1642
Nsg1915
S'SYM'
p5203
sg305
(issf_api
FeatureSet
p5204
(dp5205
g308
(dp5206
S'posn'
p5207
S'310'
p5208
sS'name'
p5209
S','
sS'af'
p5210
S'COMMA,punc,,,,,,'
p5211
ssbsg1651
I00
sba(issf_api
Word
p5212
(dp5213
g1897
I00
sg1898
V\u092c\u094d\u0930\u0947\u0928
p5214
sg1900
(issf_api
FeatureSet
p5215
(dp5216
g308
(dp5217
S'posn'
p5218
S'320'
p5219
sS'name'
p5220
S'\xe0\xa4\xac\xe0\xa5\x8d\xe0\xa4\xb0\xe0\xa5\x87\xe0\xa4\xa8'
p5221
sS'drel'
p5222
S'pof__cn:\xe0\xa4\xae\xe0\xa5\x88\xe0\xa4\xaa\xe0\xa4\xbf\xe0\xa4\x82\xe0\xa4\x97'
p5223
sS'chunktype'
p5224
S'child:NP9'
p5225
sS'af'
p5226
S'\xe0\xa4\xac\xe0\xa5\x8d\xe0\xa4\xb0\xe0\xa5\x87\xe0\xa4\xa8,n,m,sg,3,d,0,0'
p5227
ssbsg1630
I00
sg1633
I00
sg1644
Nsg1631
Nsg200
I14
sg186
I3
sg1914
Nsg1642
Nsg1915
S'NNC'
p5228
sg305
(issf_api
FeatureSet
p5229
(dp5230
g308
(dp5231
S'posn'
p5232
S'320'
p5233
sS'name'
p5234
S'\xe0\xa4\xac\xe0\xa5\x8d\xe0\xa4\xb0\xe0\xa5\x87\xe0\xa4\xa8'
p5235
sS'af'
p5236
S'\xe0\xa4\xac\xe0\xa5\x8d\xe0\xa4\xb0\xe0\xa5\x87\xe0\xa4\xa8,n,m,sg,3,d,0,0'
p5237
ssbsg1651
I00
sba(issf_api
Word
p5238
(dp5239
g1897
I00
sg1898
V\u092e\u0948\u092a\u093f\u0902\u0917
p5240
sg1900
(issf_api
FeatureSet
p5241
(dp5242
g308
(dp5243
S'posn'
p5244
S'330'
p5245
sS'name'
p5246
S'\xe0\xa4\xae\xe0\xa5\x88\xe0\xa4\xaa\xe0\xa4\xbf\xe0\xa4\x82\xe0\xa4\x97'
p5247
sS'af'
p5248
S'\xe0\xa4\xae\xe0\xa5\x88\xe0\xa4\xaa\xe0\xa4\xbf\xe0\xa4\x82\xe0\xa4\x97,n,f,sg,3,d,0,0'
p5249
sS'chunkid'
p5250
S'NP9'
p5251
sS'drel'
p5252
S'ccof:\xe0\xa4\x94\xe0\xa4\xb03'
p5253
sS'chunktype'
p5254
S'head:NP9'
p5255
ssbsg1630
I00
sg1633
I00
sg1644
Nsg1631
Nsg200
I14
sg186
I3
sg1914
Nsg1642
Nsg1915
S'NN'
p5256
sg305
(issf_api
FeatureSet
p5257
(dp5258
g308
(dp5259
S'posn'
p5260
S'330'
p5261
sS'name'
p5262
S'\xe0\xa4\xae\xe0\xa5\x88\xe0\xa4\xaa\xe0\xa4\xbf\xe0\xa4\x82\xe0\xa4\x97'
p5263
sS'af'
p5264
S'\xe0\xa4\xae\xe0\xa5\x88\xe0\xa4\xaa\xe0\xa4\xbf\xe0\xa4\x82\xe0\xa4\x97,n,f,sg,3,d,0,0'
p5265
ssbsg1651
I00
sba(issf_api
Word
p5266
(dp5267
g1897
I00
sg1898
V\u0914\u0930
p5268
sg1900
(issf_api
FeatureSet
p5269
(dp5270
g308
(dp5271
S'posn'
p5272
S'340'
p5273
sS'name'
p5274
S'\xe0\xa4\x94\xe0\xa4\xb03'
p5275
sS'af'
p5276
S'\xe0\xa4\x94\xe0\xa4\xb0,avy,,,,,,'
p5277
sS'chunkid'
p5278
S'CCP3'
p5279
sS'drel'
p5280
S'pof:\xe0\xa4\x95\xe0\xa4\xb0\xe0\xa4\xa8\xe0\xa5\x87'
p5281
sS'chunktype'
p5282
S'head:CCP3'
p5283
ssbsg1630
I00
sg1633
I00
sg1644
Nsg1631
Nsg200
I15
sg186
I3
sg1914
Nsg1642
Nsg1915
S'CC'
p5284
sg305
(issf_api
FeatureSet
p5285
(dp5286
g308
(dp5287
S'posn'
p5288
S'340'
p5289
sS'name'
p5290
S'\xe0\xa4\x94\xe0\xa4\xb03'
p5291
sS'af'
p5292
S'\xe0\xa4\x94\xe0\xa4\xb0,avy,,,,,,'
p5293
ssbsg1651
I00
sba(issf_api
Word
p5294
(dp5295
g1897
I00
sg1898
V\u0928\u093e\u0930\u0915\u094b
p5296
sg1900
(issf_api
FeatureSet
p5297
(dp5298
g308
(dp5299
S'posn'
p5300
S'350'
p5301
sS'name'
p5302
S'\xe0\xa4\xa8\xe0\xa4\xbe\xe0\xa4\xb0\xe0\xa4\x95\xe0\xa5\x8b'
p5303
sS'drel'
p5304
S'pof__cn:\xe0\xa4\x9f\xe0\xa5\x87\xe0\xa4\xb8\xe0\xa5\x8d\xe0\xa4\x9f'
p5305
sS'chunktype'
p5306
S'child:NP10'
p5307
sS'af'
p5308
S'\xe0\xa4\xa8\xe0\xa4\xbe\xe0\xa4\xb0\xe0\xa4\x95\xe0\xa5\x8b,n,m,sg,3,d,0,0'
p5309
ssbsg1630
I00
sg1633
I00
sg1644
Nsg1631
Nsg200
I16
sg186
I3
sg1914
Nsg1642
Nsg1915
S'NNPC'
p5310
sg305
(issf_api
FeatureSet
p5311
(dp5312
g308
(dp5313
S'posn'
p5314
S'350'
p5315
sS'name'
p5316
S'\xe0\xa4\xa8\xe0\xa4\xbe\xe0\xa4\xb0\xe0\xa4\x95\xe0\xa5\x8b'
p5317
sS'af'
p5318
S'\xe0\xa4\xa8\xe0\xa4\xbe\xe0\xa4\xb0\xe0\xa4\x95\xe0\xa5\x8b,n,m,sg,3,d,0,0'
p5319
ssbsg1651
I00
sba(issf_api
Word
p5320
(dp5321
g1897
I00
sg1898
V\u090f\u0928\u093e\u0932\u0947\u0938\u093f\u0938
p5322
sg1900
(issf_api
FeatureSet
p5323
(dp5324
g308
(dp5325
S'posn'
p5326
S'360'
p5327
sS'name'
p5328
S'\xe0\xa4\x8f\xe0\xa4\xa8\xe0\xa4\xbe\xe0\xa4\xb2\xe0\xa5\x87\xe0\xa4\xb8\xe0\xa4\xbf\xe0\xa4\xb8'
p5329
sS'drel'
p5330
S'pof__cn:\xe0\xa4\x9f\xe0\xa5\x87\xe0\xa4\xb8\xe0\xa5\x8d\xe0\xa4\x9f'
p5331
sS'chunktype'
p5332
S'child:NP10'
p5333
sS'af'
p5334
S'\xe0\xa4\x8f\xe0\xa4\xa8\xe0\xa4\xbe\xe0\xa4\xb2\xe0\xa5\x87\xe0\xa4\xb8\xe0\xa4\xbf\xe0\xa4\xb8,n,m,sg,3,d,0,0'
p5335
ssbsg1630
I00
sg1633
I00
sg1644
Nsg1631
Nsg200
I16
sg186
I3
sg1914
Nsg1642
Nsg1915
S'NNPC'
p5336
sg305
(issf_api
FeatureSet
p5337
(dp5338
g308
(dp5339
S'posn'
p5340
S'360'
p5341
sS'name'
p5342
S'\xe0\xa4\x8f\xe0\xa4\xa8\xe0\xa4\xbe\xe0\xa4\xb2\xe0\xa5\x87\xe0\xa4\xb8\xe0\xa4\xbf\xe0\xa4\xb8'
p5343
sS'af'
p5344
S'\xe0\xa4\x8f\xe0\xa4\xa8\xe0\xa4\xbe\xe0\xa4\xb2\xe0\xa5\x87\xe0\xa4\xb8\xe0\xa4\xbf\xe0\xa4\xb8,n,m,sg,3,d,0,0'
p5345
ssbsg1651
I00
sba(issf_api
Word
p5346
(dp5347
g1897
I00
sg1898
V\u091f\u0947\u0938\u094d\u091f
p5348
sg1900
(issf_api
FeatureSet
p5349
(dp5350
g308
(dp5351
S'posn'
p5352
S'370'
p5353
sS'name'
p5354
S'\xe0\xa4\x9f\xe0\xa5\x87\xe0\xa4\xb8\xe0\xa5\x8d\xe0\xa4\x9f'
p5355
sS'af'
p5356
S'\xe0\xa4\x9f\xe0\xa5\x87\xe0\xa4\xb8\xe0\xa5\x8d\xe0\xa4\x9f,n,m,sg,3,d,0,0'
p5357
sS'chunkid'
p5358
S'NP10'
p5359
sS'drel'
p5360
S'ccof:\xe0\xa4\x94\xe0\xa4\xb03'
p5361
sS'chunktype'
p5362
S'head:NP10'
p5363
ssbsg1630
I00
sg1633
I00
sg1644
Nsg1631
Nsg200
I16
sg186
I3
sg1914
Nsg1642
Nsg1915
S'NNP'
p5364
sg305
(issf_api
FeatureSet
p5365
(dp5366
g308
(dp5367
S'posn'
p5368
S'370'
p5369
sS'name'
p5370
S'\xe0\xa4\x9f\xe0\xa5\x87\xe0\xa4\xb8\xe0\xa5\x8d\xe0\xa4\x9f'
p5371
sS'af'
p5372
S'\xe0\xa4\x9f\xe0\xa5\x87\xe0\xa4\xb8\xe0\xa5\x8d\xe0\xa4\x9f,n,m,sg,3,d,0,0'
p5373
ssbsg1651
I00
sba(issf_api
Word
p5374
(dp5375
g1897
I00
sg1898
V\u0915\u0930\u0928\u0947
p5376
sg1900
(issf_api
FeatureSet
p5377
(dp5378
g308
(dp5379
S'posn'
p5380
S'380'
p5381
sS'name'
p5382
S'\xe0\xa4\x95\xe0\xa4\xb0\xe0\xa4\xa8\xe0\xa5\x87'
p5383
sS'af'
p5384
S'\xe0\xa4\x95\xe0\xa4\xb0,v,any,sg,any,o,\xe0\xa4\xa8\xe0\xa4\xbe_\xe0\xa4\x95\xe0\xa4\xbe,nA'
p5385
sS'chunkid'
p5386
S'VGNN3'
p5387
sS'drel'
p5388
S'r6:\xe0\xa4\xae\xe0\xa4\x82\xe0\xa4\xb6\xe0\xa4\xbe'
p5389
sS'vpos'
p5390
S'tam_2'
p5391
sS'chunktype'
p5392
S'head:VGNN3'
p5393
ssbsg1630
I00
sg1633
I00
sg1644
Nsg1631
Nsg200
I17
sg186
I3
sg1914
Nsg1642
Nsg1915
S'VM'
p5394
sg305
(issf_api
FeatureSet
p5395
(dp5396
g308
(dp5397
S'posn'
p5398
S'380'
p5399
sS'name'
p5400
S'\xe0\xa4\x95\xe0\xa4\xb0\xe0\xa4\xa8\xe0\xa5\x87'
p5401
sS'af'
p5402
S'\xe0\xa4\x95\xe0\xa4\xb0,v,any,any,any,o,\xe0\xa4\xa8\xe0\xa4\xbe,nA'
p5403
ssbsg1651
I00
sba(issf_api
Word
p5404
(dp5405
g1897
I00
sg1898
V\u0915\u0940
p5406
sg1900
(issf_api
FeatureSet
p5407
(dp5408
g308
(dp5409
S'posn'
p5410
S'390'
p5411
sS'name'
p5412
S'\xe0\xa4\x95\xe0\xa5\x802'
p5413
sS'drel'
p5414
S'lwg__psp:\xe0\xa4\x95\xe0\xa4\xb0\xe0\xa4\xa8\xe0\xa5\x87'
p5415
sS'chunktype'
p5416
S'child:VGNN3'
p5417
sS'af'
p5418
S'\xe0\xa4\x95\xe0\xa4\xbe,psp,f,sg,,d,,'
p5419
ssbsg1630
I00
sg1633
I00
sg1644
Nsg1631
Nsg200
I17
sg186
I3
sg1914
Nsg1642
Nsg1915
S'PSP'
p5420
sg305
(issf_api
FeatureSet
p5421
(dp5422
g308
(dp5423
S'posn'
p5424
S'390'
p5425
sS'name'
p5426
S'\xe0\xa4\x95\xe0\xa5\x802'
p5427
sS'af'
p5428
S'\xe0\xa4\x95\xe0\xa4\xbe,psp,f,sg,,d,,'
p5429
ssbsg1651
I00
sba(issf_api
Word
p5430
(dp5431
g1897
I00
sg1898
V\u092e\u0902\u0936\u093e
p5432
sg1900
(issf_api
FeatureSet
p5433
(dp5434
g308
(dp5435
S'posn'
p5436
S'400'
p5437
sS'name'
p5438
S'\xe0\xa4\xae\xe0\xa4\x82\xe0\xa4\xb6\xe0\xa4\xbe'
p5439
sS'af'
p5440
S'\xe0\xa4\xae\xe0\xa4\x82\xe0\xa4\xb6\xe0\xa4\xbe,n,f,sg,3,d,0,0'
p5441
sS'chunkid'
p5442
S'NP11'
p5443
sS'drel'
p5444
S'k1:\xe0\xa4\xb9\xe0\xa5\x88'
p5445
sS'chunktype'
p5446
S'head:NP11'
p5447
ssbsg1630
I00
sg1633
I00
sg1644
Nsg1631
Nsg200
I18
sg186
I3
sg1914
Nsg1642
Nsg1915
S'NN'
p5448
sg305
(issf_api
FeatureSet
p5449
(dp5450
g308
(dp5451
S'posn'
p5452
S'400'
p5453
sS'name'
p5454
S'\xe0\xa4\xae\xe0\xa4\x82\xe0\xa4\xb6\xe0\xa4\xbe'
p5455
sS'af'
p5456
S'\xe0\xa4\xae\xe0\xa4\x82\xe0\xa4\xb6\xe0\xa4\xbe,n,f,sg,3,d,0,0'
p5457
ssbsg1651
I00
sba(issf_api
Word
p5458
(dp5459
g1897
I00
sg1898
V\u0939\u0948
p5460
sg1900
(issf_api
FeatureSet
p5461
(dp5462
g308
(dp5463
S'posn'
p5464
S'410'
p5465
sS'name'
p5466
S'\xe0\xa4\xb9\xe0\xa5\x88'
p5467
sS'af'
p5468
S'\xe0\xa4\xb9\xe0\xa5\x88,v,any,sg,3,,\xe0\xa4\xb9\xe0\xa5\x88,hE'
p5469
sS'chunkid'
p5470
S'VGF2'
p5471
sS'stype'
p5472
S'declarative'
p5473
sS'drel'
p5474
S'ccof:\xe0\xa4\x95\xe0\xa4\xbf'
p5475
sS'voicetype'
p5476
S'active'
p5477
sS'chunktype'
p5478
S'head:VGF2'
p5479
ssbsg1630
I00
sg1633
I00
sg1644
Nsg1631
Nsg200
I19
sg186
I3
sg1914
Nsg1642
Nsg1915
S'VM'
p5480
sg305
(issf_api
FeatureSet
p5481
(dp5482
g308
(dp5483
S'posn'
p5484
S'410'
p5485
sS'name'
p5486
S'\xe0\xa4\xb9\xe0\xa5\x88'
p5487
sS'af'
p5488
S'\xe0\xa4\xb9\xe0\xa5\x88,v,any,sg,3,,\xe0\xa4\xb9\xe0\xa5\x88,hE'
p5489
ssbsg1651
I00
sba(issf_api
Word
p5490
(dp5491
g1897
I00
sg1898
V\u0964
sg1900
(issf_api
FeatureSet
p5492
(dp5493
g308
(dp5494
S'posn'
p5495
S'420'
p5496
sS'name'
p5497
S'\xe0\xa5\xa4'
p5498
sS'af'
p5499
S'\xe0\xa5\xa4,punc,,,,,,'
p5500
sS'chunkid'
p5501
S'BLK'
p5502
sS'drel'
p5503
S'rsym:\xe0\xa4\x95\xe0\xa4\xb9\xe0\xa4\xbe'
p5504
sS'chunktype'
p5505
S'head:BLK'
p5506
ssbsg1630
I00
sg1633
I00
sg1644
Nsg1631
Nsg200
I20
sg186
I3
sg1914
Nsg1642
Nsg1915
S'SYM'
p5507
sg305
(issf_api
FeatureSet
p5508
(dp5509
g308
(dp5510
S'posn'
p5511
S'420'
p5512
sS'name'
p5513
S'\xe0\xa5\xa4'
p5514
sS'af'
p5515
S'\xe0\xa5\xa4,punc,,,,,,'
p5516
ssbsg1651
I00
sba(issf_api
Word
p5517
(dp5518
g1897
I00
sg1898
V\u0938\u0930\u0915\u093e\u0930\u0940
p5519
sg1900
(issf_api
FeatureSet
p5520
(dp5521
g308
(dp5522
S'posn'
p5523
S'10'
p5524
sS'name'
p5525
S'\xe0\xa4\xb8\xe0\xa4\xb0\xe0\xa4\x95\xe0\xa4\xbe\xe0\xa4\xb0\xe0\xa5\x80'
p5526
sS'drel'
p5527
S'nmod__adj:\xe0\xa4\xb5\xe0\xa4\x95\xe0\xa5\x80\xe0\xa4\xb2'
p5528
sS'chunktype'
p5529
S'child:NP'
p5530
sS'af'
p5531
S'\xe0\xa4\xb8\xe0\xa4\xb0\xe0\xa4\x95\xe0\xa4\xbe\xe0\xa4\xb0\xe0\xa5\x80,adj,any,any,,o,,'
p5532
ssbsg1630
I00
sg1633
I00
sg1644
Nsg1631
Nsg200
I0
sg186
I4
sg1914
Nsg1642
Nsg1915
S'JJ'
p5533
sg305
(issf_api
FeatureSet
p5534
(dp5535
g308
(dp5536
S'posn'
p5537
S'10'
p5538
sS'name'
p5539
S'\xe0\xa4\xb8\xe0\xa4\xb0\xe0\xa4\x95\xe0\xa4\xbe\xe0\xa4\xb0\xe0\xa5\x80'
p5540
sS'af'
p5541
S'\xe0\xa4\xb8\xe0\xa4\xb0\xe0\xa4\x95\xe0\xa4\xbe\xe0\xa4\xb0\xe0\xa5\x80,adj,any,any,,o,,'
p5542
ssbsg1651
I00
sba(issf_api
Word
p5543
(dp5544
g1897
I00
sg1898
V\u0935\u0915\u0940\u0932
p5545
sg1900
(issf_api
FeatureSet
p5546
(dp5547
g308
(dp5548
S'posn'
p5549
S'20'
p5550
sS'name'
p5551
S'\xe0\xa4\xb5\xe0\xa4\x95\xe0\xa5\x80\xe0\xa4\xb2'
p5552
sS'af'
p5553
S'\xe0\xa4\xb5\xe0\xa4\x95\xe0\xa5\x80\xe0\xa4\xb2,n,m,sg,3,o,0_\xe0\xa4\xa8\xe0\xa5\x87,0'
p5554
sS'chunkid'
p5555
S'NP'
p5556
sS'drel'
p5557
S'k1:\xe0\xa4\x95\xe0\xa4\xb9\xe0\xa4\xbe'
p5558
sS'vpos'
p5559
S'vib_3'
p5560
sS'chunktype'
p5561
S'head:NP'
p5562
ssbsg1630
I00
sg1633
I00
sg1644
Nsg1631
Nsg200
I0
sg186
I4
sg1914
Nsg1642
Nsg1915
S'NN'
p5563
sg305
(issf_api
FeatureSet
p5564
(dp5565
g308
(dp5566
S'posn'
p5567
S'20'
p5568
sS'name'
p5569
S'\xe0\xa4\xb5\xe0\xa4\x95\xe0\xa5\x80\xe0\xa4\xb2'
p5570
sS'af'
p5571
S'\xe0\xa4\xb5\xe0\xa4\x95\xe0\xa5\x80\xe0\xa4\xb2,n,m,sg,3,o,0,0'
p5572
ssbsg1651
I00
sba(issf_api
Word
p5573
(dp5574
g1897
I00
sg1898
V\u0928\u0947
p5575
sg1900
(issf_api
FeatureSet
p5576
(dp5577
g308
(dp5578
S'posn'
p5579
S'30'
p5580
sS'name'
p5581
S'\xe0\xa4\xa8\xe0\xa5\x87'
p5582
sS'drel'
p5583
S'lwg__psp:\xe0\xa4\xb5\xe0\xa4\x95\xe0\xa5\x80\xe0\xa4\xb2'
p5584
sS'chunktype'
p5585
S'child:NP'
p5586
sS'af'
p5587
S'\xe0\xa4\xa8\xe0\xa5\x87,psp,,,,,,'
p5588
ssbsg1630
I00
sg1633
I00
sg1644
Nsg1631
Nsg200
I0
sg186
I4
sg1914
Nsg1642
Nsg1915
S'PSP'
p5589
sg305
(issf_api
FeatureSet
p5590
(dp5591
g308
(dp5592
S'posn'
p5593
S'30'
p5594
sS'name'
p5595
S'\xe0\xa4\xa8\xe0\xa5\x87'
p5596
sS'af'
p5597
S'\xe0\xa4\xa8\xe0\xa5\x87,psp,,,,,,'
p5598
ssbsg1651
I00
sba(issf_api
Word
p5599
(dp5600
g1897
I00
sg1898
V\u0905\u0926\u093e\u0932\u0924
p5601
sg1900
(issf_api
FeatureSet
p5602
(dp5603
g308
(dp5604
S'posn'
p5605
S'40'
p5606
sS'name'
p5607
S'\xe0\xa4\x85\xe0\xa4\xa6\xe0\xa4\xbe\xe0\xa4\xb2\xe0\xa4\xa4'
p5608
sS'af'
p5609
S'\xe0\xa4\x85\xe0\xa4\xa6\xe0\xa4\xbe\xe0\xa4\xb2\xe0\xa4\xa4,n,f,sg,3,o,0_\xe0\xa4\xb8\xe0\xa5\x87,0'
p5610
sS'chunkid'
p5611
S'NP2'
p5612
sS'drel'
p5613
S'k4:\xe0\xa4\x95\xe0\xa4\xb9\xe0\xa4\xbe'
p5614
sS'vpos'
p5615
S'vib_2'
p5616
sS'chunktype'
p5617
S'head:NP2'
p5618
ssbsg1630
I00
sg1633
I00
sg1644
Nsg1631
Nsg200
I1
sg186
I4
sg1914
Nsg1642
Nsg1915
S'NN'
p5619
sg305
(issf_api
FeatureSet
p5620
(dp5621
g308
(dp5622
S'posn'
p5623
S'40'
p5624
sS'name'
p5625
S'\xe0\xa4\x85\xe0\xa4\xa6\xe0\xa4\xbe\xe0\xa4\xb2\xe0\xa4\xa4'
p5626
sS'af'
p5627
S'\xe0\xa4\x85\xe0\xa4\xa6\xe0\xa4\xbe\xe0\xa4\xb2\xe0\xa4\xa4,n,f,sg,3,o,0,0'
p5628
ssbsg1651
I00
sba(issf_api
Word
p5629
(dp5630
g1897
I00
sg1898
V\u0938\u0947
p5631
sg1900
(issf_api
FeatureSet
p5632
(dp5633
g308
(dp5634
S'posn'
p5635
S'50'
p5636
sS'name'
p5637
S'\xe0\xa4\xb8\xe0\xa5\x87'
p5638
sS'drel'
p5639
S'lwg__psp:\xe0\xa4\x85\xe0\xa4\xa6\xe0\xa4\xbe\xe0\xa4\xb2\xe0\xa4\xa4'
p5640
sS'chunktype'
p5641
S'child:NP2'
p5642
sS'af'
p5643
S'\xe0\xa4\xb8\xe0\xa5\x87,psp,,,,,,'
p5644
ssbsg1630
I00
sg1633
I00
sg1644
Nsg1631
Nsg200
I1
sg186
I4
sg1914
Nsg1642
Nsg1915
S'PSP'
p5645
sg305
(issf_api
FeatureSet
p5646
(dp5647
g308
(dp5648
S'posn'
p5649
S'50'
p5650
sS'name'
p5651
S'\xe0\xa4\xb8\xe0\xa5\x87'
p5652
sS'af'
p5653
S'\xe0\xa4\xb8\xe0\xa5\x87,psp,,,,,,'
p5654
ssbsg1651
I00
sba(issf_api
Word
p5655
(dp5656
g1897
I00
sg1898
V\u0915\u0939\u093e
p5657
sg1900
(issf_api
FeatureSet
p5658
(dp5659
g308
(dp5660
S'posn'
p5661
S'60'
p5662
sS'name'
p5663
S'\xe0\xa4\x95\xe0\xa4\xb9\xe0\xa4\xbe'
p5664
sS'af'
p5665
S'\xe0\xa4\x95\xe0\xa4\xb9,v,m,sg,any,,\xe0\xa4\xaf\xe0\xa4\xbe,yA'
p5666
sS'chunkid'
p5667
S'VGF'
p5668
sS'chunktype'
p5669
S'head:VGF'
p5670
sS'voicetype'
p5671
S'active'
p5672
sS'stype'
p5673
S'declarative'
p5674
ssbsg1630
I00
sg1633
I00
sg1644
Nsg1631
Nsg200
I2
sg186
I4
sg1914
Nsg1642
Nsg1915
S'VM'
p5675
sg305
(issf_api
FeatureSet
p5676
(dp5677
g308
(dp5678
S'posn'
p5679
S'60'
p5680
sS'name'
p5681
S'\xe0\xa4\x95\xe0\xa4\xb9\xe0\xa4\xbe'
p5682
sS'af'
p5683
S'\xe0\xa4\x95\xe0\xa4\xb9,v,m,sg,any,,\xe0\xa4\xaf\xe0\xa4\xbe,yA'
p5684
ssbsg1651
I00
sba(issf_api
Word
p5685
(dp5686
g1897
I00
sg1898
V\u0915\u093f
p5687
sg1900
(issf_api
FeatureSet
p5688
(dp5689
g308
(dp5690
S'posn'
p5691
S'70'
p5692
sS'name'
p5693
S'\xe0\xa4\x95\xe0\xa4\xbf'
p5694
sS'af'
p5695
S'\xe0\xa4\x95\xe0\xa4\xbf,avy,,,,,,'
p5696
sS'chunkid'
p5697
S'CCP'
p5698
sS'drel'
p5699
S'k2:\xe0\xa4\x95\xe0\xa4\xb9\xe0\xa4\xbe'
p5700
sS'chunktype'
p5701
S'head:CCP'
p5702
ssbsg1630
I00
sg1633
I00
sg1644
Nsg1631
Nsg200
I3
sg186
I4
sg1914
Nsg1642
Nsg1915
S'CC'
p5703
sg305
(issf_api
FeatureSet
p5704
(dp5705
g308
(dp5706
S'posn'
p5707
S'70'
p5708
sS'name'
p5709
S'\xe0\xa4\x95\xe0\xa4\xbf'
p5710
sS'af'
p5711
S'\xe0\xa4\x95\xe0\xa4\xbf,avy,,,,,,'
p5712
ssbsg1651
I00
sba(issf_api
Word
p5713
(dp5714
g1897
I00
sg1898
V\u0938\u0932\u0947\u092e
p5715
sg1900
(issf_api
FeatureSet
p5716
(dp5717
g308
(dp5718
S'posn'
p5719
S'80'
p5720
sS'name'
p5721
S'\xe0\xa4\xb8\xe0\xa4\xb2\xe0\xa5\x87\xe0\xa4\xae'
p5722
sS'af'
p5723
S'\xe0\xa4\xb8\xe0\xa4\xb2\xe0\xa5\x87\xe0\xa4\xae,n,m,sg,3,o,0_\xe0\xa4\xa8\xe0\xa5\x87,0'
p5724
sS'chunkid'
p5725
S'NP3'
p5726
sS'drel'
p5727
S'k1:\xe0\xa4\x95\xe0\xa4\xbf\xe0\xa4\xaf\xe0\xa4\xbe'
p5728
sS'vpos'
p5729
S'vib_2'
p5730
sS'chunktype'
p5731
S'head:NP3'
p5732
ssbsg1630
I00
sg1633
I00
sg1644
Nsg1631
Nsg200
I4
sg186
I4
sg1914
Nsg1642
Nsg1915
S'NNP'
p5733
sg305
(issf_api
FeatureSet
p5734
(dp5735
g308
(dp5736
S'posn'
p5737
S'80'
p5738
sS'name'
p5739
S'\xe0\xa4\xb8\xe0\xa4\xb2\xe0\xa5\x87\xe0\xa4\xae'
p5740
sS'af'
p5741
S'\xe0\xa4\xb8\xe0\xa4\xb2\xe0\xa5\x87\xe0\xa4\xae,n,m,sg,3,o,0,0'
p5742
ssbsg1651
I00
sba(issf_api
Word
p5743
(dp5744
g1897
I00
sg1898
V\u0928\u0947
p5745
sg1900
(issf_api
FeatureSet
p5746
(dp5747
g308
(dp5748
S'posn'
p5749
S'90'
p5750
sS'name'
p5751
S'\xe0\xa4\xa8\xe0\xa5\x872'
p5752
sS'drel'
p5753
S'lwg__psp:\xe0\xa4\xb8\xe0\xa4\xb2\xe0\xa5\x87\xe0\xa4\xae'
p5754
sS'chunktype'
p5755
S'child:NP3'
p5756
sS'af'
p5757
S'\xe0\xa4\xa8\xe0\xa5\x87,psp,,,,,,'
p5758
ssbsg1630
I00
sg1633
I00
sg1644
Nsg1631
Nsg200
I4
sg186
I4
sg1914
Nsg1642
Nsg1915
S'PSP'
p5759
sg305
(issf_api
FeatureSet
p5760
(dp5761
g308
(dp5762
S'posn'
p5763
S'90'
p5764
sS'name'
p5765
S'\xe0\xa4\xa8\xe0\xa5\x872'
p5766
sS'af'
p5767
S'\xe0\xa4\xa8\xe0\xa5\x87,psp,,,,,,'
p5768
ssbsg1651
I00
sba(issf_api
Word
p5769
(dp5770
g1897
I00
sg1898
V\u092b\u093f\u0930\u094c\u0924\u0940
p5771
sg1900
(issf_api
FeatureSet
p5772
(dp5773
g308
(dp5774
S'posn'
p5775
S'100'
p5776
sS'name'
p5777
S'\xe0\xa4\xab\xe0\xa4\xbf\xe0\xa4\xb0\xe0\xa5\x8c\xe0\xa4\xa4\xe0\xa5\x80'
p5778
sS'af'
p5779
S'\xe0\xa4\xab\xe0\xa4\xbf\xe0\xa4\xb0\xe0\xa5\x8c\xe0\xa4\xa4\xe0\xa5\x80,n,f,sg,3,o,0,0'
p5780
sS'chunkid'
p5781
S'NP4'
p5782
sS'drel'
p5783
S'ccof:\xe0\xa4\x94\xe0\xa4\xb0'
p5784
sS'chunktype'
p5785
S'head:NP4'
p5786
ssbsg1630
I00
sg1633
I00
sg1644
Nsg1631
Nsg200
I5
sg186
I4
sg1914
Nsg1642
Nsg1915
S'NN'
p5787
sg305
(issf_api
FeatureSet
p5788
(dp5789
g308
(dp5790
S'posn'
p5791
S'100'
p5792
sS'name'
p5793
S'\xe0\xa4\xab\xe0\xa4\xbf\xe0\xa4\xb0\xe0\xa5\x8c\xe0\xa4\xa4\xe0\xa5\x80'
p5794
sS'af'
p5795
S'\xe0\xa4\xab\xe0\xa4\xbf\xe0\xa4\xb0\xe0\xa5\x8c\xe0\xa4\xa4\xe0\xa5\x80,n,f,sg,3,o,0,0'
p5796
ssbsg1651
I00
sba(issf_api
Word
p5797
(dp5798
g1897
I00
sg1898
V\u0914\u0930
p5799
sg1900
(issf_api
FeatureSet
p5800
(dp5801
g308
(dp5802
S'posn'
p5803
S'110'
p5804
sS'name'
p5805
S'\xe0\xa4\x94\xe0\xa4\xb0'
p5806
sS'af'
p5807
S'\xe0\xa4\x94\xe0\xa4\xb0,avy,,,,,,'
p5808
sS'chunkid'
p5809
S'CCP2'
p5810
sS'drel'
p5811
S'k7:\xe0\xa4\xb0\xe0\xa4\xb9\xe0\xa5\x87'
p5812
sS'chunktype'
p5813
S'head:CCP2'
p5814
ssbsg1630
I00
sg1633
I00
sg1644
Nsg1631
Nsg200
I6
sg186
I4
sg1914
Nsg1642
Nsg1915
S'CC'
p5815
sg305
(issf_api
FeatureSet
p5816
(dp5817
g308
(dp5818
S'posn'
p5819
S'110'
p5820
sS'name'
p5821
S'\xe0\xa4\x94\xe0\xa4\xb0'
p5822
sS'af'
p5823
S'\xe0\xa4\x94\xe0\xa4\xb0,avy,,,,,,'
p5824
ssbsg1651
I00
sba(issf_api
Word
p5825
(dp5826
g1897
I00
sg1898
V\u0927\u0928
p5827
sg1900
(issf_api
FeatureSet
p5828
(dp5829
g308
(dp5830
S'posn'
p5831
S'120'
p5832
sS'name'
p5833
S'\xe0\xa4\xa7\xe0\xa4\xa8'
p5834
sS'drel'
p5835
S'pof__cn:\xe0\xa4\x89\xe0\xa4\x97\xe0\xa4\xbe\xe0\xa4\xb9\xe0\xa5\x80'
p5836
sS'chunktype'
p5837
S'child:NP5'
p5838
sS'af'
p5839
S'\xe0\xa4\xa7\xe0\xa4\xa8,n,m,sg,3,d,0,0'
p5840
ssbsg1630
I00
sg1633
I00
sg1644
Nsg1631
Nsg200
I7
sg186
I4
sg1914
Nsg1642
Nsg1915
S'NNC'
p5841
sg305
(issf_api
FeatureSet
p5842
(dp5843
g308
(dp5844
S'posn'
p5845
S'120'
p5846
sS'name'
p5847
S'\xe0\xa4\xa7\xe0\xa4\xa8'
p5848
sS'af'
p5849
S'\xe0\xa4\xa7\xe0\xa4\xa8,n,m,sg,3,d,0,0'
p5850
ssbsg1651
I00
sba(issf_api
Word
p5851
(dp5852
g1897
I00
sg1898
V\u0909\u0917\u093e\u0939\u0940
p5853
sg1900
(issf_api
FeatureSet
p5854
(dp5855
g308
(dp5856
S'posn'
p5857
S'130'
p5858
sS'name'
p5859
S'\xe0\xa4\x89\xe0\xa4\x97\xe0\xa4\xbe\xe0\xa4\xb9\xe0\xa5\x80'
p5860
sS'af'
p5861
S'\xe0\xa4\x89\xe0\xa4\x97\xe0\xa4\xbe\xe0\xa4\xb9\xe0\xa5\x80,n,f,sg,3,o,0_\xe0\xa4\xae\xe0\xa5\x87\xe0\xa4\x82,0'
p5862
sS'chunkid'
p5863
S'NP5'
p5864
sS'drel'
p5865
S'ccof:\xe0\xa4\x94\xe0\xa4\xb0'
p5866
sS'vpos'
p5867
S'vib_3'
p5868
sS'chunktype'
p5869
S'head:NP5'
p5870
ssbsg1630
I00
sg1633
I00
sg1644
Nsg1631
Nsg200
I7
sg186
I4
sg1914
Nsg1642
Nsg1915
S'NN'
p5871
sg305
(issf_api
FeatureSet
p5872
(dp5873
g308
(dp5874
S'posn'
p5875
S'130'
p5876
sS'name'
p5877
S'\xe0\xa4\x89\xe0\xa4\x97\xe0\xa4\xbe\xe0\xa4\xb9\xe0\xa5\x80'
p5878
sS'af'
p5879
S'\xe0\xa4\x89\xe0\xa4\x97\xe0\xa4\xbe\xe0\xa4\xb9\xe0\xa5\x80,n,f,sg,3,o,0,0'
p5880
ssbsg1651
I00
sba(issf_api
Word
p5881
(dp5882
g1897
I00
sg1898
V\u092e\u0947\u0902
p5883
sg1900
(issf_api
FeatureSet
p5884
(dp5885
g308
(dp5886
S'posn'
p5887
S'140'
p5888
sS'name'
p5889
S'\xe0\xa4\xae\xe0\xa5\x87\xe0\xa4\x82'
p5890
sS'drel'
p5891
S'lwg__psp:\xe0\xa4\x89\xe0\xa4\x97\xe0\xa4\xbe\xe0\xa4\xb9\xe0\xa5\x80'
p5892
sS'chunktype'
p5893
S'child:NP5'
p5894
sS'af'
p5895
S'\xe0\xa4\xae\xe0\xa5\x87\xe0\xa4\x82,psp,,,,,,'
p5896
ssbsg1630
I00
sg1633
I00
sg1644
Nsg1631
Nsg200
I7
sg186
I4
sg1914
Nsg1642
Nsg1915
S'PSP'
p5897
sg305
(issf_api
FeatureSet
p5898
(dp5899
g308
(dp5900
S'posn'
p5901
S'140'
p5902
sS'name'
p5903
S'\xe0\xa4\xae\xe0\xa5\x87\xe0\xa4\x82'
p5904
sS'af'
p5905
S'\xe0\xa4\xae\xe0\xa5\x87\xe0\xa4\x82,psp,,,,,,'
p5906
ssbsg1651
I00
sba(issf_api
Word
p5907
(dp5908
g1897
I00
sg1898
V\u0936\u093e\u092e\u093f\u0932
p5909
sg1900
(issf_api
FeatureSet
p5910
(dp5911
g308
(dp5912
S'posn'
p5913
S'150'
p5914
sS'name'
p5915
S'\xe0\xa4\xb6\xe0\xa4\xbe\xe0\xa4\xae\xe0\xa4\xbf\xe0\xa4\xb2'
p5916
sS'af'
p5917
S'\xe0\xa4\xb6\xe0\xa4\xbe\xe0\xa4\xae\xe0\xa4\xbf\xe0\xa4\xb2,adj,any,any,,,,'
p5918
sS'chunkid'
p5919
S'JJP'
p5920
sS'drel'
p5921
S'pof:\xe0\xa4\xb0\xe0\xa4\xb9\xe0\xa5\x87'
p5922
sS'chunktype'
p5923
S'head:JJP'
p5924
ssbsg1630
I00
sg1633
I00
sg1644
Nsg1631
Nsg200
I8
sg186
I4
sg1914
Nsg1642
Nsg1915
S'JJ'
p5925
sg305
(issf_api
FeatureSet
p5926
(dp5927
g308
(dp5928
S'posn'
p5929
S'150'
p5930
sS'name'
p5931
S'\xe0\xa4\xb6\xe0\xa4\xbe\xe0\xa4\xae\xe0\xa4\xbf\xe0\xa4\xb2'
p5932
sS'af'
p5933
S'\xe0\xa4\xb6\xe0\xa4\xbe\xe0\xa4\xae\xe0\xa4\xbf\xe0\xa4\xb2,adj,any,any,,,,'
p5934
ssbsg1651
I00
sba(issf_api
Word
p5935
(dp5936
g1897
I00
sg1898
V\u0930\u0939\u0947
p5937
sg1900
(issf_api
FeatureSet
p5938
(dp5939
g308
(dp5940
S'posn'
p5941
S'160'
p5942
sS'name'
p5943
S'\xe0\xa4\xb0\xe0\xa4\xb9\xe0\xa5\x87'
p5944
sS'af'
p5945
S'\xe0\xa4\xb0\xe0\xa4\xb9,v,m,pl,any,,\xe0\xa4\xaf\xe0\xa4\xbe,yA'
p5946
sS'chunkid'
p5947
S'VGNF'
p5948
sS'drel'
p5949
S'nmod__k1inv:\xe0\xa4\xb2\xe0\xa5\x8b\xe0\xa4\x97\xe0\xa5\x8b\xe0\xa4\x82'
p5950
sS'chunktype'
p5951
S'head:VGNF'
p5952
ssbsg1630
I00
sg1633
I00
sg1644
Nsg1631
Nsg200
I9
sg186
I4
sg1914
Nsg1642
Nsg1915
S'VM'
p5953
sg305
(issf_api
FeatureSet
p5954
(dp5955
g308
(dp5956
S'posn'
p5957
S'160'
p5958
sS'name'
p5959
S'\xe0\xa4\xb0\xe0\xa4\xb9\xe0\xa5\x87'
p5960
sS'af'
p5961
S'\xe0\xa4\xb0\xe0\xa4\xb9,v,m,pl,any,,\xe0\xa4\xaf\xe0\xa4\xbe,yA'
p5962
ssbsg1651
I00
sba(issf_api
Word
p5963
(dp5964
g1897
I00
sg1898
V\u0915\u0941\u091b
p5965
sg1900
(issf_api
FeatureSet
p5966
(dp5967
g308
(dp5968
S'posn'
p5969
S'170'
p5970
sS'name'
p5971
S'\xe0\xa4\x95\xe0\xa5\x81\xe0\xa4\x9b'
p5972
sS'drel'
p5973
S'nmod__adj:\xe0\xa4\xb2\xe0\xa5\x8b\xe0\xa4\x97\xe0\xa5\x8b\xe0\xa4\x82'
p5974
sS'chunktype'
p5975
S'child:NP6'
p5976
sS'af'
p5977
S'\xe0\xa4\x95\xe0\xa5\x81\xe0\xa4\x9b,avy,,,,,,'
p5978
ssbsg1630
I00
sg1633
I00
sg1644
Nsg1631
Nsg200
I10
sg186
I4
sg1914
Nsg1642
Nsg1915
S'QF'
p5979
sg305
(issf_api
FeatureSet
p5980
(dp5981
g308
(dp5982
S'posn'
p5983
S'170'
p5984
sS'name'
p5985
S'\xe0\xa4\x95\xe0\xa5\x81\xe0\xa4\x9b'
p5986
sS'af'
p5987
S'\xe0\xa4\x95\xe0\xa5\x81\xe0\xa4\x9b,avy,,,,,,'
p5988
ssbsg1651
I00
sba(issf_api
Word
p5989
(dp5990
g1897
I00
sg1898
V\u0932\u094b\u0917\u094b\u0902
p5991
sg1900
(issf_api
FeatureSet
p5992
(dp5993
g308
(dp5994
S'posn'
p5995
S'180'
p5996
sS'name'
p5997
S'\xe0\xa4\xb2\xe0\xa5\x8b\xe0\xa4\x97\xe0\xa5\x8b\xe0\xa4\x82'
p5998
sS'af'
p5999
S'\xe0\xa4\xb2\xe0\xa5\x8b\xe0\xa4\x97,n,m,pl,3,o,0_\xe0\xa4\x95\xe0\xa4\xbe,0'
p6000
sS'chunkid'
p6001
S'NP6'
p6002
sS'drel'
p6003
S'r6:\xe0\xa4\xa8\xe0\xa4\xbe\xe0\xa4\xae\xe0\xa5\x8b\xe0\xa4\x82'
p6004
sS'vpos'
p6005
S'vib_3'
p6006
sS'chunktype'
p6007
S'head:NP6'
p6008
ssbsg1630
I00
sg1633
I00
sg1644
Nsg1631
Nsg200
I10
sg186
I4
sg1914
Nsg1642
Nsg1915
S'NN'
p6009
sg305
(issf_api
FeatureSet
p6010
(dp6011
g308
(dp6012
S'posn'
p6013
S'180'
p6014
sS'name'
p6015
S'\xe0\xa4\xb2\xe0\xa5\x8b\xe0\xa4\x97\xe0\xa5\x8b\xe0\xa4\x82'
p6016
sS'af'
p6017
S'\xe0\xa4\xb2\xe0\xa5\x8b\xe0\xa4\x97,n,m,pl,3,o,0,0'
p6018
ssbsg1651
I00
sba(issf_api
Word
p6019
(dp6020
g1897
I00
sg1898
V\u0915\u0947
p6021
sg1900
(issf_api
FeatureSet
p6022
(dp6023
g308
(dp6024
S'posn'
p6025
S'190'
p6026
sS'name'
p6027
S'\xe0\xa4\x95\xe0\xa5\x87'
p6028
sS'drel'
p6029
S'lwg__psp:\xe0\xa4\xb2\xe0\xa5\x8b\xe0\xa4\x97\xe0\xa5\x8b\xe0\xa4\x82'
p6030
sS'chunktype'
p6031
S'child:NP6'
p6032
sS'af'
p6033
S'\xe0\xa4\x95\xe0\xa4\xbe,psp,m,pl,,o,,'
p6034
ssbsg1630
I00
sg1633
I00
sg1644
Nsg1631
Nsg200
I10
sg186
I4
sg1914
Nsg1642
Nsg1915
S'PSP'
p6035
sg305
(issf_api
FeatureSet
p6036
(dp6037
g308
(dp6038
S'posn'
p6039
S'190'
p6040
sS'name'
p6041
S'\xe0\xa4\x95\xe0\xa5\x87'
p6042
sS'af'
p6043
S'\xe0\xa4\x95\xe0\xa4\xbe,psp,m,pl,,o,,'
p6044
ssbsg1651
I00
sba(issf_api
Word
p6045
(dp6046
g1897
I00
sg1898
V\u0928\u093e\u092e\u094b\u0902
p6047
sg1900
(issf_api
FeatureSet
p6048
(dp6049
g308
(dp6050
S'posn'
p6051
S'200'
p6052
sS'name'
p6053
S'\xe0\xa4\xa8\xe0\xa4\xbe\xe0\xa4\xae\xe0\xa5\x8b\xe0\xa4\x82'
p6054
sS'af'
p6055
S'\xe0\xa4\xa8\xe0\xa4\xbe\xe0\xa4\xae,n,m,pl,3,o,0_\xe0\xa4\x95\xe0\xa4\xbe,0'
p6056
sS'chunkid'
p6057
S'NP7'
p6058
sS'drel'
p6059
S'r6-k2:\xe0\xa4\x96\xe0\xa5\x81\xe0\xa4\xb2\xe0\xa4\xbe\xe0\xa4\xb8\xe0\xa4\xbe'
p6060
sS'vpos'
p6061
S'vib_2'
p6062
sS'chunktype'
p6063
S'head:NP7'
p6064
ssbsg1630
I00
sg1633
I00
sg1644
Nsg1631
Nsg200
I11
sg186
I4
sg1914
Nsg1642
Nsg1915
S'NN'
p6065
sg305
(issf_api
FeatureSet
p6066
(dp6067
g308
(dp6068
S'posn'
p6069
S'200'
p6070
sS'name'
p6071
S'\xe0\xa4\xa8\xe0\xa4\xbe\xe0\xa4\xae\xe0\xa5\x8b\xe0\xa4\x82'
p6072
sS'af'
p6073
S'\xe0\xa4\xa8\xe0\xa4\xbe\xe0\xa4\xae,n,m,pl,3,o,0,0'
p6074
ssbsg1651
I00
sba(issf_api
Word
p6075
(dp6076
g1897
I00
sg1898
V\u0915\u093e
p6077
sg1900
(issf_api
FeatureSet
p6078
(dp6079
g308
(dp6080
S'posn'
p6081
S'210'
p6082
sS'name'
p6083
S'\xe0\xa4\x95\xe0\xa4\xbe'
p6084
sS'drel'
p6085
S'lwg__psp:\xe0\xa4\xa8\xe0\xa4\xbe\xe0\xa4\xae\xe0\xa5\x8b\xe0\xa4\x82'
p6086
sS'chunktype'
p6087
S'child:NP7'
p6088
sS'af'
p6089
S'\xe0\xa4\x95\xe0\xa4\xbe,psp,m,sg,,d,,'
p6090
ssbsg1630
I00
sg1633
I00
sg1644
Nsg1631
Nsg200
I11
sg186
I4
sg1914
Nsg1642
Nsg1915
S'PSP'
p6091
sg305
(issf_api
FeatureSet
p6092
(dp6093
g308
(dp6094
S'posn'
p6095
S'210'
p6096
sS'name'
p6097
S'\xe0\xa4\x95\xe0\xa4\xbe'
p6098
sS'af'
p6099
S'\xe0\xa4\x95\xe0\xa4\xbe,psp,m,sg,,d,,'
p6100
ssbsg1651
I00
sba(issf_api
Word
p6101
(dp6102
g1897
I00
sg1898
V\u0916\u0941\u0932\u093e\u0938\u093e
p6103
sg1900
(issf_api
FeatureSet
p6104
(dp6105
g308
(dp6106
S'posn'
p6107
S'220'
p6108
sS'name'
p6109
S'\xe0\xa4\x96\xe0\xa5\x81\xe0\xa4\xb2\xe0\xa4\xbe\xe0\xa4\xb8\xe0\xa4\xbe'
p6110
sS'af'
p6111
S'\xe0\xa4\x96\xe0\xa5\x81\xe0\xa4\xb2\xe0\xa4\xbe\xe0\xa4\xb8\xe0\xa4\xbe,n,m,sg,3,d,0,0'
p6112
sS'chunkid'
p6113
S'NP8'
p6114
sS'drel'
p6115
S'pof:\xe0\xa4\x95\xe0\xa4\xbf\xe0\xa4\xaf\xe0\xa4\xbe'
p6116
sS'chunktype'
p6117
S'head:NP8'
p6118
ssbsg1630
I00
sg1633
I00
sg1644
Nsg1631
Nsg200
I12
sg186
I4
sg1914
Nsg1642
Nsg1915
S'NN'
p6119
sg305
(issf_api
FeatureSet
p6120
(dp6121
g308
(dp6122
S'posn'
p6123
S'220'
p6124
sS'name'
p6125
S'\xe0\xa4\x96\xe0\xa5\x81\xe0\xa4\xb2\xe0\xa4\xbe\xe0\xa4\xb8\xe0\xa4\xbe'
p6126
sS'af'
p6127
S'\xe0\xa4\x96\xe0\xa5\x81\xe0\xa4\xb2\xe0\xa4\xbe\xe0\xa4\xb8\xe0\xa4\xbe,n,m,sg,3,d,0,0'
p6128
ssbsg1651
I00
sba(issf_api
Word
p6129
(dp6130
g1897
I00
sg1898
V\u0915\u093f\u092f\u093e
p6131
sg1900
(issf_api
FeatureSet
p6132
(dp6133
g308
(dp6134
S'posn'
p6135
S'230'
p6136
sS'name'
p6137
S'\xe0\xa4\x95\xe0\xa4\xbf\xe0\xa4\xaf\xe0\xa4\xbe'
p6138
sS'af'
p6139
S'\xe0\xa4\x95\xe0\xa4\xb0,v,m,sg,3,,\xe0\xa4\xaf\xe0\xa4\xbe_\xe0\xa4\xb9\xe0\xa5\x88,yA'
p6140
sS'chunkid'
p6141
S'VGF2'
p6142
sS'stype'
p6143
S'declarative'
p6144
sS'drel'
p6145
S'ccof:\xe0\xa4\x95\xe0\xa4\xbf'
p6146
sS'voicetype'
p6147
S'active'
p6148
sS'vpos'
p6149
S'tam_2'
p6150
sS'chunktype'
p6151
S'head:VGF2'
p6152
ssbsg1630
I00
sg1633
I00
sg1644
Nsg1631
Nsg200
I13
sg186
I4
sg1914
Nsg1642
Nsg1915
S'VM'
p6153
sg305
(issf_api
FeatureSet
p6154
(dp6155
g308
(dp6156
S'posn'
p6157
S'230'
p6158
sS'name'
p6159
S'\xe0\xa4\x95\xe0\xa4\xbf\xe0\xa4\xaf\xe0\xa4\xbe'
p6160
sS'af'
p6161
S'\xe0\xa4\x95\xe0\xa4\xb0,v,m,sg,any,,\xe0\xa4\xaf\xe0\xa4\xbe,yA'
p6162
ssbsg1651
I00
sba(issf_api
Word
p6163
(dp6164
g1897
I00
sg1898
V\u0939\u0948
p6165
sg1900
(issf_api
FeatureSet
p6166
(dp6167
g308
(dp6168
S'posn'
p6169
S'240'
p6170
sS'name'
p6171
S'\xe0\xa4\xb9\xe0\xa5\x88'
p6172
sS'drel'
p6173
S'lwg__vaux:\xe0\xa4\x95\xe0\xa4\xbf\xe0\xa4\xaf\xe0\xa4\xbe'
p6174
sS'chunktype'
p6175
S'child:VGF2'
p6176
sS'af'
p6177
S'\xe0\xa4\xb9\xe0\xa5\x88,v,any,sg,3,,\xe0\xa4\xb9\xe0\xa5\x88,hE'
p6178
ssbsg1630
I00
sg1633
I00
sg1644
Nsg1631
Nsg200
I13
sg186
I4
sg1914
Nsg1642
Nsg1915
S'VAUX'
p6179
sg305
(issf_api
FeatureSet
p6180
(dp6181
g308
(dp6182
S'posn'
p6183
S'240'
p6184
sS'name'
p6185
S'\xe0\xa4\xb9\xe0\xa5\x88'
p6186
sS'af'
p6187
S'\xe0\xa4\xb9\xe0\xa5\x88,v,any,sg,3,,\xe0\xa4\xb9\xe0\xa5\x88,hE'
p6188
ssbsg1651
I00
sba(issf_api
Word
p6189
(dp6190
g1897
I00
sg1898
V\u0964
sg1900
(issf_api
FeatureSet
p6191
(dp6192
g308
(dp6193
S'posn'
p6194
S'250'
p6195
sS'name'
p6196
S'\xe0\xa5\xa4'
p6197
sS'af'
p6198
S'\xe0\xa5\xa4,punc,,,,,,'
p6199
sS'chunkid'
p6200
S'BLK'
p6201
sS'drel'
p6202
S'rsym:\xe0\xa4\x95\xe0\xa4\xb9\xe0\xa4\xbe'
p6203
sS'chunktype'
p6204
S'head:BLK'
p6205
ssbsg1630
I00
sg1633
I00
sg1644
Nsg1631
Nsg200
I14
sg186
I4
sg1914
Nsg1642
Nsg1915
S'SYM'
p6206
sg305
(issf_api
FeatureSet
p6207
(dp6208
g308
(dp6209
S'posn'
p6210
S'250'
p6211
sS'name'
p6212
S'\xe0\xa5\xa4'
p6213
sS'af'
p6214
S'\xe0\xa5\xa4,punc,,,,,,'
p6215
ssbsg1651
I00
sba(issf_api
Word
p6216
(dp6217
g1897
I00
sg1898
V\u0907\u0938\u0915\u0940
p6218
sg1900
(issf_api
FeatureSet
p6219
(dp6220
g308
(dp6221
S'posn'
p6222
S'10'
p6223
sS'name'
p6224
S'\xe0\xa4\x87\xe0\xa4\xb8\xe0\xa4\x95\xe0\xa5\x80'
p6225
sS'af'
p6226
S'\xe0\xa4\xaf\xe0\xa4\xb9,pn,f,sg,3,o,\xe0\xa4\x95\xe0\xa4\xbe,kA'
p6227
sS'chunkid'
p6228
S'NP'
p6229
sS'drel'
p6230
S'r6:\xe0\xa4\xb8\xe0\xa4\x9a\xe0\xa5\x8d\xe0\xa4\x9a\xe0\xa4\xbe\xe0\xa4\x88'
p6231
sS'chunktype'
p6232
S'head:NP'
p6233
ssbsg1630
I00
sg1633
I00
sg1644
Nsg1631
Nsg200
I0
sg186
I5
sg1914
Nsg1642
Nsg1915
S'PRP'
p6234
sg305
(issf_api
FeatureSet
p6235
(dp6236
g308
(dp6237
S'posn'
p6238
S'10'
p6239
sS'name'
p6240
S'\xe0\xa4\x87\xe0\xa4\xb8\xe0\xa4\x95\xe0\xa5\x80'
p6241
sS'af'
p6242
S'\xe0\xa4\xaf\xe0\xa4\xb9,pn,f,sg,3,o,\xe0\xa4\x95\xe0\xa4\xbe,kA'
p6243
ssbsg1651
I00
sba(issf_api
Word
p6244
(dp6245
g1897
I00
sg1898
V\u0938\u091a\u094d\u091a\u093e\u0908
p6246
sg1900
(issf_api
FeatureSet
p6247
(dp6248
g308
(dp6249
S'posn'
p6250
S'20'
p6251
sS'name'
p6252
S'\xe0\xa4\xb8\xe0\xa4\x9a\xe0\xa5\x8d\xe0\xa4\x9a\xe0\xa4\xbe\xe0\xa4\x88'
p6253
sS'af'
p6254
S'\xe0\xa4\xb8\xe0\xa4\x9a\xe0\xa5\x8d\xe0\xa4\x9a\xe0\xa4\xbe\xe0\xa4\x88,n,f,sg,3,o,0_\xe0\xa4\x95\xe0\xa4\xbe,0'
p6255
sS'chunkid'
p6256
S'NP2'
p6257
sS'drel'
p6258
S'r6-k2:\xe0\xa4\xaa\xe0\xa4\xa4\xe0\xa4\xbe'
p6259
sS'vpos'
p6260
S'vib_2'
p6261
sS'chunktype'
p6262
S'head:NP2'
p6263
ssbsg1630
I00
sg1633
I00
sg1644
Nsg1631
Nsg200
I1
sg186
I5
sg1914
Nsg1642
Nsg1915
S'NN'
p6264
sg305
(issf_api
FeatureSet
p6265
(dp6266
g308
(dp6267
S'posn'
p6268
S'20'
p6269
sS'name'
p6270
S'\xe0\xa4\xb8\xe0\xa4\x9a\xe0\xa5\x8d\xe0\xa4\x9a\xe0\xa4\xbe\xe0\xa4\x88'
p6271
sS'af'
p6272
S'\xe0\xa4\xb8\xe0\xa4\x9a\xe0\xa5\x8d\xe0\xa4\x9a\xe0\xa4\xbe\xe0\xa4\x88,n,f,sg,3,o,0,0'
p6273
ssbsg1651
I00
sba(issf_api
Word
p6274
(dp6275
g1897
I00
sg1898
V\u0915\u093e
p6276
sg1900
(issf_api
FeatureSet
p6277
(dp6278
g308
(dp6279
S'posn'
p6280
S'30'
p6281
sS'name'
p6282
S'\xe0\xa4\x95\xe0\xa4\xbe'
p6283
sS'drel'
p6284
S'lwg__psp:\xe0\xa4\xb8\xe0\xa4\x9a\xe0\xa5\x8d\xe0\xa4\x9a\xe0\xa4\xbe\xe0\xa4\x88'
p6285
sS'chunktype'
p6286
S'child:NP2'
p6287
sS'af'
p6288
S'\xe0\xa4\x95\xe0\xa4\xbe,psp,m,sg,,d,,'
p6289
ssbsg1630
I00
sg1633
I00
sg1644
Nsg1631
Nsg200
I1
sg186
I5
sg1914
Nsg1642
Nsg1915
S'PSP'
p6290
sg305
(issf_api
FeatureSet
p6291
(dp6292
g308
(dp6293
S'posn'
p6294
S'30'
p6295
sS'name'
p6296
S'\xe0\xa4\x95\xe0\xa4\xbe'
p6297
sS'af'
p6298
S'\xe0\xa4\x95\xe0\xa4\xbe,psp,m,sg,,d,,'
p6299
ssbsg1651
I00
sba(issf_api
Word
p6300
(dp6301
g1897
I00
sg1898
V\u092a\u0924\u093e
p6302
sg1900
(issf_api
FeatureSet
p6303
(dp6304
g308
(dp6305
S'posn'
p6306
S'20'
p6307
sS'name'
p6308
S'\xe0\xa4\xaa\xe0\xa4\xa4\xe0\xa4\xbe'
p6309
sS'af'
p6310
S'\xe0\xa4\xaa\xe0\xa4\xa4\xe0\xa4\xbe,n,m,sg,3,d,0,0'
p6311
sS'chunkid'
p6312
S'NP3'
p6313
sS'drel'
p6314
S'pof:\xe0\xa4\xb2\xe0\xa4\x97\xe0\xa4\xbe\xe0\xa4\xa8\xe0\xa5\x87'
p6315
sS'chunktype'
p6316
S'head:NP3'
p6317
ssbsg1630
I00
sg1633
I00
sg1644
Nsg1631
Nsg200
I2
sg186
I5
sg1914
Nsg1642
Nsg1915
S'NN'
p6318
sg305
(issf_api
FeatureSet
p6319
(dp6320
g308
(dp6321
S'posn'
p6322
S'20'
p6323
sS'name'
p6324
S'\xe0\xa4\xaa\xe0\xa4\xa4\xe0\xa4\xbe'
p6325
sS'af'
p6326
S'\xe0\xa4\xaa\xe0\xa4\xa4\xe0\xa4\xbe,n,m,sg,3,d,0,0'
p6327
ssbsg1651
I00
sba(issf_api
Word
p6328
(dp6329
g1897
I00
sg1898
V\u0932\u0917\u093e\u0928\u0947
p6330
sg1900
(issf_api
FeatureSet
p6331
(dp6332
g308
(dp6333
S'posn'
p6334
S'50'
p6335
sS'name'
p6336
S'\xe0\xa4\xb2\xe0\xa4\x97\xe0\xa4\xbe\xe0\xa4\xa8\xe0\xa5\x87'
p6337
sS'af'
p6338
S'\xe0\xa4\xb2\xe0\xa4\x97\xe0\xa4\xbe,v,any,any,any,o,\xe0\xa4\xa8\xe0\xa4\xbe_\xe0\xa4\x95\xe0\xa5\x87_\xe0\xa4\xb2\xe0\xa4\xbf\xe0\xa4\x8f,nA'
p6339
sS'chunkid'
p6340
S'VGNN'
p6341
sS'drel'
p6342
S'rt:\xe0\xa4\xb9\xe0\xa5\x88'
p6343
sS'vpos'
p6344
S'tam_2_3'
p6345
sS'chunktype'
p6346
S'head:VGNN'
p6347
ssbsg1630
I00
sg1633
I00
sg1644
Nsg1631
Nsg200
I3
sg186
I5
sg1914
Nsg1642
Nsg1915
S'VM'
p6348
sg305
(issf_api
FeatureSet
p6349
(dp6350
g308
(dp6351
S'posn'
p6352
S'50'
p6353
sS'name'
p6354
S'\xe0\xa4\xb2\xe0\xa4\x97\xe0\xa4\xbe\xe0\xa4\xa8\xe0\xa5\x87'
p6355
sS'af'
p6356
S'\xe0\xa4\xb2\xe0\xa4\x97\xe0\xa4\xbe,v,any,any,any,o,\xe0\xa4\xa8\xe0\xa4\xbe,nA'
p6357
ssbsg1651
I00
sba(issf_api
Word
p6358
(dp6359
g1897
I00
sg1898
V\u0915\u0947
p6360
sg1900
(issf_api
FeatureSet
p6361
(dp6362
g308
(dp6363
S'posn'
p6364
S'60'
p6365
sS'name'
p6366
S'\xe0\xa4\x95\xe0\xa5\x87'
p6367
sS'drel'
p6368
S'lwg__psp:\xe0\xa4\xb2\xe0\xa4\x97\xe0\xa4\xbe\xe0\xa4\xa8\xe0\xa5\x87'
p6369
sS'chunktype'
p6370
S'child:VGNN'
p6371
sS'af'
p6372
S'\xe0\xa4\x95\xe0\xa5\x87,psp,,,,,,'
p6373
ssbsg1630
I00
sg1633
I00
sg1644
Nsg1631
Nsg200
I3
sg186
I5
sg1914
Nsg1642
Nsg1915
S'PSP'
p6374
sg305
(issf_api
FeatureSet
p6375
(dp6376
g308
(dp6377
S'posn'
p6378
S'60'
p6379
sS'name'
p6380
S'\xe0\xa4\x95\xe0\xa5\x87'
p6381
sS'af'
p6382
S'\xe0\xa4\x95\xe0\xa5\x87,psp,,,,,,'
p6383
ssbsg1651
I00
sba(issf_api
Word
p6384
(dp6385
g1897
I00
sg1898
V\u0932\u093f\u090f
p6386
sg1900
(issf_api
FeatureSet
p6387
(dp6388
g308
(dp6389
S'posn'
p6390
S'70'
p6391
sS'name'
p6392
S'\xe0\xa4\xb2\xe0\xa4\xbf\xe0\xa4\x8f'
p6393
sS'drel'
p6394
S'lwg__psp:\xe0\xa4\xb2\xe0\xa4\x97\xe0\xa4\xbe\xe0\xa4\xa8\xe0\xa5\x87'
p6395
sS'chunktype'
p6396
S'child:VGNN'
p6397
sS'af'
p6398
S'\xe0\xa4\xb2\xe0\xa4\xbf\xe0\xa4\x8f,psp,,,,,,'
p6399
ssbsg1630
I00
sg1633
I00
sg1644
Nsg1631
Nsg200
I3
sg186
I5
sg1914
Nsg1642
Nsg1915
S'PSP'
p6400
sg305
(issf_api
FeatureSet
p6401
(dp6402
g308
(dp6403
S'posn'
p6404
S'70'
p6405
sS'name'
p6406
S'\xe0\xa4\xb2\xe0\xa4\xbf\xe0\xa4\x8f'
p6407
sS'af'
p6408
S'\xe0\xa4\xb2\xe0\xa4\xbf\xe0\xa4\x8f,psp,,,,,,'
p6409
ssbsg1651
I00
sba(issf_api
Word
p6410
(dp6411
g1897
I00
sg1898
V\u090f\u091f\u0940\u090f\u0938
p6412
sg1900
(issf_api
FeatureSet
p6413
(dp6414
g308
(dp6415
S'posn'
p6416
S'80'
p6417
sS'name'
p6418
S'\xe0\xa4\x8f\xe0\xa4\x9f\xe0\xa5\x80\xe0\xa4\x8f\xe0\xa4\xb8'
p6419
sS'af'
p6420
S'\xe0\xa4\x8f\xe0\xa4\x9f\xe0\xa5\x80\xe0\xa4\x8f\xe0\xa4\xb8,n,m,sg,3,o,0_\xe0\xa4\x95\xe0\xa5\x8b,0'
p6421
sS'chunkid'
p6422
S'NP4'
p6423
sS'drel'
p6424
S'k1:\xe0\xa4\xb9\xe0\xa5\x88'
p6425
sS'vpos'
p6426
S'vib_2'
p6427
sS'chunktype'
p6428
S'head:NP4'
p6429
ssbsg1630
I00
sg1633
I00
sg1644
Nsg1631
Nsg200
I4
sg186
I5
sg1914
Nsg1642
Nsg1915
S'NN'
p6430
sg305
(issf_api
FeatureSet
p6431
(dp6432
g308
(dp6433
S'posn'
p6434
S'80'
p6435
sS'name'
p6436
S'\xe0\xa4\x8f\xe0\xa4\x9f\xe0\xa5\x80\xe0\xa4\x8f\xe0\xa4\xb8'
p6437
sS'af'
p6438
S'\xe0\xa4\x8f\xe0\xa4\x9f\xe0\xa5\x80\xe0\xa4\x8f\xe0\xa4\xb8,n,m,sg,3,o,0,0'
p6439
ssbsg1651
I00
sba(issf_api
Word
p6440
(dp6441
g1897
I00
sg1898
V\u0915\u094b
p6442
sg1900
(issf_api
FeatureSet
p6443
(dp6444
g308
(dp6445
S'posn'
p6446
S'90'
p6447
sS'name'
p6448
S'\xe0\xa4\x95\xe0\xa5\x8b'
p6449
sS'drel'
p6450
S'lwg__psp:\xe0\xa4\x8f\xe0\xa4\x9f\xe0\xa5\x80\xe0\xa4\x8f\xe0\xa4\xb8'
p6451
sS'chunktype'
p6452
S'child:NP4'
p6453
sS'af'
p6454
S'\xe0\xa4\x95\xe0\xa5\x8b,psp,,,,,,'
p6455
ssbsg1630
I00
sg1633
I00
sg1644
Nsg1631
Nsg200
I4
sg186
I5
sg1914
Nsg1642
Nsg1915
S'PSP'
p6456
sg305
(issf_api
FeatureSet
p6457
(dp6458
g308
(dp6459
S'posn'
p6460
S'90'
p6461
sS'name'
p6462
S'\xe0\xa4\x95\xe0\xa5\x8b'
p6463
sS'af'
p6464
S'\xe0\xa4\x95\xe0\xa5\x8b,psp,,,,,,'
p6465
ssbsg1651
I00
sba(issf_api
Word
p6466
(dp6467
g1897
I00
sg1898
V\u0938\u0932\u0947\u092e
p6468
sg1900
(issf_api
FeatureSet
p6469
(dp6470
g308
(dp6471
S'posn'
p6472
S'100'
p6473
sS'name'
p6474
S'\xe0\xa4\xb8\xe0\xa4\xb2\xe0\xa5\x87\xe0\xa4\xae'
p6475
sS'af'
p6476
S'\xe0\xa4\xb8\xe0\xa4\xb2\xe0\xa5\x87\xe0\xa4\xae,n,m,sg,3,o,0_\xe0\xa4\xaa\xe0\xa4\xb0,0'
p6477
sS'chunkid'
p6478
S'NP5'
p6479
sS'drel'
p6480
S'k7:\xe0\xa4\x95\xe0\xa4\xb0\xe0\xa4\xa8\xe0\xa5\x87'
p6481
sS'vpos'
p6482
S'vib_2'
p6483
sS'chunktype'
p6484
S'head:NP5'
p6485
ssbsg1630
I00
sg1633
I00
sg1644
Nsg1631
Nsg200
I5
sg186
I5
sg1914
Nsg1642
Nsg1915
S'NNP'
p6486
sg305
(issf_api
FeatureSet
p6487
(dp6488
g308
(dp6489
S'posn'
p6490
S'100'
p6491
sS'name'
p6492
S'\xe0\xa4\xb8\xe0\xa4\xb2\xe0\xa5\x87\xe0\xa4\xae'
p6493
sS'af'
p6494
S'\xe0\xa4\xb8\xe0\xa4\xb2\xe0\xa5\x87\xe0\xa4\xae,n,m,sg,3,o,0,0'
p6495
ssbsg1651
I00
sba(issf_api
Word
p6496
(dp6497
g1897
I00
sg1898
V\u092a\u0930
p6498
sg1900
(issf_api
FeatureSet
p6499
(dp6500
g308
(dp6501
S'posn'
p6502
S'110'
p6503
sS'name'
p6504
S'\xe0\xa4\xaa\xe0\xa4\xb0'
p6505
sS'drel'
p6506
S'lwg__psp:\xe0\xa4\xb8\xe0\xa4\xb2\xe0\xa5\x87\xe0\xa4\xae'
p6507
sS'chunktype'
p6508
S'child:NP5'
p6509
sS'af'
p6510
S'\xe0\xa4\xaa\xe0\xa4\xb0,psp,,,,,,'
p6511
ssbsg1630
I00
sg1633
I00
sg1644
Nsg1631
Nsg200
I5
sg186
I5
sg1914
Nsg1642
Nsg1915
S'PSP'
p6512
sg305
(issf_api
FeatureSet
p6513
(dp6514
g308
(dp6515
S'posn'
p6516
S'110'
p6517
sS'name'
p6518
S'\xe0\xa4\xaa\xe0\xa4\xb0'
p6519
sS'af'
p6520
S'\xe0\xa4\xaa\xe0\xa4\xb0,psp,,,,,,'
p6521
ssbsg1651
I00
sba(issf_api
Word
p6522
(dp6523
g1897
I00
sg1898
V\u092a\u0930\u0940\u0915\u094d\u0937\u0923
p6524
sg1900
(issf_api
FeatureSet
p6525
(dp6526
g308
(dp6527
S'posn'
p6528
S'120'
p6529
sS'name'
p6530
S'\xe0\xa4\xaa\xe0\xa4\xb0\xe0\xa5\x80\xe0\xa4\x95\xe0\xa5\x8d\xe0\xa4\xb7\xe0\xa4\xa3'
p6531
sS'af'
p6532
S'\xe0\xa4\xaa\xe0\xa4\xb0\xe0\xa5\x80\xe0\xa4\x95\xe0\xa5\x8d\xe0\xa4\xb7\xe0\xa4\xa3,n,m,sg,3,d,0,0'
p6533
sS'chunkid'
p6534
S'NP6'
p6535
sS'drel'
p6536
S'pof:\xe0\xa4\x95\xe0\xa4\xb0\xe0\xa4\xa8\xe0\xa5\x87'
p6537
sS'chunktype'
p6538
S'head:NP6'
p6539
ssbsg1630
I00
sg1633
I00
sg1644
Nsg1631
Nsg200
I6
sg186
I5
sg1914
Nsg1642
Nsg1915
S'NN'
p6540
sg305
(issf_api
FeatureSet
p6541
(dp6542
g308
(dp6543
S'posn'
p6544
S'120'
p6545
sS'name'
p6546
S'\xe0\xa4\xaa\xe0\xa4\xb0\xe0\xa5\x80\xe0\xa4\x95\xe0\xa5\x8d\xe0\xa4\xb7\xe0\xa4\xa3'
p6547
sS'af'
p6548
S'\xe0\xa4\xaa\xe0\xa4\xb0\xe0\xa5\x80\xe0\xa4\x95\xe0\xa5\x8d\xe0\xa4\xb7\xe0\xa4\xa3,n,m,sg,3,d,0,0'
p6549
ssbsg1651
I00
sba(issf_api
Word
p6550
(dp6551
g1897
I00
sg1898
V\u0915\u0930\u0928\u0947
p6552
sg1900
(issf_api
FeatureSet
p6553
(dp6554
g308
(dp6555
S'posn'
p6556
S'130'
p6557
sS'name'
p6558
S'\xe0\xa4\x95\xe0\xa4\xb0\xe0\xa4\xa8\xe0\xa5\x87'
p6559
sS'af'
p6560
S'\xe0\xa4\x95\xe0\xa4\xb0,v,any,sg,any,o,\xe0\xa4\xa8\xe0\xa4\xbe_\xe0\xa4\x95\xe0\xa4\xbe,nA'
p6561
sS'chunkid'
p6562
S'VGNN2'
p6563
sS'drel'
p6564
S'r6:\xe0\xa4\x9c\xe0\xa4\xb0\xe0\xa5\x82\xe0\xa4\xb0\xe0\xa4\xa4'
p6565
sS'vpos'
p6566
S'tam_2'
p6567
sS'chunktype'
p6568
S'head:VGNN2'
p6569
ssbsg1630
I00
sg1633
I00
sg1644
Nsg1631
Nsg200
I7
sg186
I5
sg1914
Nsg1642
Nsg1915
S'VM'
p6570
sg305
(issf_api
FeatureSet
p6571
(dp6572
g308
(dp6573
S'posn'
p6574
S'130'
p6575
sS'name'
p6576
S'\xe0\xa4\x95\xe0\xa4\xb0\xe0\xa4\xa8\xe0\xa5\x87'
p6577
sS'af'
p6578
S'\xe0\xa4\x95\xe0\xa4\xb0,v,any,any,any,o,\xe0\xa4\xa8\xe0\xa4\xbe,nA'
p6579
ssbsg1651
I00
sba(issf_api
Word
p6580
(dp6581
g1897
I00
sg1898
V\u0915\u0940
p6582
sg1900
(issf_api
FeatureSet
p6583
(dp6584
g308
(dp6585
S'posn'
p6586
S'140'
p6587
sS'name'
p6588
S'\xe0\xa4\x95\xe0\xa5\x80'
p6589
sS'drel'
p6590
S'lwg__psp:\xe0\xa4\x95\xe0\xa4\xb0\xe0\xa4\xa8\xe0\xa5\x87'
p6591
sS'chunktype'
p6592
S'child:VGNN2'
p6593
sS'af'
p6594
S'\xe0\xa4\x95\xe0\xa4\xbe,psp,f,sg,,d,,'
p6595
ssbsg1630
I00
sg1633
I00
sg1644
Nsg1631
Nsg200
I7
sg186
I5
sg1914
Nsg1642
Nsg1915
S'PSP'
p6596
sg305
(issf_api
FeatureSet
p6597
(dp6598
g308
(dp6599
S'posn'
p6600
S'140'
p6601
sS'name'
p6602
S'\xe0\xa4\x95\xe0\xa5\x80'
p6603
sS'af'
p6604
S'\xe0\xa4\x95\xe0\xa4\xbe,psp,f,sg,,d,,'
p6605
ssbsg1651
I00
sba(issf_api
Word
p6606
(dp6607
g1897
I00
sg1898
V\u091c\u0930\u0942\u0930\u0924
p6608
sg1900
(issf_api
FeatureSet
p6609
(dp6610
g308
(dp6611
S'posn'
p6612
S'150'
p6613
sS'name'
p6614
S'\xe0\xa4\x9c\xe0\xa4\xb0\xe0\xa5\x82\xe0\xa4\xb0\xe0\xa4\xa4'
p6615
sS'af'
p6616
S'\xe0\xa4\x9c\xe0\xa4\xb0\xe0\xa5\x82\xe0\xa4\xb0\xe0\xa4\xa4,n,f,sg,3,d,0,0'
p6617
sS'chunkid'
p6618
S'NP7'
p6619
sS'drel'
p6620
S'k1s:\xe0\xa4\xb9\xe0\xa5\x88'
p6621
sS'chunktype'
p6622
S'head:NP7'
p6623
ssbsg1630
I00
sg1633
I00
sg1644
Nsg1631
Nsg200
I8
sg186
I5
sg1914
Nsg1642
Nsg1915
S'NN'
p6624
sg305
(issf_api
FeatureSet
p6625
(dp6626
g308
(dp6627
S'posn'
p6628
S'150'
p6629
sS'name'
p6630
S'\xe0\xa4\x9c\xe0\xa4\xb0\xe0\xa5\x82\xe0\xa4\xb0\xe0\xa4\xa4'
p6631
sS'af'
p6632
S'\xe0\xa4\x9c\xe0\xa4\xb0\xe0\xa5\x82\xe0\xa4\xb0\xe0\xa4\xa4,n,f,sg,3,d,0,0'
p6633
ssbsg1651
I00
sba(issf_api
Word
p6634
(dp6635
g1897
I00
sg1898
V\u0939\u0948
p6636
sg1900
(issf_api
FeatureSet
p6637
(dp6638
g308
(dp6639
S'posn'
p6640
S'160'
p6641
sS'name'
p6642
S'\xe0\xa4\xb9\xe0\xa5\x88'
p6643
sS'af'
p6644
S'\xe0\xa4\xb9\xe0\xa5\x88,v,any,sg,3,,\xe0\xa4\xb9\xe0\xa5\x88,hE'
p6645
sS'chunkid'
p6646
S'VGF'
p6647
sS'chunktype'
p6648
S'head:VGF'
p6649
sS'voicetype'
p6650
S'active'
p6651
sS'stype'
p6652
S'declarative'
p6653
ssbsg1630
I00
sg1633
I00
sg1644
Nsg1631
Nsg200
I9
sg186
I5
sg1914
Nsg1642
Nsg1915
S'VM'
p6654
sg305
(issf_api
FeatureSet
p6655
(dp6656
g308
(dp6657
S'posn'
p6658
S'160'
p6659
sS'name'
p6660
S'\xe0\xa4\xb9\xe0\xa5\x88'
p6661
sS'af'
p6662
S'\xe0\xa4\xb9\xe0\xa5\x88,v,any,sg,3,,\xe0\xa4\xb9\xe0\xa5\x88,hE'
p6663
ssbsg1651
I00
sba(issf_api
Word
p6664
(dp6665
g1897
I00
sg1898
V\u0964
sg1900
(issf_api
FeatureSet
p6666
(dp6667
g308
(dp6668
S'posn'
p6669
S'170'
p6670
sS'name'
p6671
S'\xe0\xa5\xa4'
p6672
sS'af'
p6673
S'\xe0\xa5\xa4,punc,,,,,,'
p6674
sS'chunkid'
p6675
S'BLK'
p6676
sS'drel'
p6677
S'rsym:\xe0\xa4\xb9\xe0\xa5\x88'
p6678
sS'chunktype'
p6679
S'head:BLK'
p6680
ssbsg1630
I00
sg1633
I00
sg1644
Nsg1631
Nsg200
I10
sg186
I5
sg1914
Nsg1642
Nsg1915
S'SYM'
p6681
sg305
(issf_api
FeatureSet
p6682
(dp6683
g308
(dp6684
S'posn'
p6685
S'170'
p6686
sS'name'
p6687
S'\xe0\xa5\xa4'
p6688
sS'af'
p6689
S'\xe0\xa5\xa4,punc,,,,,,'
p6690
ssbsg1651
I00
sbasb.