(iannotated_data
discourseFile
p1
(dp2
S'annToRawMapping'
p3
(dp4
I0
(I0
tp5
sI1
(I1
tp6
sI2
(I2
tp7
sI3
(I3
tp8
sI4
(I4
tp9
sI5
(I5
tp10
sI6
(I6
tp11
sI7
(I7
tp12
sI8
(I8
tp13
sI9
(I9
tp14
sI10
(I10
tp15
sI11
(I11
tp16
sI12
(I12
tp17
sI13
(I13
tp18
sI14
(I14
tp19
sI15
(I15
tp20
sI16
(I16
tp21
sI17
(I17
tp22
sI18
(I18
tp23
sI19
(I19
tp24
sI20
(I20
tp25
sI21
(I21
tp26
sI22
(I22
tp27
sI23
(I23
tp28
sI24
(I24
tp29
sI25
(I25
tp30
sI26
(I26
tp31
sI27
(I27
tp32
sI28
(I28
tp33
sI29
(I29
tp34
sI30
(I30
tp35
sI31
(I31
tp36
sI32
(I32
tp37
sI33
(I33
tp38
sI34
(I34
tp39
sI35
(I35
tp40
sI36
(I36
tp41
sI37
(I37
tp42
sI38
(I38
tp43
sI39
(I39
tp44
sI40
(I40
tp45
sI41
(I41
tp46
sI42
(I42
tp47
sI43
(I43
tp48
sI44
(I44
tp49
sI45
(I45
tp50
sI46
(I46
tp51
sI47
(I47
tp52
sI48
(I48
tp53
sI49
(I49
tp54
sI50
(I50
tp55
sI51
(I51
tp56
sI52
(I52
tp57
sI53
(I53
tp58
sI54
(I54
tp59
sI55
(I55
tp60
sI56
(I56
tp61
sI57
(I57
tp62
sI58
(I58
tp63
sI59
(I59
tp64
sI60
(I60
tp65
sI61
(I61
tp66
sI62
(I62
tp67
sI63
(I63
tp68
sI64
(I64
tp69
sI65
(I65
tp70
sI66
(I66
tp71
sI67
(I67
tp72
sI68
(I68
tp73
sI69
(I69
tp74
sI70
(I70
tp75
sI71
(I71
tp76
sI72
(I72
tp77
sI73
(I73
tp78
sI74
(I74
tp79
sI75
(I75
tp80
sI76
(I76
tp81
sI77
(I77
tp82
sI78
(I78
tp83
sI79
(I79
tp84
sI80
(I80
tp85
sI81
(I81
tp86
sI82
(I82
tp87
sI83
(I83
tp88
sI84
(I84
tp89
sI85
(I85
tp90
sI86
(I86
tp91
sI87
(I87
tp92
sI88
(I88
tp93
sI89
(I89
tp94
sI90
(I90
tp95
sI91
(I91
tp96
sI92
(I92
tp97
sI93
(I93
tp98
sI94
(I94
tp99
sI95
(I95
tp100
sI96
(I96
tp101
sI97
(I97
tp102
sI98
(I98
tp103
sI99
(I99
tp104
sI100
(I100
tp105
sI101
(I101
tp106
sI102
(I102
tp107
sI103
(I103
tp108
sI104
(I104
tp109
sI105
(I105
tp110
sI106
(I106
tp111
sI107
(I107
tp112
sI108
(I108
tp113
sI109
(I109
tp114
sI110
(I110
tp115
sI111
(I111
tp116
sI112
(I112
tp117
sI113
(I113
tp118
sI114
(I114
tp119
sI115
(I115
tp120
sI116
(I116
tp121
sI117
(I117
tp122
sI118
(I118
tp123
sI119
(I119
tp124
sI120
(I120
tp125
sI121
(I121
tp126
sI122
(I122
tp127
sI123
(I123
tp128
sI124
(I124
tp129
sI125
(I125
tp130
sI126
(I126
tp131
sI127
(I127
tp132
sI128
(I128
tp133
sI129
(I129
tp134
sI130
(I130
tp135
sI131
(I131
tp136
sI132
(I132
tp137
sI133
(I133
tp138
sI134
(I134
tp139
sI135
(I135
tp140
sI136
(I136
tp141
sI137
(I137
tp142
sI138
(I138
tp143
sI139
(I139
tp144
sI140
(I140
tp145
sI141
(I141
tp146
sI142
(I142
tp147
sI143
(I143
tp148
sI144
(I144
tp149
sI145
(I145
tp150
sI146
(I146
tp151
sI147
(I147
tp152
sI148
(I148
tp153
ssS'sentenceList'
p154
(lp155
(issf_api
Sentence
p156
(dp157
S'rootNode'
p158
(lp159
sS'sentenceNum'
p160
I0
sS'wordNumList'
p161
(lp162
I0
aI1
aI2
aI3
aI4
aI5
aI6
aI7
aI8
aI9
aI10
aI11
aI12
aI13
aI14
aI15
aI16
aI17
aI18
aI19
aI20
aI21
aI22
aI23
aI24
aI25
aI26
aI27
aI28
asS'nodeDict'
p163
(dp164
S'VGNN'
p165
(issf_api
Node
p166
(dp167
S'nodeRelation'
p168
S'rt'
p169
sS'nodeName'
p170
g165
sS'nodeParent'
p171
S'VGF'
p172
sS'nodeLevel'
p173
I-1
sS'chunkNum'
p174
I4
sS'childList'
p175
(lp176
sbsS'VGF'
p177
(issf_api
Node
p178
(dp179
g168
S'None'
p180
sg170
g177
sg171
g180
sg173
I-1
sg174
I12
sg175
(lp181
sbsS'CCP'
p182
(issf_api
Node
p183
(dp184
g168
S'k4'
p185
sg170
g182
sg171
S'VGF'
p186
sg173
I-1
sg174
I7
sg175
(lp187
sbsS'NP5'
p188
(issf_api
Node
p189
(dp190
g168
S'ccof'
p191
sg170
g188
sg171
S'CCP'
p192
sg173
I-1
sg174
I6
sg175
(lp193
sbsS'NP9'
p194
(issf_api
Node
p195
(dp196
g168
S'k2'
p197
sg170
g194
sg171
S'VGF'
p198
sg173
I-1
sg174
I11
sg175
(lp199
sbsS'NP8'
p200
(issf_api
Node
p201
(dp202
g168
S'ccof'
p203
sg170
g200
sg171
S'CCP'
p204
sg173
I-1
sg174
I10
sg175
(lp205
sbsS'BLK'
p206
(issf_api
Node
p207
(dp208
g168
S'rsym'
p209
sg170
g206
sg171
S'VGF'
p210
sg173
I-1
sg174
I13
sg175
(lp211
sbsS'NP4'
p212
(issf_api
Node
p213
(dp214
g168
S'nmod'
p215
sg170
g212
sg171
S'NP5'
p216
sg173
I-1
sg174
I5
sg175
(lp217
sbsS'NP'
p218
(issf_api
Node
p219
(dp220
g168
S'k1'
p221
sg170
g218
sg171
S'VGF'
p222
sg173
I-1
sg174
I0
sg175
(lp223
sbsS'FRAGP'
p224
(issf_api
Node
p225
(dp226
g168
S'fragof'
p227
sg170
g224
sg171
S'NP'
p228
sg173
I-1
sg174
I2
sg175
(lp229
sbsS'NP7'
p230
(issf_api
Node
p231
(dp232
g168
S'nmod'
p233
sg170
g230
sg171
S'NP8'
p234
sg173
I-1
sg174
I9
sg175
(lp235
sbsS'NP6'
p236
(issf_api
Node
p237
(dp238
g168
S'r6'
p239
sg170
g236
sg171
S'NP7'
p240
sg173
I-1
sg174
I8
sg175
(lp241
sbsS'NP3'
p242
(issf_api
Node
p243
(dp244
g168
S'k2'
p245
sg170
g242
sg171
S'VGNN'
p246
sg173
I-1
sg174
I3
sg175
(lp247
sbsS'NP2'
p248
(issf_api
Node
p249
(dp250
g168
S'rs'
p251
sg170
g248
sg171
S'NP'
p252
sg173
I-1
sg174
I1
sg175
(lp253
sbssS'chunkList'
p254
(lp255
(issf_api
Chunk
p256
(dp257
g170
g218
sg174
I0
sS'chunkTag'
p258
S'NP'
p259
sg160
I0
sg161
(lp260
I0
aI1
aI2
asS'featureSet'
p261
(issf_api
FeatureSet
p262
(dp263
S'featureDict'
p264
(dp265
S'drel'
p266
S'k1:VGF'
p267
sS'name'
p268
g218
ssbsba(issf_api
Chunk
p269
(dp270
g170
g248
sg174
I1
sg258
S'NP'
p271
sg160
I0
sg161
(lp272
I3
aI4
aI5
asg261
(issf_api
FeatureSet
p273
(dp274
g264
(dp275
S'drel'
p276
S'rs:NP'
p277
sS'name'
p278
g248
ssbsba(issf_api
Chunk
p279
(dp280
g170
g224
sg174
I2
sg258
S'FRAGP'
p281
sg160
I0
sg161
(lp282
I6
asg261
(issf_api
FeatureSet
p283
(dp284
g264
(dp285
S'drel'
p286
S'fragof:NP'
p287
sS'name'
p288
g224
ssbsba(issf_api
Chunk
p289
(dp290
g170
g242
sg174
I3
sg258
S'NP'
p291
sg160
I0
sg161
(lp292
I7
aI8
aI9
aI10
aI11
asg261
(issf_api
FeatureSet
p293
(dp294
g264
(dp295
S'drel'
p296
S'k2:VGNN'
p297
sS'name'
p298
g242
ssbsba(issf_api
Chunk
p299
(dp300
g170
g165
sg174
I4
sg258
S'VGNN'
p301
sg160
I0
sg161
(lp302
I12
aI13
aI14
asg261
(issf_api
FeatureSet
p303
(dp304
g264
(dp305
S'drel'
p306
S'rt:VGF'
p307
sS'name'
p308
g165
ssbsba(issf_api
Chunk
p309
(dp310
g170
g212
sg174
I5
sg258
S'NP'
p311
sg160
I0
sg161
(lp312
I15
aI16
asg261
(issf_api
FeatureSet
p313
(dp314
g264
(dp315
S'drel'
p316
S'nmod:NP5'
p317
sS'name'
p318
g212
ssbsba(issf_api
Chunk
p319
(dp320
g170
g188
sg174
I6
sg258
S'NP'
p321
sg160
I0
sg161
(lp322
I17
aI18
asg261
(issf_api
FeatureSet
p323
(dp324
g264
(dp325
S'drel'
p326
S'ccof:CCP'
p327
sS'name'
p328
g188
ssbsba(issf_api
Chunk
p329
(dp330
g170
g182
sg174
I7
sg258
S'CCP'
p331
sg160
I0
sg161
(lp332
I19
asg261
(issf_api
FeatureSet
p333
(dp334
g264
(dp335
S'drel'
p336
S'k4:VGF'
p337
sS'name'
p338
g182
ssbsba(issf_api
Chunk
p339
(dp340
g170
g236
sg174
I8
sg258
S'NP'
p341
sg160
I0
sg161
(lp342
I20
asg261
(issf_api
FeatureSet
p343
(dp344
g264
(dp345
S'drel'
p346
S'r6:NP7'
p347
sS'name'
p348
g236
ssbsba(issf_api
Chunk
p349
(dp350
g170
g230
sg174
I9
sg258
S'NP'
p351
sg160
I0
sg161
(lp352
I21
asg261
(issf_api
FeatureSet
p353
(dp354
g264
(dp355
S'drel'
p356
S'nmod:NP8'
p357
sS'name'
p358
g230
ssbsba(issf_api
Chunk
p359
(dp360
g170
g200
sg174
I10
sg258
S'NP'
p361
sg160
I0
sg161
(lp362
I22
aI23
aI24
asg261
(issf_api
FeatureSet
p363
(dp364
g264
(dp365
S'drel'
p366
S'ccof:CCP'
p367
sS'name'
p368
g200
ssbsba(issf_api
Chunk
p369
(dp370
g170
g194
sg174
I11
sg258
S'NP'
p371
sg160
I0
sg161
(lp372
I25
asg261
(issf_api
FeatureSet
p373
(dp374
g264
(dp375
S'drel'
p376
S'k2:VGF'
p377
sS'name'
p378
g194
ssbsba(issf_api
Chunk
p379
(dp380
g170
g177
sg174
I12
sg258
S'VGF'
p381
sg160
I0
sg161
(lp382
I26
aI27
asg261
(issf_api
FeatureSet
p383
(dp384
g264
(dp385
S'name'
p386
g177
sS'stype'
p387
S'declarative'
p388
sS'voicetype'
p389
S'active'
p390
ssbsba(issf_api
Chunk
p391
(dp392
g170
g206
sg174
I13
sg258
S'BLK'
p393
sg160
I0
sg161
(lp394
I28
asg261
(issf_api
FeatureSet
p395
(dp396
g264
(dp397
S'drel'
p398
S'rsym:VGF'
p399
sS'name'
p400
g206
ssbsbasba(issf_api
Sentence
p401
(dp402
g158
(lp403
sg160
I1
sg161
(lp404
I29
aI30
aI31
aI32
aI33
aI34
aI35
aI36
aI37
aI38
aI39
aI40
aI41
aI42
aI43
aI44
aI45
aI46
aI47
aI48
aI49
aI50
aI51
aI52
aI53
aI54
aI55
aI56
asg163
(dp405
S'VGNN'
p406
(issf_api
Node
p407
(dp408
g168
S'rt'
p409
sg170
g406
sg171
S'VGF'
p410
sg173
I-1
sg174
I4
sg175
(lp411
sbsS'VGF'
p412
(issf_api
Node
p413
(dp414
g168
g180
sg170
g412
sg171
g180
sg173
I-1
sg174
I8
sg175
(lp415
sbsS'JJP'
p416
(issf_api
Node
p417
(dp418
g168
S'nmod'
p419
sg170
g416
sg171
S'NP3'
p420
sg173
I-1
sg174
I2
sg175
(lp421
sbsS'NP5'
p422
(issf_api
Node
p423
(dp424
g168
S'k4'
p425
sg170
g422
sg171
S'VGF'
p426
sg173
I-1
sg174
I6
sg175
(lp427
sbsS'BLK'
p428
(issf_api
Node
p429
(dp430
g168
S'rsym'
p431
sg170
g428
sg171
S'VGF'
p432
sg173
I-1
sg174
I9
sg175
(lp433
sbsS'NP'
p434
(issf_api
Node
p435
(dp436
g168
S'k7a'
p437
sg170
g434
sg171
S'VGF'
p438
sg173
I-1
sg174
I0
sg175
(lp439
sbsS'NP4'
p440
(issf_api
Node
p441
(dp442
g168
S'k1'
p443
sg170
g440
sg171
S'VGF'
p444
sg173
I-1
sg174
I5
sg175
(lp445
sbsS'NP6'
p446
(issf_api
Node
p447
(dp448
g168
S'k2'
p449
sg170
g446
sg171
S'VGF'
p450
sg173
I-1
sg174
I7
sg175
(lp451
sbsS'NP3'
p452
(issf_api
Node
p453
(dp454
g168
S'k2'
p455
sg170
g452
sg171
S'VGNN'
p456
sg173
I-1
sg174
I3
sg175
(lp457
sbsS'NP2'
p458
(issf_api
Node
p459
(dp460
g168
S'jjmod'
p461
sg170
g458
sg171
S'JJP'
p462
sg173
I-1
sg174
I1
sg175
(lp463
sbssg254
(lp464
(issf_api
Chunk
p465
(dp466
g170
g434
sg174
I0
sg258
S'NP'
p467
sg160
I1
sg161
(lp468
I29
aI30
aI31
aI32
asg261
(issf_api
FeatureSet
p469
(dp470
g264
(dp471
S'drel'
p472
S'k7a:VGF'
p473
sS'name'
p474
g434
ssbsba(issf_api
Chunk
p475
(dp476
g170
g458
sg174
I1
sg258
S'NP'
p477
sg160
I1
sg161
(lp478
I33
aI34
aI35
asg261
(issf_api
FeatureSet
p479
(dp480
g264
(dp481
S'drel'
p482
S'jjmod:JJP'
p483
sS'name'
p484
g458
ssbsba(issf_api
Chunk
p485
(dp486
g170
g416
sg174
I2
sg258
S'JJP'
p487
sg160
I1
sg161
(lp488
I36
asg261
(issf_api
FeatureSet
p489
(dp490
g264
(dp491
S'drel'
p492
S'nmod:NP3'
p493
sS'name'
p494
g416
ssbsba(issf_api
Chunk
p495
(dp496
g170
g452
sg174
I3
sg258
S'NP'
p497
sg160
I1
sg161
(lp498
I37
aI38
aI39
asg261
(issf_api
FeatureSet
p499
(dp500
g264
(dp501
S'drel'
p502
S'k2:VGNN'
p503
sS'name'
p504
g452
ssbsba(issf_api
Chunk
p505
(dp506
g170
g406
sg174
I4
sg258
S'VGNN'
p507
sg160
I1
sg161
(lp508
I40
aI41
aI42
asg261
(issf_api
FeatureSet
p509
(dp510
g264
(dp511
S'drel'
p512
S'rt:VGF'
p513
sS'name'
p514
g406
ssbsba(issf_api
Chunk
p515
(dp516
g170
g440
sg174
I5
sg258
S'NP'
p517
sg160
I1
sg161
(lp518
I43
aI44
asg261
(issf_api
FeatureSet
p519
(dp520
g264
(dp521
S'drel'
p522
S'k1:VGF'
p523
sS'name'
p524
g440
ssbsba(issf_api
Chunk
p525
(dp526
g170
g422
sg174
I6
sg258
S'NP'
p527
sg160
I1
sg161
(lp528
I45
aI46
aI47
aI48
aI49
aI50
asg261
(issf_api
FeatureSet
p529
(dp530
g264
(dp531
S'drel'
p532
S'k4:VGF'
p533
sS'name'
p534
g422
ssbsba(issf_api
Chunk
p535
(dp536
g170
g446
sg174
I7
sg258
S'NP'
p537
sg160
I1
sg161
(lp538
I51
asg261
(issf_api
FeatureSet
p539
(dp540
g264
(dp541
S'drel'
p542
S'k2:VGF'
p543
sS'name'
p544
g446
ssbsba(issf_api
Chunk
p545
(dp546
g170
g412
sg174
I8
sg258
S'VGF'
p547
sg160
I1
sg161
(lp548
I52
aI53
aI54
aI55
asg261
(issf_api
FeatureSet
p549
(dp550
g264
(dp551
S'name'
p552
g412
sS'stype'
p553
S'declarative'
p554
sS'voicetype'
p555
S'passive'
p556
ssbsba(issf_api
Chunk
p557
(dp558
g170
g428
sg174
I9
sg258
S'BLK'
p559
sg160
I1
sg161
(lp560
I56
asg261
(issf_api
FeatureSet
p561
(dp562
g264
(dp563
S'drel'
p564
S'rsym:VGF'
p565
sS'name'
p566
g428
ssbsbasba(issf_api
Sentence
p567
(dp568
g158
(lp569
sg160
I2
sg161
(lp570
I57
aI58
aI59
aI60
aI61
aI62
aI63
aI64
aI65
aI66
aI67
aI68
aI69
aI70
aI71
aI72
aI73
aI74
aI75
aI76
aI77
aI78
aI79
aI80
aI81
aI82
aI83
aI84
aI85
aI86
aI87
aI88
aI89
aI90
aI91
aI92
aI93
aI94
aI95
aI96
aI97
aI98
asg163
(dp571
S'VGF2'
p572
(issf_api
Node
p573
(dp574
g168
S'ccof'
p575
sg170
g572
sg171
S'CCP'
p576
sg173
I-1
sg174
I17
sg175
(lp577
sbsS'NP11'
p578
(issf_api
Node
p579
(dp580
g168
S'ccof'
p581
sg170
g578
sg171
S'CCP2'
p582
sg173
I-1
sg174
I15
sg175
(lp583
sbsS'VGNN'
p584
(issf_api
Node
p585
(dp586
g168
S'rt'
p587
sg170
g584
sg171
S'VGF2'
p588
sg173
I-1
sg174
I12
sg175
(lp589
sbsS'VGF'
p590
(issf_api
Node
p591
(dp592
g168
g180
sg170
g590
sg171
g180
sg173
I-1
sg174
I4
sg175
(lp593
sbsS'NP12'
p594
(issf_api
Node
p595
(dp596
g168
S'k2'
p597
sg170
g594
sg171
S'VGF2'
p598
sg173
I-1
sg174
I16
sg175
(lp599
sbsS'CCP'
p600
(issf_api
Node
p601
(dp602
g168
S'k2'
p603
sg170
g600
sg171
S'VGF'
p604
sg173
I-1
sg174
I5
sg175
(lp605
sbsS'JJP'
p606
(issf_api
Node
p607
(dp608
g168
S'nmod'
p609
sg170
g606
sg171
S'NP9'
p610
sg173
I-1
sg174
I10
sg175
(lp611
sbsS'NP5'
p612
(issf_api
Node
p613
(dp614
g168
S'r6'
p615
sg170
g612
sg171
S'NP6'
p616
sg173
I-1
sg174
I6
sg175
(lp617
sbsS'NP9'
p618
(issf_api
Node
p619
(dp620
g168
S'k2'
p621
sg170
g618
sg171
S'VGNN'
p622
sg173
I-1
sg174
I11
sg175
(lp623
sbsS'NP8'
p624
(issf_api
Node
p625
(dp626
g168
S'k7p'
p627
sg170
g624
sg171
S'VGNN'
p628
sg173
I-1
sg174
I9
sg175
(lp629
sbsS'BLK'
p630
(issf_api
Node
p631
(dp632
g168
S'rsym'
p633
sg170
g630
sg171
S'VGF'
p634
sg173
I-1
sg174
I18
sg175
(lp635
sbsS'NP10'
p636
(issf_api
Node
p637
(dp638
g168
S'ccof'
p639
sg170
g636
sg171
S'CCP2'
p640
sg173
I-1
sg174
I13
sg175
(lp641
sbsS'NP'
p642
(issf_api
Node
p643
(dp644
g168
S'nmod'
p645
sg170
g642
sg171
S'NP3'
p646
sg173
I-1
sg174
I0
sg175
(lp647
sbsS'NP4'
p648
(issf_api
Node
p649
(dp650
g168
S'k1'
p651
sg170
g648
sg171
S'VGF'
p652
sg173
I-1
sg174
I3
sg175
(lp653
sbsS'NP7'
p654
(issf_api
Node
p655
(dp656
g168
S'k1'
p657
sg170
g654
sg171
S'VGF2'
p658
sg173
I-1
sg174
I8
sg175
(lp659
sbsS'NP6'
p660
(issf_api
Node
p661
(dp662
g168
S'nmod'
p663
sg170
g660
sg171
S'NP7'
p664
sg173
I-1
sg174
I7
sg175
(lp665
sbsS'CCP2'
p666
(issf_api
Node
p667
(dp668
g168
S'k4'
p669
sg170
g666
sg171
S'VGF2'
p670
sg173
I-1
sg174
I14
sg175
(lp671
sbsS'NP3'
p672
(issf_api
Node
p673
(dp674
g168
S'k7a'
p675
sg170
g672
sg171
S'VGF'
p676
sg173
I-1
sg174
I2
sg175
(lp677
sbsS'NP2'
p678
(issf_api
Node
p679
(dp680
g168
S'rs'
p681
sg170
g678
sg171
S'NP'
p682
sg173
I-1
sg174
I1
sg175
(lp683
sbssg254
(lp684
(issf_api
Chunk
p685
(dp686
g170
g642
sg174
I0
sg258
S'NP'
p687
sg160
I2
sg161
(lp688
I57
aI58
asg261
(issf_api
FeatureSet
p689
(dp690
g264
(dp691
S'drel'
p692
S'nmod:NP3'
p693
sS'name'
p694
g642
ssbsba(issf_api
Chunk
p695
(dp696
g170
g678
sg174
I1
sg258
S'NP'
p697
sg160
I2
sg161
(lp698
I59
aI60
aI61
aI62
asg261
(issf_api
FeatureSet
p699
(dp700
g264
(dp701
S'drel'
p702
S'rs:NP'
p703
sS'name'
p704
g678
ssbsba(issf_api
Chunk
p705
(dp706
g170
g672
sg174
I2
sg258
S'NP'
p707
sg160
I2
sg161
(lp708
I63
aI64
aI65
aI66
aI67
asg261
(issf_api
FeatureSet
p709
(dp710
g264
(dp711
S'drel'
p712
S'k7a:VGF'
p713
sS'name'
p714
g672
ssbsba(issf_api
Chunk
p715
(dp716
g170
g648
sg174
I3
sg258
S'NP'
p717
sg160
I2
sg161
(lp718
I68
aI69
aI70
aI71
aI72
asg261
(issf_api
FeatureSet
p719
(dp720
g264
(dp721
S'drel'
p722
S'k1:VGF'
p723
sS'name'
p724
g648
ssbsba(issf_api
Chunk
p725
(dp726
g170
g590
sg174
I4
sg258
S'VGF'
p727
sg160
I2
sg161
(lp728
I73
aI74
asg261
(issf_api
FeatureSet
p729
(dp730
g264
(dp731
S'name'
p732
g590
sS'stype'
p733
S'declarative'
p734
sS'voicetype'
p735
S'active'
p736
ssbsba(issf_api
Chunk
p737
(dp738
g170
g600
sg174
I5
sg258
S'CCP'
p739
sg160
I2
sg161
(lp740
I75
asg261
(issf_api
FeatureSet
p741
(dp742
g264
(dp743
S'drel'
p744
S'k2:VGF'
p745
sS'name'
p746
g600
ssbsba(issf_api
Chunk
p747
(dp748
g170
g612
sg174
I6
sg258
S'NP'
p749
sg160
I2
sg161
(lp750
I76
aI77
asg261
(issf_api
FeatureSet
p751
(dp752
g264
(dp753
S'drel'
p754
S'r6:NP6'
p755
sS'name'
p756
g612
ssbsba(issf_api
Chunk
p757
(dp758
g170
g660
sg174
I7
sg258
S'NP'
p759
sg160
I2
sg161
(lp760
I78
asg261
(issf_api
FeatureSet
p761
(dp762
g264
(dp763
S'drel'
p764
S'nmod:NP7'
p765
sS'name'
p766
g660
ssbsba(issf_api
Chunk
p767
(dp768
g170
g654
sg174
I8
sg258
S'NP'
p769
sg160
I2
sg161
(lp770
I79
aI80
aI81
asg261
(issf_api
FeatureSet
p771
(dp772
g264
(dp773
S'drel'
p774
S'k1:VGF2'
p775
sS'name'
p776
g654
ssbsba(issf_api
Chunk
p777
(dp778
g170
g624
sg174
I9
sg258
S'NP'
p779
sg160
I2
sg161
(lp780
I82
aI83
asg261
(issf_api
FeatureSet
p781
(dp782
g264
(dp783
S'drel'
p784
S'k7p:VGNN'
p785
sS'name'
p786
g624
ssbsba(issf_api
Chunk
p787
(dp788
g170
g606
sg174
I10
sg258
S'JJP'
p789
sg160
I2
sg161
(lp790
I84
asg261
(issf_api
FeatureSet
p791
(dp792
g264
(dp793
S'drel'
p794
S'nmod:NP9'
p795
sS'name'
p796
g606
ssbsba(issf_api
Chunk
p797
(dp798
g170
g618
sg174
I11
sg258
S'NP'
p799
sg160
I2
sg161
(lp800
I85
aI86
aI87
asg261
(issf_api
FeatureSet
p801
(dp802
g264
(dp803
S'drel'
p804
S'k2:VGNN'
p805
sS'name'
p806
g618
ssbsba(issf_api
Chunk
p807
(dp808
g170
g584
sg174
I12
sg258
S'VGNN'
p809
sg160
I2
sg161
(lp810
I88
aI89
aI90
asg261
(issf_api
FeatureSet
p811
(dp812
g264
(dp813
S'drel'
p814
S'rt:VGF2'
p815
sS'name'
p816
g584
ssbsba(issf_api
Chunk
p817
(dp818
g170
g636
sg174
I13
sg258
S'NP'
p819
sg160
I2
sg161
(lp820
I91
asg261
(issf_api
FeatureSet
p821
(dp822
g264
(dp823
S'drel'
p824
S'ccof:CCP2'
p825
sS'name'
p826
g636
ssbsba(issf_api
Chunk
p827
(dp828
g170
g666
sg174
I14
sg258
S'CCP'
p829
sg160
I2
sg161
(lp830
I92
asg261
(issf_api
FeatureSet
p831
(dp832
g264
(dp833
S'drel'
p834
S'k4:VGF2'
p835
sS'name'
p836
g666
ssbsba(issf_api
Chunk
p837
(dp838
g170
g578
sg174
I15
sg258
S'NP'
p839
sg160
I2
sg161
(lp840
I93
aI94
asg261
(issf_api
FeatureSet
p841
(dp842
g264
(dp843
S'drel'
p844
S'ccof:CCP2'
p845
sS'name'
p846
g578
ssbsba(issf_api
Chunk
p847
(dp848
g170
g594
sg174
I16
sg258
S'NP'
p849
sg160
I2
sg161
(lp850
I95
asg261
(issf_api
FeatureSet
p851
(dp852
g264
(dp853
S'drel'
p854
S'k2:VGF2'
p855
sS'name'
p856
g594
ssbsba(issf_api
Chunk
p857
(dp858
g170
g572
sg174
I17
sg258
S'VGF'
p859
sg160
I2
sg161
(lp860
I96
aI97
asg261
(issf_api
FeatureSet
p861
(dp862
g264
(dp863
S'voicetype'
p864
S"active'"
p865
sS'drel'
p866
S'ccof:CCP'
p867
sS'stype'
p868
S'declarative'
p869
sS'name'
p870
g572
ssbsba(issf_api
Chunk
p871
(dp872
g170
g630
sg174
I18
sg258
S'BLK'
p873
sg160
I2
sg161
(lp874
I98
asg261
(issf_api
FeatureSet
p875
(dp876
g264
(dp877
S'drel'
p878
S'rsym:VGF'
p879
sS'name'
p880
g630
ssbsbasba(issf_api
Sentence
p881
(dp882
g158
(lp883
sg160
I3
sg161
(lp884
I99
aI100
aI101
aI102
aI103
aI104
aI105
aI106
aI107
aI108
aI109
aI110
aI111
aI112
aI113
aI114
aI115
aI116
asg163
(dp885
S'VGNN'
p886
(issf_api
Node
p887
(dp888
g168
S'r6'
p889
sg170
g886
sg171
S'NP5'
p890
sg173
I-1
sg174
I4
sg175
(lp891
sbsS'VGF'
p892
(issf_api
Node
p893
(dp894
g168
g180
sg170
g892
sg171
g180
sg173
I-1
sg174
I6
sg175
(lp895
sbsS'NP5'
p896
(issf_api
Node
p897
(dp898
g168
S'k1'
p899
sg170
g896
sg171
S'VGF'
p900
sg173
I-1
sg174
I5
sg175
(lp901
sbsS'BLK'
p902
(issf_api
Node
p903
(dp904
g168
S'rsym'
p905
sg170
g902
sg171
S'VGF'
p906
sg173
I-1
sg174
I7
sg175
(lp907
sbsS'NP'
p908
(issf_api
Node
p909
(dp910
g168
S'k7a'
p911
sg170
g908
sg171
S'VGF'
p912
sg173
I-1
sg174
I0
sg175
(lp913
sbsS'NP4'
p914
(issf_api
Node
p915
(dp916
g168
S'k2'
p917
sg170
g914
sg171
S'VGNN'
p918
sg173
I-1
sg174
I3
sg175
(lp919
sbsS'NP3'
p920
(issf_api
Node
p921
(dp922
g168
S'k4'
p923
sg170
g920
sg171
S'VGNN'
p924
sg173
I-1
sg174
I2
sg175
(lp925
sbsS'NP2'
p926
(issf_api
Node
p927
(dp928
g168
S'k3'
p929
sg170
g926
sg171
S'VGNN'
p930
sg173
I-1
sg174
I1
sg175
(lp931
sbssg254
(lp932
(issf_api
Chunk
p933
(dp934
g170
g908
sg174
I0
sg258
S'NP'
p935
sg160
I3
sg161
(lp936
I99
aI100
aI101
aI102
aI103
aI104
asg261
(issf_api
FeatureSet
p937
(dp938
g264
(dp939
S'drel'
p940
S'k7a:VGF'
p941
sS'name'
p942
g908
ssbsba(issf_api
Chunk
p943
(dp944
g170
g926
sg174
I1
sg258
S'NP'
p945
sg160
I3
sg161
(lp946
I105
aI106
asg261
(issf_api
FeatureSet
p947
(dp948
g264
(dp949
S'drel'
p950
S'k3:VGNN'
p951
sS'name'
p952
g926
ssbsba(issf_api
Chunk
p953
(dp954
g170
g920
sg174
I2
sg258
S'NP'
p955
sg160
I3
sg161
(lp956
I107
aI108
aI109
asg261
(issf_api
FeatureSet
p957
(dp958
g264
(dp959
S'drel'
p960
S'k4:VGNN'
p961
sS'name'
p962
g920
ssbsba(issf_api
Chunk
p963
(dp964
g170
g914
sg174
I3
sg258
S'NP'
p965
sg160
I3
sg161
(lp966
I110
asg261
(issf_api
FeatureSet
p967
(dp968
g264
(dp969
S'drel'
p970
S'k2:VGNN'
p971
sS'name'
p972
g914
ssbsba(issf_api
Chunk
p973
(dp974
g170
g886
sg174
I4
sg258
S'VGNN'
p975
sg160
I3
sg161
(lp976
I111
aI112
aI113
asg261
(issf_api
FeatureSet
p977
(dp978
g264
(dp979
S'drel'
p980
S'r6:NP5'
p981
sS'name'
p982
g886
ssbsba(issf_api
Chunk
p983
(dp984
g170
g896
sg174
I5
sg258
S'NP'
p985
sg160
I3
sg161
(lp986
I114
asg261
(issf_api
FeatureSet
p987
(dp988
g264
(dp989
S'drel'
p990
S'k1:VGF'
p991
sS'name'
p992
g896
ssbsba(issf_api
Chunk
p993
(dp994
g170
g892
sg174
I6
sg258
S'VGF'
p995
sg160
I3
sg161
(lp996
I115
asg261
(issf_api
FeatureSet
p997
(dp998
g264
(dp999
S'name'
p1000
g892
sS'stype'
p1001
S'declarative'
p1002
sS'voicetype'
p1003
S'active'
p1004
ssbsba(issf_api
Chunk
p1005
(dp1006
g170
g902
sg174
I7
sg258
S'BLK'
p1007
sg160
I3
sg161
(lp1008
I116
asg261
(issf_api
FeatureSet
p1009
(dp1010
g264
(dp1011
S'drel'
p1012
S'rsym:VGF'
p1013
sS'name'
p1014
g902
ssbsbasba(issf_api
Sentence
p1015
(dp1016
g158
(lp1017
sg160
I4
sg161
(lp1018
I117
aI118
aI119
aI120
aI121
aI122
aI123
aI124
aI125
aI126
aI127
aI128
aI129
aI130
aI131
aI132
aI133
aI134
aI135
aI136
aI137
aI138
aI139
aI140
aI141
aI142
aI143
aI144
aI145
aI146
aI147
aI148
asg163
(dp1019
S'VGNN'
p1020
(issf_api
Node
p1021
(dp1022
g168
S'nmod'
p1023
sg170
g1020
sg171
S'NP3'
p1024
sg173
I-1
sg174
I2
sg175
(lp1025
sbsS'VGF'
p1026
(issf_api
Node
p1027
(dp1028
g168
g180
sg170
g1026
sg171
g180
sg173
I-1
sg174
I11
sg175
(lp1029
sbsS'CCP'
p1030
(issf_api
Node
p1031
(dp1032
g168
S'k2'
p1033
sg170
g1030
sg171
S'VGNN2'
p1034
sg173
I-1
sg174
I4
sg175
(lp1035
sbsS'JJP'
p1036
(issf_api
Node
p1037
(dp1038
g168
S'pof'
p1039
sg170
g1036
sg171
S'VGF'
p1040
sg173
I-1
sg174
I10
sg175
(lp1041
sbsS'VGNN2'
p1042
(issf_api
Node
p1043
(dp1044
g168
S'rt'
p1045
sg170
g1042
sg171
S'VGF'
p1046
sg173
I-1
sg174
I8
sg175
(lp1047
sbsS'NP5'
p1048
(issf_api
Node
p1049
(dp1050
g168
S'nmod'
p1051
sg170
g1048
sg171
S'NP6'
p1052
sg173
I-1
sg174
I6
sg175
(lp1053
sbsS'BLK'
p1054
(issf_api
Node
p1055
(dp1056
g168
S'rsym'
p1057
sg170
g1054
sg171
S'VGF'
p1058
sg173
I-1
sg174
I12
sg175
(lp1059
sbsS'NP'
p1060
(issf_api
Node
p1061
(dp1062
g168
S'vmod'
p1063
sg170
g1060
sg171
S'VGF'
p1064
sg173
I-1
sg174
I0
sg175
(lp1065
sbsS'NP4'
p1066
(issf_api
Node
p1067
(dp1068
g168
S'nmod'
p1069
sg170
g1066
sg171
S'NP5'
p1070
sg173
I-1
sg174
I5
sg175
(lp1071
sbsS'NP7'
p1072
(issf_api
Node
p1073
(dp1074
g168
S'k2'
p1075
sg170
g1072
sg171
S'VGF'
p1076
sg173
I-1
sg174
I9
sg175
(lp1077
sbsS'NP6'
p1078
(issf_api
Node
p1079
(dp1080
g168
S'ccof'
p1081
sg170
g1078
sg171
S'CCP'
p1082
sg173
I-1
sg174
I7
sg175
(lp1083
sbsS'NP3'
p1084
(issf_api
Node
p1085
(dp1086
g168
S'ccof'
p1087
sg170
g1084
sg171
S'CCP'
p1088
sg173
I-1
sg174
I3
sg175
(lp1089
sbsS'NP2'
p1090
(issf_api
Node
p1091
(dp1092
g168
S'k7p'
p1093
sg170
g1090
sg171
S'VGNN'
p1094
sg173
I-1
sg174
I1
sg175
(lp1095
sbssg254
(lp1096
(issf_api
Chunk
p1097
(dp1098
g170
g1060
sg174
I0
sg258
S'NP'
p1099
sg160
I4
sg161
(lp1100
I117
aI118
aI119
aI120
asg261
(issf_api
FeatureSet
p1101
(dp1102
g264
(dp1103
S'drel'
p1104
S'vmod:VGF'
p1105
sS'name'
p1106
g1060
ssbsba(issf_api
Chunk
p1107
(dp1108
g170
g1090
sg174
I1
sg258
S'NP'
p1109
sg160
I4
sg161
(lp1110
I121
aI122
asg261
(issf_api
FeatureSet
p1111
(dp1112
g264
(dp1113
S'drel'
p1114
S'k7p:VGNN'
p1115
sS'name'
p1116
g1090
ssbsba(issf_api
Chunk
p1117
(dp1118
g170
g1020
sg174
I2
sg258
S'VGNN'
p1119
sg160
I4
sg161
(lp1120
I123
aI124
asg261
(issf_api
FeatureSet
p1121
(dp1122
g264
(dp1123
S'drel'
p1124
S'nmod:NP3'
p1125
sS'name'
p1126
g1020
ssbsba(issf_api
Chunk
p1127
(dp1128
g170
g1084
sg174
I3
sg258
S'NP'
p1129
sg160
I4
sg161
(lp1130
I125
aI126
asg261
(issf_api
FeatureSet
p1131
(dp1132
g264
(dp1133
S'drel'
p1134
S'ccof:CCP'
p1135
sS'name'
p1136
g1084
ssbsba(issf_api
Chunk
p1137
(dp1138
g170
g1030
sg174
I4
sg258
S'CCP'
p1139
sg160
I4
sg161
(lp1140
I127
asg261
(issf_api
FeatureSet
p1141
(dp1142
g264
(dp1143
S'drel'
p1144
S'k2:VGNN2'
p1145
sS'name'
p1146
g1030
ssbsba(issf_api
Chunk
p1147
(dp1148
g170
g1066
sg174
I5
sg258
S'NP'
p1149
sg160
I4
sg161
(lp1150
I128
aI129
asg261
(issf_api
FeatureSet
p1151
(dp1152
g264
(dp1153
S'drel'
p1154
S'nmod:NP5'
p1155
sS'name'
p1156
g1066
ssbsba(issf_api
Chunk
p1157
(dp1158
g170
g1048
sg174
I6
sg258
S'NP'
p1159
sg160
I4
sg161
(lp1160
I130
asg261
(issf_api
FeatureSet
p1161
(dp1162
g264
(dp1163
S'drel'
p1164
S'nmod:NP6'
p1165
sS'name'
p1166
g1048
ssbsba(issf_api
Chunk
p1167
(dp1168
g170
g1078
sg174
I7
sg258
S'NP'
p1169
sg160
I4
sg161
(lp1170
I131
aI132
aI133
aI134
asg261
(issf_api
FeatureSet
p1171
(dp1172
g264
(dp1173
S'drel'
p1174
S'ccof:CCP'
p1175
sS'name'
p1176
g1078
ssbsba(issf_api
Chunk
p1177
(dp1178
g170
g1042
sg174
I8
sg258
S'VGNN'
p1179
sg160
I4
sg161
(lp1180
I135
aI136
aI137
asg261
(issf_api
FeatureSet
p1181
(dp1182
g264
(dp1183
S'drel'
p1184
S'rt:VGF'
p1185
sS'name'
p1186
g1042
ssbsba(issf_api
Chunk
p1187
(dp1188
g170
g1072
sg174
I9
sg258
S'NP'
p1189
sg160
I4
sg161
(lp1190
I138
aI139
aI140
aI141
aI142
aI143
asg261
(issf_api
FeatureSet
p1191
(dp1192
g264
(dp1193
S'drel'
p1194
S'k2:VGF'
p1195
sS'name'
p1196
g1072
ssbsba(issf_api
Chunk
p1197
(dp1198
g170
g1036
sg174
I10
sg258
S'JJP'
p1199
sg160
I4
sg161
(lp1200
I144
asg261
(issf_api
FeatureSet
p1201
(dp1202
g264
(dp1203
S'drel'
p1204
S'pof:VGF'
p1205
sS'name'
p1206
g1036
ssbsba(issf_api
Chunk
p1207
(dp1208
g170
g1026
sg174
I11
sg258
S'VGF'
p1209
sg160
I4
sg161
(lp1210
I145
aI146
aI147
asg261
(issf_api
FeatureSet
p1211
(dp1212
g264
(dp1213
S'name'
p1214
g1026
sS'stype'
p1215
S'declarative'
p1216
sS'voicetype'
p1217
S'passive'
p1218
ssbsba(issf_api
Chunk
p1219
(dp1220
g170
g1054
sg174
I12
sg258
S'BLK'
p1221
sg160
I4
sg161
(lp1222
I148
asg261
(issf_api
FeatureSet
p1223
(dp1224
g264
(dp1225
S'drel'
p1226
S'rsym:VGF'
p1227
sS'name'
p1228
g1054
ssbsbasbasS'relationList'
p1229
(lp1230
(iextract_relations
discourseRelation
p1231
(dp1232
S'arg1Trees'
p1233
(lp1234
sS'arg2Sentence'
p1235
(lp1236
sS'arg1Sentence'
p1237
(lp1238
sS'connList'
p1239
(lp1240
sS'isPaired'
p1241
I00
sS'arg1'
p1242
NsS'arg1Span'
p1243
V133..283
p1244
sS'arg2'
p1245
NsS'arg2Trees'
p1246
(lp1247
sS'fileName'
p1248
S'../data/raw/Section_17/fullnews_id_2617896_date_23_7_2004.utf8'
p1249
sS'connTrees'
p1250
(lp1251
sS'arg2List'
p1252
(lp1253
sS'arg2Span'
p1254
V285..435
p1255
sS'sense'
p1256
VExpansion.Conjunction
p1257
sS'relationType'
p1258
VImplicit
p1259
sS'connSpan'
p1260
V
sS'arg1List'
p1261
(lp1262
sS'conn'
p1263
VsAWa hI
p1264
sba(iextract_relations
discourseRelation
p1265
(dp1266
g1233
(lp1267
sg1235
(lp1268
sg1237
(lp1269
sg1239
(lp1270
sg1241
I00
sg1242
Nsg1243
V285..436
p1271
sg1245
Nsg1246
(lp1272
sg1248
g1249
sg1250
(lp1273
sg1252
(lp1274
sg1254
V436..640
p1275
sg1256
VContingency.Pragmatic cause
p1276
sg1258
VImplicit
p1277
sg1260
V
sg1261
(lp1278
sg1263
VkyoMki
p1279
sba(iextract_relations
discourseRelation
p1280
(dp1281
g1233
(lp1282
sg1235
(lp1283
sg1237
(lp1284
sg1239
(lp1285
sg1241
I00
sg1242
Nsg1243
V436..639
p1286
sg1245
Nsg1246
(lp1287
sg1248
g1249
sg1250
(lp1288
sg1252
(lp1289
sg1254
V641..721
p1290
sg1256
VComparison.Contrast.Juxtaposition
p1291
sg1258
VImplicit
p1292
sg1260
V
sg1261
(lp1293
sg1263
VxUsarI ora
p1294
sba(iextract_relations
discourseRelation
p1295
(dp1296
g1233
(lp1297
sg1235
(lp1298
sg1237
(lp1299
sg1239
(lp1300
sg1241
I00
sg1242
Nsg1243
V436..722
p1301
sg1245
Nsg1246
(lp1302
sg1248
g1249
sg1250
(lp1303
sg1252
(lp1304
sg1254
V723..881
p1305
sg1256
S'_Without_sense'
p1306
sg1258
VEntRel
p1307
sg1260
V
sg1261
(lp1308
sg1263
NsbasS'rawData'
p1309
V<DOC>\u000a<DOCNO>fullnews_id_2617896_date_23_7_2004.utf8</DOCNO>\u000a<TEXT>\u000a\u000a\u000a\u0938\u094b\u0928\u093f\u092f\u093e \u0915\u094b \u092e\u093f\u0932 \u0938\u0915\u0924\u093e \u0939\u0948 \u092e\u0948\u091a \u0926\u0947\u0916\u0928\u0947 \u0915\u093e \u0928\u094d\u092f\u094b\u0924\u093e\u000a\u000a\u000a\u000a\u092f\u0942\u000a\u000a\u0932\u093e\u0939\u094c\u0930\u0964  \u000a\u000a\u000a\u000a\u000a\u000a\u092a\u093e\u0915\u093f\u0938\u094d\u0924\u093e\u0928 \u0915\u094d\u0930\u093f\u0915\u0947\u091f \u092c\u094b\u0930\u094d\u0921 (\u092a\u0940\u0938\u0940\u092c\u0940) \u0928\u0947 \u092d\u093e\u0930\u0924-\u092a\u093e\u0915\u093f\u0938\u094d\u0924\u093e\u0928 \u0915\u094d\u0930\u093f\u0915\u0947\u091f \u092e\u0948\u091a \u0926\u0947\u0916\u0928\u0947 \u0915\u0947 \u0932\u093f\u090f \u0915\u093e\u0902\u0917\u094d\u0930\u0947\u0938 \u0938\u093e\u0902\u0938\u0926 \u0930\u093e\u0939\u0941\u0932 \u0917\u093e\u0902\u0927\u0940 \u0914\u0930 \u0909\u0928\u0915\u0940 \u092c\u0939\u0928 \u092a\u094d\u0930\u093f\u092f\u0902\u0915\u093e \u0935\u093e\u0921\u094d\u0930\u093e \u0915\u094b \u0928\u093f\u092e\u0902\u0924\u094d\u0930\u0923 \u092d\u0947\u091c\u093e \u0939\u0948\u0964 \u092e\u0940\u0921\u093f\u092f\u093e \u0930\u093f\u092a\u094b\u091f\u094b \u0915\u0947 \u092e\u0941\u0924\u093e\u092c\u093f\u0915 \u092d\u093e\u0930\u0924 \u0915\u0947 \u0916\u093f\u0932\u093e\u092b \u091c\u093e\u0930\u0940 \u0915\u094d\u0930\u093f\u0915\u0947\u091f \u0936\u094d\u0930\u0943\u0902\u0916\u0932\u093e \u0915\u094b \u0926\u0947\u0916\u0928\u0947 \u0915\u0947 \u0932\u093f\u090f \u092c\u094b\u0930\u094d\u0921 \u0926\u094d\u0935\u093e\u0930\u093e \u0915\u093e\u0902\u0917\u094d\u0930\u0947\u0938 \u0905\u0927\u094d\u092f\u0915\u094d\u0937 \u0938\u094b\u0928\u093f\u092f\u093e \u0917\u093e\u0902\u0927\u0940 \u0915\u094b \u092d\u0940 \u0928\u093f\u092e\u0902\u0924\u094d\u0930\u0923 \u092d\u0947\u091c\u093e \u091c\u093e \u0938\u0915\u0924\u093e \u0939\u0948\u0964\u092a\u0940\u0938\u0940\u092c\u0940 \u0928\u093f\u0926\u0947\u0936\u0915 (\u092c\u094b\u0930\u094d\u0921 \u0911\u092a\u0930\u0947\u0936\u0902\u0938) \u0905\u092c\u094d\u092c\u093e\u0938 \u091c\u0948\u0926\u0940 \u0915\u0947 \u0939\u0935\u093e\u0932\u0947 \u0938\u0947 \u090f\u0915 \u0932\u094b\u0915\u0932 \u091f\u0940\u0935\u0940 \u091a\u0948\u0928\u0932 \u0928\u0947 \u092c\u0924\u093e\u092f\u093e \u0939\u0948 \u0915\u093f \u092c\u094b\u0930\u094d\u0921 \u0915\u0947 \u091a\u0947\u092f\u0930\u092e\u0948\u0928 \u0936\u0939\u0930\u092f\u093e\u0930 \u0916\u093e\u0928 \u0928\u0947 \u092a\u093e\u0915\u093f\u0938\u094d\u0924\u093e\u0928 \u092e\u0947\u0902 \u091c\u093e\u0930\u0940 \u0915\u094d\u0930\u093f\u0915\u0947\u091f \u092e\u0948\u091a\u094b\u0902 \u0915\u094b \u0926\u0947\u0916\u0928\u0947 \u0915\u0947 \u0932\u093f\u090f \u0930\u093e\u0939\u0941\u0932 \u0935 \u092a\u094d\u0930\u093f\u092f\u0902\u0915\u093e \u0915\u094b \u0928\u093f\u092e\u0902\u0924\u094d\u0930\u0923 \u092d\u0947\u091c\u093e \u0939\u0948\u0964 '\u0926\u0940 \u0928\u094d\u092f\u0942\u091c' \u0915\u0947 \u092e\u0941\u0924\u093e\u092c\u093f\u0915 \u092c\u094b\u0930\u094d\u0921 \u0926\u094d\u0935\u093e\u0930\u093e \u0938\u094b\u0928\u093f\u092f\u093e \u0915\u094b \u092d\u0940 \u0928\u093f\u092e\u0902\u0924\u094d\u0930\u0923 \u092d\u0947\u091c\u0948 \u091c\u093e\u0928\u0947 \u0915\u0940 \u0938\u0902\u092d\u093e\u0935\u0928\u093e \u0939\u0948\u0964 \u0909\u092a\u0930\u094d\u092f\u0941\u0915\u094d\u0924 \u0932\u094b\u0917\u094b\u0902 \u0915\u0947 \u0905\u0932\u093e\u0935\u093e \u0915\u0930\u093e\u091a\u0940 \u092e\u0947\u0902 \u0939\u094b\u0928\u0947 \u0935\u093e\u0932\u0947 \u0924\u0940\u0938\u0930\u0947 \u091f\u0947\u0938\u094d\u091f \u0935 \u0909\u0938\u0915\u0947 \u092c\u093e\u0926 \u092a\u093e\u0902\u091a \u090f\u0915 \u0926\u093f\u0935\u0938\u0940\u092f \u092e\u0948\u091a\u094b\u0902 \u0915\u094b \u0926\u0947\u0916\u0928\u0947 \u0915\u0947 \u0932\u093f\u090f \u0915\u0941\u091b \u092a\u0942\u0930\u094d\u0935 \u091f\u0947\u0938\u094d\u091f \u0916\u093f\u0932\u093e\u095c\u093f\u092f\u094b\u0902 \u0915\u094b \u092d\u0940 \u0906\u092e\u0902\u0924\u094d\u0930\u093f\u0924 \u0915\u093f\u092f\u093e \u0917\u092f\u093e \u0939\u0948\u0964\u000a\u000a\u000a\u000a\u000a</TEXT>\u000a</DOC>
p1310
sS'rawFileName'
p1311
g1249
sS'rawToAnnMapping'
p1312
(dp1313
I0
(I0
tp1314
sI1
(I1
tp1315
sI2
(I2
tp1316
sI3
(I3
tp1317
sI4
(I4
tp1318
sI5
(I5
tp1319
sI6
(I6
tp1320
sI7
(I7
tp1321
sI8
(I8
tp1322
sI9
(I9
tp1323
sI10
(I10
tp1324
sI11
(I11
tp1325
sI12
(I12
tp1326
sI13
(I13
tp1327
sI14
(I14
tp1328
sI15
(I15
tp1329
sI16
(I16
tp1330
sI17
(I17
tp1331
sI18
(I18
tp1332
sI19
(I19
tp1333
sI20
(I20
tp1334
sI21
(I21
tp1335
sI22
(I22
tp1336
sI23
(I23
tp1337
sI24
(I24
tp1338
sI25
(I25
tp1339
sI26
(I26
tp1340
sI27
(I27
tp1341
sI28
(I28
tp1342
sI29
(I29
tp1343
sI30
(I30
tp1344
sI31
(I31
tp1345
sI32
(I32
tp1346
sI33
(I33
tp1347
sI34
(I34
tp1348
sI35
(I35
tp1349
sI36
(I36
tp1350
sI37
(I37
tp1351
sI38
(I38
tp1352
sI39
(I39
tp1353
sI40
(I40
tp1354
sI41
(I41
tp1355
sI42
(I42
tp1356
sI43
(I43
tp1357
sI44
(I44
tp1358
sI45
(I45
tp1359
sI46
(I46
tp1360
sI47
(I47
tp1361
sI48
(I48
tp1362
sI49
(I49
tp1363
sI50
(I50
tp1364
sI51
(I51
tp1365
sI52
(I52
tp1366
sI53
(I53
tp1367
sI54
(I54
tp1368
sI55
(I55
tp1369
sI56
(I56
tp1370
sI57
(I57
tp1371
sI58
(I58
tp1372
sI59
(I59
tp1373
sI60
(I60
tp1374
sI61
(I61
tp1375
sI62
(I62
tp1376
sI63
(I63
tp1377
sI64
(I64
tp1378
sI65
(I65
tp1379
sI66
(I66
tp1380
sI67
(I67
tp1381
sI68
(I68
tp1382
sI69
(I69
tp1383
sI70
(I70
tp1384
sI71
(I71
tp1385
sI72
(I72
tp1386
sI73
(I73
tp1387
sI74
(I74
tp1388
sI75
(I75
tp1389
sI76
(I76
tp1390
sI77
(I77
tp1391
sI78
(I78
tp1392
sI79
(I79
tp1393
sI80
(I80
tp1394
sI81
(I81
tp1395
sI82
(I82
tp1396
sI83
(I83
tp1397
sI84
(I84
tp1398
sI85
(I85
tp1399
sI86
(I86
tp1400
sI87
(I87
tp1401
sI88
(I88
tp1402
sI89
(I89
tp1403
sI90
(I90
tp1404
sI91
(I91
tp1405
sI92
(I92
tp1406
sI93
(I93
tp1407
sI94
(I94
tp1408
sI95
(I95
tp1409
sI96
(I96
tp1410
sI97
(I97
tp1411
sI98
(I98
tp1412
sI99
(I99
tp1413
sI100
(I100
tp1414
sI101
(I101
tp1415
sI102
(I102
tp1416
sI103
(I103
tp1417
sI104
(I104
tp1418
sI105
(I105
tp1419
sI106
(I106
tp1420
sI107
(I107
tp1421
sI108
(I108
tp1422
sI109
(I109
tp1423
sI110
(I110
tp1424
sI111
(I111
tp1425
sI112
(I112
tp1426
sI113
(I113
tp1427
sI114
(I114
tp1428
sI115
(I115
tp1429
sI116
(I116
tp1430
sI117
(I117
tp1431
sI118
(I118
tp1432
sI119
(I119
tp1433
sI120
(I120
tp1434
sI121
(I121
tp1435
sI122
(I122
tp1436
sI123
(I123
tp1437
sI124
(I124
tp1438
sI125
(I125
tp1439
sI126
(I126
tp1440
sI127
(I127
tp1441
sI128
(I128
tp1442
sI129
(I129
tp1443
sI130
(I130
tp1444
sI131
(I131
tp1445
sI132
(I132
tp1446
sI133
(I133
tp1447
sI134
(I134
tp1448
sI135
(I135
tp1449
sI136
(I136
tp1450
sI137
(I137
tp1451
sI138
(I138
tp1452
sI139
(I139
tp1453
sI140
(I140
tp1454
sI141
(I141
tp1455
sI142
(I142
tp1456
sI143
(I143
tp1457
sI144
(I144
tp1458
sI145
(I145
tp1459
sI146
(I146
tp1460
sI147
(I147
tp1461
sI148
(I148
tp1462
ssS'globalWordList'
p1463
(lp1464
(issf_api
Word
p1465
(dp1466
S'splitConn'
p1467
I00
sS'word'
p1468
V\u092a\u093e\u0915\u093f\u0938\u094d\u0924\u093e\u0928
p1469
sS'extraFeatureSet'
p1470
(issf_api
FeatureSet
p1471
(dp1472
g264
(dp1473
S'posn'
p1474
S'10'
p1475
sS'name'
p1476
S'\xe0\xa4\xaa\xe0\xa4\xbe\xe0\xa4\x95\xe0\xa4\xbf\xe0\xa4\xb8\xe0\xa5\x8d\xe0\xa4\xa4\xe0\xa4\xbe\xe0\xa4\xa8'
p1477
sS'drel'
p1478
S'pof__cn:\xe0\xa4\xac\xe0\xa5\x8b\xe0\xa4\xb0\xe0\xa5\x8d\xe0\xa4\xa1'
p1479
sS'chunktype'
p1480
S'child:NP'
p1481
sS'af'
p1482
S'\xe0\xa4\xaa\xe0\xa4\xbe\xe0\xa4\x95\xe0\xa4\xbf\xe0\xa4\xb8\xe0\xa5\x8d\xe0\xa4\xa4\xe0\xa4\xbe\xe0\xa4\xa8,n,m,sg,3,d,0,0'
p1483
ssbsg1242
I00
sg1245
I00
sg1256
Nsg1243
Nsg174
I0
sg160
I0
sS'relationNum'
p1484
Nsg1254
NsS'wordTag'
p1485
S'NNPC'
p1486
sg261
(issf_api
FeatureSet
p1487
(dp1488
g264
(dp1489
S'posn'
p1490
S'10'
p1491
sS'name'
p1492
S'\xe0\xa4\xaa\xe0\xa4\xbe\xe0\xa4\x95\xe0\xa4\xbf\xe0\xa4\xb8\xe0\xa5\x8d\xe0\xa4\xa4\xe0\xa4\xbe\xe0\xa4\xa8'
p1493
sS'af'
p1494
S'\xe0\xa4\xaa\xe0\xa4\xbe\xe0\xa4\x95\xe0\xa4\xbf\xe0\xa4\xb8\xe0\xa5\x8d\xe0\xa4\xa4\xe0\xa4\xbe\xe0\xa4\xa8,n,m,sg,3,d,0,0'
p1495
ssbsg1263
I00
sba(issf_api
Word
p1496
(dp1497
g1467
I00
sg1468
V\u0915\u094d\u0930\u093f\u0915\u0947\u091f
p1498
sg1470
(issf_api
FeatureSet
p1499
(dp1500
g264
(dp1501
S'posn'
p1502
S'20'
p1503
sS'name'
p1504
S'\xe0\xa4\x95\xe0\xa5\x8d\xe0\xa4\xb0\xe0\xa4\xbf\xe0\xa4\x95\xe0\xa5\x87\xe0\xa4\x9f'
p1505
sS'drel'
p1506
S'pof__cn:\xe0\xa4\xac\xe0\xa5\x8b\xe0\xa4\xb0\xe0\xa5\x8d\xe0\xa4\xa1'
p1507
sS'chunktype'
p1508
S'child:NP'
p1509
sS'af'
p1510
S'\xe0\xa4\x95\xe0\xa5\x8d\xe0\xa4\xb0\xe0\xa4\xbf\xe0\xa4\x95\xe0\xa5\x87\xe0\xa4\x9f,n,m,sg,3,d,0,0'
p1511
ssbsg1242
I00
sg1245
I00
sg1256
Nsg1243
Nsg174
I0
sg160
I0
sg1484
Nsg1254
Nsg1485
S'NNPC'
p1512
sg261
(issf_api
FeatureSet
p1513
(dp1514
g264
(dp1515
S'posn'
p1516
S'20'
p1517
sS'name'
p1518
S'\xe0\xa4\x95\xe0\xa5\x8d\xe0\xa4\xb0\xe0\xa4\xbf\xe0\xa4\x95\xe0\xa5\x87\xe0\xa4\x9f'
p1519
sS'af'
p1520
S'\xe0\xa4\x95\xe0\xa5\x8d\xe0\xa4\xb0\xe0\xa4\xbf\xe0\xa4\x95\xe0\xa5\x87\xe0\xa4\x9f,n,m,sg,3,d,0,0'
p1521
ssbsg1263
I00
sba(issf_api
Word
p1522
(dp1523
g1467
I00
sg1468
V\u092c\u094b\u0930\u094d\u0921
p1524
sg1470
(issf_api
FeatureSet
p1525
(dp1526
g264
(dp1527
S'posn'
p1528
S'30'
p1529
sS'name'
p1530
S'\xe0\xa4\xac\xe0\xa5\x8b\xe0\xa4\xb0\xe0\xa5\x8d\xe0\xa4\xa1'
p1531
sS'af'
p1532
S'\xe0\xa4\xac\xe0\xa5\x8b\xe0\xa4\xb0\xe0\xa5\x8d\xe0\xa4\xa1,n,m,sg,3,o,0,0'
p1533
sS'chunkid'
p1534
S'NP'
p1535
sS'drel'
p1536
S'k1:\xe0\xa4\xad\xe0\xa5\x87\xe0\xa4\x9c\xe0\xa4\xbe'
p1537
sS'chunktype'
p1538
S'head:NP'
p1539
ssbsg1242
I00
sg1245
I00
sg1256
Nsg1243
Nsg174
I0
sg160
I0
sg1484
Nsg1254
Nsg1485
S'NNP'
p1540
sg261
(issf_api
FeatureSet
p1541
(dp1542
g264
(dp1543
S'posn'
p1544
S'30'
p1545
sS'name'
p1546
S'\xe0\xa4\xac\xe0\xa5\x8b\xe0\xa4\xb0\xe0\xa5\x8d\xe0\xa4\xa1'
p1547
sS'af'
p1548
S'\xe0\xa4\xac\xe0\xa5\x8b\xe0\xa4\xb0\xe0\xa5\x8d\xe0\xa4\xa1,n,m,sg,3,o,0,0'
p1549
ssbsg1263
I00
sba(issf_api
Word
p1550
(dp1551
g1467
I00
sg1468
V(
sg1470
(issf_api
FeatureSet
p1552
(dp1553
g264
(dp1554
S'posn'
p1555
S'40'
p1556
sS'name'
p1557
S'('
sS'drel'
p1558
S'rsym:\xe0\xa4\xaa\xe0\xa5\x80\xe0\xa4\xb8\xe0\xa5\x80\xe0\xa4\xac\xe0\xa5\x80'
p1559
sS'chunktype'
p1560
S'child:NP2'
p1561
sS'af'
p1562
S',punc,,,,,,'
p1563
ssbsg1242
I00
sg1245
I00
sg1256
Nsg1243
Nsg174
I1
sg160
I0
sg1484
Nsg1254
Nsg1485
S'SYM'
p1564
sg261
(issf_api
FeatureSet
p1565
(dp1566
g264
(dp1567
S'posn'
p1568
S'40'
p1569
sS'name'
p1570
S'('
sS'af'
p1571
S',punc,,,,,,'
p1572
ssbsg1263
I00
sba(issf_api
Word
p1573
(dp1574
g1467
I00
sg1468
V\u092a\u0940\u0938\u0940\u092c\u0940
p1575
sg1470
(issf_api
FeatureSet
p1576
(dp1577
g264
(dp1578
S'posn'
p1579
S'50'
p1580
sS'name'
p1581
S'\xe0\xa4\xaa\xe0\xa5\x80\xe0\xa4\xb8\xe0\xa5\x80\xe0\xa4\xac\xe0\xa5\x80'
p1582
sS'af'
p1583
S'\xe0\xa4\xaa\xe0\xa5\x80\xe0\xa4\xb8\xe0\xa5\x80\xe0\xa4\xac\xe0\xa5\x80,n,m,sg,3,o,0,0'
p1584
sS'chunkid'
p1585
S'NP2'
p1586
sS'drel'
p1587
S'rs:\xe0\xa4\xac\xe0\xa5\x8b\xe0\xa4\xb0\xe0\xa5\x8d\xe0\xa4\xa1'
p1588
sS'chunktype'
p1589
S'head:NP2'
p1590
ssbsg1242
I00
sg1245
I00
sg1256
Nsg1243
Nsg174
I1
sg160
I0
sg1484
Nsg1254
Nsg1485
S'NNP'
p1591
sg261
(issf_api
FeatureSet
p1592
(dp1593
g264
(dp1594
S'posn'
p1595
S'50'
p1596
sS'name'
p1597
S'\xe0\xa4\xaa\xe0\xa5\x80\xe0\xa4\xb8\xe0\xa5\x80\xe0\xa4\xac\xe0\xa5\x80'
p1598
sS'af'
p1599
S'\xe0\xa4\xaa\xe0\xa5\x80\xe0\xa4\xb8\xe0\xa5\x80\xe0\xa4\xac\xe0\xa5\x80,n,m,sg,3,o,0,0'
p1600
ssbsg1263
I00
sba(issf_api
Word
p1601
(dp1602
g1467
I00
sg1468
V)
sg1470
(issf_api
FeatureSet
p1603
(dp1604
g264
(dp1605
S'posn'
p1606
S'60'
p1607
sS'name'
p1608
S')'
sS'drel'
p1609
S'rsym:\xe0\xa4\xaa\xe0\xa5\x80\xe0\xa4\xb8\xe0\xa5\x80\xe0\xa4\xac\xe0\xa5\x80'
p1610
sS'chunktype'
p1611
S'child:NP2'
p1612
sS'af'
p1613
S',punc,,,,,,'
p1614
ssbsg1242
I00
sg1245
I00
sg1256
Nsg1243
Nsg174
I1
sg160
I0
sg1484
Nsg1254
Nsg1485
S'SYM'
p1615
sg261
(issf_api
FeatureSet
p1616
(dp1617
g264
(dp1618
S'posn'
p1619
S'60'
p1620
sS'name'
p1621
S')'
sS'af'
p1622
S',punc,,,,,,'
p1623
ssbsg1263
I00
sba(issf_api
Word
p1624
(dp1625
g1467
I00
sg1468
V\u0928\u0947
p1626
sg1470
(issf_api
FeatureSet
p1627
(dp1628
g264
(dp1629
S'name'
p1630
S'\xe0\xa4\xa8\xe0\xa5\x87'
p1631
sS'drel'
p1632
S'fragof:\xe0\xa4\xac\xe0\xa5\x8b\xe0\xa4\xb0\xe0\xa5\x8d\xe0\xa4\xa1'
p1633
sS'chunktype'
p1634
S'head:FRAGP'
p1635
sS'chunkid'
p1636
S'FRAGP'
p1637
ssbsg1242
I00
sg1245
I00
sg1256
Nsg1243
Nsg174
I2
sg160
I0
sg1484
Nsg1254
Nsg1485
S'PSP'
p1638
sg261
(issf_api
FeatureSet
p1639
(dp1640
g264
(dp1641
S'posn'
p1642
S'70'
p1643
sS'name'
p1644
S'\xe0\xa4\xa8\xe0\xa5\x87'
p1645
sS'af'
p1646
S'\xe0\xa4\xa8\xe0\xa5\x87,psp,,,,,,'
p1647
ssbsg1263
I00
sba(issf_api
Word
p1648
(dp1649
g1467
I00
sg1468
V\u092d\u093e\u0930\u0924
p1650
sg1470
(issf_api
FeatureSet
p1651
(dp1652
g264
(dp1653
S'posn'
p1654
S'80'
p1655
sS'name'
p1656
S'\xe0\xa4\xad\xe0\xa4\xbe\xe0\xa4\xb0\xe0\xa4\xa4'
p1657
sS'drel'
p1658
S'nmod__adj:\xe0\xa4\xae\xe0\xa5\x88\xe0\xa4\x9a'
p1659
sS'chunktype'
p1660
S'child:NP3'
p1661
sS'af'
p1662
S'\xe0\xa4\xad\xe0\xa4\xbe\xe0\xa4\xb0\xe0\xa4\xa4,n,m,sg,3,d,0,0'
p1663
ssbsg1242
I00
sg1245
I00
sg1256
Nsg1243
Nsg174
I3
sg160
I0
sg1484
Nsg1254
Nsg1485
S'NNP'
p1664
sg261
(issf_api
FeatureSet
p1665
(dp1666
g264
(dp1667
S'posn'
p1668
S'80'
p1669
sS'name'
p1670
S'\xe0\xa4\xad\xe0\xa4\xbe\xe0\xa4\xb0\xe0\xa4\xa4'
p1671
sS'af'
p1672
S'\xe0\xa4\xad\xe0\xa4\xbe\xe0\xa4\xb0\xe0\xa4\xa4,n,m,sg,3,d,0,0'
p1673
ssbsg1263
I00
sba(issf_api
Word
p1674
(dp1675
g1467
I00
sg1468
V-
sg1470
(issf_api
FeatureSet
p1676
(dp1677
g264
(dp1678
S'posn'
p1679
S'90'
p1680
sS'name'
p1681
S'-'
sS'drel'
p1682
S'rsym:\xe0\xa4\xae\xe0\xa5\x88\xe0\xa4\x9a'
p1683
sS'chunktype'
p1684
S'child:NP3'
p1685
sS'af'
p1686
S'-,punc,,,,,,'
p1687
ssbsg1242
I00
sg1245
I00
sg1256
Nsg1243
Nsg174
I3
sg160
I0
sg1484
Nsg1254
Nsg1485
S'SYM'
p1688
sg261
(issf_api
FeatureSet
p1689
(dp1690
g264
(dp1691
S'posn'
p1692
S'90'
p1693
sS'name'
p1694
S'-'
sS'af'
p1695
S'-,punc,,,,,,'
p1696
ssbsg1263
I00
sba(issf_api
Word
p1697
(dp1698
g1467
I00
sg1468
V\u092a\u093e\u0915\u093f\u0938\u094d\u0924\u093e\u0928
p1699
sg1470
(issf_api
FeatureSet
p1700
(dp1701
g264
(dp1702
S'posn'
p1703
S'100'
p1704
sS'name'
p1705
S'\xe0\xa4\xaa\xe0\xa4\xbe\xe0\xa4\x95\xe0\xa4\xbf\xe0\xa4\xb8\xe0\xa5\x8d\xe0\xa4\xa4\xe0\xa4\xbe\xe0\xa4\xa82'
p1706
sS'drel'
p1707
S'nmod__adj:\xe0\xa4\xae\xe0\xa5\x88\xe0\xa4\x9a'
p1708
sS'chunktype'
p1709
S'child:NP3'
p1710
sS'af'
p1711
S'\xe0\xa4\xaa\xe0\xa4\xbe\xe0\xa4\x95\xe0\xa4\xbf\xe0\xa4\xb8\xe0\xa5\x8d\xe0\xa4\xa4\xe0\xa4\xbe\xe0\xa4\xa8,n,m,sg,3,d,0,0'
p1712
ssbsg1242
I00
sg1245
I00
sg1256
Nsg1243
Nsg174
I3
sg160
I0
sg1484
Nsg1254
Nsg1485
S'NNP'
p1713
sg261
(issf_api
FeatureSet
p1714
(dp1715
g264
(dp1716
S'posn'
p1717
S'100'
p1718
sS'name'
p1719
S'\xe0\xa4\xaa\xe0\xa4\xbe\xe0\xa4\x95\xe0\xa4\xbf\xe0\xa4\xb8\xe0\xa5\x8d\xe0\xa4\xa4\xe0\xa4\xbe\xe0\xa4\xa82'
p1720
sS'af'
p1721
S'\xe0\xa4\xaa\xe0\xa4\xbe\xe0\xa4\x95\xe0\xa4\xbf\xe0\xa4\xb8\xe0\xa5\x8d\xe0\xa4\xa4\xe0\xa4\xbe\xe0\xa4\xa8,n,m,sg,3,d,0,0'
p1722
ssbsg1263
I00
sba(issf_api
Word
p1723
(dp1724
g1467
I00
sg1468
V\u0915\u094d\u0930\u093f\u0915\u0947\u091f
p1725
sg1470
(issf_api
FeatureSet
p1726
(dp1727
g264
(dp1728
S'posn'
p1729
S'110'
p1730
sS'name'
p1731
S'\xe0\xa4\x95\xe0\xa5\x8d\xe0\xa4\xb0\xe0\xa4\xbf\xe0\xa4\x95\xe0\xa5\x87\xe0\xa4\x9f2'
p1732
sS'drel'
p1733
S'pof__cn:\xe0\xa4\xae\xe0\xa5\x88\xe0\xa4\x9a'
p1734
sS'chunktype'
p1735
S'child:NP3'
p1736
sS'af'
p1737
S'\xe0\xa4\x95\xe0\xa5\x8d\xe0\xa4\xb0\xe0\xa4\xbf\xe0\xa4\x95\xe0\xa5\x87\xe0\xa4\x9f,n,m,sg,3,d,0,0'
p1738
ssbsg1242
I00
sg1245
I00
sg1256
Nsg1243
Nsg174
I3
sg160
I0
sg1484
Nsg1254
Nsg1485
S'NNC'
p1739
sg261
(issf_api
FeatureSet
p1740
(dp1741
g264
(dp1742
S'posn'
p1743
S'110'
p1744
sS'name'
p1745
S'\xe0\xa4\x95\xe0\xa5\x8d\xe0\xa4\xb0\xe0\xa4\xbf\xe0\xa4\x95\xe0\xa5\x87\xe0\xa4\x9f2'
p1746
sS'af'
p1747
S'\xe0\xa4\x95\xe0\xa5\x8d\xe0\xa4\xb0\xe0\xa4\xbf\xe0\xa4\x95\xe0\xa5\x87\xe0\xa4\x9f,n,m,sg,3,d,0,0'
p1748
ssbsg1263
I00
sba(issf_api
Word
p1749
(dp1750
g1467
I00
sg1468
V\u092e\u0948\u091a
p1751
sg1470
(issf_api
FeatureSet
p1752
(dp1753
g264
(dp1754
S'posn'
p1755
S'120'
p1756
sS'name'
p1757
S'\xe0\xa4\xae\xe0\xa5\x88\xe0\xa4\x9a'
p1758
sS'af'
p1759
S'\xe0\xa4\xae\xe0\xa5\x88\xe0\xa4\x9a,n,m,sg,3,d,0,0'
p1760
sS'chunkid'
p1761
S'NP3'
p1762
sS'drel'
p1763
S'k2:\xe0\xa4\xa6\xe0\xa5\x87\xe0\xa4\x96\xe0\xa4\xa8\xe0\xa5\x87'
p1764
sS'chunktype'
p1765
S'head:NP3'
p1766
ssbsg1242
I00
sg1245
I00
sg1256
Nsg1243
Nsg174
I3
sg160
I0
sg1484
Nsg1254
Nsg1485
S'NN'
p1767
sg261
(issf_api
FeatureSet
p1768
(dp1769
g264
(dp1770
S'posn'
p1771
S'120'
p1772
sS'name'
p1773
S'\xe0\xa4\xae\xe0\xa5\x88\xe0\xa4\x9a'
p1774
sS'af'
p1775
S'\xe0\xa4\xae\xe0\xa5\x88\xe0\xa4\x9a,n,m,sg,3,d,0,0'
p1776
ssbsg1263
I00
sba(issf_api
Word
p1777
(dp1778
g1467
I00
sg1468
V\u0926\u0947\u0916\u0928\u0947
p1779
sg1470
(issf_api
FeatureSet
p1780
(dp1781
g264
(dp1782
S'posn'
p1783
S'130'
p1784
sS'name'
p1785
S'\xe0\xa4\xa6\xe0\xa5\x87\xe0\xa4\x96\xe0\xa4\xa8\xe0\xa5\x87'
p1786
sS'af'
p1787
S'\xe0\xa4\xa6\xe0\xa5\x87\xe0\xa4\x96,v,any,any,any,o,\xe0\xa4\xa8\xe0\xa4\xbe_\xe0\xa4\x95\xe0\xa5\x87_\xe0\xa4\xb2\xe0\xa4\xbf\xe0\xa4\x8f,nA'
p1788
sS'chunkid'
p1789
S'VGNN'
p1790
sS'drel'
p1791
S'rt:\xe0\xa4\xad\xe0\xa5\x87\xe0\xa4\x9c\xe0\xa4\xbe'
p1792
sS'vpos'
p1793
S'tam_2_3'
p1794
sS'chunktype'
p1795
S'head:VGNN'
p1796
ssbsg1242
I00
sg1245
I00
sg1256
Nsg1243
Nsg174
I4
sg160
I0
sg1484
Nsg1254
Nsg1485
S'VM'
p1797
sg261
(issf_api
FeatureSet
p1798
(dp1799
g264
(dp1800
S'posn'
p1801
S'130'
p1802
sS'name'
p1803
S'\xe0\xa4\xa6\xe0\xa5\x87\xe0\xa4\x96\xe0\xa4\xa8\xe0\xa5\x87'
p1804
sS'af'
p1805
S'\xe0\xa4\xa6\xe0\xa5\x87\xe0\xa4\x96,v,any,any,any,o,\xe0\xa4\xa8\xe0\xa4\xbe,nA'
p1806
ssbsg1263
I00
sba(issf_api
Word
p1807
(dp1808
g1467
I00
sg1468
V\u0915\u0947
p1809
sg1470
(issf_api
FeatureSet
p1810
(dp1811
g264
(dp1812
S'posn'
p1813
S'140'
p1814
sS'name'
p1815
S'\xe0\xa4\x95\xe0\xa5\x87'
p1816
sS'drel'
p1817
S'lwg__psp:\xe0\xa4\xa6\xe0\xa5\x87\xe0\xa4\x96\xe0\xa4\xa8\xe0\xa5\x87'
p1818
sS'chunktype'
p1819
S'child:VGNN'
p1820
sS'af'
p1821
S'\xe0\xa4\x95\xe0\xa5\x87,psp,,,,,,'
p1822
ssbsg1242
I00
sg1245
I00
sg1256
Nsg1243
Nsg174
I4
sg160
I0
sg1484
Nsg1254
Nsg1485
S'PSP'
p1823
sg261
(issf_api
FeatureSet
p1824
(dp1825
g264
(dp1826
S'posn'
p1827
S'140'
p1828
sS'name'
p1829
S'\xe0\xa4\x95\xe0\xa5\x87'
p1830
sS'af'
p1831
S'\xe0\xa4\x95\xe0\xa5\x87,psp,,,,,,'
p1832
ssbsg1263
I00
sba(issf_api
Word
p1833
(dp1834
g1467
I00
sg1468
V\u0932\u093f\u090f
p1835
sg1470
(issf_api
FeatureSet
p1836
(dp1837
g264
(dp1838
S'posn'
p1839
S'150'
p1840
sS'name'
p1841
S'\xe0\xa4\xb2\xe0\xa4\xbf\xe0\xa4\x8f'
p1842
sS'drel'
p1843
S'lwg__psp:\xe0\xa4\xa6\xe0\xa5\x87\xe0\xa4\x96\xe0\xa4\xa8\xe0\xa5\x87'
p1844
sS'chunktype'
p1845
S'child:VGNN'
p1846
sS'af'
p1847
S'\xe0\xa4\xb2\xe0\xa4\xbf\xe0\xa4\x8f,psp,,,,,,'
p1848
ssbsg1242
I00
sg1245
I00
sg1256
Nsg1243
Nsg174
I4
sg160
I0
sg1484
Nsg1254
Nsg1485
S'PSP'
p1849
sg261
(issf_api
FeatureSet
p1850
(dp1851
g264
(dp1852
S'posn'
p1853
S'150'
p1854
sS'name'
p1855
S'\xe0\xa4\xb2\xe0\xa4\xbf\xe0\xa4\x8f'
p1856
sS'af'
p1857
S'\xe0\xa4\xb2\xe0\xa4\xbf\xe0\xa4\x8f,psp,,,,,,'
p1858
ssbsg1263
I00
sba(issf_api
Word
p1859
(dp1860
g1467
I00
sg1468
V\u0915\u093e\u0902\u0917\u094d\u0930\u0947\u0938
p1861
sg1470
(issf_api
FeatureSet
p1862
(dp1863
g264
(dp1864
S'posn'
p1865
S'160'
p1866
sS'name'
p1867
S'\xe0\xa4\x95\xe0\xa4\xbe\xe0\xa4\x82\xe0\xa4\x97\xe0\xa5\x8d\xe0\xa4\xb0\xe0\xa5\x87\xe0\xa4\xb8'
p1868
sS'drel'
p1869
S'nmod__adj:\xe0\xa4\xb8\xe0\xa4\xbe\xe0\xa4\x82\xe0\xa4\xb8\xe0\xa4\xa6'
p1870
sS'chunktype'
p1871
S'child:NP4'
p1872
sS'af'
p1873
S'\xe0\xa4\x95\xe0\xa4\xbe\xe0\xa4\x82\xe0\xa4\x97\xe0\xa5\x8d\xe0\xa4\xb0\xe0\xa5\x87\xe0\xa4\xb8,n,f,sg,3,d,0,0'
p1874
ssbsg1242
I00
sg1245
I00
sg1256
Nsg1243
Nsg174
I5
sg160
I0
sg1484
Nsg1254
Nsg1485
S'NNP'
p1875
sg261
(issf_api
FeatureSet
p1876
(dp1877
g264
(dp1878
S'posn'
p1879
S'160'
p1880
sS'name'
p1881
S'\xe0\xa4\x95\xe0\xa4\xbe\xe0\xa4\x82\xe0\xa4\x97\xe0\xa5\x8d\xe0\xa4\xb0\xe0\xa5\x87\xe0\xa4\xb8'
p1882
sS'af'
p1883
S'\xe0\xa4\x95\xe0\xa4\xbe\xe0\xa4\x82\xe0\xa4\x97\xe0\xa5\x8d\xe0\xa4\xb0\xe0\xa5\x87\xe0\xa4\xb8,n,f,sg,3,d,0,0'
p1884
ssbsg1263
I00
sba(issf_api
Word
p1885
(dp1886
g1467
I00
sg1468
V\u0938\u093e\u0902\u0938\u0926
p1887
sg1470
(issf_api
FeatureSet
p1888
(dp1889
g264
(dp1890
S'posn'
p1891
S'170'
p1892
sS'name'
p1893
S'\xe0\xa4\xb8\xe0\xa4\xbe\xe0\xa4\x82\xe0\xa4\xb8\xe0\xa4\xa6'
p1894
sS'af'
p1895
S'\xe0\xa4\xb8\xe0\xa4\xbe\xe0\xa4\x82\xe0\xa4\xb8\xe0\xa4\xa6,n,m,sg,3,o,0,0'
p1896
sS'chunkid'
p1897
S'NP4'
p1898
sS'drel'
p1899
S'nmod:\xe0\xa4\x97\xe0\xa4\xbe\xe0\xa4\x82\xe0\xa4\xa7\xe0\xa5\x80'
p1900
sS'chunktype'
p1901
S'head:NP4'
p1902
ssbsg1242
I00
sg1245
I00
sg1256
Nsg1243
Nsg174
I5
sg160
I0
sg1484
Nsg1254
Nsg1485
S'NN'
p1903
sg261
(issf_api
FeatureSet
p1904
(dp1905
g264
(dp1906
S'posn'
p1907
S'170'
p1908
sS'name'
p1909
S'\xe0\xa4\xb8\xe0\xa4\xbe\xe0\xa4\x82\xe0\xa4\xb8\xe0\xa4\xa6'
p1910
sS'af'
p1911
S'\xe0\xa4\xb8\xe0\xa4\xbe\xe0\xa4\x82\xe0\xa4\xb8\xe0\xa4\xa6,n,m,sg,3,o,0,0'
p1912
ssbsg1263
I00
sba(issf_api
Word
p1913
(dp1914
g1467
I00
sg1468
V\u0930\u093e\u0939\u0941\u0932
p1915
sg1470
(issf_api
FeatureSet
p1916
(dp1917
g264
(dp1918
S'posn'
p1919
S'180'
p1920
sS'name'
p1921
S'\xe0\xa4\xb0\xe0\xa4\xbe\xe0\xa4\xb9\xe0\xa5\x81\xe0\xa4\xb2'
p1922
sS'drel'
p1923
S'pof__cn:\xe0\xa4\x97\xe0\xa4\xbe\xe0\xa4\x82\xe0\xa4\xa7\xe0\xa5\x80'
p1924
sS'chunktype'
p1925
S'child:NP5'
p1926
sS'af'
p1927
S'\xe0\xa4\xb0\xe0\xa4\xbe\xe0\xa4\xb9\xe0\xa5\x81\xe0\xa4\xb2,n,m,sg,3,d,0,0'
p1928
ssbsg1242
I00
sg1245
I00
sg1256
Nsg1243
Nsg174
I6
sg160
I0
sg1484
Nsg1254
Nsg1485
S'NNPC'
p1929
sg261
(issf_api
FeatureSet
p1930
(dp1931
g264
(dp1932
S'posn'
p1933
S'180'
p1934
sS'name'
p1935
S'\xe0\xa4\xb0\xe0\xa4\xbe\xe0\xa4\xb9\xe0\xa5\x81\xe0\xa4\xb2'
p1936
sS'af'
p1937
S'\xe0\xa4\xb0\xe0\xa4\xbe\xe0\xa4\xb9\xe0\xa5\x81\xe0\xa4\xb2,n,m,sg,3,d,0,0'
p1938
ssbsg1263
I00
sba(issf_api
Word
p1939
(dp1940
g1467
I00
sg1468
V\u0917\u093e\u0902\u0927\u0940
p1941
sg1470
(issf_api
FeatureSet
p1942
(dp1943
g264
(dp1944
S'posn'
p1945
S'190'
p1946
sS'name'
p1947
S'\xe0\xa4\x97\xe0\xa4\xbe\xe0\xa4\x82\xe0\xa4\xa7\xe0\xa5\x80'
p1948
sS'af'
p1949
S'\xe0\xa4\x97\xe0\xa4\xbe\xe0\xa4\x82\xe0\xa4\xa7\xe0\xa5\x80,n,any,sg,3,o,0,0'
p1950
sS'chunkid'
p1951
S'NP5'
p1952
sS'drel'
p1953
S'ccof:\xe0\xa4\x94\xe0\xa4\xb0'
p1954
sS'chunktype'
p1955
S'head:NP5'
p1956
ssbsg1242
I00
sg1245
I00
sg1256
Nsg1243
Nsg174
I6
sg160
I0
sg1484
Nsg1254
Nsg1485
S'NNP'
p1957
sg261
(issf_api
FeatureSet
p1958
(dp1959
g264
(dp1960
S'posn'
p1961
S'190'
p1962
sS'name'
p1963
S'\xe0\xa4\x97\xe0\xa4\xbe\xe0\xa4\x82\xe0\xa4\xa7\xe0\xa5\x80'
p1964
sS'af'
p1965
S'\xe0\xa4\x97\xe0\xa4\xbe\xe0\xa4\x82\xe0\xa4\xa7\xe0\xa5\x80,n,any,sg,3,o,0,0'
p1966
ssbsg1263
I00
sba(issf_api
Word
p1967
(dp1968
g1467
I00
sg1468
V\u0914\u0930
p1969
sg1470
(issf_api
FeatureSet
p1970
(dp1971
g264
(dp1972
S'posn'
p1973
S'200'
p1974
sS'name'
p1975
S'\xe0\xa4\x94\xe0\xa4\xb0'
p1976
sS'af'
p1977
S'\xe0\xa4\x94\xe0\xa4\xb0,avy,,,,,,'
p1978
sS'chunkid'
p1979
S'CCP'
p1980
sS'drel'
p1981
S'k4:\xe0\xa4\xad\xe0\xa5\x87\xe0\xa4\x9c\xe0\xa4\xbe'
p1982
sS'chunktype'
p1983
S'head:CCP'
p1984
ssbsg1242
I00
sg1245
I00
sg1256
Nsg1243
Nsg174
I7
sg160
I0
sg1484
Nsg1254
Nsg1485
S'CC'
p1985
sg261
(issf_api
FeatureSet
p1986
(dp1987
g264
(dp1988
S'posn'
p1989
S'200'
p1990
sS'name'
p1991
S'\xe0\xa4\x94\xe0\xa4\xb0'
p1992
sS'af'
p1993
S'\xe0\xa4\x94\xe0\xa4\xb0,avy,,,,,,'
p1994
ssbsg1263
I00
sba(issf_api
Word
p1995
(dp1996
g1467
I00
sg1468
V\u0909\u0928\u0915\u0940
p1997
sg1470
(issf_api
FeatureSet
p1998
(dp1999
g264
(dp2000
S'posn'
p2001
S'210'
p2002
sS'name'
p2003
S'\xe0\xa4\x89\xe0\xa4\xa8\xe0\xa4\x95\xe0\xa5\x80'
p2004
sS'af'
p2005
S'\xe0\xa4\xb5\xe0\xa4\xb9,pn,f,sg,3h,o,\xe0\xa4\x95\xe0\xa4\xbe,kA'
p2006
sS'chunkid'
p2007
S'NP6'
p2008
sS'drel'
p2009
S'r6:\xe0\xa4\xac\xe0\xa4\xb9\xe0\xa4\xa8'
p2010
sS'chunktype'
p2011
S'head:NP6'
p2012
ssbsg1242
I00
sg1245
I00
sg1256
Nsg1243
Nsg174
I8
sg160
I0
sg1484
Nsg1254
Nsg1485
S'PRP'
p2013
sg261
(issf_api
FeatureSet
p2014
(dp2015
g264
(dp2016
S'posn'
p2017
S'210'
p2018
sS'name'
p2019
S'\xe0\xa4\x89\xe0\xa4\xa8\xe0\xa4\x95\xe0\xa5\x80'
p2020
sS'af'
p2021
S'\xe0\xa4\xb5\xe0\xa4\xb9,pn,f,sg,3h,o,\xe0\xa4\x95\xe0\xa4\xbe,kA'
p2022
ssbsg1263
I00
sba(issf_api
Word
p2023
(dp2024
g1467
I00
sg1468
V\u092c\u0939\u0928
p2025
sg1470
(issf_api
FeatureSet
p2026
(dp2027
g264
(dp2028
S'posn'
p2029
S'220'
p2030
sS'name'
p2031
S'\xe0\xa4\xac\xe0\xa4\xb9\xe0\xa4\xa8'
p2032
sS'af'
p2033
S'\xe0\xa4\xac\xe0\xa4\xb9\xe0\xa4\xa8,n,f,sg,3,o,0,0'
p2034
sS'chunkid'
p2035
S'NP7'
p2036
sS'drel'
p2037
S'nmod:\xe0\xa4\xb5\xe0\xa4\xbe\xe0\xa4\xa1\xe0\xa5\x8d\xe0\xa4\xb0\xe0\xa4\xbe'
p2038
sS'chunktype'
p2039
S'head:NP7'
p2040
ssbsg1242
I00
sg1245
I00
sg1256
Nsg1243
Nsg174
I9
sg160
I0
sg1484
Nsg1254
Nsg1485
S'NN'
p2041
sg261
(issf_api
FeatureSet
p2042
(dp2043
g264
(dp2044
S'posn'
p2045
S'220'
p2046
sS'name'
p2047
S'\xe0\xa4\xac\xe0\xa4\xb9\xe0\xa4\xa8'
p2048
sS'af'
p2049
S'\xe0\xa4\xac\xe0\xa4\xb9\xe0\xa4\xa8,n,f,sg,3,o,0,0'
p2050
ssbsg1263
I00
sba(issf_api
Word
p2051
(dp2052
g1467
I00
sg1468
V\u092a\u094d\u0930\u093f\u092f\u0902\u0915\u093e
p2053
sg1470
(issf_api
FeatureSet
p2054
(dp2055
g264
(dp2056
S'posn'
p2057
S'230'
p2058
sS'name'
p2059
S'\xe0\xa4\xaa\xe0\xa5\x8d\xe0\xa4\xb0\xe0\xa4\xbf\xe0\xa4\xaf\xe0\xa4\x82\xe0\xa4\x95\xe0\xa4\xbe'
p2060
sS'drel'
p2061
S'pof__cn:\xe0\xa4\xb5\xe0\xa4\xbe\xe0\xa4\xa1\xe0\xa5\x8d\xe0\xa4\xb0\xe0\xa4\xbe'
p2062
sS'chunktype'
p2063
S'child:NP8'
p2064
sS'af'
p2065
S'\xe0\xa4\xaa\xe0\xa5\x8d\xe0\xa4\xb0\xe0\xa4\xbf\xe0\xa4\xaf\xe0\xa4\x82\xe0\xa4\x95\xe0\xa4\xbe,n,f,sg,3,d,0,0'
p2066
ssbsg1242
I00
sg1245
I00
sg1256
Nsg1243
Nsg174
I10
sg160
I0
sg1484
Nsg1254
Nsg1485
S'NNPC'
p2067
sg261
(issf_api
FeatureSet
p2068
(dp2069
g264
(dp2070
S'posn'
p2071
S'230'
p2072
sS'name'
p2073
S'\xe0\xa4\xaa\xe0\xa5\x8d\xe0\xa4\xb0\xe0\xa4\xbf\xe0\xa4\xaf\xe0\xa4\x82\xe0\xa4\x95\xe0\xa4\xbe'
p2074
sS'af'
p2075
S'\xe0\xa4\xaa\xe0\xa5\x8d\xe0\xa4\xb0\xe0\xa4\xbf\xe0\xa4\xaf\xe0\xa4\x82\xe0\xa4\x95\xe0\xa4\xbe,n,f,sg,3,d,0,0'
p2076
ssbsg1263
I00
sba(issf_api
Word
p2077
(dp2078
g1467
I00
sg1468
V\u0935\u093e\u0921\u094d\u0930\u093e
p2079
sg1470
(issf_api
FeatureSet
p2080
(dp2081
g264
(dp2082
S'posn'
p2083
S'240'
p2084
sS'name'
p2085
S'\xe0\xa4\xb5\xe0\xa4\xbe\xe0\xa4\xa1\xe0\xa5\x8d\xe0\xa4\xb0\xe0\xa4\xbe'
p2086
sS'af'
p2087
S'\xe0\xa4\xb5\xe0\xa4\xbe\xe0\xa4\xa1\xe0\xa5\x8d\xe0\xa4\xb0\xe0\xa4\xbe,n,any,sg,3,o,0_\xe0\xa4\x95\xe0\xa5\x8b,0'
p2088
sS'chunkid'
p2089
S'NP8'
p2090
sS'drel'
p2091
S'ccof:\xe0\xa4\x94\xe0\xa4\xb0'
p2092
sS'vpos'
p2093
S'vib_3'
p2094
sS'chunktype'
p2095
S'head:NP8'
p2096
ssbsg1242
I00
sg1245
I00
sg1256
Nsg1243
Nsg174
I10
sg160
I0
sg1484
Nsg1254
Nsg1485
S'NNP'
p2097
sg261
(issf_api
FeatureSet
p2098
(dp2099
g264
(dp2100
S'posn'
p2101
S'240'
p2102
sS'name'
p2103
S'\xe0\xa4\xb5\xe0\xa4\xbe\xe0\xa4\xa1\xe0\xa5\x8d\xe0\xa4\xb0\xe0\xa4\xbe'
p2104
sS'af'
p2105
S'\xe0\xa4\xb5\xe0\xa4\xbe\xe0\xa4\xa1\xe0\xa5\x8d\xe0\xa4\xb0\xe0\xa4\xbe,n,any,sg,3,o,0,0'
p2106
ssbsg1263
I00
sba(issf_api
Word
p2107
(dp2108
g1467
I00
sg1468
V\u0915\u094b
p2109
sg1470
(issf_api
FeatureSet
p2110
(dp2111
g264
(dp2112
S'posn'
p2113
S'250'
p2114
sS'name'
p2115
S'\xe0\xa4\x95\xe0\xa5\x8b'
p2116
sS'drel'
p2117
S'lwg__psp:\xe0\xa4\xb5\xe0\xa4\xbe\xe0\xa4\xa1\xe0\xa5\x8d\xe0\xa4\xb0\xe0\xa4\xbe'
p2118
sS'chunktype'
p2119
S'child:NP8'
p2120
sS'af'
p2121
S'\xe0\xa4\x95\xe0\xa5\x8b,psp,,,,,,'
p2122
ssbsg1242
I00
sg1245
I00
sg1256
Nsg1243
Nsg174
I10
sg160
I0
sg1484
Nsg1254
Nsg1485
S'PSP'
p2123
sg261
(issf_api
FeatureSet
p2124
(dp2125
g264
(dp2126
S'posn'
p2127
S'250'
p2128
sS'name'
p2129
S'\xe0\xa4\x95\xe0\xa5\x8b'
p2130
sS'af'
p2131
S'\xe0\xa4\x95\xe0\xa5\x8b,psp,,,,,,'
p2132
ssbsg1263
I00
sba(issf_api
Word
p2133
(dp2134
g1467
I00
sg1468
V\u0928\u093f\u092e\u0902\u0924\u094d\u0930\u0923
p2135
sg1470
(issf_api
FeatureSet
p2136
(dp2137
g264
(dp2138
S'posn'
p2139
S'260'
p2140
sS'name'
p2141
S'\xe0\xa4\xa8\xe0\xa4\xbf\xe0\xa4\xae\xe0\xa4\x82\xe0\xa4\xa4\xe0\xa5\x8d\xe0\xa4\xb0\xe0\xa4\xa3'
p2142
sS'af'
p2143
S'\xe0\xa4\xa8\xe0\xa4\xbf\xe0\xa4\xae\xe0\xa4\x82\xe0\xa4\xa4\xe0\xa5\x8d\xe0\xa4\xb0\xe0\xa4\xa3,n,m,sg,3,d,0,0'
p2144
sS'chunkid'
p2145
S'NP9'
p2146
sS'drel'
p2147
S'k2:\xe0\xa4\xad\xe0\xa5\x87\xe0\xa4\x9c\xe0\xa4\xbe'
p2148
sS'chunktype'
p2149
S'head:NP9'
p2150
ssbsg1242
I00
sg1245
I00
sg1256
Nsg1243
Nsg174
I11
sg160
I0
sg1484
Nsg1254
Nsg1485
S'NN'
p2151
sg261
(issf_api
FeatureSet
p2152
(dp2153
g264
(dp2154
S'posn'
p2155
S'260'
p2156
sS'name'
p2157
S'\xe0\xa4\xa8\xe0\xa4\xbf\xe0\xa4\xae\xe0\xa4\x82\xe0\xa4\xa4\xe0\xa5\x8d\xe0\xa4\xb0\xe0\xa4\xa3'
p2158
sS'af'
p2159
S'\xe0\xa4\xa8\xe0\xa4\xbf\xe0\xa4\xae\xe0\xa4\x82\xe0\xa4\xa4\xe0\xa5\x8d\xe0\xa4\xb0\xe0\xa4\xa3,n,m,sg,3,d,0,0'
p2160
ssbsg1263
I00
sba(issf_api
Word
p2161
(dp2162
g1467
I00
sg1468
V\u092d\u0947\u091c\u093e
p2163
sg1470
(issf_api
FeatureSet
p2164
(dp2165
g264
(dp2166
S'posn'
p2167
S'270'
p2168
sS'name'
p2169
S'\xe0\xa4\xad\xe0\xa5\x87\xe0\xa4\x9c\xe0\xa4\xbe'
p2170
sS'af'
p2171
S'\xe0\xa4\xad\xe0\xa5\x87\xe0\xa4\x9c,v,m,sg,3,,\xe0\xa4\xaf\xe0\xa4\xbe_\xe0\xa4\xb9\xe0\xa5\x88,yA'
p2172
sS'chunkid'
p2173
S'VGF'
p2174
sS'chunktype'
p2175
S'head:VGF'
p2176
sS'voicetype'
p2177
S'active'
p2178
sS'vpos'
p2179
S'tam_2'
p2180
sS'stype'
p2181
S'declarative'
p2182
ssbsg1242
I00
sg1245
I00
sg1256
Nsg1243
Nsg174
I12
sg160
I0
sg1484
Nsg1254
Nsg1485
S'VM'
p2183
sg261
(issf_api
FeatureSet
p2184
(dp2185
g264
(dp2186
S'posn'
p2187
S'270'
p2188
sS'name'
p2189
S'\xe0\xa4\xad\xe0\xa5\x87\xe0\xa4\x9c\xe0\xa4\xbe'
p2190
sS'af'
p2191
S'\xe0\xa4\xad\xe0\xa5\x87\xe0\xa4\x9c,v,m,sg,any,,\xe0\xa4\xaf\xe0\xa4\xbe,yA'
p2192
ssbsg1263
I00
sba(issf_api
Word
p2193
(dp2194
g1467
I00
sg1468
V\u0939\u0948
p2195
sg1470
(issf_api
FeatureSet
p2196
(dp2197
g264
(dp2198
S'posn'
p2199
S'280'
p2200
sS'name'
p2201
S'\xe0\xa4\xb9\xe0\xa5\x88'
p2202
sS'drel'
p2203
S'lwg__vaux:\xe0\xa4\xad\xe0\xa5\x87\xe0\xa4\x9c\xe0\xa4\xbe'
p2204
sS'chunktype'
p2205
S'child:VGF'
p2206
sS'af'
p2207
S'\xe0\xa4\xb9\xe0\xa5\x88,v,any,sg,3,,\xe0\xa4\xb9\xe0\xa5\x88,hE'
p2208
ssbsg1242
I00
sg1245
I00
sg1256
Nsg1243
Nsg174
I12
sg160
I0
sg1484
Nsg1254
Nsg1485
S'VAUX'
p2209
sg261
(issf_api
FeatureSet
p2210
(dp2211
g264
(dp2212
S'posn'
p2213
S'280'
p2214
sS'name'
p2215
S'\xe0\xa4\xb9\xe0\xa5\x88'
p2216
sS'af'
p2217
S'\xe0\xa4\xb9\xe0\xa5\x88,v,any,sg,3,,\xe0\xa4\xb9\xe0\xa5\x88,hE'
p2218
ssbsg1263
I00
sba(issf_api
Word
p2219
(dp2220
g1467
I00
sg1468
V\u0964
sg1470
(issf_api
FeatureSet
p2221
(dp2222
g264
(dp2223
S'posn'
p2224
S'290'
p2225
sS'name'
p2226
S'\xe0\xa5\xa4'
p2227
sS'af'
p2228
S'\xe0\xa5\xa4,punc,,,,,,'
p2229
sS'chunkid'
p2230
S'BLK'
p2231
sS'drel'
p2232
S'rsym:\xe0\xa4\xad\xe0\xa5\x87\xe0\xa4\x9c\xe0\xa4\xbe'
p2233
sS'chunktype'
p2234
S'head:BLK'
p2235
ssbsg1242
I00
sg1245
I00
sg1256
Nsg1243
Nsg174
I13
sg160
I0
sg1484
Nsg1254
Nsg1485
S'SYM'
p2236
sg261
(issf_api
FeatureSet
p2237
(dp2238
g264
(dp2239
S'posn'
p2240
S'290'
p2241
sS'name'
p2242
S'\xe0\xa5\xa4'
p2243
sS'af'
p2244
S'\xe0\xa5\xa4,punc,,,,,,'
p2245
ssbsg1263
I00
sba(issf_api
Word
p2246
(dp2247
g1467
I00
sg1468
V\u092e\u0940\u0921\u093f\u092f\u093e
p2248
sg1470
(issf_api
FeatureSet
p2249
(dp2250
g264
(dp2251
S'posn'
p2252
S'10'
p2253
sS'name'
p2254
S'\xe0\xa4\xae\xe0\xa5\x80\xe0\xa4\xa1\xe0\xa4\xbf\xe0\xa4\xaf\xe0\xa4\xbe'
p2255
sS'drel'
p2256
S'pof__cn:\xe0\xa4\xb0\xe0\xa4\xbf\xe0\xa4\xaa\xe0\xa5\x8b\xe0\xa4\xb0\xe0\xa5\x8d\xe0\xa4\x9f\xe0\xa5\x8b\xe0\xa4\x82'
p2257
sS'chunktype'
p2258
S'child:NP'
p2259
sS'af'
p2260
S'\xe0\xa4\xae\xe0\xa5\x80\xe0\xa4\xa1\xe0\xa4\xbf\xe0\xa4\xaf\xe0\xa4\xbe,n,f,sg,3,d,0,0'
p2261
ssbsg1242
I00
sg1245
I00
sg1256
Nsg1243
Nsg174
I0
sg160
I1
sg1484
Nsg1254
Nsg1485
S'NNC'
p2262
sg261
(issf_api
FeatureSet
p2263
(dp2264
g264
(dp2265
S'posn'
p2266
S'10'
p2267
sS'name'
p2268
S'\xe0\xa4\xae\xe0\xa5\x80\xe0\xa4\xa1\xe0\xa4\xbf\xe0\xa4\xaf\xe0\xa4\xbe'
p2269
sS'af'
p2270
S'\xe0\xa4\xae\xe0\xa5\x80\xe0\xa4\xa1\xe0\xa4\xbf\xe0\xa4\xaf\xe0\xa4\xbe,n,f,sg,3,d,0,0'
p2271
ssbsg1263
I00
sba(issf_api
Word
p2272
(dp2273
g1467
I00
sg1468
V\u0930\u093f\u092a\u094b\u0930\u094d\u091f\u094b\u0902
p2274
sg1470
(issf_api
FeatureSet
p2275
(dp2276
g264
(dp2277
S'posn'
p2278
S'20'
p2279
sS'name'
p2280
S'\xe0\xa4\xb0\xe0\xa4\xbf\xe0\xa4\xaa\xe0\xa5\x8b\xe0\xa4\xb0\xe0\xa5\x8d\xe0\xa4\x9f\xe0\xa5\x8b\xe0\xa4\x82'
p2281
sS'af'
p2282
S'\xe0\xa4\xb0\xe0\xa4\xbf\xe0\xa4\xaa\xe0\xa5\x8b\xe0\xa4\xb0\xe0\xa5\x8d\xe0\xa4\x9f,n,f,pl,3,o,0_\xe0\xa4\x95\xe0\xa5\x87_\xe0\xa4\xae\xe0\xa5\x81\xe0\xa4\xa4\xe0\xa4\xbe\xe0\xa4\xac\xe0\xa4\xbf\xe0\xa4\x95,0'
p2283
sS'chunkid'
p2284
S'NP'
p2285
sS'drel'
p2286
S'k7a:\xe0\xa4\xad\xe0\xa5\x87\xe0\xa4\x9c\xe0\xa4\xbe'
p2287
sS'vpos'
p2288
S'vib_3_4'
p2289
sS'chunktype'
p2290
S'head:NP'
p2291
ssbsg1242
I00
sg1245
I00
sg1256
Nsg1243
Nsg174
I0
sg160
I1
sg1484
Nsg1254
Nsg1485
S'NN'
p2292
sg261
(issf_api
FeatureSet
p2293
(dp2294
g264
(dp2295
S'posn'
p2296
S'20'
p2297
sS'name'
p2298
S'\xe0\xa4\xb0\xe0\xa4\xbf\xe0\xa4\xaa\xe0\xa5\x8b\xe0\xa4\xb0\xe0\xa5\x8d\xe0\xa4\x9f\xe0\xa5\x8b\xe0\xa4\x82'
p2299
sS'af'
p2300
S'\xe0\xa4\xb0\xe0\xa4\xbf\xe0\xa4\xaa\xe0\xa5\x8b\xe0\xa4\xb0\xe0\xa5\x8d\xe0\xa4\x9f,n,f,pl,3,o,0,0'
p2301
ssbsg1263
I00
sba(issf_api
Word
p2302
(dp2303
g1467
I00
sg1468
V\u0915\u0947
p2304
sg1470
(issf_api
FeatureSet
p2305
(dp2306
g264
(dp2307
S'posn'
p2308
S'30'
p2309
sS'name'
p2310
S'\xe0\xa4\x95\xe0\xa5\x87'
p2311
sS'drel'
p2312
S'lwg__psp:\xe0\xa4\xb0\xe0\xa4\xbf\xe0\xa4\xaa\xe0\xa5\x8b\xe0\xa4\xb0\xe0\xa5\x8d\xe0\xa4\x9f\xe0\xa5\x8b\xe0\xa4\x82'
p2313
sS'chunktype'
p2314
S'child:NP'
p2315
sS'af'
p2316
S'\xe0\xa4\x95\xe0\xa5\x87,psp,,,,,,'
p2317
ssbsg1242
I00
sg1245
I00
sg1256
Nsg1243
Nsg174
I0
sg160
I1
sg1484
Nsg1254
Nsg1485
S'PSP'
p2318
sg261
(issf_api
FeatureSet
p2319
(dp2320
g264
(dp2321
S'posn'
p2322
S'30'
p2323
sS'name'
p2324
S'\xe0\xa4\x95\xe0\xa5\x87'
p2325
sS'af'
p2326
S'\xe0\xa4\x95\xe0\xa5\x87,psp,,,,,,'
p2327
ssbsg1263
I00
sba(issf_api
Word
p2328
(dp2329
g1467
I00
sg1468
V\u092e\u0941\u0924\u093e\u092c\u093f\u0915
p2330
sg1470
(issf_api
FeatureSet
p2331
(dp2332
g264
(dp2333
S'posn'
p2334
S'40'
p2335
sS'name'
p2336
S'\xe0\xa4\xae\xe0\xa5\x81\xe0\xa4\xa4\xe0\xa4\xbe\xe0\xa4\xac\xe0\xa4\xbf\xe0\xa4\x95'
p2337
sS'drel'
p2338
S'lwg__psp:\xe0\xa4\xb0\xe0\xa4\xbf\xe0\xa4\xaa\xe0\xa5\x8b\xe0\xa4\xb0\xe0\xa5\x8d\xe0\xa4\x9f\xe0\xa5\x8b\xe0\xa4\x82'
p2339
sS'chunktype'
p2340
S'child:NP'
p2341
sS'af'
p2342
S'\xe0\xa4\xae\xe0\xa5\x81\xe0\xa4\xa4\xe0\xa4\xbe\xe0\xa4\xac\xe0\xa4\xbf\xe0\xa4\x95,psp,,,,,,'
p2343
ssbsg1242
I00
sg1245
I00
sg1256
Nsg1243
Nsg174
I0
sg160
I1
sg1484
Nsg1254
Nsg1485
S'PSP'
p2344
sg261
(issf_api
FeatureSet
p2345
(dp2346
g264
(dp2347
S'posn'
p2348
S'40'
p2349
sS'name'
p2350
S'\xe0\xa4\xae\xe0\xa5\x81\xe0\xa4\xa4\xe0\xa4\xbe\xe0\xa4\xac\xe0\xa4\xbf\xe0\xa4\x95'
p2351
sS'af'
p2352
S'\xe0\xa4\xae\xe0\xa5\x81\xe0\xa4\xa4\xe0\xa4\xbe\xe0\xa4\xac\xe0\xa4\xbf\xe0\xa4\x95,psp,,,,,,'
p2353
ssbsg1263
I00
sba(issf_api
Word
p2354
(dp2355
g1467
I00
sg1468
V\u092d\u093e\u0930\u0924
p2356
sg1470
(issf_api
FeatureSet
p2357
(dp2358
g264
(dp2359
S'posn'
p2360
S'50'
p2361
sS'name'
p2362
S'\xe0\xa4\xad\xe0\xa4\xbe\xe0\xa4\xb0\xe0\xa4\xa4'
p2363
sS'af'
p2364
S'\xe0\xa4\xad\xe0\xa4\xbe\xe0\xa4\xb0\xe0\xa4\xa4,n,m,sg,3,o,0_\xe0\xa4\x95\xe0\xa5\x87_\xe0\xa4\x96\xe0\xa4\xbf\xe0\xa4\xb2\xe0\xa4\xbe\xe0\xa4\xab,0'
p2365
sS'chunkid'
p2366
S'NP2'
p2367
sS'drel'
p2368
S'jjmod:\xe0\xa4\x9c\xe0\xa4\xbe\xe0\xa4\xb0\xe0\xa5\x80'
p2369
sS'vpos'
p2370
S'vib_2_3'
p2371
sS'chunktype'
p2372
S'head:NP2'
p2373
ssbsg1242
I00
sg1245
I00
sg1256
Nsg1243
Nsg174
I1
sg160
I1
sg1484
Nsg1254
Nsg1485
S'NNP'
p2374
sg261
(issf_api
FeatureSet
p2375
(dp2376
g264
(dp2377
S'posn'
p2378
S'50'
p2379
sS'name'
p2380
S'\xe0\xa4\xad\xe0\xa4\xbe\xe0\xa4\xb0\xe0\xa4\xa4'
p2381
sS'af'
p2382
S'\xe0\xa4\xad\xe0\xa4\xbe\xe0\xa4\xb0\xe0\xa4\xa4,n,m,sg,3,o,0,0'
p2383
ssbsg1263
I00
sba(issf_api
Word
p2384
(dp2385
g1467
I00
sg1468
V\u0915\u0947
p2386
sg1470
(issf_api
FeatureSet
p2387
(dp2388
g264
(dp2389
S'posn'
p2390
S'60'
p2391
sS'name'
p2392
S'\xe0\xa4\x95\xe0\xa5\x872'
p2393
sS'drel'
p2394
S'lwg__psp:\xe0\xa4\xad\xe0\xa4\xbe\xe0\xa4\xb0\xe0\xa4\xa4'
p2395
sS'chunktype'
p2396
S'child:NP2'
p2397
sS'af'
p2398
S'\xe0\xa4\x95\xe0\xa5\x87,psp,,,,,,'
p2399
ssbsg1242
I00
sg1245
I00
sg1256
Nsg1243
Nsg174
I1
sg160
I1
sg1484
Nsg1254
Nsg1485
S'PSP'
p2400
sg261
(issf_api
FeatureSet
p2401
(dp2402
g264
(dp2403
S'posn'
p2404
S'60'
p2405
sS'name'
p2406
S'\xe0\xa4\x95\xe0\xa5\x872'
p2407
sS'af'
p2408
S'\xe0\xa4\x95\xe0\xa5\x87,psp,,,,,,'
p2409
ssbsg1263
I00
sba(issf_api
Word
p2410
(dp2411
g1467
I00
sg1468
V\u0916\u093f\u0932\u093e\u092b
p2412
sg1470
(issf_api
FeatureSet
p2413
(dp2414
g264
(dp2415
S'posn'
p2416
S'70'
p2417
sS'name'
p2418
S'\xe0\xa4\x96\xe0\xa4\xbf\xe0\xa4\xb2\xe0\xa4\xbe\xe0\xa4\xab'
p2419
sS'drel'
p2420
S'lwg__psp:\xe0\xa4\xad\xe0\xa4\xbe\xe0\xa4\xb0\xe0\xa4\xa4'
p2421
sS'chunktype'
p2422
S'child:NP2'
p2423
sS'af'
p2424
S'\xe0\xa4\x96\xe0\xa4\xbf\xe0\xa4\xb2\xe0\xa4\xbe\xe0\xa4\xab,adj,,,,,,'
p2425
ssbsg1242
I00
sg1245
I00
sg1256
Nsg1243
Nsg174
I1
sg160
I1
sg1484
Nsg1254
Nsg1485
S'PSP'
p2426
sg261
(issf_api
FeatureSet
p2427
(dp2428
g264
(dp2429
S'posn'
p2430
S'70'
p2431
sS'name'
p2432
S'\xe0\xa4\x96\xe0\xa4\xbf\xe0\xa4\xb2\xe0\xa4\xbe\xe0\xa4\xab'
p2433
sS'af'
p2434
S'\xe0\xa4\x96\xe0\xa4\xbf\xe0\xa4\xb2\xe0\xa4\xbe\xe0\xa4\xab,adj,,,,,,'
p2435
ssbsg1263
I00
sba(issf_api
Word
p2436
(dp2437
g1467
I00
sg1468
V\u091c\u093e\u0930\u0940
p2438
sg1470
(issf_api
FeatureSet
p2439
(dp2440
g264
(dp2441
S'posn'
p2442
S'80'
p2443
sS'name'
p2444
S'\xe0\xa4\x9c\xe0\xa4\xbe\xe0\xa4\xb0\xe0\xa5\x80'
p2445
sS'af'
p2446
S'\xe0\xa4\x9c\xe0\xa4\xbe\xe0\xa4\xb0\xe0\xa5\x80,adj,any,any,,o,,'
p2447
sS'chunkid'
p2448
S'JJP'
p2449
sS'drel'
p2450
S'nmod:\xe0\xa4\xb6\xe0\xa5\x8d\xe0\xa4\xb0\xe0\xa5\x83\xe0\xa4\x82\xe0\xa4\x96\xe0\xa4\xb2\xe0\xa4\xbe'
p2451
sS'chunktype'
p2452
S'head:JJP'
p2453
ssbsg1242
I00
sg1245
I00
sg1256
Nsg1243
Nsg174
I2
sg160
I1
sg1484
Nsg1254
Nsg1485
S'JJ'
p2454
sg261
(issf_api
FeatureSet
p2455
(dp2456
g264
(dp2457
S'posn'
p2458
S'80'
p2459
sS'name'
p2460
S'\xe0\xa4\x9c\xe0\xa4\xbe\xe0\xa4\xb0\xe0\xa5\x80'
p2461
sS'af'
p2462
S'\xe0\xa4\x9c\xe0\xa4\xbe\xe0\xa4\xb0\xe0\xa5\x80,adj,any,any,,o,,'
p2463
ssbsg1263
I00
sba(issf_api
Word
p2464
(dp2465
g1467
I00
sg1468
V\u0915\u094d\u0930\u093f\u0915\u0947\u091f
p2466
sg1470
(issf_api
FeatureSet
p2467
(dp2468
g264
(dp2469
S'posn'
p2470
S'90'
p2471
sS'name'
p2472
S'\xe0\xa4\x95\xe0\xa5\x8d\xe0\xa4\xb0\xe0\xa4\xbf\xe0\xa4\x95\xe0\xa5\x87\xe0\xa4\x9f'
p2473
sS'drel'
p2474
S'nmod__adj:\xe0\xa4\xb6\xe0\xa5\x8d\xe0\xa4\xb0\xe0\xa5\x83\xe0\xa4\x82\xe0\xa4\x96\xe0\xa4\xb2\xe0\xa4\xbe'
p2475
sS'chunktype'
p2476
S'child:NP3'
p2477
sS'af'
p2478
S'\xe0\xa4\x95\xe0\xa5\x8d\xe0\xa4\xb0\xe0\xa4\xbf\xe0\xa4\x95\xe0\xa5\x87\xe0\xa4\x9f,n,m,sg,3,d,0,0'
p2479
ssbsg1242
I00
sg1245
I00
sg1256
Nsg1243
Nsg174
I3
sg160
I1
sg1484
Nsg1254
Nsg1485
S'NNP'
p2480
sg261
(issf_api
FeatureSet
p2481
(dp2482
g264
(dp2483
S'posn'
p2484
S'90'
p2485
sS'name'
p2486
S'\xe0\xa4\x95\xe0\xa5\x8d\xe0\xa4\xb0\xe0\xa4\xbf\xe0\xa4\x95\xe0\xa5\x87\xe0\xa4\x9f'
p2487
sS'af'
p2488
S'\xe0\xa4\x95\xe0\xa5\x8d\xe0\xa4\xb0\xe0\xa4\xbf\xe0\xa4\x95\xe0\xa5\x87\xe0\xa4\x9f,n,m,sg,3,d,0,0'
p2489
ssbsg1263
I00
sba(issf_api
Word
p2490
(dp2491
g1467
I00
sg1468
V\u0936\u094d\u0930\u0943\u0902\u0916\u0932\u093e
p2492
sg1470
(issf_api
FeatureSet
p2493
(dp2494
g264
(dp2495
S'posn'
p2496
S'100'
p2497
sS'name'
p2498
S'\xe0\xa4\xb6\xe0\xa5\x8d\xe0\xa4\xb0\xe0\xa5\x83\xe0\xa4\x82\xe0\xa4\x96\xe0\xa4\xb2\xe0\xa4\xbe'
p2499
sS'af'
p2500
S'\xe0\xa4\xb6\xe0\xa5\x8d\xe0\xa4\xb0\xe0\xa5\x83\xe0\xa4\x82\xe0\xa4\x96\xe0\xa4\xb2\xe0\xa4\xbe,n,f,sg,3,o,0_\xe0\xa4\x95\xe0\xa5\x8b,0'
p2501
sS'chunkid'
p2502
S'NP3'
p2503
sS'drel'
p2504
S'k2:\xe0\xa4\xa6\xe0\xa5\x87\xe0\xa4\x96\xe0\xa4\xa8\xe0\xa5\x87'
p2505
sS'vpos'
p2506
S'vib_vib_3'
p2507
sS'chunktype'
p2508
S'head:NP3'
p2509
ssbsg1242
I00
sg1245
I00
sg1256
Nsg1243
Nsg174
I3
sg160
I1
sg1484
Nsg1254
Nsg1485
S'NN'
p2510
sg261
(issf_api
FeatureSet
p2511
(dp2512
g264
(dp2513
S'posn'
p2514
S'100'
p2515
sS'name'
p2516
S'\xe0\xa4\xb6\xe0\xa5\x8d\xe0\xa4\xb0\xe0\xa5\x83\xe0\xa4\x82\xe0\xa4\x96\xe0\xa4\xb2\xe0\xa4\xbe'
p2517
sS'af'
p2518
S'\xe0\xa4\xb6\xe0\xa5\x8d\xe0\xa4\xb0\xe0\xa5\x83\xe0\xa4\x82\xe0\xa4\x96\xe0\xa4\xb2\xe0\xa4\xbe,n,f,sg,3,o,0,0'
p2519
ssbsg1263
I00
sba(issf_api
Word
p2520
(dp2521
g1467
I00
sg1468
V\u0915\u094b
p2522
sg1470
(issf_api
FeatureSet
p2523
(dp2524
g264
(dp2525
S'posn'
p2526
S'110'
p2527
sS'name'
p2528
S'\xe0\xa4\x95\xe0\xa5\x8b'
p2529
sS'drel'
p2530
S'lwg__psp:\xe0\xa4\xb6\xe0\xa5\x8d\xe0\xa4\xb0\xe0\xa5\x83\xe0\xa4\x82\xe0\xa4\x96\xe0\xa4\xb2\xe0\xa4\xbe'
p2531
sS'chunktype'
p2532
S'child:NP3'
p2533
sS'af'
p2534
S'\xe0\xa4\x95\xe0\xa5\x8b,psp,,,,,,'
p2535
ssbsg1242
I00
sg1245
I00
sg1256
Nsg1243
Nsg174
I3
sg160
I1
sg1484
Nsg1254
Nsg1485
S'PSP'
p2536
sg261
(issf_api
FeatureSet
p2537
(dp2538
g264
(dp2539
S'posn'
p2540
S'110'
p2541
sS'name'
p2542
S'\xe0\xa4\x95\xe0\xa5\x8b'
p2543
sS'af'
p2544
S'\xe0\xa4\x95\xe0\xa5\x8b,psp,,,,,,'
p2545
ssbsg1263
I00
sba(issf_api
Word
p2546
(dp2547
g1467
I00
sg1468
V\u0926\u0947\u0916\u0928\u0947
p2548
sg1470
(issf_api
FeatureSet
p2549
(dp2550
g264
(dp2551
S'posn'
p2552
S'120'
p2553
sS'name'
p2554
S'\xe0\xa4\xa6\xe0\xa5\x87\xe0\xa4\x96\xe0\xa4\xa8\xe0\xa5\x87'
p2555
sS'af'
p2556
S'\xe0\xa4\xa6\xe0\xa5\x87\xe0\xa4\x96,v,any,any,any,o,\xe0\xa4\xa8\xe0\xa4\xbe_\xe0\xa4\x95\xe0\xa5\x87_\xe0\xa4\xb2\xe0\xa4\xbf\xe0\xa4\x8f,nA'
p2557
sS'chunkid'
p2558
S'VGNN'
p2559
sS'drel'
p2560
S'rt:\xe0\xa4\xad\xe0\xa5\x87\xe0\xa4\x9c\xe0\xa4\xbe'
p2561
sS'vpos'
p2562
S'tam_2_3'
p2563
sS'chunktype'
p2564
S'head:VGNN'
p2565
ssbsg1242
I00
sg1245
I00
sg1256
Nsg1243
Nsg174
I4
sg160
I1
sg1484
Nsg1254
Nsg1485
S'VM'
p2566
sg261
(issf_api
FeatureSet
p2567
(dp2568
g264
(dp2569
S'posn'
p2570
S'120'
p2571
sS'name'
p2572
S'\xe0\xa4\xa6\xe0\xa5\x87\xe0\xa4\x96\xe0\xa4\xa8\xe0\xa5\x87'
p2573
sS'af'
p2574
S'\xe0\xa4\xa6\xe0\xa5\x87\xe0\xa4\x96,v,any,any,any,o,\xe0\xa4\xa8\xe0\xa4\xbe,nA'
p2575
ssbsg1263
I00
sba(issf_api
Word
p2576
(dp2577
g1467
I00
sg1468
V\u0915\u0947
p2578
sg1470
(issf_api
FeatureSet
p2579
(dp2580
g264
(dp2581
S'posn'
p2582
S'130'
p2583
sS'name'
p2584
S'\xe0\xa4\x95\xe0\xa5\x873'
p2585
sS'drel'
p2586
S'lwg__psp:\xe0\xa4\xa6\xe0\xa5\x87\xe0\xa4\x96\xe0\xa4\xa8\xe0\xa5\x87'
p2587
sS'chunktype'
p2588
S'child:VGNN'
p2589
sS'af'
p2590
S'\xe0\xa4\x95\xe0\xa5\x87,psp,,,,,,'
p2591
ssbsg1242
I00
sg1245
I00
sg1256
Nsg1243
Nsg174
I4
sg160
I1
sg1484
Nsg1254
Nsg1485
S'PSP'
p2592
sg261
(issf_api
FeatureSet
p2593
(dp2594
g264
(dp2595
S'posn'
p2596
S'130'
p2597
sS'name'
p2598
S'\xe0\xa4\x95\xe0\xa5\x873'
p2599
sS'af'
p2600
S'\xe0\xa4\x95\xe0\xa5\x87,psp,,,,,,'
p2601
ssbsg1263
I00
sba(issf_api
Word
p2602
(dp2603
g1467
I00
sg1468
V\u0932\u093f\u090f
p2604
sg1470
(issf_api
FeatureSet
p2605
(dp2606
g264
(dp2607
S'posn'
p2608
S'140'
p2609
sS'name'
p2610
S'\xe0\xa4\xb2\xe0\xa4\xbf\xe0\xa4\x8f'
p2611
sS'drel'
p2612
S'lwg__psp:\xe0\xa4\xa6\xe0\xa5\x87\xe0\xa4\x96\xe0\xa4\xa8\xe0\xa5\x87'
p2613
sS'chunktype'
p2614
S'child:VGNN'
p2615
sS'af'
p2616
S'\xe0\xa4\xb2\xe0\xa4\xbf\xe0\xa4\x8f,psp,,,,,,'
p2617
ssbsg1242
I00
sg1245
I00
sg1256
Nsg1243
Nsg174
I4
sg160
I1
sg1484
Nsg1254
Nsg1485
S'PSP'
p2618
sg261
(issf_api
FeatureSet
p2619
(dp2620
g264
(dp2621
S'posn'
p2622
S'140'
p2623
sS'name'
p2624
S'\xe0\xa4\xb2\xe0\xa4\xbf\xe0\xa4\x8f'
p2625
sS'af'
p2626
S'\xe0\xa4\xb2\xe0\xa4\xbf\xe0\xa4\x8f,psp,,,,,,'
p2627
ssbsg1263
I00
sba(issf_api
Word
p2628
(dp2629
g1467
I00
sg1468
V\u092c\u094b\u0930\u094d\u0921
p2630
sg1470
(issf_api
FeatureSet
p2631
(dp2632
g264
(dp2633
S'posn'
p2634
S'150'
p2635
sS'name'
p2636
S'\xe0\xa4\xac\xe0\xa5\x8b\xe0\xa4\xb0\xe0\xa5\x8d\xe0\xa4\xa1'
p2637
sS'af'
p2638
S'\xe0\xa4\xac\xe0\xa5\x8b\xe0\xa4\xb0\xe0\xa5\x8d\xe0\xa4\xa1,n,m,sg,3,o,0_\xe0\xa4\xa6\xe0\xa5\x8d\xe0\xa4\xb5\xe0\xa4\xbe\xe0\xa4\xb0\xe0\xa4\xbe,0'
p2639
sS'chunkid'
p2640
S'NP4'
p2641
sS'drel'
p2642
S'k1:\xe0\xa4\xad\xe0\xa5\x87\xe0\xa4\x9c\xe0\xa4\xbe'
p2643
sS'vpos'
p2644
S'vib_2'
p2645
sS'chunktype'
p2646
S'head:NP4'
p2647
ssbsg1242
I00
sg1245
I00
sg1256
Nsg1243
Nsg174
I5
sg160
I1
sg1484
Nsg1254
Nsg1485
S'NN'
p2648
sg261
(issf_api
FeatureSet
p2649
(dp2650
g264
(dp2651
S'posn'
p2652
S'150'
p2653
sS'name'
p2654
S'\xe0\xa4\xac\xe0\xa5\x8b\xe0\xa4\xb0\xe0\xa5\x8d\xe0\xa4\xa1'
p2655
sS'af'
p2656
S'\xe0\xa4\xac\xe0\xa5\x8b\xe0\xa4\xb0\xe0\xa5\x8d\xe0\xa4\xa1,n,m,sg,3,o,0,0'
p2657
ssbsg1263
I00
sba(issf_api
Word
p2658
(dp2659
g1467
I00
sg1468
V\u0926\u094d\u0935\u093e\u0930\u093e
p2660
sg1470
(issf_api
FeatureSet
p2661
(dp2662
g264
(dp2663
S'posn'
p2664
S'160'
p2665
sS'name'
p2666
S'\xe0\xa4\xa6\xe0\xa5\x8d\xe0\xa4\xb5\xe0\xa4\xbe\xe0\xa4\xb0\xe0\xa4\xbe'
p2667
sS'drel'
p2668
S'lwg__psp:\xe0\xa4\xac\xe0\xa5\x8b\xe0\xa4\xb0\xe0\xa5\x8d\xe0\xa4\xa1'
p2669
sS'chunktype'
p2670
S'child:NP4'
p2671
sS'af'
p2672
S'\xe0\xa4\xa6\xe0\xa5\x8d\xe0\xa4\xb5\xe0\xa4\xbe\xe0\xa4\xb0\xe0\xa4\xbe,psp,,,,,,'
p2673
ssbsg1242
I00
sg1245
I00
sg1256
Nsg1243
Nsg174
I5
sg160
I1
sg1484
Nsg1254
Nsg1485
S'PSP'
p2674
sg261
(issf_api
FeatureSet
p2675
(dp2676
g264
(dp2677
S'posn'
p2678
S'160'
p2679
sS'name'
p2680
S'\xe0\xa4\xa6\xe0\xa5\x8d\xe0\xa4\xb5\xe0\xa4\xbe\xe0\xa4\xb0\xe0\xa4\xbe'
p2681
sS'af'
p2682
S'\xe0\xa4\xa6\xe0\xa5\x8d\xe0\xa4\xb5\xe0\xa4\xbe\xe0\xa4\xb0\xe0\xa4\xbe,psp,,,,,,'
p2683
ssbsg1263
I00
sba(issf_api
Word
p2684
(dp2685
g1467
I00
sg1468
V\u0915\u093e\u0902\u0917\u094d\u0930\u0947\u0938
p2686
sg1470
(issf_api
FeatureSet
p2687
(dp2688
g264
(dp2689
S'posn'
p2690
S'170'
p2691
sS'name'
p2692
S'\xe0\xa4\x95\xe0\xa4\xbe\xe0\xa4\x82\xe0\xa4\x97\xe0\xa5\x8d\xe0\xa4\xb0\xe0\xa5\x87\xe0\xa4\xb8'
p2693
sS'drel'
p2694
S'nmod__adj:\xe0\xa4\x97\xe0\xa4\xbe\xe0\xa4\x82\xe0\xa4\xa7\xe0\xa5\x80'
p2695
sS'chunktype'
p2696
S'child:NP5'
p2697
sS'af'
p2698
S'\xe0\xa4\x95\xe0\xa4\xbe\xe0\xa4\x82\xe0\xa4\x97\xe0\xa5\x8d\xe0\xa4\xb0\xe0\xa5\x87\xe0\xa4\xb8,n,f,sg,3,d,0,0'
p2699
ssbsg1242
I00
sg1245
I00
sg1256
Nsg1243
Nsg174
I6
sg160
I1
sg1484
Nsg1254
Nsg1485
S'NNP'
p2700
sg261
(issf_api
FeatureSet
p2701
(dp2702
g264
(dp2703
S'posn'
p2704
S'170'
p2705
sS'name'
p2706
S'\xe0\xa4\x95\xe0\xa4\xbe\xe0\xa4\x82\xe0\xa4\x97\xe0\xa5\x8d\xe0\xa4\xb0\xe0\xa5\x87\xe0\xa4\xb8'
p2707
sS'af'
p2708
S'\xe0\xa4\x95\xe0\xa4\xbe\xe0\xa4\x82\xe0\xa4\x97\xe0\xa5\x8d\xe0\xa4\xb0\xe0\xa5\x87\xe0\xa4\xb8,n,f,sg,3,d,0,0'
p2709
ssbsg1263
I00
sba(issf_api
Word
p2710
(dp2711
g1467
I00
sg1468
V\u0905\u0927\u094d\u092f\u0915\u094d\u0937
p2712
sg1470
(issf_api
FeatureSet
p2713
(dp2714
g264
(dp2715
S'posn'
p2716
S'180'
p2717
sS'name'
p2718
S'\xe0\xa4\x85\xe0\xa4\xa7\xe0\xa5\x8d\xe0\xa4\xaf\xe0\xa4\x95\xe0\xa5\x8d\xe0\xa4\xb7'
p2719
sS'drel'
p2720
S'nmod:\xe0\xa4\x97\xe0\xa4\xbe\xe0\xa4\x82\xe0\xa4\xa7\xe0\xa5\x80'
p2721
sS'chunktype'
p2722
S'child:NP5'
p2723
sS'af'
p2724
S'\xe0\xa4\x85\xe0\xa4\xa7\xe0\xa5\x8d\xe0\xa4\xaf\xe0\xa4\x95\xe0\xa5\x8d\xe0\xa4\xb7,n,any,sg,3,d,0,0'
p2725
ssbsg1242
I00
sg1245
I00
sg1256
Nsg1243
Nsg174
I6
sg160
I1
sg1484
Nsg1254
Nsg1485
S'NN'
p2726
sg261
(issf_api
FeatureSet
p2727
(dp2728
g264
(dp2729
S'posn'
p2730
S'180'
p2731
sS'name'
p2732
S'\xe0\xa4\x85\xe0\xa4\xa7\xe0\xa5\x8d\xe0\xa4\xaf\xe0\xa4\x95\xe0\xa5\x8d\xe0\xa4\xb7'
p2733
sS'af'
p2734
S'\xe0\xa4\x85\xe0\xa4\xa7\xe0\xa5\x8d\xe0\xa4\xaf\xe0\xa4\x95\xe0\xa5\x8d\xe0\xa4\xb7,n,any,sg,3,d,0,0'
p2735
ssbsg1263
I00
sba(issf_api
Word
p2736
(dp2737
g1467
I00
sg1468
V\u0938\u094b\u0928\u093f\u092f\u093e
p2738
sg1470
(issf_api
FeatureSet
p2739
(dp2740
g264
(dp2741
S'posn'
p2742
S'190'
p2743
sS'name'
p2744
S'\xe0\xa4\xb8\xe0\xa5\x8b\xe0\xa4\xa8\xe0\xa4\xbf\xe0\xa4\xaf\xe0\xa4\xbe'
p2745
sS'drel'
p2746
S'pof__cn:\xe0\xa4\x97\xe0\xa4\xbe\xe0\xa4\x82\xe0\xa4\xa7\xe0\xa5\x80'
p2747
sS'chunktype'
p2748
S'child:NP5'
p2749
sS'af'
p2750
S'\xe0\xa4\xb8\xe0\xa5\x8b\xe0\xa4\xa8\xe0\xa4\xbf\xe0\xa4\xaf\xe0\xa4\xbe,n,f,sg,3,d,0,0'
p2751
ssbsg1242
I00
sg1245
I00
sg1256
Nsg1243
Nsg174
I6
sg160
I1
sg1484
Nsg1254
Nsg1485
S'NNPC'
p2752
sg261
(issf_api
FeatureSet
p2753
(dp2754
g264
(dp2755
S'posn'
p2756
S'190'
p2757
sS'name'
p2758
S'\xe0\xa4\xb8\xe0\xa5\x8b\xe0\xa4\xa8\xe0\xa4\xbf\xe0\xa4\xaf\xe0\xa4\xbe'
p2759
sS'af'
p2760
S'\xe0\xa4\xb8\xe0\xa5\x8b\xe0\xa4\xa8\xe0\xa4\xbf\xe0\xa4\xaf\xe0\xa4\xbe,n,f,sg,3,d,0,0'
p2761
ssbsg1263
I00
sba(issf_api
Word
p2762
(dp2763
g1467
I00
sg1468
V\u0917\u093e\u0902\u0927\u0940
p2764
sg1470
(issf_api
FeatureSet
p2765
(dp2766
g264
(dp2767
S'posn'
p2768
S'200'
p2769
sS'name'
p2770
S'\xe0\xa4\x97\xe0\xa4\xbe\xe0\xa4\x82\xe0\xa4\xa7\xe0\xa5\x80'
p2771
sS'af'
p2772
S'\xe0\xa4\x97\xe0\xa4\xbe\xe0\xa4\x82\xe0\xa4\xa7\xe0\xa5\x80,n,any,sg,3,o,0_\xe0\xa4\x95\xe0\xa5\x8b,0'
p2773
sS'chunkid'
p2774
S'NP5'
p2775
sS'drel'
p2776
S'k4:\xe0\xa4\xad\xe0\xa5\x87\xe0\xa4\x9c\xe0\xa4\xbe'
p2777
sS'vpos'
p2778
S'vib_vib_vib_5_RP'
p2779
sS'chunktype'
p2780
S'head:NP5'
p2781
ssbsg1242
I00
sg1245
I00
sg1256
Nsg1243
Nsg174
I6
sg160
I1
sg1484
Nsg1254
Nsg1485
S'NNP'
p2782
sg261
(issf_api
FeatureSet
p2783
(dp2784
g264
(dp2785
S'posn'
p2786
S'200'
p2787
sS'name'
p2788
S'\xe0\xa4\x97\xe0\xa4\xbe\xe0\xa4\x82\xe0\xa4\xa7\xe0\xa5\x80'
p2789
sS'af'
p2790
S'\xe0\xa4\x97\xe0\xa4\xbe\xe0\xa4\x82\xe0\xa4\xa7\xe0\xa5\x80,n,any,sg,3,o,0,0'
p2791
ssbsg1263
I00
sba(issf_api
Word
p2792
(dp2793
g1467
I00
sg1468
V\u0915\u094b
p2794
sg1470
(issf_api
FeatureSet
p2795
(dp2796
g264
(dp2797
S'posn'
p2798
S'210'
p2799
sS'name'
p2800
S'\xe0\xa4\x95\xe0\xa5\x8b2'
p2801
sS'drel'
p2802
S'lwg__psp:\xe0\xa4\x97\xe0\xa4\xbe\xe0\xa4\x82\xe0\xa4\xa7\xe0\xa5\x80'
p2803
sS'chunktype'
p2804
S'child:NP5'
p2805
sS'af'
p2806
S'\xe0\xa4\x95\xe0\xa5\x8b,psp,,,,,,'
p2807
ssbsg1242
I00
sg1245
I00
sg1256
Nsg1243
Nsg174
I6
sg160
I1
sg1484
Nsg1254
Nsg1485
S'PSP'
p2808
sg261
(issf_api
FeatureSet
p2809
(dp2810
g264
(dp2811
S'posn'
p2812
S'210'
p2813
sS'name'
p2814
S'\xe0\xa4\x95\xe0\xa5\x8b2'
p2815
sS'af'
p2816
S'\xe0\xa4\x95\xe0\xa5\x8b,psp,,,,,,'
p2817
ssbsg1263
I00
sba(issf_api
Word
p2818
(dp2819
g1467
I00
sg1468
V\u092d\u0940
p2820
sg1470
(issf_api
FeatureSet
p2821
(dp2822
g264
(dp2823
S'posn'
p2824
S'220'
p2825
sS'name'
p2826
S'\xe0\xa4\xad\xe0\xa5\x80'
p2827
sS'drel'
p2828
S'lwg__rp:\xe0\xa4\x97\xe0\xa4\xbe\xe0\xa4\x82\xe0\xa4\xa7\xe0\xa5\x80'
p2829
sS'chunktype'
p2830
S'child:NP5'
p2831
sS'af'
p2832
S'\xe0\xa4\xad\xe0\xa5\x80,avy,,,,,,'
p2833
ssbsg1242
I00
sg1245
I00
sg1256
Nsg1243
Nsg174
I6
sg160
I1
sg1484
Nsg1254
Nsg1485
S'RP'
p2834
sg261
(issf_api
FeatureSet
p2835
(dp2836
g264
(dp2837
S'posn'
p2838
S'220'
p2839
sS'name'
p2840
S'\xe0\xa4\xad\xe0\xa5\x80'
p2841
sS'af'
p2842
S'\xe0\xa4\xad\xe0\xa5\x80,avy,,,,,,'
p2843
ssbsg1263
I00
sba(issf_api
Word
p2844
(dp2845
g1467
I00
sg1468
V\u0928\u093f\u092e\u0902\u0924\u094d\u0930\u0923
p2846
sg1470
(issf_api
FeatureSet
p2847
(dp2848
g264
(dp2849
S'posn'
p2850
S'230'
p2851
sS'name'
p2852
S'\xe0\xa4\xa8\xe0\xa4\xbf\xe0\xa4\xae\xe0\xa4\x82\xe0\xa4\xa4\xe0\xa5\x8d\xe0\xa4\xb0\xe0\xa4\xa3'
p2853
sS'af'
p2854
S'\xe0\xa4\xa8\xe0\xa4\xbf\xe0\xa4\xae\xe0\xa4\x82\xe0\xa4\xa4\xe0\xa5\x8d\xe0\xa4\xb0\xe0\xa4\xa3,n,m,sg,3,d,0,0'
p2855
sS'chunkid'
p2856
S'NP6'
p2857
sS'drel'
p2858
S'k2:\xe0\xa4\xad\xe0\xa5\x87\xe0\xa4\x9c\xe0\xa4\xbe'
p2859
sS'chunktype'
p2860
S'head:NP6'
p2861
ssbsg1242
I00
sg1245
I00
sg1256
Nsg1243
Nsg174
I7
sg160
I1
sg1484
Nsg1254
Nsg1485
S'NN'
p2862
sg261
(issf_api
FeatureSet
p2863
(dp2864
g264
(dp2865
S'posn'
p2866
S'230'
p2867
sS'name'
p2868
S'\xe0\xa4\xa8\xe0\xa4\xbf\xe0\xa4\xae\xe0\xa4\x82\xe0\xa4\xa4\xe0\xa5\x8d\xe0\xa4\xb0\xe0\xa4\xa3'
p2869
sS'af'
p2870
S'\xe0\xa4\xa8\xe0\xa4\xbf\xe0\xa4\xae\xe0\xa4\x82\xe0\xa4\xa4\xe0\xa5\x8d\xe0\xa4\xb0\xe0\xa4\xa3,n,m,sg,3,d,0,0'
p2871
ssbsg1263
I00
sba(issf_api
Word
p2872
(dp2873
g1467
I00
sg1468
V\u092d\u0947\u091c\u093e
p2874
sg1470
(issf_api
FeatureSet
p2875
(dp2876
g264
(dp2877
S'posn'
p2878
S'240'
p2879
sS'name'
p2880
S'\xe0\xa4\xad\xe0\xa5\x87\xe0\xa4\x9c\xe0\xa4\xbe'
p2881
sS'af'
p2882
S'\xe0\xa4\xad\xe0\xa5\x87\xe0\xa4\x9c,v,m,sg,3,,\xe0\xa4\xaf\xe0\xa4\xbe_\xe0\xa4\x9c\xe0\xa4\xbe_\xe0\xa4\xb8\xe0\xa4\x95+\xe0\xa4\xa4\xe0\xa4\xbe_\xe0\xa4\xb9\xe0\xa5\x88,yA'
p2883
sS'chunkid'
p2884
S'VGF'
p2885
sS'chunktype'
p2886
S'head:VGF'
p2887
sS'voicetype'
p2888
S'passive'
p2889
sS'vpos'
p2890
S'tam_2_3_4'
p2891
sS'stype'
p2892
S'declarative'
p2893
ssbsg1242
I00
sg1245
I00
sg1256
Nsg1243
Nsg174
I8
sg160
I1
sg1484
Nsg1254
Nsg1485
S'VM'
p2894
sg261
(issf_api
FeatureSet
p2895
(dp2896
g264
(dp2897
S'posn'
p2898
S'240'
p2899
sS'name'
p2900
S'\xe0\xa4\xad\xe0\xa5\x87\xe0\xa4\x9c\xe0\xa4\xbe'
p2901
sS'af'
p2902
S'\xe0\xa4\xad\xe0\xa5\x87\xe0\xa4\x9c,v,m,sg,any,,\xe0\xa4\xaf\xe0\xa4\xbe,yA'
p2903
ssbsg1263
I00
sba(issf_api
Word
p2904
(dp2905
g1467
I00
sg1468
V\u091c\u093e
p2906
sg1470
(issf_api
FeatureSet
p2907
(dp2908
g264
(dp2909
S'posn'
p2910
S'250'
p2911
sS'name'
p2912
S'\xe0\xa4\x9c\xe0\xa4\xbe'
p2913
sS'drel'
p2914
S'lwg__vaux:\xe0\xa4\xad\xe0\xa5\x87\xe0\xa4\x9c\xe0\xa4\xbe'
p2915
sS'chunktype'
p2916
S'child:VGF'
p2917
sS'af'
p2918
S'\xe0\xa4\x9c\xe0\xa4\xbe,v,any,any,any,,0,0'
p2919
ssbsg1242
I00
sg1245
I00
sg1256
Nsg1243
Nsg174
I8
sg160
I1
sg1484
Nsg1254
Nsg1485
S'VAUX'
p2920
sg261
(issf_api
FeatureSet
p2921
(dp2922
g264
(dp2923
S'posn'
p2924
S'250'
p2925
sS'name'
p2926
S'\xe0\xa4\x9c\xe0\xa4\xbe'
p2927
sS'af'
p2928
S'\xe0\xa4\x9c\xe0\xa4\xbe,v,any,any,any,,0,0'
p2929
ssbsg1263
I00
sba(issf_api
Word
p2930
(dp2931
g1467
I00
sg1468
V\u0938\u0915\u0924\u093e
p2932
sg1470
(issf_api
FeatureSet
p2933
(dp2934
g264
(dp2935
S'posn'
p2936
S'260'
p2937
sS'name'
p2938
S'\xe0\xa4\xb8\xe0\xa4\x95\xe0\xa4\xa4\xe0\xa4\xbe'
p2939
sS'drel'
p2940
S'lwg__vaux:\xe0\xa4\xad\xe0\xa5\x87\xe0\xa4\x9c\xe0\xa4\xbe'
p2941
sS'chunktype'
p2942
S'child:VGF'
p2943
sS'af'
p2944
S'\xe0\xa4\xb8\xe0\xa4\x95,v,m,sg,any,,\xe0\xa4\xa4\xe0\xa4\xbe,wA'
p2945
ssbsg1242
I00
sg1245
I00
sg1256
Nsg1243
Nsg174
I8
sg160
I1
sg1484
Nsg1254
Nsg1485
S'VAUX'
p2946
sg261
(issf_api
FeatureSet
p2947
(dp2948
g264
(dp2949
S'posn'
p2950
S'260'
p2951
sS'name'
p2952
S'\xe0\xa4\xb8\xe0\xa4\x95\xe0\xa4\xa4\xe0\xa4\xbe'
p2953
sS'af'
p2954
S'\xe0\xa4\xb8\xe0\xa4\x95,v,m,sg,any,,\xe0\xa4\xa4\xe0\xa4\xbe,wA'
p2955
ssbsg1263
I00
sba(issf_api
Word
p2956
(dp2957
g1467
I00
sg1468
V\u0939\u0948
p2958
sg1470
(issf_api
FeatureSet
p2959
(dp2960
g264
(dp2961
S'posn'
p2962
S'270'
p2963
sS'name'
p2964
S'\xe0\xa4\xb9\xe0\xa5\x88'
p2965
sS'drel'
p2966
S'lwg__vaux:\xe0\xa4\xad\xe0\xa5\x87\xe0\xa4\x9c\xe0\xa4\xbe'
p2967
sS'chunktype'
p2968
S'child:VGF'
p2969
sS'af'
p2970
S'\xe0\xa4\xb9\xe0\xa5\x88,v,any,sg,3,,\xe0\xa4\xb9\xe0\xa5\x88,hE'
p2971
ssbsg1242
I00
sg1245
I00
sg1256
Nsg1243
Nsg174
I8
sg160
I1
sg1484
Nsg1254
Nsg1485
S'VAUX'
p2972
sg261
(issf_api
FeatureSet
p2973
(dp2974
g264
(dp2975
S'posn'
p2976
S'270'
p2977
sS'name'
p2978
S'\xe0\xa4\xb9\xe0\xa5\x88'
p2979
sS'af'
p2980
S'\xe0\xa4\xb9\xe0\xa5\x88,v,any,sg,3,,\xe0\xa4\xb9\xe0\xa5\x88,hE'
p2981
ssbsg1263
I00
sba(issf_api
Word
p2982
(dp2983
g1467
I00
sg1468
V\u0964
sg1470
(issf_api
FeatureSet
p2984
(dp2985
g264
(dp2986
S'posn'
p2987
S'280'
p2988
sS'name'
p2989
S'\xe0\xa5\xa4'
p2990
sS'af'
p2991
S'\xe0\xa5\xa4,punc,,,,,,'
p2992
sS'chunkid'
p2993
S'BLK'
p2994
sS'drel'
p2995
S'rsym:\xe0\xa4\xad\xe0\xa5\x87\xe0\xa4\x9c\xe0\xa4\xbe'
p2996
sS'chunktype'
p2997
S'head:BLK'
p2998
ssbsg1242
I00
sg1245
I00
sg1256
Nsg1243
Nsg174
I9
sg160
I1
sg1484
Nsg1254
Nsg1485
S'SYM'
p2999
sg261
(issf_api
FeatureSet
p3000
(dp3001
g264
(dp3002
S'posn'
p3003
S'280'
p3004
sS'name'
p3005
S'\xe0\xa5\xa4'
p3006
sS'af'
p3007
S'\xe0\xa5\xa4,punc,,,,,,'
p3008
ssbsg1263
I00
sba(issf_api
Word
p3009
(dp3010
g1467
I00
sg1468
V\u092a\u0940\u0938\u0940\u092c\u0940
p3011
sg1470
(issf_api
FeatureSet
p3012
(dp3013
g264
(dp3014
S'posn'
p3015
S'10'
p3016
sS'name'
p3017
S'\xe0\xa4\xaa\xe0\xa5\x80\xe0\xa4\xb8\xe0\xa5\x80\xe0\xa4\xac\xe0\xa5\x80'
p3018
sS'drel'
p3019
S'nmod__adj:\xe0\xa4\xa8\xe0\xa4\xbf\xe0\xa4\xa6\xe0\xa5\x87\xe0\xa4\xb6\xe0\xa4\x95'
p3020
sS'chunktype'
p3021
S'child:NP'
p3022
sS'af'
p3023
S'\xe0\xa4\xaa\xe0\xa5\x80\xe0\xa4\xb8\xe0\xa5\x80\xe0\xa4\xac\xe0\xa5\x80,n,m,sg,3,d,0,0'
p3024
ssbsg1242
I00
sg1245
I00
sg1256
Nsg1243
Nsg174
I0
sg160
I2
sg1484
Nsg1254
Nsg1485
S'NNP'
p3025
sg261
(issf_api
FeatureSet
p3026
(dp3027
g264
(dp3028
S'posn'
p3029
S'10'
p3030
sS'name'
p3031
S'\xe0\xa4\xaa\xe0\xa5\x80\xe0\xa4\xb8\xe0\xa5\x80\xe0\xa4\xac\xe0\xa5\x80'
p3032
sS'af'
p3033
S'\xe0\xa4\xaa\xe0\xa5\x80\xe0\xa4\xb8\xe0\xa5\x80\xe0\xa4\xac\xe0\xa5\x80,n,m,sg,3,d,0,0'
p3034
ssbsg1263
I00
sba(issf_api
Word
p3035
(dp3036
g1467
I00
sg1468
V\u0928\u093f\u0926\u0947\u0936\u0915
p3037
sg1470
(issf_api
FeatureSet
p3038
(dp3039
g264
(dp3040
S'posn'
p3041
S'20'
p3042
sS'name'
p3043
S'\xe0\xa4\xa8\xe0\xa4\xbf\xe0\xa4\xa6\xe0\xa5\x87\xe0\xa4\xb6\xe0\xa4\x95'
p3044
sS'af'
p3045
S'\xe0\xa4\xa8\xe0\xa4\xbf\xe0\xa4\xa6\xe0\xa5\x87\xe0\xa4\xb6\xe0\xa4\x95,n,m,sg,3,o,0,0'
p3046
sS'chunkid'
p3047
S'NP'
p3048
sS'drel'
p3049
S'nmod:\xe0\xa4\x9c\xe0\xa5\x88\xe0\xa4\xa6\xe0\xa5\x80'
p3050
sS'chunktype'
p3051
S'head:NP'
p3052
ssbsg1242
I00
sg1245
I00
sg1256
Nsg1243
Nsg174
I0
sg160
I2
sg1484
Nsg1254
Nsg1485
S'NN'
p3053
sg261
(issf_api
FeatureSet
p3054
(dp3055
g264
(dp3056
S'posn'
p3057
S'20'
p3058
sS'name'
p3059
S'\xe0\xa4\xa8\xe0\xa4\xbf\xe0\xa4\xa6\xe0\xa5\x87\xe0\xa4\xb6\xe0\xa4\x95'
p3060
sS'af'
p3061
S'\xe0\xa4\xa8\xe0\xa4\xbf\xe0\xa4\xa6\xe0\xa5\x87\xe0\xa4\xb6\xe0\xa4\x95,n,m,sg,3,o,0,0'
p3062
ssbsg1263
I00
sba(issf_api
Word
p3063
(dp3064
g1467
I00
sg1468
V(
sg1470
(issf_api
FeatureSet
p3065
(dp3066
g264
(dp3067
S'posn'
p3068
S'30'
p3069
sS'name'
p3070
S'('
sS'drel'
p3071
S'rsym:\xe0\xa4\x91\xe0\xa4\xaa\xe0\xa4\xb0\xe0\xa5\x87\xe0\xa4\xb6\xe0\xa4\x82\xe0\xa4\xb8'
p3072
sS'chunktype'
p3073
S'child:NP2'
p3074
sS'af'
p3075
S',punc,,,,,,'
p3076
ssbsg1242
I00
sg1245
I00
sg1256
Nsg1243
Nsg174
I1
sg160
I2
sg1484
Nsg1254
Nsg1485
S'SYM'
p3077
sg261
(issf_api
FeatureSet
p3078
(dp3079
g264
(dp3080
S'posn'
p3081
S'30'
p3082
sS'name'
p3083
S'('
sS'af'
p3084
S',punc,,,,,,'
p3085
ssbsg1263
I00
sba(issf_api
Word
p3086
(dp3087
g1467
I00
sg1468
V\u092c\u094b\u0930\u094d\u0921
p3088
sg1470
(issf_api
FeatureSet
p3089
(dp3090
g264
(dp3091
S'posn'
p3092
S'40'
p3093
sS'name'
p3094
S'\xe0\xa4\xac\xe0\xa5\x8b\xe0\xa4\xb0\xe0\xa5\x8d\xe0\xa4\xa1'
p3095
sS'drel'
p3096
S'pof__cn:\xe0\xa4\x91\xe0\xa4\xaa\xe0\xa4\xb0\xe0\xa5\x87\xe0\xa4\xb6\xe0\xa4\x82\xe0\xa4\xb8'
p3097
sS'chunktype'
p3098
S'child:NP2'
p3099
sS'af'
p3100
S'\xe0\xa4\xac\xe0\xa5\x8b\xe0\xa4\xb0\xe0\xa5\x8d\xe0\xa4\xa1,n,m,sg,3,d,0,0'
p3101
ssbsg1242
I00
sg1245
I00
sg1256
Nsg1243
Nsg174
I1
sg160
I2
sg1484
Nsg1254
Nsg1485
S'NNC'
p3102
sg261
(issf_api
FeatureSet
p3103
(dp3104
g264
(dp3105
S'posn'
p3106
S'40'
p3107
sS'name'
p3108
S'\xe0\xa4\xac\xe0\xa5\x8b\xe0\xa4\xb0\xe0\xa5\x8d\xe0\xa4\xa1'
p3109
sS'af'
p3110
S'\xe0\xa4\xac\xe0\xa5\x8b\xe0\xa4\xb0\xe0\xa5\x8d\xe0\xa4\xa1,n,m,sg,3,d,0,0'
p3111
ssbsg1263
I00
sba(issf_api
Word
p3112
(dp3113
g1467
I00
sg1468
V\u0911\u092a\u0930\u0947\u0936\u0902\u0938
p3114
sg1470
(issf_api
FeatureSet
p3115
(dp3116
g264
(dp3117
S'posn'
p3118
S'50'
p3119
sS'name'
p3120
S'\xe0\xa4\x91\xe0\xa4\xaa\xe0\xa4\xb0\xe0\xa5\x87\xe0\xa4\xb6\xe0\xa4\x82\xe0\xa4\xb8'
p3121
sS'af'
p3122
S'\xe0\xa4\x91\xe0\xa4\xaa\xe0\xa4\xb0\xe0\xa5\x87\xe0\xa4\xb6\xe0\xa4\xa8,n,m,pl,3,d,0,0'
p3123
sS'chunkid'
p3124
S'NP2'
p3125
sS'drel'
p3126
S'rs:\xe0\xa4\xa8\xe0\xa4\xbf\xe0\xa4\xa6\xe0\xa5\x87\xe0\xa4\xb6\xe0\xa4\x95'
p3127
sS'chunktype'
p3128
S'head:NP2'
p3129
ssbsg1242
I00
sg1245
I00
sg1256
Nsg1243
Nsg174
I1
sg160
I2
sg1484
Nsg1254
Nsg1485
S'NN'
p3130
sg261
(issf_api
FeatureSet
p3131
(dp3132
g264
(dp3133
S'posn'
p3134
S'50'
p3135
sS'name'
p3136
S'\xe0\xa4\x91\xe0\xa4\xaa\xe0\xa4\xb0\xe0\xa5\x87\xe0\xa4\xb6\xe0\xa4\x82\xe0\xa4\xb8'
p3137
sS'af'
p3138
S'\xe0\xa4\x91\xe0\xa4\xaa\xe0\xa4\xb0\xe0\xa5\x87\xe0\xa4\xb6\xe0\xa4\xa8,n,m,pl,3,d,0,0'
p3139
ssbsg1263
I00
sba(issf_api
Word
p3140
(dp3141
g1467
I00
sg1468
V)
sg1470
(issf_api
FeatureSet
p3142
(dp3143
g264
(dp3144
S'posn'
p3145
S'60'
p3146
sS'name'
p3147
S')'
sS'drel'
p3148
S'rsym:\xe0\xa4\x91\xe0\xa4\xaa\xe0\xa4\xb0\xe0\xa5\x87\xe0\xa4\xb6\xe0\xa4\x82\xe0\xa4\xb8'
p3149
sS'chunktype'
p3150
S'child:NP2'
p3151
sS'af'
p3152
S',punc,,,,,,'
p3153
ssbsg1242
I00
sg1245
I00
sg1256
Nsg1243
Nsg174
I1
sg160
I2
sg1484
Nsg1254
Nsg1485
S'SYM'
p3154
sg261
(issf_api
FeatureSet
p3155
(dp3156
g264
(dp3157
S'posn'
p3158
S'60'
p3159
sS'name'
p3160
S')'
sS'af'
p3161
S',punc,,,,,,'
p3162
ssbsg1263
I00
sba(issf_api
Word
p3163
(dp3164
g1467
I00
sg1468
V\u0905\u092c\u094d\u092c\u093e\u0938
p3165
sg1470
(issf_api
FeatureSet
p3166
(dp3167
g264
(dp3168
S'posn'
p3169
S'70'
p3170
sS'name'
p3171
S'\xe0\xa4\x85\xe0\xa4\xac\xe0\xa5\x8d\xe0\xa4\xac\xe0\xa4\xbe\xe0\xa4\xb8'
p3172
sS'drel'
p3173
S'pof__cn:\xe0\xa4\x9c\xe0\xa5\x88\xe0\xa4\xa6\xe0\xa5\x80'
p3174
sS'chunktype'
p3175
S'child:NP3'
p3176
sS'af'
p3177
S'\xe0\xa4\x85\xe0\xa4\xac\xe0\xa5\x8d\xe0\xa4\xac\xe0\xa4\xbe\xe0\xa4\xb8,n,m,sg,3,d,0,0'
p3178
ssbsg1242
I00
sg1245
I00
sg1256
Nsg1243
Nsg174
I2
sg160
I2
sg1484
Nsg1254
Nsg1485
S'NNPC'
p3179
sg261
(issf_api
FeatureSet
p3180
(dp3181
g264
(dp3182
S'posn'
p3183
S'70'
p3184
sS'name'
p3185
S'\xe0\xa4\x85\xe0\xa4\xac\xe0\xa5\x8d\xe0\xa4\xac\xe0\xa4\xbe\xe0\xa4\xb8'
p3186
sS'af'
p3187
S'\xe0\xa4\x85\xe0\xa4\xac\xe0\xa5\x8d\xe0\xa4\xac\xe0\xa4\xbe\xe0\xa4\xb8,n,m,sg,3,d,0,0'
p3188
ssbsg1263
I00
sba(issf_api
Word
p3189
(dp3190
g1467
I00
sg1468
V\u091c\u0948\u0926\u0940
p3191
sg1470
(issf_api
FeatureSet
p3192
(dp3193
g264
(dp3194
S'posn'
p3195
S'80'
p3196
sS'name'
p3197
S'\xe0\xa4\x9c\xe0\xa5\x88\xe0\xa4\xa6\xe0\xa5\x80'
p3198
sS'af'
p3199
S'\xe0\xa4\x9c\xe0\xa5\x88\xe0\xa4\xa6\xe0\xa5\x80,n,m,sg,3,o,0_\xe0\xa4\x95\xe0\xa5\x87_\xe0\xa4\xb9\xe0\xa4\xb5\xe0\xa4\xbe\xe0\xa4\xb2\xe0\xa4\xbe_\xe0\xa4\xb8\xe0\xa5\x87,0'
p3200
sS'chunkid'
p3201
S'NP3'
p3202
sS'drel'
p3203
S'k7a:\xe0\xa4\xac\xe0\xa4\xa4\xe0\xa4\xbe\xe0\xa4\xaf\xe0\xa4\xbe'
p3204
sS'vpos'
p3205
S'vib_3_4_5'
p3206
sS'chunktype'
p3207
S'head:NP3'
p3208
ssbsg1242
I00
sg1245
I00
sg1256
Nsg1243
Nsg174
I2
sg160
I2
sg1484
Nsg1254
Nsg1485
S'NNP'
p3209
sg261
(issf_api
FeatureSet
p3210
(dp3211
g264
(dp3212
S'posn'
p3213
S'80'
p3214
sS'name'
p3215
S'\xe0\xa4\x9c\xe0\xa5\x88\xe0\xa4\xa6\xe0\xa5\x80'
p3216
sS'af'
p3217
S'\xe0\xa4\x9c\xe0\xa5\x88\xe0\xa4\xa6\xe0\xa5\x80,n,m,sg,3,o,0,0'
p3218
ssbsg1263
I00
sba(issf_api
Word
p3219
(dp3220
g1467
I00
sg1468
V\u0915\u0947
p3221
sg1470
(issf_api
FeatureSet
p3222
(dp3223
g264
(dp3224
S'posn'
p3225
S'90'
p3226
sS'name'
p3227
S'\xe0\xa4\x95\xe0\xa5\x87'
p3228
sS'drel'
p3229
S'lwg__psp:\xe0\xa4\x9c\xe0\xa5\x88\xe0\xa4\xa6\xe0\xa5\x80'
p3230
sS'chunktype'
p3231
S'child:NP3'
p3232
sS'af'
p3233
S'\xe0\xa4\x95\xe0\xa5\x87,psp,m,,,o,,'
p3234
ssbsg1242
I00
sg1245
I00
sg1256
Nsg1243
Nsg174
I2
sg160
I2
sg1484
Nsg1254
Nsg1485
S'PSP'
p3235
sg261
(issf_api
FeatureSet
p3236
(dp3237
g264
(dp3238
S'posn'
p3239
S'90'
p3240
sS'name'
p3241
S'\xe0\xa4\x95\xe0\xa5\x87'
p3242
sS'af'
p3243
S'\xe0\xa4\x95\xe0\xa5\x87,psp,m,,,o,,'
p3244
ssbsg1263
I00
sba(issf_api
Word
p3245
(dp3246
g1467
I00
sg1468
V\u0939\u0935\u093e\u0932\u0947
p3247
sg1470
(issf_api
FeatureSet
p3248
(dp3249
g264
(dp3250
S'posn'
p3251
S'100'
p3252
sS'name'
p3253
S'\xe0\xa4\xb9\xe0\xa4\xb5\xe0\xa4\xbe\xe0\xa4\xb2\xe0\xa5\x87'
p3254
sS'drel'
p3255
S'lwg__psp:\xe0\xa4\x9c\xe0\xa5\x88\xe0\xa4\xa6\xe0\xa5\x80'
p3256
sS'chunktype'
p3257
S'child:NP3'
p3258
sS'af'
p3259
S'\xe0\xa4\xb9\xe0\xa4\xb5\xe0\xa4\xbe\xe0\xa4\xb2\xe0\xa4\xbe,n,m,,,o,,'
p3260
ssbsg1242
I00
sg1245
I00
sg1256
Nsg1243
Nsg174
I2
sg160
I2
sg1484
Nsg1254
Nsg1485
S'PSP'
p3261
sg261
(issf_api
FeatureSet
p3262
(dp3263
g264
(dp3264
S'posn'
p3265
S'100'
p3266
sS'name'
p3267
S'\xe0\xa4\xb9\xe0\xa4\xb5\xe0\xa4\xbe\xe0\xa4\xb2\xe0\xa5\x87'
p3268
sS'af'
p3269
S'\xe0\xa4\xb9\xe0\xa4\xb5\xe0\xa4\xbe\xe0\xa4\xb2\xe0\xa4\xbe,n,m,,,o,,'
p3270
ssbsg1263
I00
sba(issf_api
Word
p3271
(dp3272
g1467
I00
sg1468
V\u0938\u0947
p3273
sg1470
(issf_api
FeatureSet
p3274
(dp3275
g264
(dp3276
S'posn'
p3277
S'110'
p3278
sS'name'
p3279
S'\xe0\xa4\xb8\xe0\xa5\x87'
p3280
sS'drel'
p3281
S'lwg__psp:\xe0\xa4\x9c\xe0\xa5\x88\xe0\xa4\xa6\xe0\xa5\x80'
p3282
sS'chunktype'
p3283
S'child:NP3'
p3284
sS'af'
p3285
S'\xe0\xa4\xb8\xe0\xa5\x87,psp,,,,,,'
p3286
ssbsg1242
I00
sg1245
I00
sg1256
Nsg1243
Nsg174
I2
sg160
I2
sg1484
Nsg1254
Nsg1485
S'PSP'
p3287
sg261
(issf_api
FeatureSet
p3288
(dp3289
g264
(dp3290
S'posn'
p3291
S'110'
p3292
sS'name'
p3293
S'\xe0\xa4\xb8\xe0\xa5\x87'
p3294
sS'af'
p3295
S'\xe0\xa4\xb8\xe0\xa5\x87,psp,,,,,,'
p3296
ssbsg1263
I00
sba(issf_api
Word
p3297
(dp3298
g1467
I00
sg1468
V\u090f\u0915
p3299
sg1470
(issf_api
FeatureSet
p3300
(dp3301
g264
(dp3302
S'posn'
p3303
S'120'
p3304
sS'name'
p3305
S'\xe0\xa4\x8f\xe0\xa4\x95'
p3306
sS'drel'
p3307
S'nmod__adj:\xe0\xa4\x9a\xe0\xa5\x88\xe0\xa4\xa8\xe0\xa4\xb2'
p3308
sS'chunktype'
p3309
S'child:NP4'
p3310
sS'af'
p3311
S'\xe0\xa4\x8f\xe0\xa4\x95,num,any,any,,any,,'
p3312
ssbsg1242
I00
sg1245
I00
sg1256
Nsg1243
Nsg174
I3
sg160
I2
sg1484
Nsg1254
Nsg1485
S'QC'
p3313
sg261
(issf_api
FeatureSet
p3314
(dp3315
g264
(dp3316
S'posn'
p3317
S'120'
p3318
sS'name'
p3319
S'\xe0\xa4\x8f\xe0\xa4\x95'
p3320
sS'af'
p3321
S'\xe0\xa4\x8f\xe0\xa4\x95,num,any,any,,any,,'
p3322
ssbsg1263
I00
sba(issf_api
Word
p3323
(dp3324
g1467
I00
sg1468
V\u0932\u094b\u0915\u0932
p3325
sg1470
(issf_api
FeatureSet
p3326
(dp3327
g264
(dp3328
S'posn'
p3329
S'130'
p3330
sS'name'
p3331
S'\xe0\xa4\xb2\xe0\xa5\x8b\xe0\xa4\x95\xe0\xa4\xb2'
p3332
sS'drel'
p3333
S'nmod__adj:\xe0\xa4\x9a\xe0\xa5\x88\xe0\xa4\xa8\xe0\xa4\xb2'
p3334
sS'chunktype'
p3335
S'child:NP4'
p3336
sS'af'
p3337
S'\xe0\xa4\xb2\xe0\xa5\x8b\xe0\xa4\x95\xe0\xa4\xb2,adj,any,any,,o,,'
p3338
ssbsg1242
I00
sg1245
I00
sg1256
Nsg1243
Nsg174
I3
sg160
I2
sg1484
Nsg1254
Nsg1485
S'JJ'
p3339
sg261
(issf_api
FeatureSet
p3340
(dp3341
g264
(dp3342
S'posn'
p3343
S'130'
p3344
sS'name'
p3345
S'\xe0\xa4\xb2\xe0\xa5\x8b\xe0\xa4\x95\xe0\xa4\xb2'
p3346
sS'af'
p3347
S'\xe0\xa4\xb2\xe0\xa5\x8b\xe0\xa4\x95\xe0\xa4\xb2,adj,any,any,,o,,'
p3348
ssbsg1263
I00
sba(issf_api
Word
p3349
(dp3350
g1467
I00
sg1468
V\u091f\u0940\u0935\u0940
p3351
sg1470
(issf_api
FeatureSet
p3352
(dp3353
g264
(dp3354
S'posn'
p3355
S'140'
p3356
sS'name'
p3357
S'\xe0\xa4\x9f\xe0\xa5\x80\xe0\xa4\xb5\xe0\xa5\x80'
p3358
sS'drel'
p3359
S'pof__cn:\xe0\xa4\x9a\xe0\xa5\x88\xe0\xa4\xa8\xe0\xa4\xb2'
p3360
sS'chunktype'
p3361
S'child:NP4'
p3362
sS'af'
p3363
S'\xe0\xa4\x9f\xe0\xa5\x80\xe0\xa4\xb5\xe0\xa5\x80,n,m,sg,3,d,0,0'
p3364
ssbsg1242
I00
sg1245
I00
sg1256
Nsg1243
Nsg174
I3
sg160
I2
sg1484
Nsg1254
Nsg1485
S'NNC'
p3365
sg261
(issf_api
FeatureSet
p3366
(dp3367
g264
(dp3368
S'posn'
p3369
S'140'
p3370
sS'name'
p3371
S'\xe0\xa4\x9f\xe0\xa5\x80\xe0\xa4\xb5\xe0\xa5\x80'
p3372
sS'af'
p3373
S'\xe0\xa4\x9f\xe0\xa5\x80\xe0\xa4\xb5\xe0\xa5\x80,n,m,sg,3,d,0,0'
p3374
ssbsg1263
I00
sba(issf_api
Word
p3375
(dp3376
g1467
I00
sg1468
V\u091a\u0948\u0928\u0932
p3377
sg1470
(issf_api
FeatureSet
p3378
(dp3379
g264
(dp3380
S'posn'
p3381
S'150'
p3382
sS'name'
p3383
S'\xe0\xa4\x9a\xe0\xa5\x88\xe0\xa4\xa8\xe0\xa4\xb2'
p3384
sS'af'
p3385
S'\xe0\xa4\x9a\xe0\xa5\x88\xe0\xa4\xa8\xe0\xa4\xb2,n,m,sg,3,o,0_\xe0\xa4\xa8\xe0\xa5\x87,0'
p3386
sS'chunkid'
p3387
S'NP4'
p3388
sS'drel'
p3389
S'k1:\xe0\xa4\xac\xe0\xa4\xa4\xe0\xa4\xbe\xe0\xa4\xaf\xe0\xa4\xbe'
p3390
sS'vpos'
p3391
S'vib_5'
p3392
sS'chunktype'
p3393
S'head:NP4'
p3394
ssbsg1242
I00
sg1245
I00
sg1256
Nsg1243
Nsg174
I3
sg160
I2
sg1484
Nsg1254
Nsg1485
S'NN'
p3395
sg261
(issf_api
FeatureSet
p3396
(dp3397
g264
(dp3398
S'posn'
p3399
S'150'
p3400
sS'name'
p3401
S'\xe0\xa4\x9a\xe0\xa5\x88\xe0\xa4\xa8\xe0\xa4\xb2'
p3402
sS'af'
p3403
S'\xe0\xa4\x9a\xe0\xa5\x88\xe0\xa4\xa8\xe0\xa4\xb2,n,m,sg,3,o,0,0'
p3404
ssbsg1263
I00
sba(issf_api
Word
p3405
(dp3406
g1467
I00
sg1468
V\u0928\u0947
p3407
sg1470
(issf_api
FeatureSet
p3408
(dp3409
g264
(dp3410
S'posn'
p3411
S'160'
p3412
sS'name'
p3413
S'\xe0\xa4\xa8\xe0\xa5\x87'
p3414
sS'drel'
p3415
S'lwg__psp:\xe0\xa4\x9a\xe0\xa5\x88\xe0\xa4\xa8\xe0\xa4\xb2'
p3416
sS'chunktype'
p3417
S'child:NP4'
p3418
sS'af'
p3419
S'\xe0\xa4\xa8\xe0\xa5\x87,psp,,,,,,'
p3420
ssbsg1242
I00
sg1245
I00
sg1256
Nsg1243
Nsg174
I3
sg160
I2
sg1484
Nsg1254
Nsg1485
S'PSP'
p3421
sg261
(issf_api
FeatureSet
p3422
(dp3423
g264
(dp3424
S'posn'
p3425
S'160'
p3426
sS'name'
p3427
S'\xe0\xa4\xa8\xe0\xa5\x87'
p3428
sS'af'
p3429
S'\xe0\xa4\xa8\xe0\xa5\x87,psp,,,,,,'
p3430
ssbsg1263
I00
sba(issf_api
Word
p3431
(dp3432
g1467
I00
sg1468
V\u092c\u0924\u093e\u092f\u093e
p3433
sg1470
(issf_api
FeatureSet
p3434
(dp3435
g264
(dp3436
S'posn'
p3437
S'170'
p3438
sS'name'
p3439
S'\xe0\xa4\xac\xe0\xa4\xa4\xe0\xa4\xbe\xe0\xa4\xaf\xe0\xa4\xbe'
p3440
sS'af'
p3441
S'\xe0\xa4\xac\xe0\xa4\xa4\xe0\xa4\xbe,v,m,sg,3,,\xe0\xa4\xaf\xe0\xa4\xbe_\xe0\xa4\xb9\xe0\xa5\x88,yA'
p3442
sS'chunkid'
p3443
S'VGF'
p3444
sS'chunktype'
p3445
S'head:VGF'
p3446
sS'voicetype'
p3447
S'active'
p3448
sS'vpos'
p3449
S'tam_2'
p3450
sS'stype'
p3451
S'declarative'
p3452
ssbsg1242
I00
sg1245
I00
sg1256
Nsg1243
Nsg174
I4
sg160
I2
sg1484
Nsg1254
Nsg1485
S'VM'
p3453
sg261
(issf_api
FeatureSet
p3454
(dp3455
g264
(dp3456
S'posn'
p3457
S'170'
p3458
sS'name'
p3459
S'\xe0\xa4\xac\xe0\xa4\xa4\xe0\xa4\xbe\xe0\xa4\xaf\xe0\xa4\xbe'
p3460
sS'af'
p3461
S'\xe0\xa4\xac\xe0\xa4\xa4\xe0\xa4\xbe,v,m,sg,any,,\xe0\xa4\xaf\xe0\xa4\xbe,yA'
p3462
ssbsg1263
I00
sba(issf_api
Word
p3463
(dp3464
g1467
I00
sg1468
V\u0939\u0948
p3465
sg1470
(issf_api
FeatureSet
p3466
(dp3467
g264
(dp3468
S'posn'
p3469
S'180'
p3470
sS'name'
p3471
S'\xe0\xa4\xb9\xe0\xa5\x88'
p3472
sS'drel'
p3473
S'lwg__vaux:\xe0\xa4\xac\xe0\xa4\xa4\xe0\xa4\xbe\xe0\xa4\xaf\xe0\xa4\xbe'
p3474
sS'chunktype'
p3475
S'child:VGF'
p3476
sS'af'
p3477
S'\xe0\xa4\xb9\xe0\xa5\x88,v,any,sg,3,,\xe0\xa4\xb9\xe0\xa5\x88,hE'
p3478
ssbsg1242
I00
sg1245
I00
sg1256
Nsg1243
Nsg174
I4
sg160
I2
sg1484
Nsg1254
Nsg1485
S'VAUX'
p3479
sg261
(issf_api
FeatureSet
p3480
(dp3481
g264
(dp3482
S'posn'
p3483
S'180'
p3484
sS'name'
p3485
S'\xe0\xa4\xb9\xe0\xa5\x88'
p3486
sS'af'
p3487
S'\xe0\xa4\xb9\xe0\xa5\x88,v,any,sg,3,,\xe0\xa4\xb9\xe0\xa5\x88,hE'
p3488
ssbsg1263
I00
sba(issf_api
Word
p3489
(dp3490
g1467
I00
sg1468
V\u0915\u093f
p3491
sg1470
(issf_api
FeatureSet
p3492
(dp3493
g264
(dp3494
S'posn'
p3495
S'190'
p3496
sS'name'
p3497
S'\xe0\xa4\x95\xe0\xa4\xbf'
p3498
sS'af'
p3499
S'\xe0\xa4\x95\xe0\xa4\xbf,avy,,,,,,'
p3500
sS'chunkid'
p3501
S'CCP'
p3502
sS'drel'
p3503
S'k2:\xe0\xa4\xac\xe0\xa4\xa4\xe0\xa4\xbe\xe0\xa4\xaf\xe0\xa4\xbe'
p3504
sS'chunktype'
p3505
S'head:CCP'
p3506
ssbsg1242
I00
sg1245
I00
sg1256
Nsg1243
Nsg174
I5
sg160
I2
sg1484
Nsg1254
Nsg1485
S'CC'
p3507
sg261
(issf_api
FeatureSet
p3508
(dp3509
g264
(dp3510
S'posn'
p3511
S'190'
p3512
sS'name'
p3513
S'\xe0\xa4\x95\xe0\xa4\xbf'
p3514
sS'af'
p3515
S'\xe0\xa4\x95\xe0\xa4\xbf,avy,,,,,,'
p3516
ssbsg1263
I00
sba(issf_api
Word
p3517
(dp3518
g1467
I00
sg1468
V\u092c\u094b\u0930\u094d\u0921
p3519
sg1470
(issf_api
FeatureSet
p3520
(dp3521
g264
(dp3522
S'posn'
p3523
S'200'
p3524
sS'name'
p3525
S'\xe0\xa4\xac\xe0\xa5\x8b\xe0\xa4\xb0\xe0\xa5\x8d\xe0\xa4\xa12'
p3526
sS'af'
p3527
S'\xe0\xa4\xac\xe0\xa5\x8b\xe0\xa4\xb0\xe0\xa5\x8d\xe0\xa4\xa1,n,m,sg,3,o,0_\xe0\xa4\x95\xe0\xa4\xbe,0'
p3528
sS'chunkid'
p3529
S'NP5'
p3530
sS'drel'
p3531
S'r6:\xe0\xa4\x9a\xe0\xa5\x87\xe0\xa4\xaf\xe0\xa4\xb0\xe0\xa4\xae\xe0\xa5\x88\xe0\xa4\xa8'
p3532
sS'vpos'
p3533
S'vib_2'
p3534
sS'chunktype'
p3535
S'head:NP5'
p3536
ssbsg1242
I00
sg1245
I00
sg1256
Nsg1243
Nsg174
I6
sg160
I2
sg1484
Nsg1254
Nsg1485
S'NN'
p3537
sg261
(issf_api
FeatureSet
p3538
(dp3539
g264
(dp3540
S'posn'
p3541
S'200'
p3542
sS'name'
p3543
S'\xe0\xa4\xac\xe0\xa5\x8b\xe0\xa4\xb0\xe0\xa5\x8d\xe0\xa4\xa12'
p3544
sS'af'
p3545
S'\xe0\xa4\xac\xe0\xa5\x8b\xe0\xa4\xb0\xe0\xa5\x8d\xe0\xa4\xa1,n,m,sg,3,o,0,0'
p3546
ssbsg1263
I00
sba(issf_api
Word
p3547
(dp3548
g1467
I00
sg1468
V\u0915\u0947
p3549
sg1470
(issf_api
FeatureSet
p3550
(dp3551
g264
(dp3552
S'posn'
p3553
S'210'
p3554
sS'name'
p3555
S'\xe0\xa4\x95\xe0\xa5\x872'
p3556
sS'drel'
p3557
S'lwg__psp:\xe0\xa4\xac\xe0\xa5\x8b\xe0\xa4\xb0\xe0\xa5\x8d\xe0\xa4\xa12'
p3558
sS'chunktype'
p3559
S'child:NP5'
p3560
sS'af'
p3561
S'\xe0\xa4\x95\xe0\xa4\xbe,psp,m,sg,,o,,'
p3562
ssbsg1242
I00
sg1245
I00
sg1256
Nsg1243
Nsg174
I6
sg160
I2
sg1484
Nsg1254
Nsg1485
S'PSP'
p3563
sg261
(issf_api
FeatureSet
p3564
(dp3565
g264
(dp3566
S'posn'
p3567
S'210'
p3568
sS'name'
p3569
S'\xe0\xa4\x95\xe0\xa5\x872'
p3570
sS'af'
p3571
S'\xe0\xa4\x95\xe0\xa4\xbe,psp,m,sg,,o,,'
p3572
ssbsg1263
I00
sba(issf_api
Word
p3573
(dp3574
g1467
I00
sg1468
V\u091a\u0947\u092f\u0930\u092e\u0948\u0928
p3575
sg1470
(issf_api
FeatureSet
p3576
(dp3577
g264
(dp3578
S'posn'
p3579
S'220'
p3580
sS'name'
p3581
S'\xe0\xa4\x9a\xe0\xa5\x87\xe0\xa4\xaf\xe0\xa4\xb0\xe0\xa4\xae\xe0\xa5\x88\xe0\xa4\xa8'
p3582
sS'af'
p3583
S'\xe0\xa4\x9a\xe0\xa5\x87\xe0\xa4\xaf\xe0\xa4\xb0\xe0\xa4\xae\xe0\xa5\x88\xe0\xa4\xa8,n,m,sg,3,o,0,0'
p3584
sS'chunkid'
p3585
S'NP6'
p3586
sS'drel'
p3587
S'nmod:\xe0\xa4\x96\xe0\xa4\xbe\xe0\xa4\xa8'
p3588
sS'chunktype'
p3589
S'head:NP6'
p3590
ssbsg1242
I00
sg1245
I00
sg1256
Nsg1243
Nsg174
I7
sg160
I2
sg1484
Nsg1254
Nsg1485
S'NN'
p3591
sg261
(issf_api
FeatureSet
p3592
(dp3593
g264
(dp3594
S'posn'
p3595
S'220'
p3596
sS'name'
p3597
S'\xe0\xa4\x9a\xe0\xa5\x87\xe0\xa4\xaf\xe0\xa4\xb0\xe0\xa4\xae\xe0\xa5\x88\xe0\xa4\xa8'
p3598
sS'af'
p3599
S'\xe0\xa4\x9a\xe0\xa5\x87\xe0\xa4\xaf\xe0\xa4\xb0\xe0\xa4\xae\xe0\xa5\x88\xe0\xa4\xa8,n,m,sg,3,o,0,0'
p3600
ssbsg1263
I00
sba(issf_api
Word
p3601
(dp3602
g1467
I00
sg1468
V\u0936\u0939\u0930\u092f\u093e\u0930
p3603
sg1470
(issf_api
FeatureSet
p3604
(dp3605
g264
(dp3606
S'posn'
p3607
S'230'
p3608
sS'name'
p3609
S'\xe0\xa4\xb6\xe0\xa4\xb9\xe0\xa4\xb0\xe0\xa4\xaf\xe0\xa4\xbe\xe0\xa4\xb0'
p3610
sS'drel'
p3611
S'pof__cn:\xe0\xa4\x96\xe0\xa4\xbe\xe0\xa4\xa8'
p3612
sS'chunktype'
p3613
S'child:NP7'
p3614
sS'af'
p3615
S'\xe0\xa4\xb6\xe0\xa4\xb9\xe0\xa4\xb0\xe0\xa4\xaf\xe0\xa4\xbe\xe0\xa4\xb0,n,m,sg,3,d,0,0'
p3616
ssbsg1242
I00
sg1245
I00
sg1256
Nsg1243
Nsg174
I8
sg160
I2
sg1484
Nsg1254
Nsg1485
S'NNPC'
p3617
sg261
(issf_api
FeatureSet
p3618
(dp3619
g264
(dp3620
S'posn'
p3621
S'230'
p3622
sS'name'
p3623
S'\xe0\xa4\xb6\xe0\xa4\xb9\xe0\xa4\xb0\xe0\xa4\xaf\xe0\xa4\xbe\xe0\xa4\xb0'
p3624
sS'af'
p3625
S'\xe0\xa4\xb6\xe0\xa4\xb9\xe0\xa4\xb0\xe0\xa4\xaf\xe0\xa4\xbe\xe0\xa4\xb0,n,m,sg,3,d,0,0'
p3626
ssbsg1263
I00
sba(issf_api
Word
p3627
(dp3628
g1467
I00
sg1468
V\u0916\u093e\u0928
p3629
sg1470
(issf_api
FeatureSet
p3630
(dp3631
g264
(dp3632
S'posn'
p3633
S'240'
p3634
sS'name'
p3635
S'\xe0\xa4\x96\xe0\xa4\xbe\xe0\xa4\xa8'
p3636
sS'af'
p3637
S'\xe0\xa4\x96\xe0\xa4\xbe\xe0\xa4\xa8,n,m,sg,3,o,0_\xe0\xa4\xa8\xe0\xa5\x87,0'
p3638
sS'chunkid'
p3639
S'NP7'
p3640
sS'drel'
p3641
S'k1:\xe0\xa4\xad\xe0\xa5\x87\xe0\xa4\x9c\xe0\xa4\xbe'
p3642
sS'vpos'
p3643
S'vib_3'
p3644
sS'chunktype'
p3645
S'head:NP7'
p3646
ssbsg1242
I00
sg1245
I00
sg1256
Nsg1243
Nsg174
I8
sg160
I2
sg1484
Nsg1254
Nsg1485
S'NNP'
p3647
sg261
(issf_api
FeatureSet
p3648
(dp3649
g264
(dp3650
S'posn'
p3651
S'240'
p3652
sS'name'
p3653
S'\xe0\xa4\x96\xe0\xa4\xbe\xe0\xa4\xa8'
p3654
sS'af'
p3655
S'\xe0\xa4\x96\xe0\xa4\xbe\xe0\xa4\xa8,n,m,sg,3,o,0,0'
p3656
ssbsg1263
I00
sba(issf_api
Word
p3657
(dp3658
g1467
I00
sg1468
V\u0928\u0947
p3659
sg1470
(issf_api
FeatureSet
p3660
(dp3661
g264
(dp3662
S'posn'
p3663
S'250'
p3664
sS'name'
p3665
S'\xe0\xa4\xa8\xe0\xa5\x872'
p3666
sS'drel'
p3667
S'lwg__psp:\xe0\xa4\x96\xe0\xa4\xbe\xe0\xa4\xa8'
p3668
sS'chunktype'
p3669
S'child:NP7'
p3670
sS'af'
p3671
S'\xe0\xa4\xa8\xe0\xa5\x87,psp,,,,,,'
p3672
ssbsg1242
I00
sg1245
I00
sg1256
Nsg1243
Nsg174
I8
sg160
I2
sg1484
Nsg1254
Nsg1485
S'PSP'
p3673
sg261
(issf_api
FeatureSet
p3674
(dp3675
g264
(dp3676
S'posn'
p3677
S'250'
p3678
sS'name'
p3679
S'\xe0\xa4\xa8\xe0\xa5\x872'
p3680
sS'af'
p3681
S'\xe0\xa4\xa8\xe0\xa5\x87,psp,,,,,,'
p3682
ssbsg1263
I00
sba(issf_api
Word
p3683
(dp3684
g1467
I00
sg1468
V\u092a\u093e\u0915\u093f\u0938\u094d\u0924\u093e\u0928
p3685
sg1470
(issf_api
FeatureSet
p3686
(dp3687
g264
(dp3688
S'posn'
p3689
S'260'
p3690
sS'name'
p3691
S'\xe0\xa4\xaa\xe0\xa4\xbe\xe0\xa4\x95\xe0\xa4\xbf\xe0\xa4\xb8\xe0\xa5\x8d\xe0\xa4\xa4\xe0\xa4\xbe\xe0\xa4\xa8'
p3692
sS'af'
p3693
S'\xe0\xa4\xaa\xe0\xa4\xbe\xe0\xa4\x95\xe0\xa4\xbf\xe0\xa4\xb8\xe0\xa5\x8d\xe0\xa4\xa4\xe0\xa4\xbe\xe0\xa4\xa8,n,m,sg,3,o,0_\xe0\xa4\xae\xe0\xa5\x87\xe0\xa4\x82,0'
p3694
sS'chunkid'
p3695
S'NP8'
p3696
sS'drel'
p3697
S'k7p:\xe0\xa4\xa6\xe0\xa5\x87\xe0\xa4\x96\xe0\xa4\xa8\xe0\xa5\x87'
p3698
sS'vpos'
p3699
S'vib_2'
p3700
sS'chunktype'
p3701
S'head:NP8'
p3702
ssbsg1242
I00
sg1245
I00
sg1256
Nsg1243
Nsg174
I9
sg160
I2
sg1484
Nsg1254
Nsg1485
S'NNP'
p3703
sg261
(issf_api
FeatureSet
p3704
(dp3705
g264
(dp3706
S'posn'
p3707
S'260'
p3708
sS'name'
p3709
S'\xe0\xa4\xaa\xe0\xa4\xbe\xe0\xa4\x95\xe0\xa4\xbf\xe0\xa4\xb8\xe0\xa5\x8d\xe0\xa4\xa4\xe0\xa4\xbe\xe0\xa4\xa8'
p3710
sS'af'
p3711
S'\xe0\xa4\xaa\xe0\xa4\xbe\xe0\xa4\x95\xe0\xa4\xbf\xe0\xa4\xb8\xe0\xa5\x8d\xe0\xa4\xa4\xe0\xa4\xbe\xe0\xa4\xa8,n,m,sg,3,o,0,0'
p3712
ssbsg1263
I00
sba(issf_api
Word
p3713
(dp3714
g1467
I00
sg1468
V\u092e\u0947\u0902
p3715
sg1470
(issf_api
FeatureSet
p3716
(dp3717
g264
(dp3718
S'posn'
p3719
S'270'
p3720
sS'name'
p3721
S'\xe0\xa4\xae\xe0\xa5\x87\xe0\xa4\x82'
p3722
sS'drel'
p3723
S'lwg__psp:\xe0\xa4\xaa\xe0\xa4\xbe\xe0\xa4\x95\xe0\xa4\xbf\xe0\xa4\xb8\xe0\xa5\x8d\xe0\xa4\xa4\xe0\xa4\xbe\xe0\xa4\xa8'
p3724
sS'chunktype'
p3725
S'child:NP8'
p3726
sS'af'
p3727
S'\xe0\xa4\xae\xe0\xa5\x87\xe0\xa4\x82,psp,,,,,,'
p3728
ssbsg1242
I00
sg1245
I00
sg1256
Nsg1243
Nsg174
I9
sg160
I2
sg1484
Nsg1254
Nsg1485
S'PSP'
p3729
sg261
(issf_api
FeatureSet
p3730
(dp3731
g264
(dp3732
S'posn'
p3733
S'270'
p3734
sS'name'
p3735
S'\xe0\xa4\xae\xe0\xa5\x87\xe0\xa4\x82'
p3736
sS'af'
p3737
S'\xe0\xa4\xae\xe0\xa5\x87\xe0\xa4\x82,psp,,,,,,'
p3738
ssbsg1263
I00
sba(issf_api
Word
p3739
(dp3740
g1467
I00
sg1468
V\u091c\u093e\u0930\u0940
p3741
sg1470
(issf_api
FeatureSet
p3742
(dp3743
g264
(dp3744
S'posn'
p3745
S'280'
p3746
sS'name'
p3747
S'\xe0\xa4\x9c\xe0\xa4\xbe\xe0\xa4\xb0\xe0\xa5\x80'
p3748
sS'af'
p3749
S'\xe0\xa4\x9c\xe0\xa4\xbe\xe0\xa4\xb0\xe0\xa5\x80,adj,any,any,,o,,'
p3750
sS'chunkid'
p3751
S'JJP'
p3752
sS'drel'
p3753
S'nmod:\xe0\xa4\xae\xe0\xa5\x88\xe0\xa4\x9a\xe0\xa5\x8b\xe0\xa4\x82'
p3754
sS'chunktype'
p3755
S'head:JJP'
p3756
ssbsg1242
I00
sg1245
I00
sg1256
Nsg1243
Nsg174
I10
sg160
I2
sg1484
Nsg1254
Nsg1485
S'JJ'
p3757
sg261
(issf_api
FeatureSet
p3758
(dp3759
g264
(dp3760
S'posn'
p3761
S'280'
p3762
sS'name'
p3763
S'\xe0\xa4\x9c\xe0\xa4\xbe\xe0\xa4\xb0\xe0\xa5\x80'
p3764
sS'af'
p3765
S'\xe0\xa4\x9c\xe0\xa4\xbe\xe0\xa4\xb0\xe0\xa5\x80,adj,any,any,,o,,'
p3766
ssbsg1263
I00
sba(issf_api
Word
p3767
(dp3768
g1467
I00
sg1468
V\u0915\u094d\u0930\u093f\u0915\u0947\u091f
p3769
sg1470
(issf_api
FeatureSet
p3770
(dp3771
g264
(dp3772
S'posn'
p3773
S'290'
p3774
sS'name'
p3775
S'\xe0\xa4\x95\xe0\xa5\x8d\xe0\xa4\xb0\xe0\xa4\xbf\xe0\xa4\x95\xe0\xa5\x87\xe0\xa4\x9f'
p3776
sS'drel'
p3777
S'pof__cn:\xe0\xa4\xae\xe0\xa5\x88\xe0\xa4\x9a\xe0\xa5\x8b\xe0\xa4\x82'
p3778
sS'chunktype'
p3779
S'child:NP9'
p3780
sS'af'
p3781
S'\xe0\xa4\x95\xe0\xa5\x8d\xe0\xa4\xb0\xe0\xa4\xbf\xe0\xa4\x95\xe0\xa5\x87\xe0\xa4\x9f,n,m,sg,3,d,0,0'
p3782
ssbsg1242
I00
sg1245
I00
sg1256
Nsg1243
Nsg174
I11
sg160
I2
sg1484
Nsg1254
Nsg1485
S'NNC'
p3783
sg261
(issf_api
FeatureSet
p3784
(dp3785
g264
(dp3786
S'posn'
p3787
S'290'
p3788
sS'name'
p3789
S'\xe0\xa4\x95\xe0\xa5\x8d\xe0\xa4\xb0\xe0\xa4\xbf\xe0\xa4\x95\xe0\xa5\x87\xe0\xa4\x9f'
p3790
sS'af'
p3791
S'\xe0\xa4\x95\xe0\xa5\x8d\xe0\xa4\xb0\xe0\xa4\xbf\xe0\xa4\x95\xe0\xa5\x87\xe0\xa4\x9f,n,m,sg,3,d,0,0'
p3792
ssbsg1263
I00
sba(issf_api
Word
p3793
(dp3794
g1467
I00
sg1468
V\u092e\u0948\u091a\u094b\u0902
p3795
sg1470
(issf_api
FeatureSet
p3796
(dp3797
g264
(dp3798
S'posn'
p3799
S'300'
p3800
sS'name'
p3801
S'\xe0\xa4\xae\xe0\xa5\x88\xe0\xa4\x9a\xe0\xa5\x8b\xe0\xa4\x82'
p3802
sS'af'
p3803
S'\xe0\xa4\xae\xe0\xa5\x88\xe0\xa4\x9a,n,m,pl,3,o,0_\xe0\xa4\x95\xe0\xa5\x8b,0'
p3804
sS'chunkid'
p3805
S'NP9'
p3806
sS'drel'
p3807
S'k2:\xe0\xa4\xa6\xe0\xa5\x87\xe0\xa4\x96\xe0\xa4\xa8\xe0\xa5\x87'
p3808
sS'vpos'
p3809
S'vib_3'
p3810
sS'chunktype'
p3811
S'head:NP9'
p3812
ssbsg1242
I00
sg1245
I00
sg1256
Nsg1243
Nsg174
I11
sg160
I2
sg1484
Nsg1254
Nsg1485
S'NN'
p3813
sg261
(issf_api
FeatureSet
p3814
(dp3815
g264
(dp3816
S'posn'
p3817
S'300'
p3818
sS'name'
p3819
S'\xe0\xa4\xae\xe0\xa5\x88\xe0\xa4\x9a\xe0\xa5\x8b\xe0\xa4\x82'
p3820
sS'af'
p3821
S'\xe0\xa4\xae\xe0\xa5\x88\xe0\xa4\x9a,n,m,pl,3,o,0,0'
p3822
ssbsg1263
I00
sba(issf_api
Word
p3823
(dp3824
g1467
I00
sg1468
V\u0915\u094b
p3825
sg1470
(issf_api
FeatureSet
p3826
(dp3827
g264
(dp3828
S'posn'
p3829
S'310'
p3830
sS'name'
p3831
S'\xe0\xa4\x95\xe0\xa5\x8b'
p3832
sS'drel'
p3833
S'lwg__psp:\xe0\xa4\xae\xe0\xa5\x88\xe0\xa4\x9a\xe0\xa5\x8b\xe0\xa4\x82'
p3834
sS'chunktype'
p3835
S'child:NP9'
p3836
sS'af'
p3837
S'\xe0\xa4\x95\xe0\xa5\x8b,psp,,,,,,'
p3838
ssbsg1242
I00
sg1245
I00
sg1256
Nsg1243
Nsg174
I11
sg160
I2
sg1484
Nsg1254
Nsg1485
S'PSP'
p3839
sg261
(issf_api
FeatureSet
p3840
(dp3841
g264
(dp3842
S'posn'
p3843
S'310'
p3844
sS'name'
p3845
S'\xe0\xa4\x95\xe0\xa5\x8b'
p3846
sS'af'
p3847
S'\xe0\xa4\x95\xe0\xa5\x8b,psp,,,,,,'
p3848
ssbsg1263
I00
sba(issf_api
Word
p3849
(dp3850
g1467
I00
sg1468
V\u0926\u0947\u0916\u0928\u0947
p3851
sg1470
(issf_api
FeatureSet
p3852
(dp3853
g264
(dp3854
S'posn'
p3855
S'320'
p3856
sS'name'
p3857
S'\xe0\xa4\xa6\xe0\xa5\x87\xe0\xa4\x96\xe0\xa4\xa8\xe0\xa5\x87'
p3858
sS'af'
p3859
S'\xe0\xa4\xa6\xe0\xa5\x87\xe0\xa4\x96,v,any,any,any,o,\xe0\xa4\xa8\xe0\xa4\xbe_\xe0\xa4\x95\xe0\xa5\x87_\xe0\xa4\xb2\xe0\xa4\xbf\xe0\xa4\x8f,nA'
p3860
sS'chunkid'
p3861
S'VGNN'
p3862
sS'drel'
p3863
S'rt:\xe0\xa4\xad\xe0\xa5\x87\xe0\xa4\x9c\xe0\xa4\xbe'
p3864
sS'vpos'
p3865
S'tam_2_3'
p3866
sS'chunktype'
p3867
S'head:VGNN'
p3868
ssbsg1242
I00
sg1245
I00
sg1256
Nsg1243
Nsg174
I12
sg160
I2
sg1484
Nsg1254
Nsg1485
S'VM'
p3869
sg261
(issf_api
FeatureSet
p3870
(dp3871
g264
(dp3872
S'posn'
p3873
S'320'
p3874
sS'name'
p3875
S'\xe0\xa4\xa6\xe0\xa5\x87\xe0\xa4\x96\xe0\xa4\xa8\xe0\xa5\x87'
p3876
sS'af'
p3877
S'\xe0\xa4\xa6\xe0\xa5\x87\xe0\xa4\x96,v,any,any,any,o,\xe0\xa4\xa8\xe0\xa4\xbe,nA'
p3878
ssbsg1263
I00
sba(issf_api
Word
p3879
(dp3880
g1467
I00
sg1468
V\u0915\u0947
p3881
sg1470
(issf_api
FeatureSet
p3882
(dp3883
g264
(dp3884
S'posn'
p3885
S'330'
p3886
sS'name'
p3887
S'\xe0\xa4\x95\xe0\xa5\x873'
p3888
sS'drel'
p3889
S'lwg__psp:\xe0\xa4\xa6\xe0\xa5\x87\xe0\xa4\x96\xe0\xa4\xa8\xe0\xa5\x87'
p3890
sS'chunktype'
p3891
S'child:VGNN'
p3892
sS'af'
p3893
S'\xe0\xa4\x95\xe0\xa5\x87,psp,,,,,,'
p3894
ssbsg1242
I00
sg1245
I00
sg1256
Nsg1243
Nsg174
I12
sg160
I2
sg1484
Nsg1254
Nsg1485
S'PSP'
p3895
sg261
(issf_api
FeatureSet
p3896
(dp3897
g264
(dp3898
S'posn'
p3899
S'330'
p3900
sS'name'
p3901
S'\xe0\xa4\x95\xe0\xa5\x873'
p3902
sS'af'
p3903
S'\xe0\xa4\x95\xe0\xa5\x87,psp,,,,,,'
p3904
ssbsg1263
I00
sba(issf_api
Word
p3905
(dp3906
g1467
I00
sg1468
V\u0932\u093f\u090f
p3907
sg1470
(issf_api
FeatureSet
p3908
(dp3909
g264
(dp3910
S'posn'
p3911
S'340'
p3912
sS'name'
p3913
S'\xe0\xa4\xb2\xe0\xa4\xbf\xe0\xa4\x8f'
p3914
sS'drel'
p3915
S'lwg__psp:\xe0\xa4\xa6\xe0\xa5\x87\xe0\xa4\x96\xe0\xa4\xa8\xe0\xa5\x87'
p3916
sS'chunktype'
p3917
S'child:VGNN'
p3918
sS'af'
p3919
S'\xe0\xa4\xb2\xe0\xa4\xbf\xe0\xa4\x8f,psp,,,,,,'
p3920
ssbsg1242
I00
sg1245
I00
sg1256
Nsg1243
Nsg174
I12
sg160
I2
sg1484
Nsg1254
Nsg1485
S'PSP'
p3921
sg261
(issf_api
FeatureSet
p3922
(dp3923
g264
(dp3924
S'posn'
p3925
S'340'
p3926
sS'name'
p3927
S'\xe0\xa4\xb2\xe0\xa4\xbf\xe0\xa4\x8f'
p3928
sS'af'
p3929
S'\xe0\xa4\xb2\xe0\xa4\xbf\xe0\xa4\x8f,psp,,,,,,'
p3930
ssbsg1263
I00
sba(issf_api
Word
p3931
(dp3932
g1467
I00
sg1468
V\u0930\u093e\u0939\u0941\u0932
p3933
sg1470
(issf_api
FeatureSet
p3934
(dp3935
g264
(dp3936
S'posn'
p3937
S'350'
p3938
sS'name'
p3939
S'\xe0\xa4\xb0\xe0\xa4\xbe\xe0\xa4\xb9\xe0\xa5\x81\xe0\xa4\xb2'
p3940
sS'af'
p3941
S'\xe0\xa4\xb0\xe0\xa4\xbe\xe0\xa4\xb9\xe0\xa5\x81\xe0\xa4\xb2,n,m,sg,3,o,0,0'
p3942
sS'chunkid'
p3943
S'NP10'
p3944
sS'drel'
p3945
S'ccof:\xe0\xa4\xb5'
p3946
sS'chunktype'
p3947
S'head:NP10'
p3948
ssbsg1242
I00
sg1245
I00
sg1256
Nsg1243
Nsg174
I13
sg160
I2
sg1484
Nsg1254
Nsg1485
S'NNP'
p3949
sg261
(issf_api
FeatureSet
p3950
(dp3951
g264
(dp3952
S'posn'
p3953
S'350'
p3954
sS'name'
p3955
S'\xe0\xa4\xb0\xe0\xa4\xbe\xe0\xa4\xb9\xe0\xa5\x81\xe0\xa4\xb2'
p3956
sS'af'
p3957
S'\xe0\xa4\xb0\xe0\xa4\xbe\xe0\xa4\xb9\xe0\xa5\x81\xe0\xa4\xb2,n,m,sg,3,o,0,0'
p3958
ssbsg1263
I00
sba(issf_api
Word
p3959
(dp3960
g1467
I00
sg1468
V\u0935
sg1470
(issf_api
FeatureSet
p3961
(dp3962
g264
(dp3963
S'posn'
p3964
S'360'
p3965
sS'name'
p3966
S'\xe0\xa4\xb5'
p3967
sS'af'
p3968
S'\xe0\xa4\xb5,avy,,,,,,'
p3969
sS'chunkid'
p3970
S'CCP2'
p3971
sS'drel'
p3972
S'k4:\xe0\xa4\xad\xe0\xa5\x87\xe0\xa4\x9c\xe0\xa4\xbe'
p3973
sS'chunktype'
p3974
S'head:CCP2'
p3975
ssbsg1242
I00
sg1245
I00
sg1256
Nsg1243
Nsg174
I14
sg160
I2
sg1484
Nsg1254
Nsg1485
S'CC'
p3976
sg261
(issf_api
FeatureSet
p3977
(dp3978
g264
(dp3979
S'posn'
p3980
S'360'
p3981
sS'name'
p3982
S'\xe0\xa4\xb5'
p3983
sS'af'
p3984
S'\xe0\xa4\xb5,avy,,,,,,'
p3985
ssbsg1263
I00
sba(issf_api
Word
p3986
(dp3987
g1467
I00
sg1468
V\u092a\u094d\u0930\u093f\u092f\u0902\u0915\u093e
p3988
sg1470
(issf_api
FeatureSet
p3989
(dp3990
g264
(dp3991
S'posn'
p3992
S'370'
p3993
sS'name'
p3994
S'\xe0\xa4\xaa\xe0\xa5\x8d\xe0\xa4\xb0\xe0\xa4\xbf\xe0\xa4\xaf\xe0\xa4\x82\xe0\xa4\x95\xe0\xa4\xbe'
p3995
sS'af'
p3996
S'\xe0\xa4\xaa\xe0\xa5\x8d\xe0\xa4\xb0\xe0\xa4\xbf\xe0\xa4\xaf\xe0\xa4\x82\xe0\xa4\x95\xe0\xa4\xbe,n,f,sg,3,o,0_\xe0\xa4\x95\xe0\xa5\x8b,0'
p3997
sS'chunkid'
p3998
S'NP11'
p3999
sS'drel'
p4000
S'ccof:\xe0\xa4\xb5'
p4001
sS'vpos'
p4002
S'vib_2'
p4003
sS'chunktype'
p4004
S'head:NP11'
p4005
ssbsg1242
I00
sg1245
I00
sg1256
Nsg1243
Nsg174
I15
sg160
I2
sg1484
Nsg1254
Nsg1485
S'NNP'
p4006
sg261
(issf_api
FeatureSet
p4007
(dp4008
g264
(dp4009
S'posn'
p4010
S'370'
p4011
sS'name'
p4012
S'\xe0\xa4\xaa\xe0\xa5\x8d\xe0\xa4\xb0\xe0\xa4\xbf\xe0\xa4\xaf\xe0\xa4\x82\xe0\xa4\x95\xe0\xa4\xbe'
p4013
sS'af'
p4014
S'\xe0\xa4\xaa\xe0\xa5\x8d\xe0\xa4\xb0\xe0\xa4\xbf\xe0\xa4\xaf\xe0\xa4\x82\xe0\xa4\x95\xe0\xa4\xbe,n,f,sg,3,o,0,0'
p4015
ssbsg1263
I00
sba(issf_api
Word
p4016
(dp4017
g1467
I00
sg1468
V\u0915\u094b
p4018
sg1470
(issf_api
FeatureSet
p4019
(dp4020
g264
(dp4021
S'posn'
p4022
S'380'
p4023
sS'name'
p4024
S'\xe0\xa4\x95\xe0\xa5\x8b2'
p4025
sS'drel'
p4026
S'lwg__psp:\xe0\xa4\xaa\xe0\xa5\x8d\xe0\xa4\xb0\xe0\xa4\xbf\xe0\xa4\xaf\xe0\xa4\x82\xe0\xa4\x95\xe0\xa4\xbe'
p4027
sS'chunktype'
p4028
S'child:NP11'
p4029
sS'af'
p4030
S'\xe0\xa4\x95\xe0\xa5\x8b,psp,,,,,,'
p4031
ssbsg1242
I00
sg1245
I00
sg1256
Nsg1243
Nsg174
I15
sg160
I2
sg1484
Nsg1254
Nsg1485
S'PSP'
p4032
sg261
(issf_api
FeatureSet
p4033
(dp4034
g264
(dp4035
S'posn'
p4036
S'380'
p4037
sS'name'
p4038
S'\xe0\xa4\x95\xe0\xa5\x8b2'
p4039
sS'af'
p4040
S'\xe0\xa4\x95\xe0\xa5\x8b,psp,,,,,,'
p4041
ssbsg1263
I00
sba(issf_api
Word
p4042
(dp4043
g1467
I00
sg1468
V\u0928\u093f\u092e\u0902\u0924\u094d\u0930\u0923
p4044
sg1470
(issf_api
FeatureSet
p4045
(dp4046
g264
(dp4047
S'posn'
p4048
S'390'
p4049
sS'name'
p4050
S'\xe0\xa4\xa8\xe0\xa4\xbf\xe0\xa4\xae\xe0\xa4\x82\xe0\xa4\xa4\xe0\xa5\x8d\xe0\xa4\xb0\xe0\xa4\xa3'
p4051
sS'af'
p4052
S'\xe0\xa4\xa8\xe0\xa4\xbf\xe0\xa4\xae\xe0\xa4\x82\xe0\xa4\xa4\xe0\xa5\x8d\xe0\xa4\xb0\xe0\xa4\xa3,n,m,sg,3,d,0,0'
p4053
sS'chunkid'
p4054
S'NP12'
p4055
sS'drel'
p4056
S'k2:\xe0\xa4\xad\xe0\xa5\x87\xe0\xa4\x9c\xe0\xa4\xbe'
p4057
sS'chunktype'
p4058
S'head:NP12'
p4059
ssbsg1242
I00
sg1245
I00
sg1256
Nsg1243
Nsg174
I16
sg160
I2
sg1484
Nsg1254
Nsg1485
S'NN'
p4060
sg261
(issf_api
FeatureSet
p4061
(dp4062
g264
(dp4063
S'posn'
p4064
S'390'
p4065
sS'name'
p4066
S'\xe0\xa4\xa8\xe0\xa4\xbf\xe0\xa4\xae\xe0\xa4\x82\xe0\xa4\xa4\xe0\xa5\x8d\xe0\xa4\xb0\xe0\xa4\xa3'
p4067
sS'af'
p4068
S'\xe0\xa4\xa8\xe0\xa4\xbf\xe0\xa4\xae\xe0\xa4\x82\xe0\xa4\xa4\xe0\xa5\x8d\xe0\xa4\xb0\xe0\xa4\xa3,n,m,sg,3,d,0,0'
p4069
ssbsg1263
I00
sba(issf_api
Word
p4070
(dp4071
g1467
I00
sg1468
V\u092d\u0947\u091c\u093e
p4072
sg1470
(issf_api
FeatureSet
p4073
(dp4074
g264
(dp4075
S'posn'
p4076
S'400'
p4077
sS'name'
p4078
S'\xe0\xa4\xad\xe0\xa5\x87\xe0\xa4\x9c\xe0\xa4\xbe'
p4079
sS'af'
p4080
S'\xe0\xa4\xad\xe0\xa5\x87\xe0\xa4\x9c,v,m,sg,3,,\xe0\xa4\xaf\xe0\xa4\xbe_\xe0\xa4\xb9\xe0\xa5\x88,yA'
p4081
sS'chunkid'
p4082
S'VGF2'
p4083
sS'stype'
p4084
S'declarative'
p4085
sS'drel'
p4086
S'ccof:\xe0\xa4\x95\xe0\xa4\xbf'
p4087
sS'voicetype'
p4088
S'active'
p4089
sS'vpos'
p4090
S'tam_2'
p4091
sS'chunktype'
p4092
S'head:VGF2'
p4093
ssbsg1242
I00
sg1245
I00
sg1256
Nsg1243
Nsg174
I17
sg160
I2
sg1484
Nsg1254
Nsg1485
S'VM'
p4094
sg261
(issf_api
FeatureSet
p4095
(dp4096
g264
(dp4097
S'posn'
p4098
S'400'
p4099
sS'name'
p4100
S'\xe0\xa4\xad\xe0\xa5\x87\xe0\xa4\x9c\xe0\xa4\xbe'
p4101
sS'af'
p4102
S'\xe0\xa4\xad\xe0\xa5\x87\xe0\xa4\x9c,v,m,sg,any,,\xe0\xa4\xaf\xe0\xa4\xbe,yA'
p4103
ssbsg1263
I00
sba(issf_api
Word
p4104
(dp4105
g1467
I00
sg1468
V\u0939\u0948
p4106
sg1470
(issf_api
FeatureSet
p4107
(dp4108
g264
(dp4109
S'posn'
p4110
S'410'
p4111
sS'name'
p4112
S'\xe0\xa4\xb9\xe0\xa5\x882'
p4113
sS'drel'
p4114
S'lwg__vaux:\xe0\xa4\xad\xe0\xa5\x87\xe0\xa4\x9c\xe0\xa4\xbe'
p4115
sS'chunktype'
p4116
S'child:VGF2'
p4117
sS'af'
p4118
S'\xe0\xa4\xb9\xe0\xa5\x88,v,any,sg,3,,\xe0\xa4\xb9\xe0\xa5\x88,hE'
p4119
ssbsg1242
I00
sg1245
I00
sg1256
Nsg1243
Nsg174
I17
sg160
I2
sg1484
Nsg1254
Nsg1485
S'VAUX'
p4120
sg261
(issf_api
FeatureSet
p4121
(dp4122
g264
(dp4123
S'posn'
p4124
S'410'
p4125
sS'name'
p4126
S'\xe0\xa4\xb9\xe0\xa5\x882'
p4127
sS'af'
p4128
S'\xe0\xa4\xb9\xe0\xa5\x88,v,any,sg,3,,\xe0\xa4\xb9\xe0\xa5\x88,hE'
p4129
ssbsg1263
I00
sba(issf_api
Word
p4130
(dp4131
g1467
I00
sg1468
V\u0964
sg1470
(issf_api
FeatureSet
p4132
(dp4133
g264
(dp4134
S'posn'
p4135
S'420'
p4136
sS'name'
p4137
S'\xe0\xa5\xa4'
p4138
sS'af'
p4139
S'\xe0\xa5\xa4,punc,,,,,,'
p4140
sS'chunkid'
p4141
S'BLK'
p4142
sS'drel'
p4143
S'rsym:\xe0\xa4\xac\xe0\xa4\xa4\xe0\xa4\xbe\xe0\xa4\xaf\xe0\xa4\xbe'
p4144
sS'chunktype'
p4145
S'head:BLK'
p4146
ssbsg1242
I00
sg1245
I00
sg1256
Nsg1243
Nsg174
I18
sg160
I2
sg1484
Nsg1254
Nsg1485
S'SYM'
p4147
sg261
(issf_api
FeatureSet
p4148
(dp4149
g264
(dp4150
S'posn'
p4151
S'420'
p4152
sS'name'
p4153
S'\xe0\xa5\xa4'
p4154
sS'af'
p4155
S'\xe0\xa5\xa4,punc,,,,,,'
p4156
ssbsg1263
I00
sba(issf_api
Word
p4157
(dp4158
g1467
I00
sg1468
V'
sg1470
(issf_api
FeatureSet
p4159
(dp4160
g264
(dp4161
S'posn'
p4162
S'10'
p4163
sS'name'
p4164
S''
sS"'"
S''
sS'af'
p4165
S'SINGLE_QUOTE,punc,,,,,,'
p4166
sS'drel'
p4167
S'rsym:\xe0\xa4\xa8\xe0\xa5\x8d\xe0\xa4\xaf\xe0\xa5\x82\xe0\xa4\x9c'
p4168
sS'chunktype'
p4169
S'child:NP'
p4170
ssbsg1242
I00
sg1245
I00
sg1256
Nsg1243
Nsg174
I0
sg160
I3
sg1484
Nsg1254
Nsg1485
S'SYM'
p4171
sg261
(issf_api
FeatureSet
p4172
(dp4173
g264
(dp4174
S'posn'
p4175
S'10'
p4176
sS'name'
p4177
S''
sS"'"
S''
sS'af'
p4178
S'SINGLE_QUOTE,punc,,,,,,'
p4179
ssbsg1263
I00
sba(issf_api
Word
p4180
(dp4181
g1467
I00
sg1468
V\u0926\u0940
p4182
sg1470
(issf_api
FeatureSet
p4183
(dp4184
g264
(dp4185
S'posn'
p4186
S'20'
p4187
sS'name'
p4188
S'\xe0\xa4\xa6\xe0\xa5\x80'
p4189
sS'drel'
p4190
S'pof__cn:\xe0\xa4\xa8\xe0\xa5\x8d\xe0\xa4\xaf\xe0\xa5\x82\xe0\xa4\x9c'
p4191
sS'chunktype'
p4192
S'child:NP'
p4193
sS'af'
p4194
S'\xe0\xa4\xa6\xe0\xa5\x80,n,m,sg,3,d,0,0'
p4195
ssbsg1242
I00
sg1245
I00
sg1256
Nsg1243
Nsg174
I0
sg160
I3
sg1484
Nsg1254
Nsg1485
S'NNPC'
p4196
sg261
(issf_api
FeatureSet
p4197
(dp4198
g264
(dp4199
S'posn'
p4200
S'20'
p4201
sS'name'
p4202
S'\xe0\xa4\xa6\xe0\xa5\x80'
p4203
sS'af'
p4204
S'\xe0\xa4\xa6\xe0\xa5\x80,n,m,sg,3,d,0,0'
p4205
ssbsg1263
I00
sba(issf_api
Word
p4206
(dp4207
g1467
I00
sg1468
V\u0928\u094d\u092f\u0942\u091c
p4208
sg1470
(issf_api
FeatureSet
p4209
(dp4210
g264
(dp4211
S'posn'
p4212
S'30'
p4213
sS'name'
p4214
S'\xe0\xa4\xa8\xe0\xa5\x8d\xe0\xa4\xaf\xe0\xa5\x82\xe0\xa4\x9c'
p4215
sS'af'
p4216
S'\xe0\xa4\xa8\xe0\xa5\x8d\xe0\xa4\xaf\xe0\xa5\x82\xe0\xa4\x9c,n,f,sg,3,o,0_\xe0\xa4\x95\xe0\xa5\x87_\xe0\xa4\xae\xe0\xa5\x81\xe0\xa4\xa4\xe0\xa4\xbe\xe0\xa4\xac\xe0\xa4\xbf\xe0\xa4\x95,0'
p4217
sS'chunkid'
p4218
S'NP'
p4219
sS'drel'
p4220
S'k7a:\xe0\xa4\xb9\xe0\xa5\x88'
p4221
sS'vpos'
p4222
S'vib_5_6'
p4223
sS'chunktype'
p4224
S'head:NP'
p4225
ssbsg1242
I00
sg1245
I00
sg1256
Nsg1243
Nsg174
I0
sg160
I3
sg1484
Nsg1254
Nsg1485
S'NNP'
p4226
sg261
(issf_api
FeatureSet
p4227
(dp4228
g264
(dp4229
S'posn'
p4230
S'30'
p4231
sS'name'
p4232
S'\xe0\xa4\xa8\xe0\xa5\x8d\xe0\xa4\xaf\xe0\xa5\x82\xe0\xa4\x9c'
p4233
sS'af'
p4234
S'\xe0\xa4\xa8\xe0\xa5\x8d\xe0\xa4\xaf\xe0\xa5\x82\xe0\xa4\x9c,n,f,sg,3,o,0,0'
p4235
ssbsg1263
I00
sba(issf_api
Word
p4236
(dp4237
g1467
I00
sg1468
V'
sg1470
(issf_api
FeatureSet
p4238
(dp4239
g264
(dp4240
S'posn'
p4241
S'40'
p4242
sS'name'
p4243
S''
sS'af'
p4244
S'SINGLE_QUOTE,punc,,,,,,'
p4245
sS"2'"
p4246
S''
sS'drel'
p4247
S'rsym:\xe0\xa4\xa8\xe0\xa5\x8d\xe0\xa4\xaf\xe0\xa5\x82\xe0\xa4\x9c'
p4248
sS'chunktype'
p4249
S'child:NP'
p4250
ssbsg1242
I00
sg1245
I00
sg1256
Nsg1243
Nsg174
I0
sg160
I3
sg1484
Nsg1254
Nsg1485
S'SYM'
p4251
sg261
(issf_api
FeatureSet
p4252
(dp4253
g264
(dp4254
S'posn'
p4255
S'40'
p4256
sS"2'"
p4257
S''
sS'name'
p4258
S''
sS'af'
p4259
S'SINGLE_QUOTE,punc,,,,,,'
p4260
ssbsg1263
I00
sba(issf_api
Word
p4261
(dp4262
g1467
I00
sg1468
V\u0915\u0947
p4263
sg1470
(issf_api
FeatureSet
p4264
(dp4265
g264
(dp4266
S'posn'
p4267
S'50'
p4268
sS'name'
p4269
S'\xe0\xa4\x95\xe0\xa5\x87'
p4270
sS'drel'
p4271
S'lwg__psp:\xe0\xa4\xa8\xe0\xa5\x8d\xe0\xa4\xaf\xe0\xa5\x82\xe0\xa4\x9c'
p4272
sS'chunktype'
p4273
S'child:NP'
p4274
sS'af'
p4275
S'\xe0\xa4\x95\xe0\xa5\x87,psp,,,,,,'
p4276
ssbsg1242
I00
sg1245
I00
sg1256
Nsg1243
Nsg174
I0
sg160
I3
sg1484
Nsg1254
Nsg1485
S'PSP'
p4277
sg261
(issf_api
FeatureSet
p4278
(dp4279
g264
(dp4280
S'posn'
p4281
S'50'
p4282
sS'name'
p4283
S'\xe0\xa4\x95\xe0\xa5\x87'
p4284
sS'af'
p4285
S'\xe0\xa4\x95\xe0\xa5\x87,psp,,,,,,'
p4286
ssbsg1263
I00
sba(issf_api
Word
p4287
(dp4288
g1467
I00
sg1468
V\u092e\u0941\u0924\u093e\u092c\u093f\u0915
p4289
sg1470
(issf_api
FeatureSet
p4290
(dp4291
g264
(dp4292
S'posn'
p4293
S'60'
p4294
sS'name'
p4295
S'\xe0\xa4\xae\xe0\xa5\x81\xe0\xa4\xa4\xe0\xa4\xbe\xe0\xa4\xac\xe0\xa4\xbf\xe0\xa4\x95'
p4296
sS'drel'
p4297
S'lwg__psp:\xe0\xa4\xa8\xe0\xa5\x8d\xe0\xa4\xaf\xe0\xa5\x82\xe0\xa4\x9c'
p4298
sS'chunktype'
p4299
S'child:NP'
p4300
sS'af'
p4301
S'\xe0\xa4\xae\xe0\xa5\x81\xe0\xa4\xa4\xe0\xa4\xbe\xe0\xa4\xac\xe0\xa4\xbf\xe0\xa4\x95,psp,,,,,,'
p4302
ssbsg1242
I00
sg1245
I00
sg1256
Nsg1243
Nsg174
I0
sg160
I3
sg1484
Nsg1254
Nsg1485
S'PSP'
p4303
sg261
(issf_api
FeatureSet
p4304
(dp4305
g264
(dp4306
S'posn'
p4307
S'60'
p4308
sS'name'
p4309
S'\xe0\xa4\xae\xe0\xa5\x81\xe0\xa4\xa4\xe0\xa4\xbe\xe0\xa4\xac\xe0\xa4\xbf\xe0\xa4\x95'
p4310
sS'af'
p4311
S'\xe0\xa4\xae\xe0\xa5\x81\xe0\xa4\xa4\xe0\xa4\xbe\xe0\xa4\xac\xe0\xa4\xbf\xe0\xa4\x95,psp,,,,,,'
p4312
ssbsg1263
I00
sba(issf_api
Word
p4313
(dp4314
g1467
I00
sg1468
V\u092c\u094b\u0930\u094d\u0921
p4315
sg1470
(issf_api
FeatureSet
p4316
(dp4317
g264
(dp4318
S'posn'
p4319
S'70'
p4320
sS'name'
p4321
S'\xe0\xa4\xac\xe0\xa5\x8b\xe0\xa4\xb0\xe0\xa5\x8d\xe0\xa4\xa1'
p4322
sS'af'
p4323
S'\xe0\xa4\xac\xe0\xa5\x8b\xe0\xa4\xb0\xe0\xa5\x8d\xe0\xa4\xa1,n,m,sg,3,o,0_\xe0\xa4\xa6\xe0\xa5\x8d\xe0\xa4\xb5\xe0\xa4\xbe\xe0\xa4\xb0\xe0\xa4\xbe,0'
p4324
sS'chunkid'
p4325
S'NP2'
p4326
sS'drel'
p4327
S'k3:\xe0\xa4\xad\xe0\xa5\x87\xe0\xa4\x9c\xe0\xa5\x87'
p4328
sS'vpos'
p4329
S'vib_2'
p4330
sS'chunktype'
p4331
S'head:NP2'
p4332
ssbsg1242
I00
sg1245
I00
sg1256
Nsg1243
Nsg174
I1
sg160
I3
sg1484
Nsg1254
Nsg1485
S'NN'
p4333
sg261
(issf_api
FeatureSet
p4334
(dp4335
g264
(dp4336
S'posn'
p4337
S'70'
p4338
sS'name'
p4339
S'\xe0\xa4\xac\xe0\xa5\x8b\xe0\xa4\xb0\xe0\xa5\x8d\xe0\xa4\xa1'
p4340
sS'af'
p4341
S'\xe0\xa4\xac\xe0\xa5\x8b\xe0\xa4\xb0\xe0\xa5\x8d\xe0\xa4\xa1,n,m,sg,3,o,0,0'
p4342
ssbsg1263
I00
sba(issf_api
Word
p4343
(dp4344
g1467
I00
sg1468
V\u0926\u094d\u0935\u093e\u0930\u093e
p4345
sg1470
(issf_api
FeatureSet
p4346
(dp4347
g264
(dp4348
S'posn'
p4349
S'80'
p4350
sS'name'
p4351
S'\xe0\xa4\xa6\xe0\xa5\x8d\xe0\xa4\xb5\xe0\xa4\xbe\xe0\xa4\xb0\xe0\xa4\xbe'
p4352
sS'drel'
p4353
S'lwg__psp:\xe0\xa4\xac\xe0\xa5\x8b\xe0\xa4\xb0\xe0\xa5\x8d\xe0\xa4\xa1'
p4354
sS'chunktype'
p4355
S'child:NP2'
p4356
sS'af'
p4357
S'\xe0\xa4\xa6\xe0\xa5\x8d\xe0\xa4\xb5\xe0\xa4\xbe\xe0\xa4\xb0\xe0\xa4\xbe,psp,,,,,,'
p4358
ssbsg1242
I00
sg1245
I00
sg1256
Nsg1243
Nsg174
I1
sg160
I3
sg1484
Nsg1254
Nsg1485
S'PSP'
p4359
sg261
(issf_api
FeatureSet
p4360
(dp4361
g264
(dp4362
S'posn'
p4363
S'80'
p4364
sS'name'
p4365
S'\xe0\xa4\xa6\xe0\xa5\x8d\xe0\xa4\xb5\xe0\xa4\xbe\xe0\xa4\xb0\xe0\xa4\xbe'
p4366
sS'af'
p4367
S'\xe0\xa4\xa6\xe0\xa5\x8d\xe0\xa4\xb5\xe0\xa4\xbe\xe0\xa4\xb0\xe0\xa4\xbe,psp,,,,,,'
p4368
ssbsg1263
I00
sba(issf_api
Word
p4369
(dp4370
g1467
I00
sg1468
V\u0938\u094b\u0928\u093f\u092f\u093e
p4371
sg1470
(issf_api
FeatureSet
p4372
(dp4373
g264
(dp4374
S'posn'
p4375
S'90'
p4376
sS'name'
p4377
S'\xe0\xa4\xb8\xe0\xa5\x8b\xe0\xa4\xa8\xe0\xa4\xbf\xe0\xa4\xaf\xe0\xa4\xbe'
p4378
sS'af'
p4379
S'\xe0\xa4\xb8\xe0\xa5\x8b\xe0\xa4\xa8\xe0\xa4\xbf\xe0\xa4\xaf\xe0\xa4\xbe,n,f,sg,3,o,0_\xe0\xa4\x95\xe0\xa5\x8b,0'
p4380
sS'chunkid'
p4381
S'NP3'
p4382
sS'drel'
p4383
S'k4:\xe0\xa4\xad\xe0\xa5\x87\xe0\xa4\x9c\xe0\xa5\x87'
p4384
sS'vpos'
p4385
S'vib_2_RP'
p4386
sS'chunktype'
p4387
S'head:NP3'
p4388
ssbsg1242
I00
sg1245
I00
sg1256
Nsg1243
Nsg174
I2
sg160
I3
sg1484
Nsg1254
Nsg1485
S'NNP'
p4389
sg261
(issf_api
FeatureSet
p4390
(dp4391
g264
(dp4392
S'posn'
p4393
S'90'
p4394
sS'name'
p4395
S'\xe0\xa4\xb8\xe0\xa5\x8b\xe0\xa4\xa8\xe0\xa4\xbf\xe0\xa4\xaf\xe0\xa4\xbe'
p4396
sS'af'
p4397
S'\xe0\xa4\xb8\xe0\xa5\x8b\xe0\xa4\xa8\xe0\xa4\xbf\xe0\xa4\xaf\xe0\xa4\xbe,n,f,sg,3,o,0,0'
p4398
ssbsg1263
I00
sba(issf_api
Word
p4399
(dp4400
g1467
I00
sg1468
V\u0915\u094b
p4401
sg1470
(issf_api
FeatureSet
p4402
(dp4403
g264
(dp4404
S'posn'
p4405
S'100'
p4406
sS'name'
p4407
S'\xe0\xa4\x95\xe0\xa5\x8b'
p4408
sS'drel'
p4409
S'lwg__psp:\xe0\xa4\xb8\xe0\xa5\x8b\xe0\xa4\xa8\xe0\xa4\xbf\xe0\xa4\xaf\xe0\xa4\xbe'
p4410
sS'chunktype'
p4411
S'child:NP3'
p4412
sS'af'
p4413
S'\xe0\xa4\x95\xe0\xa5\x8b,psp,,,,,,'
p4414
ssbsg1242
I00
sg1245
I00
sg1256
Nsg1243
Nsg174
I2
sg160
I3
sg1484
Nsg1254
Nsg1485
S'PSP'
p4415
sg261
(issf_api
FeatureSet
p4416
(dp4417
g264
(dp4418
S'posn'
p4419
S'100'
p4420
sS'name'
p4421
S'\xe0\xa4\x95\xe0\xa5\x8b'
p4422
sS'af'
p4423
S'\xe0\xa4\x95\xe0\xa5\x8b,psp,,,,,,'
p4424
ssbsg1263
I00
sba(issf_api
Word
p4425
(dp4426
g1467
I00
sg1468
V\u092d\u0940
p4427
sg1470
(issf_api
FeatureSet
p4428
(dp4429
g264
(dp4430
S'posn'
p4431
S'110'
p4432
sS'name'
p4433
S'\xe0\xa4\xad\xe0\xa5\x80'
p4434
sS'drel'
p4435
S'lwg__rp:\xe0\xa4\xb8\xe0\xa5\x8b\xe0\xa4\xa8\xe0\xa4\xbf\xe0\xa4\xaf\xe0\xa4\xbe'
p4436
sS'chunktype'
p4437
S'child:NP3'
p4438
sS'af'
p4439
S'\xe0\xa4\xad\xe0\xa5\x80,avy,,,,,,'
p4440
ssbsg1242
I00
sg1245
I00
sg1256
Nsg1243
Nsg174
I2
sg160
I3
sg1484
Nsg1254
Nsg1485
S'RP'
p4441
sg261
(issf_api
FeatureSet
p4442
(dp4443
g264
(dp4444
S'posn'
p4445
S'110'
p4446
sS'name'
p4447
S'\xe0\xa4\xad\xe0\xa5\x80'
p4448
sS'af'
p4449
S'\xe0\xa4\xad\xe0\xa5\x80,avy,,,,,,'
p4450
ssbsg1263
I00
sba(issf_api
Word
p4451
(dp4452
g1467
I00
sg1468
V\u0928\u093f\u092e\u0902\u0924\u094d\u0930\u0923
p4453
sg1470
(issf_api
FeatureSet
p4454
(dp4455
g264
(dp4456
S'posn'
p4457
S'120'
p4458
sS'name'
p4459
S'\xe0\xa4\xa8\xe0\xa4\xbf\xe0\xa4\xae\xe0\xa4\x82\xe0\xa4\xa4\xe0\xa5\x8d\xe0\xa4\xb0\xe0\xa4\xa3'
p4460
sS'af'
p4461
S'\xe0\xa4\xa8\xe0\xa4\xbf\xe0\xa4\xae\xe0\xa4\x82\xe0\xa4\xa4\xe0\xa5\x8d\xe0\xa4\xb0\xe0\xa4\xa3,n,m,sg,3,d,0,0'
p4462
sS'chunkid'
p4463
S'NP4'
p4464
sS'drel'
p4465
S'k2:\xe0\xa4\xad\xe0\xa5\x87\xe0\xa4\x9c\xe0\xa5\x87'
p4466
sS'chunktype'
p4467
S'head:NP4'
p4468
ssbsg1242
I00
sg1245
I00
sg1256
Nsg1243
Nsg174
I3
sg160
I3
sg1484
Nsg1254
Nsg1485
S'NN'
p4469
sg261
(issf_api
FeatureSet
p4470
(dp4471
g264
(dp4472
S'posn'
p4473
S'120'
p4474
sS'name'
p4475
S'\xe0\xa4\xa8\xe0\xa4\xbf\xe0\xa4\xae\xe0\xa4\x82\xe0\xa4\xa4\xe0\xa5\x8d\xe0\xa4\xb0\xe0\xa4\xa3'
p4476
sS'af'
p4477
S'\xe0\xa4\xa8\xe0\xa4\xbf\xe0\xa4\xae\xe0\xa4\x82\xe0\xa4\xa4\xe0\xa5\x8d\xe0\xa4\xb0\xe0\xa4\xa3,n,m,sg,3,d,0,0'
p4478
ssbsg1263
I00
sba(issf_api
Word
p4479
(dp4480
g1467
I00
sg1468
V\u092d\u0947\u091c\u0947
p4481
sg1470
(issf_api
FeatureSet
p4482
(dp4483
g264
(dp4484
S'posn'
p4485
S'130'
p4486
sS'name'
p4487
S'\xe0\xa4\xad\xe0\xa5\x87\xe0\xa4\x9c\xe0\xa5\x87'
p4488
sS'af'
p4489
S'\xe0\xa4\xad\xe0\xa5\x87\xe0\xa4\x9c,v,any,sg,any,,\xe0\xa4\xaf\xe0\xa4\xbe_\xe0\xa4\x9c\xe0\xa4\xbe+\xe0\xa4\xa8\xe0\xa4\xbe_\xe0\xa4\x95\xe0\xa4\xbe,yA'
p4490
sS'chunkid'
p4491
S'VGNN'
p4492
sS'drel'
p4493
S'r6:\xe0\xa4\xb8\xe0\xa4\x82\xe0\xa4\xad\xe0\xa4\xbe\xe0\xa4\xb5\xe0\xa4\xa8\xe0\xa4\xbe'
p4494
sS'vpos'
p4495
S'tam_2_3'
p4496
sS'chunktype'
p4497
S'head:VGNN'
p4498
ssbsg1242
I00
sg1245
I00
sg1256
Nsg1243
Nsg174
I4
sg160
I3
sg1484
Nsg1254
Nsg1485
S'VM'
p4499
sg261
(issf_api
FeatureSet
p4500
(dp4501
g264
(dp4502
S'posn'
p4503
S'130'
p4504
sS'name'
p4505
S'\xe0\xa4\xad\xe0\xa5\x87\xe0\xa4\x9c\xe0\xa5\x87'
p4506
sS'af'
p4507
S'\xe0\xa4\xad\xe0\xa5\x87\xe0\xa4\x9c,v,m,sg,any,,\xe0\xa4\xaf\xe0\xa4\xbe,yA'
p4508
ssbsg1263
I00
sba(issf_api
Word
p4509
(dp4510
g1467
I00
sg1468
V\u091c\u093e\u0928\u0947
p4511
sg1470
(issf_api
FeatureSet
p4512
(dp4513
g264
(dp4514
S'posn'
p4515
S'140'
p4516
sS'name'
p4517
S'\xe0\xa4\x9c\xe0\xa4\xbe\xe0\xa4\xa8\xe0\xa5\x87'
p4518
sS'drel'
p4519
S'lwg__vaux:\xe0\xa4\xad\xe0\xa5\x87\xe0\xa4\x9c\xe0\xa5\x87'
p4520
sS'chunktype'
p4521
S'child:VGNN'
p4522
sS'af'
p4523
S'\xe0\xa4\x9c\xe0\xa4\xbe,v,any,any,any,o,\xe0\xa4\xa8\xe0\xa4\xbe,nA'
p4524
ssbsg1242
I00
sg1245
I00
sg1256
Nsg1243
Nsg174
I4
sg160
I3
sg1484
Nsg1254
Nsg1485
S'VAUX'
p4525
sg261
(issf_api
FeatureSet
p4526
(dp4527
g264
(dp4528
S'posn'
p4529
S'140'
p4530
sS'name'
p4531
S'\xe0\xa4\x9c\xe0\xa4\xbe\xe0\xa4\xa8\xe0\xa5\x87'
p4532
sS'af'
p4533
S'\xe0\xa4\x9c\xe0\xa4\xbe,v,any,any,any,o,\xe0\xa4\xa8\xe0\xa4\xbe,nA'
p4534
ssbsg1263
I00
sba(issf_api
Word
p4535
(dp4536
g1467
I00
sg1468
V\u0915\u0940
p4537
sg1470
(issf_api
FeatureSet
p4538
(dp4539
g264
(dp4540
S'posn'
p4541
S'150'
p4542
sS'name'
p4543
S'\xe0\xa4\x95\xe0\xa5\x80'
p4544
sS'drel'
p4545
S'lwg__psp:\xe0\xa4\xad\xe0\xa5\x87\xe0\xa4\x9c\xe0\xa5\x87'
p4546
sS'chunktype'
p4547
S'child:VGNN'
p4548
sS'af'
p4549
S'\xe0\xa4\x95\xe0\xa4\xbe,psp,f,sg,,d,,'
p4550
ssbsg1242
I00
sg1245
I00
sg1256
Nsg1243
Nsg174
I4
sg160
I3
sg1484
Nsg1254
Nsg1485
S'PSP'
p4551
sg261
(issf_api
FeatureSet
p4552
(dp4553
g264
(dp4554
S'posn'
p4555
S'150'
p4556
sS'name'
p4557
S'\xe0\xa4\x95\xe0\xa5\x80'
p4558
sS'af'
p4559
S'\xe0\xa4\x95\xe0\xa4\xbe,psp,f,sg,,d,,'
p4560
ssbsg1263
I00
sba(issf_api
Word
p4561
(dp4562
g1467
I00
sg1468
V\u0938\u0902\u092d\u093e\u0935\u0928\u093e
p4563
sg1470
(issf_api
FeatureSet
p4564
(dp4565
g264
(dp4566
S'posn'
p4567
S'160'
p4568
sS'name'
p4569
S'\xe0\xa4\xb8\xe0\xa4\x82\xe0\xa4\xad\xe0\xa4\xbe\xe0\xa4\xb5\xe0\xa4\xa8\xe0\xa4\xbe'
p4570
sS'af'
p4571
S'\xe0\xa4\xb8\xe0\xa4\x82\xe0\xa4\xad\xe0\xa4\xbe\xe0\xa4\xb5\xe0\xa4\xa8\xe0\xa4\xbe,n,f,sg,3,d,0,0'
p4572
sS'chunkid'
p4573
S'NP5'
p4574
sS'drel'
p4575
S'k1:\xe0\xa4\xb9\xe0\xa5\x88'
p4576
sS'chunktype'
p4577
S'head:NP5'
p4578
ssbsg1242
I00
sg1245
I00
sg1256
Nsg1243
Nsg174
I5
sg160
I3
sg1484
Nsg1254
Nsg1485
S'NN'
p4579
sg261
(issf_api
FeatureSet
p4580
(dp4581
g264
(dp4582
S'posn'
p4583
S'160'
p4584
sS'name'
p4585
S'\xe0\xa4\xb8\xe0\xa4\x82\xe0\xa4\xad\xe0\xa4\xbe\xe0\xa4\xb5\xe0\xa4\xa8\xe0\xa4\xbe'
p4586
sS'af'
p4587
S'\xe0\xa4\xb8\xe0\xa4\x82\xe0\xa4\xad\xe0\xa4\xbe\xe0\xa4\xb5\xe0\xa4\xa8\xe0\xa4\xbe,n,f,sg,3,d,0,0'
p4588
ssbsg1263
I00
sba(issf_api
Word
p4589
(dp4590
g1467
I00
sg1468
V\u0939\u0948
p4591
sg1470
(issf_api
FeatureSet
p4592
(dp4593
g264
(dp4594
S'posn'
p4595
S'170'
p4596
sS'name'
p4597
S'\xe0\xa4\xb9\xe0\xa5\x88'
p4598
sS'af'
p4599
S'\xe0\xa4\xb9\xe0\xa5\x88,v,any,sg,3,,\xe0\xa4\xb9\xe0\xa5\x88,hE'
p4600
sS'chunkid'
p4601
S'VGF'
p4602
sS'chunktype'
p4603
S'head:VGF'
p4604
sS'voicetype'
p4605
S'active'
p4606
sS'stype'
p4607
S'declarative'
p4608
ssbsg1242
I00
sg1245
I00
sg1256
Nsg1243
Nsg174
I6
sg160
I3
sg1484
Nsg1254
Nsg1485
S'VM'
p4609
sg261
(issf_api
FeatureSet
p4610
(dp4611
g264
(dp4612
S'posn'
p4613
S'170'
p4614
sS'name'
p4615
S'\xe0\xa4\xb9\xe0\xa5\x88'
p4616
sS'af'
p4617
S'\xe0\xa4\xb9\xe0\xa5\x88,v,any,sg,3,,\xe0\xa4\xb9\xe0\xa5\x88,hE'
p4618
ssbsg1263
I00
sba(issf_api
Word
p4619
(dp4620
g1467
I00
sg1468
V\u0964
sg1470
(issf_api
FeatureSet
p4621
(dp4622
g264
(dp4623
S'posn'
p4624
S'180'
p4625
sS'name'
p4626
S'\xe0\xa5\xa4'
p4627
sS'af'
p4628
S'\xe0\xa5\xa4,punc,,,,,,'
p4629
sS'chunkid'
p4630
S'BLK'
p4631
sS'drel'
p4632
S'rsym:\xe0\xa4\xb9\xe0\xa5\x88'
p4633
sS'chunktype'
p4634
S'head:BLK'
p4635
ssbsg1242
I00
sg1245
I00
sg1256
Nsg1243
Nsg174
I7
sg160
I3
sg1484
Nsg1254
Nsg1485
S'SYM'
p4636
sg261
(issf_api
FeatureSet
p4637
(dp4638
g264
(dp4639
S'posn'
p4640
S'180'
p4641
sS'name'
p4642
S'\xe0\xa5\xa4'
p4643
sS'af'
p4644
S'\xe0\xa5\xa4,punc,,,,,,'
p4645
ssbsg1263
I00
sba(issf_api
Word
p4646
(dp4647
g1467
I00
sg1468
V\u0909\u092a\u0930\u094d\u092f\u0941\u0915\u094d\u0924
p4648
sg1470
(issf_api
FeatureSet
p4649
(dp4650
g264
(dp4651
S'posn'
p4652
S'10'
p4653
sS'name'
p4654
S'\xe0\xa4\x89\xe0\xa4\xaa\xe0\xa4\xb0\xe0\xa5\x8d\xe0\xa4\xaf\xe0\xa5\x81\xe0\xa4\x95\xe0\xa5\x8d\xe0\xa4\xa4'
p4655
sS'drel'
p4656
S'nmod__adj:\xe0\xa4\xb2\xe0\xa5\x8b\xe0\xa4\x97\xe0\xa5\x8b\xe0\xa4\x82'
p4657
sS'chunktype'
p4658
S'child:NP'
p4659
sS'af'
p4660
S'\xe0\xa4\x89\xe0\xa4\xaa\xe0\xa4\xb0\xe0\xa5\x8d\xe0\xa4\xaf\xe0\xa5\x81\xe0\xa4\x95\xe0\xa5\x8d\xe0\xa4\xa4,adj,any,any,,o,,'
p4661
ssbsg1242
I00
sg1245
I00
sg1256
Nsg1243
Nsg174
I0
sg160
I4
sg1484
Nsg1254
Nsg1485
S'JJ'
p4662
sg261
(issf_api
FeatureSet
p4663
(dp4664
g264
(dp4665
S'posn'
p4666
S'10'
p4667
sS'name'
p4668
S'\xe0\xa4\x89\xe0\xa4\xaa\xe0\xa4\xb0\xe0\xa5\x8d\xe0\xa4\xaf\xe0\xa5\x81\xe0\xa4\x95\xe0\xa5\x8d\xe0\xa4\xa4'
p4669
sS'af'
p4670
S'\xe0\xa4\x89\xe0\xa4\xaa\xe0\xa4\xb0\xe0\xa5\x8d\xe0\xa4\xaf\xe0\xa5\x81\xe0\xa4\x95\xe0\xa5\x8d\xe0\xa4\xa4,adj,any,any,,o,,'
p4671
ssbsg1263
I00
sba(issf_api
Word
p4672
(dp4673
g1467
I00
sg1468
V\u0932\u094b\u0917\u094b\u0902
p4674
sg1470
(issf_api
FeatureSet
p4675
(dp4676
g264
(dp4677
S'posn'
p4678
S'20'
p4679
sS'name'
p4680
S'\xe0\xa4\xb2\xe0\xa5\x8b\xe0\xa4\x97\xe0\xa5\x8b\xe0\xa4\x82'
p4681
sS'af'
p4682
S'\xe0\xa4\xb2\xe0\xa5\x8b\xe0\xa4\x97,n,m,pl,3,o,0_\xe0\xa4\x95\xe0\xa5\x87_\xe0\xa4\x85\xe0\xa4\xb2\xe0\xa4\xbe\xe0\xa4\xb5\xe0\xa4\xbe,0'
p4683
sS'chunkid'
p4684
S'NP'
p4685
sS'drel'
p4686
S'vmod:\xe0\xa4\x95\xe0\xa4\xbf\xe0\xa4\xaf\xe0\xa4\xbe'
p4687
sS'vpos'
p4688
S'vib_3_4'
p4689
sS'chunktype'
p4690
S'head:NP'
p4691
ssbsg1242
I00
sg1245
I00
sg1256
Nsg1243
Nsg174
I0
sg160
I4
sg1484
Nsg1254
Nsg1485
S'NN'
p4692
sg261
(issf_api
FeatureSet
p4693
(dp4694
g264
(dp4695
S'posn'
p4696
S'20'
p4697
sS'name'
p4698
S'\xe0\xa4\xb2\xe0\xa5\x8b\xe0\xa4\x97\xe0\xa5\x8b\xe0\xa4\x82'
p4699
sS'af'
p4700
S'\xe0\xa4\xb2\xe0\xa5\x8b\xe0\xa4\x97,n,m,pl,3,o,0,0'
p4701
ssbsg1263
I00
sba(issf_api
Word
p4702
(dp4703
g1467
I00
sg1468
V\u0915\u0947
p4704
sg1470
(issf_api
FeatureSet
p4705
(dp4706
g264
(dp4707
S'posn'
p4708
S'30'
p4709
sS'name'
p4710
S'\xe0\xa4\x95\xe0\xa5\x87'
p4711
sS'drel'
p4712
S'lwg__psp:\xe0\xa4\xb2\xe0\xa5\x8b\xe0\xa4\x97\xe0\xa5\x8b\xe0\xa4\x82'
p4713
sS'chunktype'
p4714
S'child:NP'
p4715
sS'af'
p4716
S'\xe0\xa4\x95\xe0\xa5\x87,psp,,,,,,'
p4717
ssbsg1242
I00
sg1245
I00
sg1256
Nsg1243
Nsg174
I0
sg160
I4
sg1484
Nsg1254
Nsg1485
S'PSP'
p4718
sg261
(issf_api
FeatureSet
p4719
(dp4720
g264
(dp4721
S'posn'
p4722
S'30'
p4723
sS'name'
p4724
S'\xe0\xa4\x95\xe0\xa5\x87'
p4725
sS'af'
p4726
S'\xe0\xa4\x95\xe0\xa5\x87,psp,,,,,,'
p4727
ssbsg1263
I00
sba(issf_api
Word
p4728
(dp4729
g1467
I00
sg1468
V\u0905\u0932\u093e\u0935\u093e
p4730
sg1470
(issf_api
FeatureSet
p4731
(dp4732
g264
(dp4733
S'posn'
p4734
S'40'
p4735
sS'name'
p4736
S'\xe0\xa4\x85\xe0\xa4\xb2\xe0\xa4\xbe\xe0\xa4\xb5\xe0\xa4\xbe'
p4737
sS'drel'
p4738
S'lwg__psp:\xe0\xa4\xb2\xe0\xa5\x8b\xe0\xa4\x97\xe0\xa5\x8b\xe0\xa4\x82'
p4739
sS'chunktype'
p4740
S'child:NP'
p4741
sS'af'
p4742
S'\xe0\xa4\x85\xe0\xa4\xb2\xe0\xa4\xbe\xe0\xa4\xb5\xe0\xa4\xbe,psp,,,,,,'
p4743
ssbsg1242
I00
sg1245
I00
sg1256
Nsg1243
Nsg174
I0
sg160
I4
sg1484
Nsg1254
Nsg1485
S'PSP'
p4744
sg261
(issf_api
FeatureSet
p4745
(dp4746
g264
(dp4747
S'posn'
p4748
S'40'
p4749
sS'name'
p4750
S'\xe0\xa4\x85\xe0\xa4\xb2\xe0\xa4\xbe\xe0\xa4\xb5\xe0\xa4\xbe'
p4751
sS'af'
p4752
S'\xe0\xa4\x85\xe0\xa4\xb2\xe0\xa4\xbe\xe0\xa4\xb5\xe0\xa4\xbe,psp,,,,,,'
p4753
ssbsg1263
I00
sba(issf_api
Word
p4754
(dp4755
g1467
I00
sg1468
V\u0915\u0930\u093e\u091a\u0940
p4756
sg1470
(issf_api
FeatureSet
p4757
(dp4758
g264
(dp4759
S'posn'
p4760
S'50'
p4761
sS'name'
p4762
S'\xe0\xa4\x95\xe0\xa4\xb0\xe0\xa4\xbe\xe0\xa4\x9a\xe0\xa5\x80'
p4763
sS'af'
p4764
S'\xe0\xa4\x95\xe0\xa4\xb0\xe0\xa4\xbe\xe0\xa4\x9a\xe0\xa5\x80,n,m,sg,3,o,0_\xe0\xa4\xae\xe0\xa5\x87\xe0\xa4\x82,0'
p4765
sS'chunkid'
p4766
S'NP2'
p4767
sS'drel'
p4768
S'k7p:\xe0\xa4\xb9\xe0\xa5\x8b\xe0\xa4\xa8\xe0\xa5\x87'
p4769
sS'vpos'
p4770
S'vib_2'
p4771
sS'chunktype'
p4772
S'head:NP2'
p4773
ssbsg1242
I00
sg1245
I00
sg1256
Nsg1243
Nsg174
I1
sg160
I4
sg1484
Nsg1254
Nsg1485
S'NNP'
p4774
sg261
(issf_api
FeatureSet
p4775
(dp4776
g264
(dp4777
S'posn'
p4778
S'50'
p4779
sS'name'
p4780
S'\xe0\xa4\x95\xe0\xa4\xb0\xe0\xa4\xbe\xe0\xa4\x9a\xe0\xa5\x80'
p4781
sS'af'
p4782
S'\xe0\xa4\x95\xe0\xa4\xb0\xe0\xa4\xbe\xe0\xa4\x9a\xe0\xa5\x80,n,m,sg,3,o,0,0'
p4783
ssbsg1263
I00
sba(issf_api
Word
p4784
(dp4785
g1467
I00
sg1468
V\u092e\u0947\u0902
p4786
sg1470
(issf_api
FeatureSet
p4787
(dp4788
g264
(dp4789
S'posn'
p4790
S'60'
p4791
sS'name'
p4792
S'\xe0\xa4\xae\xe0\xa5\x87\xe0\xa4\x82'
p4793
sS'drel'
p4794
S'lwg__psp:\xe0\xa4\x95\xe0\xa4\xb0\xe0\xa4\xbe\xe0\xa4\x9a\xe0\xa5\x80'
p4795
sS'chunktype'
p4796
S'child:NP2'
p4797
sS'af'
p4798
S'\xe0\xa4\xae\xe0\xa5\x87\xe0\xa4\x82,psp,,,,,,'
p4799
ssbsg1242
I00
sg1245
I00
sg1256
Nsg1243
Nsg174
I1
sg160
I4
sg1484
Nsg1254
Nsg1485
S'PSP'
p4800
sg261
(issf_api
FeatureSet
p4801
(dp4802
g264
(dp4803
S'posn'
p4804
S'60'
p4805
sS'name'
p4806
S'\xe0\xa4\xae\xe0\xa5\x87\xe0\xa4\x82'
p4807
sS'af'
p4808
S'\xe0\xa4\xae\xe0\xa5\x87\xe0\xa4\x82,psp,,,,,,'
p4809
ssbsg1263
I00
sba(issf_api
Word
p4810
(dp4811
g1467
I00
sg1468
V\u0939\u094b\u0928\u0947
p4812
sg1470
(issf_api
FeatureSet
p4813
(dp4814
g264
(dp4815
S'posn'
p4816
S'70'
p4817
sS'name'
p4818
S'\xe0\xa4\xb9\xe0\xa5\x8b\xe0\xa4\xa8\xe0\xa5\x87'
p4819
sS'af'
p4820
S'\xe0\xa4\xb9\xe0\xa5\x8b,v,any,sg,any,o,\xe0\xa4\xa8\xe0\xa4\xbe_\xe0\xa4\xb5\xe0\xa4\xbe\xe0\xa4\xb2\xe0\xa4\xbe,nA'
p4821
sS'chunkid'
p4822
S'VGNN'
p4823
sS'drel'
p4824
S'nmod:\xe0\xa4\x9f\xe0\xa5\x87\xe0\xa4\xb8\xe0\xa5\x8d\xe0\xa4\x9f'
p4825
sS'vpos'
p4826
S'tam_2'
p4827
sS'chunktype'
p4828
S'head:VGNN'
p4829
ssbsg1242
I00
sg1245
I00
sg1256
Nsg1243
Nsg174
I2
sg160
I4
sg1484
Nsg1254
Nsg1485
S'VM'
p4830
sg261
(issf_api
FeatureSet
p4831
(dp4832
g264
(dp4833
S'posn'
p4834
S'70'
p4835
sS'name'
p4836
S'\xe0\xa4\xb9\xe0\xa5\x8b\xe0\xa4\xa8\xe0\xa5\x87'
p4837
sS'af'
p4838
S'\xe0\xa4\xb9\xe0\xa5\x8b,v,any,any,any,o,\xe0\xa4\xa8\xe0\xa4\xbe,nA'
p4839
ssbsg1263
I00
sba(issf_api
Word
p4840
(dp4841
g1467
I00
sg1468
V\u0935\u093e\u0932\u0947
p4842
sg1470
(issf_api
FeatureSet
p4843
(dp4844
g264
(dp4845
S'posn'
p4846
S'80'
p4847
sS'name'
p4848
S'\xe0\xa4\xb5\xe0\xa4\xbe\xe0\xa4\xb2\xe0\xa5\x87'
p4849
sS'drel'
p4850
S'lwg__psp:\xe0\xa4\xb9\xe0\xa5\x8b\xe0\xa4\xa8\xe0\xa5\x87'
p4851
sS'chunktype'
p4852
S'child:VGNN'
p4853
sS'af'
p4854
S'\xe0\xa4\xb5\xe0\xa4\xbe\xe0\xa4\xb2\xe0\xa4\xbe,psp,m,sg,,o,,'
p4855
ssbsg1242
I00
sg1245
I00
sg1256
Nsg1243
Nsg174
I2
sg160
I4
sg1484
Nsg1254
Nsg1485
S'PSP'
p4856
sg261
(issf_api
FeatureSet
p4857
(dp4858
g264
(dp4859
S'posn'
p4860
S'80'
p4861
sS'name'
p4862
S'\xe0\xa4\xb5\xe0\xa4\xbe\xe0\xa4\xb2\xe0\xa5\x87'
p4863
sS'af'
p4864
S'\xe0\xa4\xb5\xe0\xa4\xbe\xe0\xa4\xb2\xe0\xa4\xbe,psp,m,sg,,o,,'
p4865
ssbsg1263
I00
sba(issf_api
Word
p4866
(dp4867
g1467
I00
sg1468
V\u0924\u0940\u0938\u0930\u0947
p4868
sg1470
(issf_api
FeatureSet
p4869
(dp4870
g264
(dp4871
S'posn'
p4872
S'90'
p4873
sS'name'
p4874
S'\xe0\xa4\xa4\xe0\xa5\x80\xe0\xa4\xb8\xe0\xa4\xb0\xe0\xa5\x87'
p4875
sS'drel'
p4876
S'nmod__adj:\xe0\xa4\x9f\xe0\xa5\x87\xe0\xa4\xb8\xe0\xa5\x8d\xe0\xa4\x9f'
p4877
sS'chunktype'
p4878
S'child:NP3'
p4879
sS'af'
p4880
S'\xe0\xa4\xa4\xe0\xa5\x80\xe0\xa4\xb8\xe0\xa4\xb0\xe0\xa4\xbe,num,m,sg,,o,,'
p4881
ssbsg1242
I00
sg1245
I00
sg1256
Nsg1243
Nsg174
I3
sg160
I4
sg1484
Nsg1254
Nsg1485
S'QO'
p4882
sg261
(issf_api
FeatureSet
p4883
(dp4884
g264
(dp4885
S'posn'
p4886
S'90'
p4887
sS'name'
p4888
S'\xe0\xa4\xa4\xe0\xa5\x80\xe0\xa4\xb8\xe0\xa4\xb0\xe0\xa5\x87'
p4889
sS'af'
p4890
S'\xe0\xa4\xa4\xe0\xa5\x80\xe0\xa4\xb8\xe0\xa4\xb0\xe0\xa4\xbe,num,m,sg,,o,,'
p4891
ssbsg1263
I00
sba(issf_api
Word
p4892
(dp4893
g1467
I00
sg1468
V\u091f\u0947\u0938\u094d\u091f
p4894
sg1470
(issf_api
FeatureSet
p4895
(dp4896
g264
(dp4897
S'posn'
p4898
S'100'
p4899
sS'name'
p4900
S'\xe0\xa4\x9f\xe0\xa5\x87\xe0\xa4\xb8\xe0\xa5\x8d\xe0\xa4\x9f'
p4901
sS'af'
p4902
S'\xe0\xa4\x9f\xe0\xa5\x87\xe0\xa4\xb8\xe0\xa5\x8d\xe0\xa4\x9f,n,m,sg,3,o,0,0'
p4903
sS'chunkid'
p4904
S'NP3'
p4905
sS'drel'
p4906
S'ccof:\xe0\xa4\xb5'
p4907
sS'chunktype'
p4908
S'head:NP3'
p4909
ssbsg1242
I00
sg1245
I00
sg1256
Nsg1243
Nsg174
I3
sg160
I4
sg1484
Nsg1254
Nsg1485
S'NN'
p4910
sg261
(issf_api
FeatureSet
p4911
(dp4912
g264
(dp4913
S'posn'
p4914
S'100'
p4915
sS'name'
p4916
S'\xe0\xa4\x9f\xe0\xa5\x87\xe0\xa4\xb8\xe0\xa5\x8d\xe0\xa4\x9f'
p4917
sS'af'
p4918
S'\xe0\xa4\x9f\xe0\xa5\x87\xe0\xa4\xb8\xe0\xa5\x8d\xe0\xa4\x9f,n,m,sg,3,o,0,0'
p4919
ssbsg1263
I00
sba(issf_api
Word
p4920
(dp4921
g1467
I00
sg1468
V\u0935
sg1470
(issf_api
FeatureSet
p4922
(dp4923
g264
(dp4924
S'posn'
p4925
S'110'
p4926
sS'name'
p4927
S'\xe0\xa4\xb5'
p4928
sS'af'
p4929
S'\xe0\xa4\xb5,avy,,,,,,'
p4930
sS'chunkid'
p4931
S'CCP'
p4932
sS'drel'
p4933
S'k2:\xe0\xa4\xa6\xe0\xa5\x87\xe0\xa4\x96\xe0\xa4\xa8\xe0\xa5\x87'
p4934
sS'chunktype'
p4935
S'head:CCP'
p4936
ssbsg1242
I00
sg1245
I00
sg1256
Nsg1243
Nsg174
I4
sg160
I4
sg1484
Nsg1254
Nsg1485
S'CC'
p4937
sg261
(issf_api
FeatureSet
p4938
(dp4939
g264
(dp4940
S'posn'
p4941
S'110'
p4942
sS'name'
p4943
S'\xe0\xa4\xb5'
p4944
sS'af'
p4945
S'\xe0\xa4\xb5,avy,,,,,,'
p4946
ssbsg1263
I00
sba(issf_api
Word
p4947
(dp4948
g1467
I00
sg1468
V\u0909\u0938\u0915\u0947
p4949
sg1470
(issf_api
FeatureSet
p4950
(dp4951
g264
(dp4952
S'posn'
p4953
S'120'
p4954
sS'name'
p4955
S'\xe0\xa4\x89\xe0\xa4\xb8\xe0\xa4\x95\xe0\xa5\x87'
p4956
sS'af'
p4957
S'\xe0\xa4\xb5\xe0\xa4\xb9,pn,any,sg,3,o,0_\xe0\xa4\xac\xe0\xa4\xbe\xe0\xa4\xa6,ke'
p4958
sS'chunkid'
p4959
S'NP4'
p4960
sS'drel'
p4961
S'nmod:\xe0\xa4\xaa\xe0\xa4\xbe\xe0\xa4\x82\xe0\xa4\x9a'
p4962
sS'vpos'
p4963
S'vib_2'
p4964
sS'chunktype'
p4965
S'head:NP4'
p4966
ssbsg1242
I00
sg1245
I00
sg1256
Nsg1243
Nsg174
I5
sg160
I4
sg1484
Nsg1254
Nsg1485
S'PRP'
p4967
sg261
(issf_api
FeatureSet
p4968
(dp4969
g264
(dp4970
S'posn'
p4971
S'120'
p4972
sS'name'
p4973
S'\xe0\xa4\x89\xe0\xa4\xb8\xe0\xa4\x95\xe0\xa5\x87'
p4974
sS'af'
p4975
S'\xe0\xa4\xb5\xe0\xa4\xb9,pn,any,sg,3,o,\xe0\xa4\x95\xe0\xa5\x87,ke'
p4976
ssbsg1263
I00
sba(issf_api
Word
p4977
(dp4978
g1467
I00
sg1468
V\u092c\u093e\u0926
p4979
sg1470
(issf_api
FeatureSet
p4980
(dp4981
g264
(dp4982
S'posn'
p4983
S'130'
p4984
sS'name'
p4985
S'\xe0\xa4\xac\xe0\xa4\xbe\xe0\xa4\xa6'
p4986
sS'drel'
p4987
S'lwg__psp:\xe0\xa4\x89\xe0\xa4\xb8\xe0\xa4\x95\xe0\xa5\x87'
p4988
sS'chunktype'
p4989
S'child:NP4'
p4990
sS'af'
p4991
S'\xe0\xa4\xac\xe0\xa4\xbe\xe0\xa4\xa6,nst,m,sg,3,d,,'
p4992
ssbsg1242
I00
sg1245
I00
sg1256
Nsg1243
Nsg174
I5
sg160
I4
sg1484
Nsg1254
Nsg1485
S'NST'
p4993
sg261
(issf_api
FeatureSet
p4994
(dp4995
g264
(dp4996
S'posn'
p4997
S'130'
p4998
sS'name'
p4999
S'\xe0\xa4\xac\xe0\xa4\xbe\xe0\xa4\xa6'
p5000
sS'af'
p5001
S'\xe0\xa4\xac\xe0\xa4\xbe\xe0\xa4\xa6,nst,m,sg,3,d,,'
p5002
ssbsg1263
I00
sba(issf_api
Word
p5003
(dp5004
g1467
I00
sg1468
V\u092a\u093e\u0902\u091a
p5005
sg1470
(issf_api
FeatureSet
p5006
(dp5007
g264
(dp5008
S'posn'
p5009
S'140'
p5010
sS'name'
p5011
S'\xe0\xa4\xaa\xe0\xa4\xbe\xe0\xa4\x82\xe0\xa4\x9a'
p5012
sS'af'
p5013
S'\xe0\xa4\xaa\xe0\xa4\xbe\xe0\xa4\x82\xe0\xa4\x9a,num,any,any,,any,,'
p5014
sS'chunkid'
p5015
S'NP5'
p5016
sS'drel'
p5017
S'nmod:\xe0\xa4\xae\xe0\xa5\x88\xe0\xa4\x9a\xe0\xa5\x8b\xe0\xa4\x82'
p5018
sS'chunktype'
p5019
S'head:NP5'
p5020
ssbsg1242
I00
sg1245
I00
sg1256
Nsg1243
Nsg174
I6
sg160
I4
sg1484
Nsg1254
Nsg1485
S'QC'
p5021
sg261
(issf_api
FeatureSet
p5022
(dp5023
g264
(dp5024
S'posn'
p5025
S'140'
p5026
sS'name'
p5027
S'\xe0\xa4\xaa\xe0\xa4\xbe\xe0\xa4\x82\xe0\xa4\x9a'
p5028
sS'af'
p5029
S'\xe0\xa4\xaa\xe0\xa4\xbe\xe0\xa4\x82\xe0\xa4\x9a,num,any,any,,any,,'
p5030
ssbsg1263
I00
sba(issf_api
Word
p5031
(dp5032
g1467
I00
sg1468
V\u090f\u0915
p5033
sg1470
(issf_api
FeatureSet
p5034
(dp5035
g264
(dp5036
S'posn'
p5037
S'150'
p5038
sS'name'
p5039
S'\xe0\xa4\x8f\xe0\xa4\x95'
p5040
sS'drel'
p5041
S'nmod__adj:\xe0\xa4\xae\xe0\xa5\x88\xe0\xa4\x9a\xe0\xa5\x8b\xe0\xa4\x82'
p5042
sS'chunktype'
p5043
S'child:NP6'
p5044
sS'af'
p5045
S'\xe0\xa4\x8f\xe0\xa4\x95,num,any,any,,any,,'
p5046
ssbsg1242
I00
sg1245
I00
sg1256
Nsg1243
Nsg174
I7
sg160
I4
sg1484
Nsg1254
Nsg1485
S'QC'
p5047
sg261
(issf_api
FeatureSet
p5048
(dp5049
g264
(dp5050
S'posn'
p5051
S'150'
p5052
sS'name'
p5053
S'\xe0\xa4\x8f\xe0\xa4\x95'
p5054
sS'af'
p5055
S'\xe0\xa4\x8f\xe0\xa4\x95,num,any,any,,any,,'
p5056
ssbsg1263
I00
sba(issf_api
Word
p5057
(dp5058
g1467
I00
sg1468
V\u0926\u093f\u0935\u0938\u0940\u092f
p5059
sg1470
(issf_api
FeatureSet
p5060
(dp5061
g264
(dp5062
S'posn'
p5063
S'160'
p5064
sS'name'
p5065
S'\xe0\xa4\xa6\xe0\xa4\xbf\xe0\xa4\xb5\xe0\xa4\xb8\xe0\xa5\x80\xe0\xa4\xaf'
p5066
sS'drel'
p5067
S'nmod__adj:\xe0\xa4\xae\xe0\xa5\x88\xe0\xa4\x9a\xe0\xa5\x8b\xe0\xa4\x82'
p5068
sS'chunktype'
p5069
S'child:NP6'
p5070
sS'af'
p5071
S'\xe0\xa4\xa6\xe0\xa4\xbf\xe0\xa4\xb5\xe0\xa4\xb8\xe0\xa5\x80\xe0\xa4\xaf,adj,any,any,,o,,'
p5072
ssbsg1242
I00
sg1245
I00
sg1256
Nsg1243
Nsg174
I7
sg160
I4
sg1484
Nsg1254
Nsg1485
S'JJ'
p5073
sg261
(issf_api
FeatureSet
p5074
(dp5075
g264
(dp5076
S'posn'
p5077
S'160'
p5078
sS'name'
p5079
S'\xe0\xa4\xa6\xe0\xa4\xbf\xe0\xa4\xb5\xe0\xa4\xb8\xe0\xa5\x80\xe0\xa4\xaf'
p5080
sS'af'
p5081
S'\xe0\xa4\xa6\xe0\xa4\xbf\xe0\xa4\xb5\xe0\xa4\xb8\xe0\xa5\x80\xe0\xa4\xaf,adj,any,any,,o,,'
p5082
ssbsg1263
I00
sba(issf_api
Word
p5083
(dp5084
g1467
I00
sg1468
V\u092e\u0948\u091a\u094b\u0902
p5085
sg1470
(issf_api
FeatureSet
p5086
(dp5087
g264
(dp5088
S'posn'
p5089
S'170'
p5090
sS'name'
p5091
S'\xe0\xa4\xae\xe0\xa5\x88\xe0\xa4\x9a\xe0\xa5\x8b\xe0\xa4\x82'
p5092
sS'af'
p5093
S'\xe0\xa4\xae\xe0\xa5\x88\xe0\xa4\x9a,n,m,pl,3,o,0_\xe0\xa4\x95\xe0\xa5\x8b,0'
p5094
sS'chunkid'
p5095
S'NP6'
p5096
sS'drel'
p5097
S'ccof:\xe0\xa4\xb5'
p5098
sS'vpos'
p5099
S'vib_4'
p5100
sS'chunktype'
p5101
S'head:NP6'
p5102
ssbsg1242
I00
sg1245
I00
sg1256
Nsg1243
Nsg174
I7
sg160
I4
sg1484
Nsg1254
Nsg1485
S'NN'
p5103
sg261
(issf_api
FeatureSet
p5104
(dp5105
g264
(dp5106
S'posn'
p5107
S'170'
p5108
sS'name'
p5109
S'\xe0\xa4\xae\xe0\xa5\x88\xe0\xa4\x9a\xe0\xa5\x8b\xe0\xa4\x82'
p5110
sS'af'
p5111
S'\xe0\xa4\xae\xe0\xa5\x88\xe0\xa4\x9a,n,m,pl,3,o,0,0'
p5112
ssbsg1263
I00
sba(issf_api
Word
p5113
(dp5114
g1467
I00
sg1468
V\u0915\u094b
p5115
sg1470
(issf_api
FeatureSet
p5116
(dp5117
g264
(dp5118
S'posn'
p5119
S'180'
p5120
sS'name'
p5121
S'\xe0\xa4\x95\xe0\xa5\x8b'
p5122
sS'drel'
p5123
S'lwg__psp:\xe0\xa4\xae\xe0\xa5\x88\xe0\xa4\x9a\xe0\xa5\x8b\xe0\xa4\x82'
p5124
sS'chunktype'
p5125
S'child:NP6'
p5126
sS'af'
p5127
S'\xe0\xa4\x95\xe0\xa5\x8b,psp,,,,,,'
p5128
ssbsg1242
I00
sg1245
I00
sg1256
Nsg1243
Nsg174
I7
sg160
I4
sg1484
Nsg1254
Nsg1485
S'PSP'
p5129
sg261
(issf_api
FeatureSet
p5130
(dp5131
g264
(dp5132
S'posn'
p5133
S'180'
p5134
sS'name'
p5135
S'\xe0\xa4\x95\xe0\xa5\x8b'
p5136
sS'af'
p5137
S'\xe0\xa4\x95\xe0\xa5\x8b,psp,,,,,,'
p5138
ssbsg1263
I00
sba(issf_api
Word
p5139
(dp5140
g1467
I00
sg1468
V\u0926\u0947\u0916\u0928\u0947
p5141
sg1470
(issf_api
FeatureSet
p5142
(dp5143
g264
(dp5144
S'posn'
p5145
S'190'
p5146
sS'name'
p5147
S'\xe0\xa4\xa6\xe0\xa5\x87\xe0\xa4\x96\xe0\xa4\xa8\xe0\xa5\x87'
p5148
sS'af'
p5149
S'\xe0\xa4\xa6\xe0\xa5\x87\xe0\xa4\x96,v,any,any,any,o,\xe0\xa4\xa8\xe0\xa4\xbe_\xe0\xa4\x95\xe0\xa5\x87_\xe0\xa4\xb2\xe0\xa4\xbf\xe0\xa4\x8f,nA'
p5150
sS'chunkid'
p5151
S'VGNN2'
p5152
sS'drel'
p5153
S'rt:\xe0\xa4\x95\xe0\xa4\xbf\xe0\xa4\xaf\xe0\xa4\xbe'
p5154
sS'vpos'
p5155
S'tam_2_3'
p5156
sS'chunktype'
p5157
S'head:VGNN2'
p5158
ssbsg1242
I00
sg1245
I00
sg1256
Nsg1243
Nsg174
I8
sg160
I4
sg1484
Nsg1254
Nsg1485
S'VM'
p5159
sg261
(issf_api
FeatureSet
p5160
(dp5161
g264
(dp5162
S'posn'
p5163
S'190'
p5164
sS'name'
p5165
S'\xe0\xa4\xa6\xe0\xa5\x87\xe0\xa4\x96\xe0\xa4\xa8\xe0\xa5\x87'
p5166
sS'af'
p5167
S'\xe0\xa4\xa6\xe0\xa5\x87\xe0\xa4\x96,v,any,any,any,o,\xe0\xa4\xa8\xe0\xa4\xbe,nA'
p5168
ssbsg1263
I00
sba(issf_api
Word
p5169
(dp5170
g1467
I00
sg1468
V\u0915\u0947
p5171
sg1470
(issf_api
FeatureSet
p5172
(dp5173
g264
(dp5174
S'posn'
p5175
S'200'
p5176
sS'name'
p5177
S'\xe0\xa4\x95\xe0\xa5\x872'
p5178
sS'drel'
p5179
S'lwg__psp:\xe0\xa4\xa6\xe0\xa5\x87\xe0\xa4\x96\xe0\xa4\xa8\xe0\xa5\x87'
p5180
sS'chunktype'
p5181
S'child:VGNN2'
p5182
sS'af'
p5183
S'\xe0\xa4\x95\xe0\xa5\x87,psp,,,,,,'
p5184
ssbsg1242
I00
sg1245
I00
sg1256
Nsg1243
Nsg174
I8
sg160
I4
sg1484
Nsg1254
Nsg1485
S'PSP'
p5185
sg261
(issf_api
FeatureSet
p5186
(dp5187
g264
(dp5188
S'posn'
p5189
S'200'
p5190
sS'name'
p5191
S'\xe0\xa4\x95\xe0\xa5\x872'
p5192
sS'af'
p5193
S'\xe0\xa4\x95\xe0\xa5\x87,psp,,,,,,'
p5194
ssbsg1263
I00
sba(issf_api
Word
p5195
(dp5196
g1467
I00
sg1468
V\u0932\u093f\u090f
p5197
sg1470
(issf_api
FeatureSet
p5198
(dp5199
g264
(dp5200
S'posn'
p5201
S'210'
p5202
sS'name'
p5203
S'\xe0\xa4\xb2\xe0\xa4\xbf\xe0\xa4\x8f'
p5204
sS'drel'
p5205
S'lwg__psp:\xe0\xa4\xa6\xe0\xa5\x87\xe0\xa4\x96\xe0\xa4\xa8\xe0\xa5\x87'
p5206
sS'chunktype'
p5207
S'child:VGNN2'
p5208
sS'af'
p5209
S'\xe0\xa4\xb2\xe0\xa4\xbf\xe0\xa4\x8f,psp,,,,,,'
p5210
ssbsg1242
I00
sg1245
I00
sg1256
Nsg1243
Nsg174
I8
sg160
I4
sg1484
Nsg1254
Nsg1485
S'PSP'
p5211
sg261
(issf_api
FeatureSet
p5212
(dp5213
g264
(dp5214
S'posn'
p5215
S'210'
p5216
sS'name'
p5217
S'\xe0\xa4\xb2\xe0\xa4\xbf\xe0\xa4\x8f'
p5218
sS'af'
p5219
S'\xe0\xa4\xb2\xe0\xa4\xbf\xe0\xa4\x8f,psp,,,,,,'
p5220
ssbsg1263
I00
sba(issf_api
Word
p5221
(dp5222
g1467
I00
sg1468
V\u0915\u0941\u091b
p5223
sg1470
(issf_api
FeatureSet
p5224
(dp5225
g264
(dp5226
S'posn'
p5227
S'220'
p5228
sS'name'
p5229
S'\xe0\xa4\x95\xe0\xa5\x81\xe0\xa4\x9b'
p5230
sS'drel'
p5231
S'nmod__adj:\xe0\xa4\x96\xe0\xa4\xbf\xe0\xa4\xb2\xe0\xa4\xbe\xe0\xa5\x9c\xe0\xa4\xbf\xe0\xa4\xaf\xe0\xa5\x8b\xe0\xa4\x82'
p5232
sS'chunktype'
p5233
S'child:NP7'
p5234
sS'af'
p5235
S'\xe0\xa4\x95\xe0\xa5\x81\xe0\xa4\x9b,avy,,,,,,'
p5236
ssbsg1242
I00
sg1245
I00
sg1256
Nsg1243
Nsg174
I9
sg160
I4
sg1484
Nsg1254
Nsg1485
S'QF'
p5237
sg261
(issf_api
FeatureSet
p5238
(dp5239
g264
(dp5240
S'posn'
p5241
S'220'
p5242
sS'name'
p5243
S'\xe0\xa4\x95\xe0\xa5\x81\xe0\xa4\x9b'
p5244
sS'af'
p5245
S'\xe0\xa4\x95\xe0\xa5\x81\xe0\xa4\x9b,avy,,,,,,'
p5246
ssbsg1263
I00
sba(issf_api
Word
p5247
(dp5248
g1467
I00
sg1468
V\u092a\u0942\u0930\u094d\u0935
p5249
sg1470
(issf_api
FeatureSet
p5250
(dp5251
g264
(dp5252
S'posn'
p5253
S'230'
p5254
sS'name'
p5255
S'\xe0\xa4\xaa\xe0\xa5\x82\xe0\xa4\xb0\xe0\xa5\x8d\xe0\xa4\xb5'
p5256
sS'drel'
p5257
S'nmod__adj:\xe0\xa4\x96\xe0\xa4\xbf\xe0\xa4\xb2\xe0\xa4\xbe\xe0\xa5\x9c\xe0\xa4\xbf\xe0\xa4\xaf\xe0\xa5\x8b\xe0\xa4\x82'
p5258
sS'chunktype'
p5259
S'child:NP7'
p5260
sS'af'
p5261
S'\xe0\xa4\xaa\xe0\xa5\x82\xe0\xa4\xb0\xe0\xa5\x8d\xe0\xa4\xb5,adj,any,any,,o,,'
p5262
ssbsg1242
I00
sg1245
I00
sg1256
Nsg1243
Nsg174
I9
sg160
I4
sg1484
Nsg1254
Nsg1485
S'JJ'
p5263
sg261
(issf_api
FeatureSet
p5264
(dp5265
g264
(dp5266
S'posn'
p5267
S'230'
p5268
sS'name'
p5269
S'\xe0\xa4\xaa\xe0\xa5\x82\xe0\xa4\xb0\xe0\xa5\x8d\xe0\xa4\xb5'
p5270
sS'af'
p5271
S'\xe0\xa4\xaa\xe0\xa5\x82\xe0\xa4\xb0\xe0\xa5\x8d\xe0\xa4\xb5,adj,any,any,,o,,'
p5272
ssbsg1263
I00
sba(issf_api
Word
p5273
(dp5274
g1467
I00
sg1468
V\u091f\u0947\u0938\u094d\u091f
p5275
sg1470
(issf_api
FeatureSet
p5276
(dp5277
g264
(dp5278
S'posn'
p5279
S'240'
p5280
sS'name'
p5281
S'\xe0\xa4\x9f\xe0\xa5\x87\xe0\xa4\xb8\xe0\xa5\x8d\xe0\xa4\x9f2'
p5282
sS'drel'
p5283
S'pof__cn:\xe0\xa4\x96\xe0\xa4\xbf\xe0\xa4\xb2\xe0\xa4\xbe\xe0\xa5\x9c\xe0\xa4\xbf\xe0\xa4\xaf\xe0\xa5\x8b\xe0\xa4\x82'
p5284
sS'chunktype'
p5285
S'child:NP7'
p5286
sS'af'
p5287
S'\xe0\xa4\x9f\xe0\xa5\x87\xe0\xa4\xb8\xe0\xa5\x8d\xe0\xa4\x9f,n,m,sg,3,d,0,0'
p5288
ssbsg1242
I00
sg1245
I00
sg1256
Nsg1243
Nsg174
I9
sg160
I4
sg1484
Nsg1254
Nsg1485
S'NNC'
p5289
sg261
(issf_api
FeatureSet
p5290
(dp5291
g264
(dp5292
S'posn'
p5293
S'240'
p5294
sS'name'
p5295
S'\xe0\xa4\x9f\xe0\xa5\x87\xe0\xa4\xb8\xe0\xa5\x8d\xe0\xa4\x9f2'
p5296
sS'af'
p5297
S'\xe0\xa4\x9f\xe0\xa5\x87\xe0\xa4\xb8\xe0\xa5\x8d\xe0\xa4\x9f,n,m,sg,3,d,0,0'
p5298
ssbsg1263
I00
sba(issf_api
Word
p5299
(dp5300
g1467
I00
sg1468
V\u0916\u093f\u0932\u093e\u095c\u093f\u092f\u094b\u0902
p5301
sg1470
(issf_api
FeatureSet
p5302
(dp5303
g264
(dp5304
S'posn'
p5305
S'250'
p5306
sS'name'
p5307
S'\xe0\xa4\x96\xe0\xa4\xbf\xe0\xa4\xb2\xe0\xa4\xbe\xe0\xa5\x9c\xe0\xa4\xbf\xe0\xa4\xaf\xe0\xa5\x8b\xe0\xa4\x82'
p5308
sS'af'
p5309
S'\xe0\xa4\x96\xe0\xa4\xbf\xe0\xa4\xb2\xe0\xa4\xbe\xe0\xa4\xa1\xe0\xa5\x80,n,m,pl,3,o,0_\xe0\xa4\x95\xe0\xa5\x8b,0'
p5310
sS'chunkid'
p5311
S'NP7'
p5312
sS'drel'
p5313
S'k2:\xe0\xa4\x95\xe0\xa4\xbf\xe0\xa4\xaf\xe0\xa4\xbe'
p5314
sS'vpos'
p5315
S'vib_5_RP'
p5316
sS'chunktype'
p5317
S'head:NP7'
p5318
ssbsg1242
I00
sg1245
I00
sg1256
Nsg1243
Nsg174
I9
sg160
I4
sg1484
Nsg1254
Nsg1485
S'NN'
p5319
sg261
(issf_api
FeatureSet
p5320
(dp5321
g264
(dp5322
S'posn'
p5323
S'250'
p5324
sS'name'
p5325
S'\xe0\xa4\x96\xe0\xa4\xbf\xe0\xa4\xb2\xe0\xa4\xbe\xe0\xa5\x9c\xe0\xa4\xbf\xe0\xa4\xaf\xe0\xa5\x8b\xe0\xa4\x82'
p5326
sS'af'
p5327
S'\xe0\xa4\x96\xe0\xa4\xbf\xe0\xa4\xb2\xe0\xa4\xbe\xe0\xa4\xa1\xe0\xa5\x80,n,m,pl,3,o,0,0'
p5328
ssbsg1263
I00
sba(issf_api
Word
p5329
(dp5330
g1467
I00
sg1468
V\u0915\u094b
p5331
sg1470
(issf_api
FeatureSet
p5332
(dp5333
g264
(dp5334
S'posn'
p5335
S'260'
p5336
sS'name'
p5337
S'\xe0\xa4\x95\xe0\xa5\x8b2'
p5338
sS'drel'
p5339
S'lwg__psp:\xe0\xa4\x96\xe0\xa4\xbf\xe0\xa4\xb2\xe0\xa4\xbe\xe0\xa5\x9c\xe0\xa4\xbf\xe0\xa4\xaf\xe0\xa5\x8b\xe0\xa4\x82'
p5340
sS'chunktype'
p5341
S'child:NP7'
p5342
sS'af'
p5343
S'\xe0\xa4\x95\xe0\xa5\x8b,psp,,,,,,'
p5344
ssbsg1242
I00
sg1245
I00
sg1256
Nsg1243
Nsg174
I9
sg160
I4
sg1484
Nsg1254
Nsg1485
S'PSP'
p5345
sg261
(issf_api
FeatureSet
p5346
(dp5347
g264
(dp5348
S'posn'
p5349
S'260'
p5350
sS'name'
p5351
S'\xe0\xa4\x95\xe0\xa5\x8b2'
p5352
sS'af'
p5353
S'\xe0\xa4\x95\xe0\xa5\x8b,psp,,,,,,'
p5354
ssbsg1263
I00
sba(issf_api
Word
p5355
(dp5356
g1467
I00
sg1468
V\u092d\u0940
p5357
sg1470
(issf_api
FeatureSet
p5358
(dp5359
g264
(dp5360
S'posn'
p5361
S'270'
p5362
sS'name'
p5363
S'\xe0\xa4\xad\xe0\xa5\x80'
p5364
sS'drel'
p5365
S'lwg__rp:\xe0\xa4\x96\xe0\xa4\xbf\xe0\xa4\xb2\xe0\xa4\xbe\xe0\xa5\x9c\xe0\xa4\xbf\xe0\xa4\xaf\xe0\xa5\x8b\xe0\xa4\x82'
p5366
sS'chunktype'
p5367
S'child:NP7'
p5368
sS'af'
p5369
S'\xe0\xa4\xad\xe0\xa5\x80,avy,,,,,,'
p5370
ssbsg1242
I00
sg1245
I00
sg1256
Nsg1243
Nsg174
I9
sg160
I4
sg1484
Nsg1254
Nsg1485
S'RP'
p5371
sg261
(issf_api
FeatureSet
p5372
(dp5373
g264
(dp5374
S'posn'
p5375
S'270'
p5376
sS'name'
p5377
S'\xe0\xa4\xad\xe0\xa5\x80'
p5378
sS'af'
p5379
S'\xe0\xa4\xad\xe0\xa5\x80,avy,,,,,,'
p5380
ssbsg1263
I00
sba(issf_api
Word
p5381
(dp5382
g1467
I00
sg1468
V\u0906\u092e\u0902\u0924\u094d\u0930\u093f\u0924
p5383
sg1470
(issf_api
FeatureSet
p5384
(dp5385
g264
(dp5386
S'posn'
p5387
S'280'
p5388
sS'name'
p5389
S'\xe0\xa4\x86\xe0\xa4\xae\xe0\xa4\x82\xe0\xa4\xa4\xe0\xa5\x8d\xe0\xa4\xb0\xe0\xa4\xbf\xe0\xa4\xa4'
p5390
sS'af'
p5391
S'\xe0\xa4\x86\xe0\xa4\xae\xe0\xa4\x82\xe0\xa4\xa4\xe0\xa5\x8d\xe0\xa4\xb0\xe0\xa4\xbf\xe0\xa4\xa4,adj,any,any,,,,'
p5392
sS'chunkid'
p5393
S'JJP'
p5394
sS'drel'
p5395
S'pof:\xe0\xa4\x95\xe0\xa4\xbf\xe0\xa4\xaf\xe0\xa4\xbe'
p5396
sS'chunktype'
p5397
S'head:JJP'
p5398
ssbsg1242
I00
sg1245
I00
sg1256
Nsg1243
Nsg174
I10
sg160
I4
sg1484
Nsg1254
Nsg1485
S'JJ'
p5399
sg261
(issf_api
FeatureSet
p5400
(dp5401
g264
(dp5402
S'posn'
p5403
S'280'
p5404
sS'name'
p5405
S'\xe0\xa4\x86\xe0\xa4\xae\xe0\xa4\x82\xe0\xa4\xa4\xe0\xa5\x8d\xe0\xa4\xb0\xe0\xa4\xbf\xe0\xa4\xa4'
p5406
sS'af'
p5407
S'\xe0\xa4\x86\xe0\xa4\xae\xe0\xa4\x82\xe0\xa4\xa4\xe0\xa5\x8d\xe0\xa4\xb0\xe0\xa4\xbf\xe0\xa4\xa4,adj,any,any,,,,'
p5408
ssbsg1263
I00
sba(issf_api
Word
p5409
(dp5410
g1467
I00
sg1468
V\u0915\u093f\u092f\u093e
p5411
sg1470
(issf_api
FeatureSet
p5412
(dp5413
g264
(dp5414
S'posn'
p5415
S'290'
p5416
sS'name'
p5417
S'\xe0\xa4\x95\xe0\xa4\xbf\xe0\xa4\xaf\xe0\xa4\xbe'
p5418
sS'af'
p5419
S'\xe0\xa4\x95\xe0\xa4\xb0,v,m,sg,3,,\xe0\xa4\xaf\xe0\xa4\xbe_\xe0\xa4\x9c\xe0\xa4\xbe+\xe0\xa4\xaf\xe0\xa4\xbe\xe0\xa5\xa7_\xe0\xa4\xb9\xe0\xa5\x88,yA'
p5420
sS'chunkid'
p5421
S'VGF'
p5422
sS'chunktype'
p5423
S'head:VGF'
p5424
sS'voicetype'
p5425
S'passive'
p5426
sS'vpos'
p5427
S'tam_2_3'
p5428
sS'stype'
p5429
S'declarative'
p5430
ssbsg1242
I00
sg1245
I00
sg1256
Nsg1243
Nsg174
I11
sg160
I4
sg1484
Nsg1254
Nsg1485
S'VM'
p5431
sg261
(issf_api
FeatureSet
p5432
(dp5433
g264
(dp5434
S'posn'
p5435
S'290'
p5436
sS'name'
p5437
S'\xe0\xa4\x95\xe0\xa4\xbf\xe0\xa4\xaf\xe0\xa4\xbe'
p5438
sS'af'
p5439
S'\xe0\xa4\x95\xe0\xa4\xb0,v,m,sg,any,,\xe0\xa4\xaf\xe0\xa4\xbe,yA'
p5440
ssbsg1263
I00
sba(issf_api
Word
p5441
(dp5442
g1467
I00
sg1468
V\u0917\u092f\u093e
p5443
sg1470
(issf_api
FeatureSet
p5444
(dp5445
g264
(dp5446
S'posn'
p5447
S'300'
p5448
sS'name'
p5449
S'\xe0\xa4\x97\xe0\xa4\xaf\xe0\xa4\xbe'
p5450
sS'drel'
p5451
S'lwg__vaux:\xe0\xa4\x95\xe0\xa4\xbf\xe0\xa4\xaf\xe0\xa4\xbe'
p5452
sS'chunktype'
p5453
S'child:VGF'
p5454
sS'af'
p5455
S'\xe0\xa4\x9c\xe0\xa4\xbe,v,m,sg,any,,\xe0\xa4\xaf\xe0\xa4\xbe\xe0\xa5\xa7,yA1'
p5456
ssbsg1242
I00
sg1245
I00
sg1256
Nsg1243
Nsg174
I11
sg160
I4
sg1484
Nsg1254
Nsg1485
S'VAUX'
p5457
sg261
(issf_api
FeatureSet
p5458
(dp5459
g264
(dp5460
S'posn'
p5461
S'300'
p5462
sS'name'
p5463
S'\xe0\xa4\x97\xe0\xa4\xaf\xe0\xa4\xbe'
p5464
sS'af'
p5465
S'\xe0\xa4\x9c\xe0\xa4\xbe,v,m,sg,any,,\xe0\xa4\xaf\xe0\xa4\xbe\xe0\xa5\xa7,yA1'
p5466
ssbsg1263
I00
sba(issf_api
Word
p5467
(dp5468
g1467
I00
sg1468
V\u0939\u0948
p5469
sg1470
(issf_api
FeatureSet
p5470
(dp5471
g264
(dp5472
S'posn'
p5473
S'310'
p5474
sS'name'
p5475
S'\xe0\xa4\xb9\xe0\xa5\x88'
p5476
sS'drel'
p5477
S'lwg__vaux:\xe0\xa4\x95\xe0\xa4\xbf\xe0\xa4\xaf\xe0\xa4\xbe'
p5478
sS'chunktype'
p5479
S'child:VGF'
p5480
sS'af'
p5481
S'\xe0\xa4\xb9\xe0\xa5\x88,v,any,sg,3,,\xe0\xa4\xb9\xe0\xa5\x88,hE'
p5482
ssbsg1242
I00
sg1245
I00
sg1256
Nsg1243
Nsg174
I11
sg160
I4
sg1484
Nsg1254
Nsg1485
S'VAUX'
p5483
sg261
(issf_api
FeatureSet
p5484
(dp5485
g264
(dp5486
S'posn'
p5487
S'310'
p5488
sS'name'
p5489
S'\xe0\xa4\xb9\xe0\xa5\x88'
p5490
sS'af'
p5491
S'\xe0\xa4\xb9\xe0\xa5\x88,v,any,sg,3,,\xe0\xa4\xb9\xe0\xa5\x88,hE'
p5492
ssbsg1263
I00
sba(issf_api
Word
p5493
(dp5494
g1467
I00
sg1468
V\u0964
sg1470
(issf_api
FeatureSet
p5495
(dp5496
g264
(dp5497
S'posn'
p5498
S'320'
p5499
sS'name'
p5500
S'\xe0\xa5\xa4'
p5501
sS'af'
p5502
S'\xe0\xa5\xa4,punc,,,,,,'
p5503
sS'chunkid'
p5504
S'BLK'
p5505
sS'drel'
p5506
S'rsym:\xe0\xa4\x95\xe0\xa4\xbf\xe0\xa4\xaf\xe0\xa4\xbe'
p5507
sS'chunktype'
p5508
S'head:BLK'
p5509
ssbsg1242
I00
sg1245
I00
sg1256
Nsg1243
Nsg174
I12
sg160
I4
sg1484
Nsg1254
Nsg1485
S'SYM'
p5510
sg261
(issf_api
FeatureSet
p5511
(dp5512
g264
(dp5513
S'posn'
p5514
S'320'
p5515
sS'name'
p5516
S'\xe0\xa5\xa4'
p5517
sS'af'
p5518
S'\xe0\xa5\xa4,punc,,,,,,'
p5519
ssbsg1263
I00
sbasb.