(lp1
(I0
(lp2
(S'wordFeature'
p3
V\u0924\u092d\u0940..\u091c\u092c
tp4
a(S'tagFeature1'
S'PRP'
tp5
a(S'tagFeature2'
S'PRP'
tp6
a(S'chunkFeature1'
S'NP'
p7
tp8
a(S'chunkFeature2'
S'NP'
p9
tp10
a(S'chunkNeighbor_11'
S'NP'
p11
tp12
a(S'chunkNeighbor_-11'
S'NP'
p13
tp14
a(S'chunkNeighbor_12'
S'NP'
p15
tp16
a(S'chunkNeighbor_-12'
S'VGF'
p17
tp18
aS'Yes'
p19
tp20
a(I1
(lp21
(g3
V\u0907\u0938\u0932\u093f\u090f..\u0915\u094d\u092f\u094b\u0902\u0915\u093f
tp22
a(S'tagFeature1'
S'PRP'
tp23
a(S'tagFeature2'
S'CC'
tp24
a(S'chunkFeature1'
S'NP'
p25
tp26
a(S'chunkFeature2'
S'CCP'
p27
tp28
a(S'chunkNeighbor_11'
S'VGF'
p29
tp30
a(S'chunkNeighbor_-11'
S'NP'
p31
tp32
a(S'chunkNeighbor_12'
S'NP'
p33
tp34
a(S'chunkNeighbor_-12'
g29
tp35
ag19
tp36
a(I2
(lp37
(g3
V\u0905\u0917\u0930..\u0924\u094b
tp38
a(S'tagFeature1'
S'CC'
tp39
a(S'tagFeature2'
S'CC'
tp40
a(S'chunkFeature1'
S'CCP'
p41
tp42
a(S'chunkFeature2'
S'CCP'
p43
tp44
a(S'chunkNeighbor_11'
S'NP'
p45
tp46
a(S'chunkNeighbor_-11'
S'CCP'
p47
tp48
a(S'chunkNeighbor_12'
S'NP'
p49
tp50
a(S'chunkNeighbor_-12'
S'VGF'
p51
tp52
ag19
tp53
a(I3
(lp54
(g3
V\u0905\u0917\u0930..\u0924\u094b
tp55
a(S'tagFeature1'
S'CC'
tp56
a(S'tagFeature2'
S'RP'
tp57
a(S'chunkFeature1'
g41
tp58
a(S'chunkFeature2'
S'NP'
p59
tp60
a(S'chunkNeighbor_11'
g45
tp61
a(S'chunkNeighbor_-11'
g47
tp62
a(S'chunkNeighbor_12'
S'VGF'
p63
tp64
a(S'chunkNeighbor_-12'
g49
tp65
aS'No'
p66
tp67
a(I4
(lp68
(g3
V\u092f\u0926\u093f..\u0924\u094b
tp69
a(S'tagFeature1'
S'CC'
tp70
a(S'tagFeature2'
S'CC'
tp71
a(S'chunkFeature1'
S'CCP'
p72
tp73
a(S'chunkFeature2'
S'CCP'
p74
tp75
a(S'chunkNeighbor_11'
S'NP'
p76
tp77
a(S'chunkNeighbor_-11'
S'NP'
p78
tp79
a(S'chunkNeighbor_12'
S'NP'
p80
tp81
a(S'chunkNeighbor_-12'
S'VGF'
p82
tp83
ag19
tp84
a(I5
(lp85
(g3
V\u0905\u0917\u0930..\u0924\u094b
tp86
a(S'tagFeature1'
S'CC'
tp87
a(S'tagFeature2'
S'CC'
tp88
a(S'chunkFeature1'
S'CCP'
p89
tp90
a(S'chunkFeature2'
S'CCP'
p91
tp92
a(S'chunkNeighbor_11'
S'NP'
p93
tp94
a(S'chunkNeighbor_-11'
S'CCP'
p95
tp96
a(S'chunkNeighbor_12'
S'NP'
p97
tp98
a(S'chunkNeighbor_-12'
S'VGF'
p99
tp100
ag19
tp101
a(I6
(lp102
(g3
V\u092f\u0926\u093f..\u0924\u094b
tp103
a(S'tagFeature1'
S'CC'
tp104
a(S'tagFeature2'
S'CC'
tp105
a(S'chunkFeature1'
S'CCP'
p106
tp107
a(S'chunkFeature2'
S'CCP'
p108
tp109
a(S'chunkNeighbor_11'
S'NP'
p110
tp111
a(S'chunkNeighbor_-11'
S'CCP'
p112
tp113
a(S'chunkNeighbor_12'
S'NP'
p114
tp115
a(S'chunkNeighbor_-12'
S'VGF'
p116
tp117
ag19
tp118
a(I7
(lp119
(g3
V\u092f\u0926\u093f..\u0924\u094b
tp120
a(S'tagFeature1'
S'CC'
tp121
a(S'tagFeature2'
S'CC'
tp122
a(S'chunkFeature1'
S'CCP'
p123
tp124
a(S'chunkFeature2'
S'CCP'
p125
tp126
a(S'chunkNeighbor_11'
S'NP'
p127
tp128
a(S'chunkNeighbor_-11'
S'CCP'
p129
tp130
a(S'chunkNeighbor_12'
S'NP'
p131
tp132
a(S'chunkNeighbor_-12'
S'VGF'
p133
tp134
ag19
tp135
a(I8
(lp136
(g3
V\u092f\u0926\u093f..\u0924\u094b
tp137
a(S'tagFeature1'
S'CC'
tp138
a(S'tagFeature2'
S'RP'
tp139
a(S'chunkFeature1'
S'CCP'
p140
tp141
a(S'chunkFeature2'
S'NP'
p142
tp143
a(S'chunkNeighbor_11'
S'NP'
p144
tp145
a(S'chunkNeighbor_-11'
S'First'
p146
tp147
a(S'chunkNeighbor_12'
S'NP'
p148
tp149
a(S'chunkNeighbor_-12'
S'VGF'
p150
tp151
ag66
tp152
a(I9
(lp153
(g3
V\u092f\u0926\u093f..\u0924\u094b
tp154
a(S'tagFeature1'
S'CC'
tp155
a(S'tagFeature2'
S'CC'
tp156
a(S'chunkFeature1'
g140
tp157
a(S'chunkFeature2'
S'CCP'
p158
tp159
a(S'chunkNeighbor_11'
g144
tp160
a(S'chunkNeighbor_-11'
g146
tp161
a(S'chunkNeighbor_12'
S'NP'
p162
tp163
a(S'chunkNeighbor_-12'
S'VGF'
p164
tp165
ag66
tp166
a(I10
(lp167
(g3
V\u092f\u0926\u093f..\u0924\u094b
tp168
a(S'tagFeature1'
S'CC'
tp169
a(S'tagFeature2'
S'CC'
tp170
a(S'chunkFeature1'
S'CCP'
p171
tp172
a(S'chunkFeature2'
g158
tp173
a(S'chunkNeighbor_11'
S'NP'
p174
tp175
a(S'chunkNeighbor_-11'
S'CCP'
p176
tp177
a(S'chunkNeighbor_12'
g162
tp178
a(S'chunkNeighbor_-12'
g164
tp179
ag66
tp180
a(I11
(lp181
(g3
V\u091c\u092c..\u0924\u094b
tp182
a(S'tagFeature1'
S'PRP'
tp183
a(S'tagFeature2'
S'PRP'
tp184
a(S'chunkFeature1'
S'NP'
p185
tp186
a(S'chunkFeature2'
S'NP'
p187
tp188
a(S'chunkNeighbor_11'
S'NP'
p189
tp190
a(S'chunkNeighbor_-11'
S'NP'
p191
tp192
a(S'chunkNeighbor_12'
S'NP'
p193
tp194
a(S'chunkNeighbor_-12'
S'VGF'
p195
tp196
ag19
tp197
a(I12
(lp198
(g3
V\u091c\u0939\u093e\u0901..\u0935\u0939\u0940\u0902
tp199
a(S'tagFeature1'
S'RB'
tp200
a(S'tagFeature2'
S'RB'
tp201
a(S'chunkFeature1'
S'RBP'
p202
tp203
a(S'chunkFeature2'
S'RBP'
p204
tp205
a(S'chunkNeighbor_11'
S'NP'
p206
tp207
a(S'chunkNeighbor_-11'
S'NP'
p208
tp209
a(S'chunkNeighbor_12'
S'NP'
p210
tp211
a(S'chunkNeighbor_-12'
S'VGF'
p212
tp213
ag19
tp214
a(I13
(lp215
(g3
V\u0939\u093e\u0932\u093e\u0901\u0915\u093f..\u0932\u0947\u0915\u093f\u0928
tp216
a(S'tagFeature1'
S'CC'
tp217
a(S'tagFeature2'
S'CC'
tp218
a(S'chunkFeature1'
S'CCP'
p219
tp220
a(S'chunkFeature2'
S'CCP'
p221
tp222
a(S'chunkNeighbor_11'
S'NP'
p223
tp224
a(S'chunkNeighbor_-11'
S'VGNN'
p225
tp226
a(S'chunkNeighbor_12'
S'NP'
p227
tp228
a(S'chunkNeighbor_-12'
S'VGF'
p229
tp230
ag19
tp231
a(I14
(lp232
(g3
V\u0924\u094b..\u0932\u0947\u0915\u093f\u0928
tp233
a(S'tagFeature1'
S'RP'
tp234
a(S'tagFeature2'
S'CC'
tp235
a(S'chunkFeature1'
S'RBP'
p236
tp237
a(S'chunkFeature2'
S'CCP'
p238
tp239
a(S'chunkNeighbor_11'
S'NP'
p240
tp241
a(S'chunkNeighbor_-11'
g146
tp242
a(S'chunkNeighbor_12'
S'NP'
p243
tp244
a(S'chunkNeighbor_-12'
S'VGF'
p245
tp246
ag19
tp247
a(I15
(lp248
(g3
V\u0905\u0917\u0930..\u0924\u094b
tp249
a(S'tagFeature1'
S'CC'
tp250
a(S'tagFeature2'
S'CC'
tp251
a(S'chunkFeature1'
S'CCP'
p252
tp253
a(S'chunkFeature2'
S'CCP'
p254
tp255
a(S'chunkNeighbor_11'
S'NP'
p256
tp257
a(S'chunkNeighbor_-11'
g146
tp258
a(S'chunkNeighbor_12'
S'NP'
p259
tp260
a(S'chunkNeighbor_-12'
S'VGF'
p261
tp262
ag19
tp263
a(I16
(lp264
(g3
V\u0939\u093e\u0932\u093e\u0901\u0915\u093f..\u092a\u0930
tp265
a(S'tagFeature1'
S'CC'
tp266
a(S'tagFeature2'
S'PSP'
tp267
a(S'chunkFeature1'
g219
tp268
a(S'chunkFeature2'
S'NP'
p269
tp270
a(S'chunkNeighbor_11'
g223
tp271
a(S'chunkNeighbor_-11'
g225
tp272
a(S'chunkNeighbor_12'
S'NP'
p273
tp274
a(S'chunkNeighbor_-12'
S'NP'
p275
tp276
ag66
tp277
a(I17
(lp278
(g3
V\u092d\u0932\u0947 \u0939\u0940..\u0932\u0947\u0915\u093f\u0928
tp279
a(S'tagFeature1'
S'RP-RP'
tp280
a(S'tagFeature2'
S'CC'
tp281
a(S'chunkFeature1'
S'BLK'
p282
tp283
a(S'chunkFeature2'
S'CCP'
p284
tp285
a(S'chunkNeighbor_11'
S'NP'
p286
tp287
a(S'chunkNeighbor_-11'
S'NP'
p288
tp289
a(S'chunkNeighbor_12'
S'NP'
p290
tp291
a(S'chunkNeighbor_-12'
S'VGF'
p292
tp293
ag66
tp294
a(I18
(lp295
(g3
V\u092f\u0942\u0902 \u0924\u094b..\u0932\u0947\u0915\u093f\u0928
tp296
a(S'tagFeature1'
S'RB-RP'
tp297
a(S'tagFeature2'
S'CC'
tp298
a(S'chunkFeature1'
g236
tp299
a(S'chunkFeature2'
g238
tp300
a(S'chunkNeighbor_11'
g240
tp301
a(S'chunkNeighbor_-11'
g146
tp302
a(S'chunkNeighbor_12'
g243
tp303
a(S'chunkNeighbor_-12'
g245
tp304
ag66
tp305
a(I19
(lp306
(g3
V\u0905\u0917\u0930..\u0924\u094b
tp307
a(S'tagFeature1'
S'CC'
tp308
a(S'tagFeature2'
S'CC'
tp309
a(S'chunkFeature1'
S'CCP'
p310
tp311
a(S'chunkFeature2'
S'CCP'
p312
tp313
a(S'chunkNeighbor_11'
S'NP'
p314
tp315
a(S'chunkNeighbor_-11'
S'CCP'
p316
tp317
a(S'chunkNeighbor_12'
S'NP'
p318
tp319
a(S'chunkNeighbor_-12'
S'VGF'
p320
tp321
ag19
tp322
a(I20
(lp323
(g3
V\u0905\u0917\u0930..\u0924\u094b
tp324
a(S'tagFeature1'
S'CC'
tp325
a(S'tagFeature2'
S'CC'
tp326
a(S'chunkFeature1'
S'CCP'
p327
tp328
a(S'chunkFeature2'
S'CCP'
p329
tp330
a(S'chunkNeighbor_11'
S'NP'
p331
tp332
a(S'chunkNeighbor_-11'
S'NP'
p333
tp334
a(S'chunkNeighbor_12'
S'NP'
p335
tp336
a(S'chunkNeighbor_-12'
S'VGF'
p337
tp338
ag66
tp339
a(I21
(lp340
(g3
V\u0905\u0917\u0930..\u0924\u094b
tp341
a(S'tagFeature1'
S'CC'
tp342
a(S'tagFeature2'
S'CC'
tp343
a(S'chunkFeature1'
S'CCP'
p344
tp345
a(S'chunkFeature2'
S'CCP'
p346
tp347
a(S'chunkNeighbor_11'
S'NP'
p348
tp349
a(S'chunkNeighbor_-11'
g146
tp350
a(S'chunkNeighbor_12'
S'NP'
p351
tp352
a(S'chunkNeighbor_-12'
S'VGF'
p353
tp354
ag19
tp355
a(I22
(lp356
(g3
V\u0935\u0939\u0940\u0902..\u0924\u094b
tp357
a(S'tagFeature1'
S'RB'
tp358
a(S'tagFeature2'
S'CC'
tp359
a(S'chunkFeature1'
S'RBP'
p360
tp361
a(S'chunkFeature2'
S'CCP'
p362
tp363
a(S'chunkNeighbor_11'
S'NP'
p364
tp365
a(S'chunkNeighbor_-11'
g146
tp366
a(S'chunkNeighbor_12'
S'NP'
p367
tp368
a(S'chunkNeighbor_-12'
S'VGF'
p369
tp370
ag19
tp371
a(I23
(lp372
(g3
V\u091c\u092c..\u0924\u094b
tp373
a(S'tagFeature1'
S'PRP'
tp374
a(S'tagFeature2'
S'PRP'
tp375
a(S'chunkFeature1'
S'NP'
p376
tp377
a(S'chunkFeature2'
S'NP'
p378
tp379
a(S'chunkNeighbor_11'
S'NP'
p380
tp381
a(S'chunkNeighbor_-11'
S'NP'
p382
tp383
a(S'chunkNeighbor_12'
S'VGNF'
p384
tp385
a(S'chunkNeighbor_-12'
S'VGF'
p386
tp387
ag66
tp388
a(I24
(lp389
(g3
V\u0905\u0917\u0930..\u0924\u094b
tp390
a(S'tagFeature1'
S'CC'
tp391
a(S'tagFeature2'
S'CC'
tp392
a(S'chunkFeature1'
S'CCP'
p393
tp394
a(S'chunkFeature2'
S'CCP'
p395
tp396
a(S'chunkNeighbor_11'
S'NP'
p397
tp398
a(S'chunkNeighbor_-11'
S'CCP'
p399
tp400
a(S'chunkNeighbor_12'
S'NP'
p401
tp402
a(S'chunkNeighbor_-12'
S'VGF'
p403
tp404
ag19
tp405
a(I25
(lp406
(g3
V\u091c\u092c..\u0924\u094b
tp407
a(S'tagFeature1'
S'PRP'
tp408
a(S'tagFeature2'
S'PRP'
tp409
a(S'chunkFeature1'
S'NP'
p410
tp411
a(S'chunkFeature2'
S'NP'
p412
tp413
a(S'chunkNeighbor_11'
S'NP'
p414
tp415
a(S'chunkNeighbor_-11'
g146
tp416
a(S'chunkNeighbor_12'
S'NP'
p417
tp418
a(S'chunkNeighbor_-12'
S'VGF'
p419
tp420
ag19
tp421
a(I26
(lp422
(g3
V\u0939\u093e\u0932\u093e\u0902\u0915\u093f..\u092a\u0930
tp423
a(S'tagFeature1'
S'CC'
tp424
a(S'tagFeature2'
S'PSP'
tp425
a(S'chunkFeature1'
S'CCP'
p426
tp427
a(S'chunkFeature2'
S'NP'
p428
tp429
a(S'chunkNeighbor_11'
S'NP'
p430
tp431
a(S'chunkNeighbor_-11'
g146
tp432
a(S'chunkNeighbor_12'
S'NP'
p433
tp434
a(S'chunkNeighbor_-12'
g430
tp435
ag66
tp436
a(I27
(lp437
(g3
V\u092f\u0926\u093f..\u0924\u094b
tp438
a(S'tagFeature1'
S'CC'
tp439
a(S'tagFeature2'
S'CC'
tp440
a(S'chunkFeature1'
S'CCP'
p441
tp442
a(S'chunkFeature2'
S'CCP'
p443
tp444
a(S'chunkNeighbor_11'
S'NP'
p445
tp446
a(S'chunkNeighbor_-11'
S'CCP'
p447
tp448
a(S'chunkNeighbor_12'
S'NP'
p449
tp450
a(S'chunkNeighbor_-12'
S'VGF'
p451
tp452
ag19
tp453
a(I28
(lp454
(g3
V\u092f\u0926\u093f..\u0924\u094b
tp455
a(S'tagFeature1'
S'CC'
tp456
a(S'tagFeature2'
S'CC'
tp457
a(S'chunkFeature1'
S'CCP'
p458
tp459
a(S'chunkFeature2'
S'CCP'
p460
tp461
a(S'chunkNeighbor_11'
S'NP'
p462
tp463
a(S'chunkNeighbor_-11'
S'CCP'
p464
tp465
a(S'chunkNeighbor_12'
S'NP'
p466
tp467
a(S'chunkNeighbor_-12'
S'VGF'
p468
tp469
ag19
tp470
a(I29
(lp471
(g3
V\u092f\u0926\u093f..\u0924\u094b
tp472
a(S'tagFeature1'
S'CC'
tp473
a(S'tagFeature2'
S'CC'
tp474
a(S'chunkFeature1'
S'CCP'
p475
tp476
a(S'chunkFeature2'
S'CCP'
p477
tp478
a(S'chunkNeighbor_11'
S'NP'
p479
tp480
a(S'chunkNeighbor_-11'
g146
tp481
a(S'chunkNeighbor_12'
S'NP'
p482
tp483
a(S'chunkNeighbor_-12'
S'VGF'
p484
tp485
ag19
tp486
a(I30
(lp487
(g3
V\u092d\u0932\u0947..\u092a\u0930
tp488
a(S'tagFeature1'
S'RP'
tp489
a(S'tagFeature2'
S'CC'
tp490
a(S'chunkFeature1'
S'BLK'
p491
tp492
a(S'chunkFeature2'
g464
tp493
a(S'chunkNeighbor_11'
S'NP'
p494
tp495
a(S'chunkNeighbor_-11'
S'NP'
p496
tp497
a(S'chunkNeighbor_12'
g458
tp498
a(S'chunkNeighbor_-12'
S'VGF'
p499
tp500
ag19
tp501
a(I31
(lp502
(g3
V\u092d\u0932\u0947 \u0939\u0940..\u092a\u0930
tp503
a(S'tagFeature1'
S'RP-RP'
tp504
a(S'tagFeature2'
S'CC'
tp505
a(S'chunkFeature1'
S'BLK'
p506
tp507
a(S'chunkFeature2'
S'CCP'
p508
tp509
a(S'chunkNeighbor_11'
S'NP'
p510
tp511
a(S'chunkNeighbor_-11'
S'NP'
p512
tp513
a(S'chunkNeighbor_12'
S'NP'
p514
tp515
a(S'chunkNeighbor_-12'
S'VGF'
p516
tp517
ag66
tp518
a(I32
(lp519
(g3
V\u092d\u0932\u0947 \u0939\u0940..\u092a\u0930
tp520
a(S'tagFeature1'
S'RP-RP'
tp521
a(S'tagFeature2'
S'PSP'
tp522
a(S'chunkFeature1'
g506
tp523
a(S'chunkFeature2'
S'NP'
p524
tp525
a(S'chunkNeighbor_11'
g510
tp526
a(S'chunkNeighbor_-11'
g512
tp527
a(S'chunkNeighbor_12'
S'NP'
p528
tp529
a(S'chunkNeighbor_-12'
S'NP'
p530
tp531
ag66
tp532
a(I33
(lp533
(g3
V\u092d\u0932\u0947..\u092a\u0930
tp534
a(S'tagFeature1'
S'RP'
tp535
a(S'tagFeature2'
S'CC'
tp536
a(S'chunkFeature1'
g506
tp537
a(S'chunkFeature2'
g508
tp538
a(S'chunkNeighbor_11'
g510
tp539
a(S'chunkNeighbor_-11'
g512
tp540
a(S'chunkNeighbor_12'
g514
tp541
a(S'chunkNeighbor_-12'
g516
tp542
ag66
tp543
a(I34
(lp544
(g3
V\u092d\u0932\u0947..\u092a\u0930
tp545
a(S'tagFeature1'
S'RP'
tp546
a(S'tagFeature2'
S'PSP'
tp547
a(S'chunkFeature1'
g506
tp548
a(S'chunkFeature2'
g524
tp549
a(S'chunkNeighbor_11'
g510
tp550
a(S'chunkNeighbor_-11'
g512
tp551
a(S'chunkNeighbor_12'
g528
tp552
a(S'chunkNeighbor_-12'
g530
tp553
ag66
tp554
a(I35
(lp555
(g3
V\u092f\u0926\u093f..\u0924\u094b
tp556
a(S'tagFeature1'
S'CC'
tp557
a(S'tagFeature2'
S'CC'
tp558
a(S'chunkFeature1'
S'CCP'
p559
tp560
a(S'chunkFeature2'
S'CCP'
p561
tp562
a(S'chunkNeighbor_11'
S'NP'
p563
tp564
a(S'chunkNeighbor_-11'
g146
tp565
a(S'chunkNeighbor_12'
S'NP'
p566
tp567
a(S'chunkNeighbor_-12'
S'VGF'
p568
tp569
ag19
tp570
a(I36
(lp571
(g3
V\u0939\u093e\u0932\u093e\u0902\u0915\u093f..\u0932\u0947\u0915\u093f\u0928
tp572
a(S'tagFeature1'
S'CC'
tp573
a(S'tagFeature2'
S'CC'
tp574
a(S'chunkFeature1'
S'CCP'
p575
tp576
a(S'chunkFeature2'
S'CCP'
p577
tp578
a(S'chunkNeighbor_11'
S'NP'
p579
tp580
a(S'chunkNeighbor_-11'
g146
tp581
a(S'chunkNeighbor_12'
S'NP'
p582
tp583
a(S'chunkNeighbor_-12'
S'VGF'
p584
tp585
ag19
tp586
a(I37
(lp587
(g3
V\u0905\u0917\u0930..\u0924\u094b
tp588
a(S'tagFeature1'
S'CC'
tp589
a(S'tagFeature2'
S'CC'
tp590
a(S'chunkFeature1'
S'CCP'
p591
tp592
a(S'chunkFeature2'
S'CCP'
p593
tp594
a(S'chunkNeighbor_11'
S'NP'
p595
tp596
a(S'chunkNeighbor_-11'
S'CCP'
p597
tp598
a(S'chunkNeighbor_12'
S'NP'
p599
tp600
a(S'chunkNeighbor_-12'
S'VGF'
p601
tp602
ag19
tp603
a(I38
(lp604
(g3
V\u091c\u092c..\u0924\u092c
tp605
a(S'tagFeature1'
S'PRP'
tp606
a(S'tagFeature2'
S'PRP'
tp607
a(S'chunkFeature1'
S'NP'
p608
tp609
a(S'chunkFeature2'
S'NP'
p610
tp611
a(S'chunkNeighbor_11'
S'NP'
p612
tp613
a(S'chunkNeighbor_-11'
S'NP'
p614
tp615
a(S'chunkNeighbor_12'
S'NP'
p616
tp617
a(S'chunkNeighbor_-12'
S'VGF'
p618
tp619
ag19
tp620
a(I39
(lp621
(g3
V\u091c\u092c..\u0924\u092c
tp622
a(S'tagFeature1'
S'PRP'
tp623
a(S'tagFeature2'
S'PRP'
tp624
a(S'chunkFeature1'
S'NP'
p625
tp626
a(S'chunkFeature2'
S'NP'
p627
tp628
a(S'chunkNeighbor_11'
S'NP'
p629
tp630
a(S'chunkNeighbor_-11'
S'NP'
p631
tp632
a(S'chunkNeighbor_12'
S'NP'
p633
tp634
a(S'chunkNeighbor_-12'
S'VGF'
p635
tp636
ag19
tp637
a(I40
(lp638
(g3
V\u0924\u094b..\u0932\u0947\u0915\u093f\u0928
tp639
a(S'tagFeature1'
S'RP'
tp640
a(S'tagFeature2'
S'CC'
tp641
a(S'chunkFeature1'
S'NP'
p642
tp643
a(S'chunkFeature2'
S'CCP'
p644
tp645
a(S'chunkNeighbor_11'
S'JJP'
p646
tp647
a(S'chunkNeighbor_-11'
S'NP'
p648
tp649
a(S'chunkNeighbor_12'
S'NP'
p650
tp651
a(S'chunkNeighbor_-12'
S'VGF'
p652
tp653
ag66
tp654
a(I41
(lp655
(g3
V\u092a\u0939\u0932\u0947..\u0914\u0930 \u092c\u093e\u0926 \u092e\u0947\u0902
tp656
a(S'tagFeature1'
S'NST'
tp657
a(S'tagFeature2'
S'CC-NST-PSP'
tp658
a(S'chunkFeature1'
S'NP'
p659
tp660
a(S'chunkFeature2'
S'NP'
p661
tp662
a(S'chunkNeighbor_11'
S'NP'
p663
tp664
a(S'chunkNeighbor_-11'
S'NP'
p665
tp666
a(S'chunkNeighbor_12'
S'NP'
p667
tp668
a(S'chunkNeighbor_-12'
S'VGF'
p669
tp670
ag19
tp671
a(I42
(lp672
(g3
V\u0939\u093e\u0932\u093e\u0902\u0915\u093f..\u0932\u0947\u0915\u093f\u0928
tp673
a(S'tagFeature1'
S'CC'
tp674
a(S'tagFeature2'
S'CC'
tp675
a(S'chunkFeature1'
S'CCP'
p676
tp677
a(S'chunkFeature2'
S'CCP'
p678
tp679
a(S'chunkNeighbor_11'
S'NP'
p680
tp681
a(S'chunkNeighbor_-11'
g146
tp682
a(S'chunkNeighbor_12'
S'NP'
p683
tp684
a(S'chunkNeighbor_-12'
S'VGF'
p685
tp686
ag19
tp687
a(I43
(lp688
(g3
V\u0924\u092d\u0940..\u091c\u092c
tp689
a(S'tagFeature1'
S'PRP'
tp690
a(S'tagFeature2'
S'PRP'
tp691
a(S'chunkFeature1'
S'NP'
p692
tp693
a(S'chunkFeature2'
S'NP'
p694
tp695
a(S'chunkNeighbor_11'
S'NP'
p696
tp697
a(S'chunkNeighbor_-11'
S'NP'
p698
tp699
a(S'chunkNeighbor_12'
S'NP'
p700
tp701
a(S'chunkNeighbor_-12'
S'VGF'
p702
tp703
ag19
tp704
a(I44
(lp705
(g3
V\u091c\u092c..\u0924\u094b
tp706
a(S'tagFeature1'
S'PRP'
tp707
a(S'tagFeature2'
S'PRP'
tp708
a(S'chunkFeature1'
S'NP'
p709
tp710
a(S'chunkFeature2'
S'NP'
p711
tp712
a(S'chunkNeighbor_11'
S'NP'
p713
tp714
a(S'chunkNeighbor_-11'
g683
tp715
a(S'chunkNeighbor_12'
S'NP'
p716
tp717
a(S'chunkNeighbor_-12'
S'VGF'
p718
tp719
ag19
tp720
a(I45
(lp721
(g3
V\u091c\u092c..\u0924\u094b
tp722
a(S'tagFeature1'
S'PRP'
tp723
a(S'tagFeature2'
S'PRP'
tp724
a(S'chunkFeature1'
S'NP'
p725
tp726
a(S'chunkFeature2'
S'NP'
p727
tp728
a(S'chunkNeighbor_11'
S'NP'
p729
tp730
a(S'chunkNeighbor_-11'
S'NP'
p731
tp732
a(S'chunkNeighbor_12'
S'NP'
p733
tp734
a(S'chunkNeighbor_-12'
S'VGF'
p735
tp736
ag19
tp737
a(I46
(lp738
(g3
V\u0939\u093e\u0932\u093e\u0902\u0915\u093f..\u092a\u0930
tp739
a(S'tagFeature1'
S'CC'
tp740
a(S'tagFeature2'
S'PSP'
tp741
a(S'chunkFeature1'
g676
tp742
a(S'chunkFeature2'
g716
tp743
a(S'chunkNeighbor_11'
g680
tp744
a(S'chunkNeighbor_-11'
g146
tp745
a(S'chunkNeighbor_12'
S'NP'
p746
tp747
a(S'chunkNeighbor_-12'
g711
tp748
ag66
tp749
a(I47
(lp750
(g3
V\u0928 \u0924\u094b..\u0914\u0930 \u0928 \u0939\u0940
tp751
a(S'tagFeature1'
S'NEG-RP'
tp752
a(S'tagFeature2'
S'CC-NEG-RP'
tp753
a(S'chunkFeature1'
S'NEGP'
p754
tp755
a(S'chunkFeature2'
S'NEGP'
p756
tp757
a(S'chunkNeighbor_11'
S'NP'
p758
tp759
a(S'chunkNeighbor_-11'
S'NP'
p760
tp761
a(S'chunkNeighbor_12'
S'NP'
p762
tp763
a(S'chunkNeighbor_-12'
S'VGF'
p764
tp765
ag66
tp766
a(I48
(lp767
(g3
V\u092f\u093e \u0924\u094b..\u092f\u093e
tp768
a(S'tagFeature1'
S'CC-RP'
tp769
a(S'tagFeature2'
S'CC'
tp770
a(S'chunkFeature1'
S'CCP'
p771
tp772
a(S'chunkFeature2'
S'CCP'
p773
tp774
a(S'chunkNeighbor_11'
S'VGF'
p775
tp776
a(S'chunkNeighbor_-11'
S'NP'
p777
tp778
a(S'chunkNeighbor_12'
S'NP'
p779
tp780
a(S'chunkNeighbor_-12'
g775
tp781
ag66
tp782
a(I49
(lp783
(g3
V\u092f\u0926\u093f..\u0924\u094b
tp784
a(S'tagFeature1'
S'CC'
tp785
a(S'tagFeature2'
S'CC'
tp786
a(S'chunkFeature1'
S'CCP'
p787
tp788
a(S'chunkFeature2'
S'CCP'
p789
tp790
a(S'chunkNeighbor_11'
S'NP'
p791
tp792
a(S'chunkNeighbor_-11'
S'CCP'
p793
tp794
a(S'chunkNeighbor_12'
S'NP'
p795
tp796
a(S'chunkNeighbor_-12'
S'VGF'
p797
tp798
ag19
tp799
a(I50
(lp800
(g3
V\u0905\u0917\u0930..\u0924\u094b
tp801
a(S'tagFeature1'
S'CC'
tp802
a(S'tagFeature2'
S'CC'
tp803
a(S'chunkFeature1'
S'CCP'
p804
tp805
a(S'chunkFeature2'
S'CCP'
p806
tp807
a(S'chunkNeighbor_11'
S'NP'
p808
tp809
a(S'chunkNeighbor_-11'
S'CCP'
p810
tp811
a(S'chunkNeighbor_12'
S'NP'
p812
tp813
a(S'chunkNeighbor_-12'
S'VGF'
p814
tp815
ag66
tp816
a(I51
(lp817
(g3
V\u0924\u094b..\u0932\u0947\u0915\u093f\u0928
tp818
a(S'tagFeature1'
S'RP'
tp819
a(S'tagFeature2'
S'CC'
tp820
a(S'chunkFeature1'
S'NP'
p821
tp822
a(S'chunkFeature2'
S'CCP'
p823
tp824
a(S'chunkNeighbor_11'
S'NP'
p825
tp826
a(S'chunkNeighbor_-11'
S'NP'
p827
tp828
a(S'chunkNeighbor_12'
S'NP'
p829
tp830
a(S'chunkNeighbor_-12'
S'VGF'
p831
tp832
ag66
tp833
a(I52
(lp834
(g3
V\u0905\u0917\u0930..\u0924\u094b
tp835
a(S'tagFeature1'
S'CC'
tp836
a(S'tagFeature2'
S'CC'
tp837
a(S'chunkFeature1'
S'CCP'
p838
tp839
a(S'chunkFeature2'
S'CCP'
p840
tp841
a(S'chunkNeighbor_11'
S'NP'
p842
tp843
a(S'chunkNeighbor_-11'
S'NP'
p844
tp845
a(S'chunkNeighbor_12'
S'NP'
p846
tp847
a(S'chunkNeighbor_-12'
S'VGF'
p848
tp849
ag19
tp850
a(I53
(lp851
(g3
V\u092d\u0932\u0947 \u0939\u0940..\u0932\u0947\u0915\u093f\u0928
tp852
a(S'tagFeature1'
S'RP-RP'
tp853
a(S'tagFeature2'
S'CC'
tp854
a(S'chunkFeature1'
S'BLK'
p855
tp856
a(S'chunkFeature2'
S'CCP'
p857
tp858
a(S'chunkNeighbor_11'
S'NP'
p859
tp860
a(S'chunkNeighbor_-11'
S'NP'
p861
tp862
a(S'chunkNeighbor_12'
S'NP'
p863
tp864
a(S'chunkNeighbor_-12'
S'VGF'
p865
tp866
ag66
tp867
a(I54
(lp868
(g3
V\u091c\u092c..\u0924\u094b
tp869
a(S'tagFeature1'
S'PRP'
tp870
a(S'tagFeature2'
S'PRP'
tp871
a(S'chunkFeature1'
S'NP'
p872
tp873
a(S'chunkFeature2'
S'NP'
p874
tp875
a(S'chunkNeighbor_11'
S'NP'
p876
tp877
a(S'chunkNeighbor_-11'
S'NP'
p878
tp879
a(S'chunkNeighbor_12'
S'NP'
p880
tp881
a(S'chunkNeighbor_-12'
S'VGF'
p882
tp883
ag19
tp884
a(I55
(lp885
(g3
V\u091c\u092c..\u0924\u092c
tp886
a(S'tagFeature1'
S'PRP'
tp887
a(S'tagFeature2'
S'PRP'
tp888
a(S'chunkFeature1'
S'NP'
p889
tp890
a(S'chunkFeature2'
S'NP'
p891
tp892
a(S'chunkNeighbor_11'
S'NP'
p893
tp894
a(S'chunkNeighbor_-11'
g146
tp895
a(S'chunkNeighbor_12'
S'NP'
p896
tp897
a(S'chunkNeighbor_-12'
S'VGF'
p898
tp899
ag19
tp900
a(I56
(lp901
(g3
V\u0928 \u0924\u094b..\u0914\u0930 \u0928 \u0939\u0940
tp902
a(S'tagFeature1'
S'NEG-RP'
tp903
a(S'tagFeature2'
S'CC-NEG-RP'
tp904
a(S'chunkFeature1'
S'NEGP'
p905
tp906
a(S'chunkFeature2'
S'NEGP'
p907
tp908
a(S'chunkNeighbor_11'
S'NP'
p909
tp910
a(S'chunkNeighbor_-11'
S'CCP'
p911
tp912
a(S'chunkNeighbor_12'
S'NP'
p913
tp914
a(S'chunkNeighbor_-12'
S'VGF'
p915
tp916
ag66
tp917
a(I57
(lp918
(g3
V\u091c\u092c..\u0924\u094b
tp919
a(S'tagFeature1'
S'PRP'
tp920
a(S'tagFeature2'
S'PRP'
tp921
a(S'chunkFeature1'
S'NP'
p922
tp923
a(S'chunkFeature2'
S'NP'
p924
tp925
a(S'chunkNeighbor_11'
S'NP'
p926
tp927
a(S'chunkNeighbor_-11'
S'NP'
p928
tp929
a(S'chunkNeighbor_12'
S'NP'
p930
tp931
a(S'chunkNeighbor_-12'
S'VGF'
p932
tp933
ag19
tp934
a(I58
(lp935
(g3
V\u092d\u0932\u0947 \u0939\u0940..\u0932\u0947\u0915\u093f\u0928
tp936
a(S'tagFeature1'
S'RP-RP'
tp937
a(S'tagFeature2'
S'CC'
tp938
a(S'chunkFeature1'
S'BLK'
p939
tp940
a(S'chunkFeature2'
S'CCP'
p941
tp942
a(S'chunkNeighbor_11'
S'NP'
p943
tp944
a(S'chunkNeighbor_-11'
S'NP'
p945
tp946
a(S'chunkNeighbor_12'
S'NP'
p947
tp948
a(S'chunkNeighbor_-12'
S'VGF'
p949
tp950
ag66
tp951
a(I59
(lp952
(g3
V\u0924\u094b..\u0932\u0947\u0915\u093f\u0928
tp953
a(S'tagFeature1'
S'RP'
tp954
a(S'tagFeature2'
S'CC'
tp955
a(S'chunkFeature1'
S'NP'
p956
tp957
a(S'chunkFeature2'
S'CCP'
p958
tp959
a(S'chunkNeighbor_11'
S'VGF'
p960
tp961
a(S'chunkNeighbor_-11'
S'NP'
p962
tp963
a(S'chunkNeighbor_12'
S'NP'
p964
tp965
a(S'chunkNeighbor_-12'
g960
tp966
ag66
tp967
a(I60
(lp968
(g3
V\u0939\u093e\u0932\u093e\u0902\u0915\u093f..\u0932\u0947\u0915\u093f\u0928
tp969
a(S'tagFeature1'
S'CC'
tp970
a(S'tagFeature2'
S'CC'
tp971
a(S'chunkFeature1'
S'CCP'
p972
tp973
a(S'chunkFeature2'
S'CCP'
p974
tp975
a(S'chunkNeighbor_11'
S'NP'
p976
tp977
a(S'chunkNeighbor_-11'
g146
tp978
a(S'chunkNeighbor_12'
S'NP'
p979
tp980
a(S'chunkNeighbor_-12'
S'VGF'
p981
tp982
ag19
tp983
a(I61
(lp984
(g3
V\u092f\u0926\u093f..\u0924\u094b
tp985
a(S'tagFeature1'
S'CC'
tp986
a(S'tagFeature2'
S'CC'
tp987
a(S'chunkFeature1'
S'CCP'
p988
tp989
a(S'chunkFeature2'
S'CCP'
p990
tp991
a(S'chunkNeighbor_11'
S'NP'
p992
tp993
a(S'chunkNeighbor_-11'
g146
tp994
a(S'chunkNeighbor_12'
S'RBP'
p995
tp996
a(S'chunkNeighbor_-12'
S'VGF'
p997
tp998
ag19
tp999
a(I62
(lp1000
(g3
V\u0939\u093e\u0932\u093e\u0902\u0915\u093f..\u0932\u0947\u0915\u093f\u0928
tp1001
a(S'tagFeature1'
S'CC'
tp1002
a(S'tagFeature2'
S'CC'
tp1003
a(S'chunkFeature1'
S'CCP'
p1004
tp1005
a(S'chunkFeature2'
S'CCP'
p1006
tp1007
a(S'chunkNeighbor_11'
S'NP'
p1008
tp1009
a(S'chunkNeighbor_-11'
g146
tp1010
a(S'chunkNeighbor_12'
S'NP'
p1011
tp1012
a(S'chunkNeighbor_-12'
S'VGF'
p1013
tp1014
ag19
tp1015
a(I63
(lp1016
(g3
V\u0939\u093e\u0932\u093e\u0902\u0915\u093f..\u092a\u0930
tp1017
a(S'tagFeature1'
S'CC'
tp1018
a(S'tagFeature2'
S'PSP'
tp1019
a(S'chunkFeature1'
g1004
tp1020
a(S'chunkFeature2'
S'NP'
p1021
tp1022
a(S'chunkNeighbor_11'
g1008
tp1023
a(S'chunkNeighbor_-11'
g146
tp1024
a(S'chunkNeighbor_12'
S'VGNF'
p1025
tp1026
a(S'chunkNeighbor_-12'
g1011
tp1027
ag66
tp1028
a(I64
(lp1029
(g3
V\u0928 \u0924\u094b..\u0914\u0930 \u0928 \u0939\u0940
tp1030
a(S'tagFeature1'
S'NEG-RP'
tp1031
a(S'tagFeature2'
S'CC-NEG-RP'
tp1032
a(S'chunkFeature1'
S'NEGP'
p1033
tp1034
a(S'chunkFeature2'
S'NEGP'
p1035
tp1036
a(S'chunkNeighbor_11'
S'NP'
p1037
tp1038
a(S'chunkNeighbor_-11'
S'NP'
p1039
tp1040
a(S'chunkNeighbor_12'
S'NP'
p1041
tp1042
a(S'chunkNeighbor_-12'
g1037
tp1043
ag66
tp1044
a(I65
(lp1045
(g3
V\u0928 \u0924\u094b..\u0914\u0930 \u0928 \u0939\u0940
tp1046
a(S'tagFeature1'
S'NEG-RP'
tp1047
a(S'tagFeature2'
S'CC-NEG-RP'
tp1048
a(S'chunkFeature1'
S'NEGP'
p1049
tp1050
a(S'chunkFeature2'
S'NEGP'
p1051
tp1052
a(S'chunkNeighbor_11'
S'NP'
p1053
tp1054
a(S'chunkNeighbor_-11'
S'NP'
p1055
tp1056
a(S'chunkNeighbor_12'
S'NP'
p1057
tp1058
a(S'chunkNeighbor_-12'
S'VGF'
p1059
tp1060
ag66
tp1061
a(I66
(lp1062
(g3
V\u091c\u092c..\u0924\u092c
tp1063
a(S'tagFeature1'
S'PRP'
tp1064
a(S'tagFeature2'
S'PRP'
tp1065
a(S'chunkFeature1'
S'NP'
p1066
tp1067
a(S'chunkFeature2'
S'NP'
p1068
tp1069
a(S'chunkNeighbor_11'
S'NP'
p1070
tp1071
a(S'chunkNeighbor_-11'
S'CCP'
p1072
tp1073
a(S'chunkNeighbor_12'
S'NP'
p1074
tp1075
a(S'chunkNeighbor_-12'
S'VGF'
p1076
tp1077
ag19
tp1078
a(I67
(lp1079
(g3
V\u091c\u092c..\u0924\u094b
tp1080
a(S'tagFeature1'
S'PRP'
tp1081
a(S'tagFeature2'
S'RP'
tp1082
a(S'chunkFeature1'
g1066
tp1083
a(S'chunkFeature2'
S'NP'
p1084
tp1085
a(S'chunkNeighbor_11'
g1070
tp1086
a(S'chunkNeighbor_-11'
g1072
tp1087
a(S'chunkNeighbor_12'
S'NP'
p1088
tp1089
a(S'chunkNeighbor_-12'
S'CCP'
p1090
tp1091
ag66
tp1092
a(I68
(lp1093
(g3
V\u092f\u0926\u093f..\u0924\u094b
tp1094
a(S'tagFeature1'
S'CC'
tp1095
a(S'tagFeature2'
S'CC'
tp1096
a(S'chunkFeature1'
S'CCP'
p1097
tp1098
a(S'chunkFeature2'
S'CCP'
p1099
tp1100
a(S'chunkNeighbor_11'
S'NP'
p1101
tp1102
a(S'chunkNeighbor_-11'
S'NP'
p1103
tp1104
a(S'chunkNeighbor_12'
S'NP'
p1105
tp1106
a(S'chunkNeighbor_-12'
S'VGF'
p1107
tp1108
ag19
tp1109
a(I69
(lp1110
(g3
V\u090f\u0915 \u0913\u0930..\u0935\u0939\u0940\u0902 \u0926\u0942\u0938\u0930\u0940 \u0913\u0930
tp1111
a(S'tagFeature1'
S'QC-NST'
tp1112
a(S'tagFeature2'
S'RB-QO-NST'
tp1113
a(S'chunkFeature1'
S'NP'
p1114
tp1115
a(S'chunkFeature2'
S'NP'
p1116
tp1117
a(S'chunkNeighbor_11'
S'NP'
p1118
tp1119
a(S'chunkNeighbor_-11'
g146
tp1120
a(S'chunkNeighbor_12'
S'NP'
p1121
tp1122
a(S'chunkNeighbor_-12'
S'VGF'
p1123
tp1124
ag66
tp1125
a(I70
(lp1126
(g3
V\u091c\u092c..\u0924\u092c
tp1127
a(S'tagFeature1'
S'PRP'
tp1128
a(S'tagFeature2'
S'PRP'
tp1129
a(S'chunkFeature1'
S'NP'
p1130
tp1131
a(S'chunkFeature2'
S'NP'
p1132
tp1133
a(S'chunkNeighbor_11'
S'NP'
p1134
tp1135
a(S'chunkNeighbor_-11'
S'NP'
p1136
tp1137
a(S'chunkNeighbor_12'
S'NP'
p1138
tp1139
a(S'chunkNeighbor_-12'
S'VGF'
p1140
tp1141
ag19
tp1142
a(I71
(lp1143
(g3
V\u090f\u0915 \u0924\u0930\u092b..\u0914\u0930 \u0926\u0942\u0938\u0930\u0940 \u0924\u0930\u092b
tp1144
a(S'tagFeature1'
S'QC-NST'
tp1145
a(S'tagFeature2'
S'CC-QO-NST'
tp1146
a(S'chunkFeature1'
S'NP'
p1147
tp1148
a(S'chunkFeature2'
S'NP'
p1149
tp1150
a(S'chunkNeighbor_11'
S'NP'
p1151
tp1152
a(S'chunkNeighbor_-11'
S'CCP'
p1153
tp1154
a(S'chunkNeighbor_12'
S'NP'
p1155
tp1156
a(S'chunkNeighbor_-12'
S'VGF'
p1157
tp1158
ag66
tp1159
a(I72
(lp1160
(g3
V\u0924\u094b..\u0932\u0947\u0915\u093f\u0928
tp1161
a(S'tagFeature1'
S'RP'
tp1162
a(S'tagFeature2'
S'CC'
tp1163
a(S'chunkFeature1'
S'NP'
p1164
tp1165
a(S'chunkFeature2'
S'CCP'
p1166
tp1167
a(S'chunkNeighbor_11'
S'NP'
p1168
tp1169
a(S'chunkNeighbor_-11'
S'CCP'
p1170
tp1171
a(S'chunkNeighbor_12'
S'NP'
p1172
tp1173
a(S'chunkNeighbor_-12'
S'VGF'
p1174
tp1175
ag66
tp1176
a(I73
(lp1177
(g3
V\u0924\u094b..\u0932\u0947\u0915\u093f\u0928
tp1178
a(S'tagFeature1'
S'RP'
tp1179
a(S'tagFeature2'
S'CC'
tp1180
a(S'chunkFeature1'
S'NP'
p1181
tp1182
a(S'chunkFeature2'
S'CCP'
p1183
tp1184
a(S'chunkNeighbor_11'
S'VGF'
p1185
tp1186
a(S'chunkNeighbor_-11'
S'NP'
p1187
tp1188
a(S'chunkNeighbor_12'
S'NP'
p1189
tp1190
a(S'chunkNeighbor_-12'
g1185
tp1191
ag19
tp1192
a(I74
(lp1193
(g3
V\u092f\u0926\u093f..\u0924\u094b
tp1194
a(S'tagFeature1'
S'CC'
tp1195
a(S'tagFeature2'
S'CC'
tp1196
a(S'chunkFeature1'
S'CCP'
p1197
tp1198
a(S'chunkFeature2'
S'CCP'
p1199
tp1200
a(S'chunkNeighbor_11'
S'NP'
p1201
tp1202
a(S'chunkNeighbor_-11'
S'NP'
p1203
tp1204
a(S'chunkNeighbor_12'
S'NP'
p1205
tp1206
a(S'chunkNeighbor_-12'
S'VGF'
p1207
tp1208
ag19
tp1209
a(I75
(lp1210
(g3
V\u091c\u0948\u0938\u0947 \u0939\u0940..\u0924\u094b
tp1211
a(S'tagFeature1'
S'RB-RP'
tp1212
a(S'tagFeature2'
S'CC'
tp1213
a(S'chunkFeature1'
S'RBP'
p1214
tp1215
a(S'chunkFeature2'
S'CCP'
p1216
tp1217
a(S'chunkNeighbor_11'
S'NP'
p1218
tp1219
a(S'chunkNeighbor_-11'
S'NP'
p1220
tp1221
a(S'chunkNeighbor_12'
S'NP'
p1222
tp1223
a(S'chunkNeighbor_-12'
S'VGF'
p1224
tp1225
ag66
tp1226
a(I76
(lp1227
(g3
V\u0905\u0917\u0930..\u0924\u094b
tp1228
a(S'tagFeature1'
S'CC'
tp1229
a(S'tagFeature2'
S'CC'
tp1230
a(S'chunkFeature1'
S'CCP'
p1231
tp1232
a(S'chunkFeature2'
S'CCP'
p1233
tp1234
a(S'chunkNeighbor_11'
S'NP'
p1235
tp1236
a(S'chunkNeighbor_-11'
g146
tp1237
a(S'chunkNeighbor_12'
S'NP'
p1238
tp1239
a(S'chunkNeighbor_-12'
S'VGF'
p1240
tp1241
ag19
tp1242
a(I77
(lp1243
(g3
V\u0905\u0917\u0930..\u0924\u094b
tp1244
a(S'tagFeature1'
S'CC'
tp1245
a(S'tagFeature2'
S'CC'
tp1246
a(S'chunkFeature1'
S'CCP'
p1247
tp1248
a(S'chunkFeature2'
S'CCP'
p1249
tp1250
a(S'chunkNeighbor_11'
S'NP'
p1251
tp1252
a(S'chunkNeighbor_-11'
S'NP'
p1253
tp1254
a(S'chunkNeighbor_12'
S'NP'
p1255
tp1256
a(S'chunkNeighbor_-12'
S'VGF'
p1257
tp1258
ag19
tp1259
a(I78
(lp1260
(g3
V\u0905\u0917\u0930..\u0924\u094b
tp1261
a(S'tagFeature1'
S'CC'
tp1262
a(S'tagFeature2'
S'CC'
tp1263
a(S'chunkFeature1'
S'CCP'
p1264
tp1265
a(S'chunkFeature2'
S'CCP'
p1266
tp1267
a(S'chunkNeighbor_11'
S'NP'
p1268
tp1269
a(S'chunkNeighbor_-11'
S'CCP'
p1270
tp1271
a(S'chunkNeighbor_12'
S'NP'
p1272
tp1273
a(S'chunkNeighbor_-12'
S'VGF'
p1274
tp1275
ag19
tp1276
a(I79
(lp1277
(g3
V\u0905\u0917\u0930..\u0924\u094b
tp1278
a(S'tagFeature1'
S'CC'
tp1279
a(S'tagFeature2'
S'CC'
tp1280
a(S'chunkFeature1'
S'CCP'
p1281
tp1282
a(S'chunkFeature2'
S'CCP'
p1283
tp1284
a(S'chunkNeighbor_11'
S'NP'
p1285
tp1286
a(S'chunkNeighbor_-11'
S'CCP'
p1287
tp1288
a(S'chunkNeighbor_12'
S'NP'
p1289
tp1290
a(S'chunkNeighbor_-12'
S'VGF'
p1291
tp1292
ag19
tp1293
a(I80
(lp1294
(g3
V\u092f\u0926\u094d\u092f\u092a\u093f..\u092a\u0930
tp1295
a(S'tagFeature1'
S'CC'
tp1296
a(S'tagFeature2'
S'CC'
tp1297
a(S'chunkFeature1'
S'CCP'
p1298
tp1299
a(S'chunkFeature2'
S'CCP'
p1300
tp1301
a(S'chunkNeighbor_11'
S'NP'
p1302
tp1303
a(S'chunkNeighbor_-11'
S'NP'
p1304
tp1305
a(S'chunkNeighbor_12'
S'NP'
p1306
tp1307
a(S'chunkNeighbor_-12'
S'VGF'
p1308
tp1309
ag19
tp1310
a(I81
(lp1311
(g3
V\u0905\u0917\u0930..\u0924\u094b
tp1312
a(S'tagFeature1'
S'CC'
tp1313
a(S'tagFeature2'
S'CC'
tp1314
a(S'chunkFeature1'
S'CCP'
p1315
tp1316
a(S'chunkFeature2'
S'CCP'
p1317
tp1318
a(S'chunkNeighbor_11'
S'NP'
p1319
tp1320
a(S'chunkNeighbor_-11'
g146
tp1321
a(S'chunkNeighbor_12'
S'NP'
p1322
tp1323
a(S'chunkNeighbor_-12'
S'VGF'
p1324
tp1325
ag19
tp1326
a(I82
(lp1327
(g3
V\u092f\u0926\u093f..\u0924\u094b
tp1328
a(S'tagFeature1'
S'CC'
tp1329
a(S'tagFeature2'
S'CC'
tp1330
a(S'chunkFeature1'
S'CCP'
p1331
tp1332
a(S'chunkFeature2'
S'CCP'
p1333
tp1334
a(S'chunkNeighbor_11'
S'NP'
p1335
tp1336
a(S'chunkNeighbor_-11'
S'NP'
p1337
tp1338
a(S'chunkNeighbor_12'
S'NP'
p1339
tp1340
a(S'chunkNeighbor_-12'
S'VGF'
p1341
tp1342
ag19
tp1343
a(I83
(lp1344
(g3
V\u0905\u0917\u0930..\u0924\u094b
tp1345
a(S'tagFeature1'
S'CC'
tp1346
a(S'tagFeature2'
S'CC'
tp1347
a(S'chunkFeature1'
S'CCP'
p1348
tp1349
a(S'chunkFeature2'
S'CCP'
p1350
tp1351
a(S'chunkNeighbor_11'
S'NP'
p1352
tp1353
a(S'chunkNeighbor_-11'
g146
tp1354
a(S'chunkNeighbor_12'
S'JJP'
p1355
tp1356
a(S'chunkNeighbor_-12'
S'VGF'
p1357
tp1358
ag19
tp1359
a(I84
(lp1360
(g3
V\u091c\u092c..\u0924\u094b
tp1361
a(S'tagFeature1'
S'PRP'
tp1362
a(S'tagFeature2'
S'PRP'
tp1363
a(S'chunkFeature1'
S'NP'
p1364
tp1365
a(S'chunkFeature2'
S'NP'
p1366
tp1367
a(S'chunkNeighbor_11'
S'NEGP'
p1368
tp1369
a(S'chunkNeighbor_-11'
S'NP'
p1370
tp1371
a(S'chunkNeighbor_12'
S'NP'
p1372
tp1373
a(S'chunkNeighbor_-12'
S'VGF'
p1374
tp1375
ag19
tp1376
a.